
kernel.elf:     file format elf32-littlearm


Disassembly of section .text:

08010000 <vector_table>:
 8010000:	00 fa 00 10 ed 4d 01 08 8d 71 01 08 8d 71 01 08     .....M...q...q..
 8010010:	8d 71 01 08 8d 71 01 08 8d 71 01 08 00 00 00 00     .q...q...q......
	...
 801002c:	07 72 01 08 8d 71 01 08 00 00 00 00 11 55 01 08     .r...q.......U..
 801003c:	b1 60 01 08 8d 71 01 08 8d 71 01 08 8d 71 01 08     .`...q...q...q..
 801004c:	8d 71 01 08 8d 71 01 08 8d 71 01 08 8d 71 01 08     .q...q...q...q..
 801005c:	8d 71 01 08 8d 71 01 08 8d 71 01 08 8d 71 01 08     .q...q...q...q..
 801006c:	8d 71 01 08 8d 71 01 08 8d 71 01 08 8d 71 01 08     .q...q...q...q..
 801007c:	8d 71 01 08 8d 71 01 08 8d 71 01 08 8d 71 01 08     .q...q...q...q..
 801008c:	8d 71 01 08 8d 71 01 08 8d 71 01 08 8d 71 01 08     .q...q...q...q..
 801009c:	8d 71 01 08 8d 71 01 08 8d 71 01 08 8d 71 01 08     .q...q...q...q..
 80100ac:	8d 71 01 08 95 4e 01 08 8d 71 01 08 8d 71 01 08     .q...N...q...q..
 80100bc:	8d 71 01 08 8d 71 01 08 8d 71 01 08 8d 71 01 08     .q...q...q...q..
 80100cc:	8d 71 01 08 8d 71 01 08 cd 70 01 08 8d 71 01 08     .q...q...p...q..
 80100dc:	8d 71 01 08 8d 71 01 08 8d 71 01 08 8d 71 01 08     .q...q...q...q..
 80100ec:	8d 71 01 08 8d 71 01 08 8d 71 01 08 8d 71 01 08     .q...q...q...q..
 80100fc:	8d 71 01 08 8d 71 01 08 8d 71 01 08 8d 71 01 08     .q...q...q...q..
 801010c:	8d 71 01 08 8d 71 01 08 8d 71 01 08 8d 71 01 08     .q...q...q...q..
 801011c:	8d 71 01 08 8d 71 01 08 8d 71 01 08 8d 71 01 08     .q...q...q...q..
 801012c:	8d 71 01 08 8d 71 01 08 8d 71 01 08 8d 71 01 08     .q...q...q...q..
 801013c:	8d 71 01 08 8d 71 01 08 8d 71 01 08 8d 71 01 08     .q...q...q...q..
 801014c:	8d 71 01 08 8d 71 01 08 8d 71 01 08 8d 71 01 08     .q...q...q...q..
 801015c:	8d 71 01 08 8d 71 01 08 8d 71 01 08 8d 71 01 08     .q...q...q...q..
 801016c:	8d 71 01 08 8d 71 01 08 8d 71 01 08 8d 71 01 08     .q...q...q...q..
 801017c:	8d 71 01 08 8d 71 01 08 8d 71 01 08                 .q...q...q..

08010188 <_prtl10>:
 8010188:	b084      	sub	sp, #16
 801018a:	2300      	movs	r3, #0
 801018c:	f88d 3004 	strb.w	r3, [sp, #4]
 8010190:	2800      	cmp	r0, #0
 8010192:	db15      	blt.n	80101c0 <_prtl10+0x38>
 8010194:	4a2a      	ldr	r2, [pc, #168]	@ (8010240 <_prtl10+0xb8>)
 8010196:	fb82 3200 	smull	r3, r2, r2, r0
 801019a:	17c3      	asrs	r3, r0, #31
 801019c:	ebc3 03a2 	rsb	r3, r3, r2, asr #2
 80101a0:	eb03 0383 	add.w	r3, r3, r3, lsl #2
 80101a4:	eba0 0343 	sub.w	r3, r0, r3, lsl #1
 80101a8:	b2db      	uxtb	r3, r3
 80101aa:	3330      	adds	r3, #48	@ 0x30
 80101ac:	b2db      	uxtb	r3, r3
 80101ae:	f88d 3005 	strb.w	r3, [sp, #5]
 80101b2:	2800      	cmp	r0, #0
 80101b4:	db13      	blt.n	80101de <_prtl10+0x56>
 80101b6:	230a      	movs	r3, #10
 80101b8:	fb90 f0f3 	sdiv	r0, r0, r3
 80101bc:	2202      	movs	r2, #2
 80101be:	e024      	b.n	801020a <_prtl10+0x82>
 80101c0:	4a1f      	ldr	r2, [pc, #124]	@ (8010240 <_prtl10+0xb8>)
 80101c2:	fb82 3200 	smull	r3, r2, r2, r0
 80101c6:	17c3      	asrs	r3, r0, #31
 80101c8:	ebc3 03a2 	rsb	r3, r3, r2, asr #2
 80101cc:	eb03 0383 	add.w	r3, r3, r3, lsl #2
 80101d0:	eba0 0343 	sub.w	r3, r0, r3, lsl #1
 80101d4:	b2db      	uxtb	r3, r3
 80101d6:	f1c3 0330 	rsb	r3, r3, #48	@ 0x30
 80101da:	b2db      	uxtb	r3, r3
 80101dc:	e7e7      	b.n	80101ae <_prtl10+0x26>
 80101de:	f06f 0309 	mvn.w	r3, #9
 80101e2:	e7e9      	b.n	80101b8 <_prtl10+0x30>
 80101e4:	4b16      	ldr	r3, [pc, #88]	@ (8010240 <_prtl10+0xb8>)
 80101e6:	fb83 3c00 	smull	r3, ip, r3, r0
 80101ea:	17c3      	asrs	r3, r0, #31
 80101ec:	ebc3 03ac 	rsb	r3, r3, ip, asr #2
 80101f0:	469c      	mov	ip, r3
 80101f2:	eb03 0383 	add.w	r3, r3, r3, lsl #2
 80101f6:	eba0 0343 	sub.w	r3, r0, r3, lsl #1
 80101fa:	3330      	adds	r3, #48	@ 0x30
 80101fc:	f102 0010 	add.w	r0, r2, #16
 8010200:	4468      	add	r0, sp
 8010202:	f800 3c0c 	strb.w	r3, [r0, #-12]
 8010206:	4660      	mov	r0, ip
 8010208:	3201      	adds	r2, #1
 801020a:	2a0a      	cmp	r2, #10
 801020c:	ddea      	ble.n	80101e4 <_prtl10+0x5c>
 801020e:	230a      	movs	r3, #10
 8010210:	e000      	b.n	8010214 <_prtl10+0x8c>
 8010212:	3b01      	subs	r3, #1
 8010214:	f103 0210 	add.w	r2, r3, #16
 8010218:	446a      	add	r2, sp
 801021a:	f812 2c0c 	ldrb.w	r2, [r2, #-12]
 801021e:	2a30      	cmp	r2, #48	@ 0x30
 8010220:	d0f7      	beq.n	8010212 <_prtl10+0x8a>
 8010222:	b94b      	cbnz	r3, 8010238 <_prtl10+0xb0>
 8010224:	3301      	adds	r3, #1
 8010226:	e007      	b.n	8010238 <_prtl10+0xb0>
 8010228:	f103 0210 	add.w	r2, r3, #16
 801022c:	446a      	add	r2, sp
 801022e:	f812 2c0c 	ldrb.w	r2, [r2, #-12]
 8010232:	f801 2b01 	strb.w	r2, [r1], #1
 8010236:	3b01      	subs	r3, #1
 8010238:	2b00      	cmp	r3, #0
 801023a:	daf5      	bge.n	8010228 <_prtl10+0xa0>
 801023c:	b004      	add	sp, #16
 801023e:	4770      	bx	lr
 8010240:	66666667 	.word	0x66666667

08010244 <_prtl8>:
 8010244:	b084      	sub	sp, #16
 8010246:	2300      	movs	r3, #0
 8010248:	f88d 3004 	strb.w	r3, [sp, #4]
 801024c:	2301      	movs	r3, #1
 801024e:	e009      	b.n	8010264 <_prtl8+0x20>
 8010250:	f000 0207 	and.w	r2, r0, #7
 8010254:	3230      	adds	r2, #48	@ 0x30
 8010256:	f103 0c10 	add.w	ip, r3, #16
 801025a:	44ec      	add	ip, sp
 801025c:	f80c 2c0c 	strb.w	r2, [ip, #-12]
 8010260:	10c0      	asrs	r0, r0, #3
 8010262:	3301      	adds	r3, #1
 8010264:	2b0b      	cmp	r3, #11
 8010266:	ddf3      	ble.n	8010250 <_prtl8+0xc>
 8010268:	f89d 300f 	ldrb.w	r3, [sp, #15]
 801026c:	f003 0333 	and.w	r3, r3, #51	@ 0x33
 8010270:	f88d 300f 	strb.w	r3, [sp, #15]
 8010274:	230b      	movs	r3, #11
 8010276:	e000      	b.n	801027a <_prtl8+0x36>
 8010278:	3b01      	subs	r3, #1
 801027a:	f103 0210 	add.w	r2, r3, #16
 801027e:	446a      	add	r2, sp
 8010280:	f812 2c0c 	ldrb.w	r2, [r2, #-12]
 8010284:	2a30      	cmp	r2, #48	@ 0x30
 8010286:	d0f7      	beq.n	8010278 <_prtl8+0x34>
 8010288:	b94b      	cbnz	r3, 801029e <_prtl8+0x5a>
 801028a:	3301      	adds	r3, #1
 801028c:	e007      	b.n	801029e <_prtl8+0x5a>
 801028e:	f103 0210 	add.w	r2, r3, #16
 8010292:	446a      	add	r2, sp
 8010294:	f812 2c0c 	ldrb.w	r2, [r2, #-12]
 8010298:	f801 2b01 	strb.w	r2, [r1], #1
 801029c:	3b01      	subs	r3, #1
 801029e:	2b00      	cmp	r3, #0
 80102a0:	daf5      	bge.n	801028e <_prtl8+0x4a>
 80102a2:	b004      	add	sp, #16
 80102a4:	4770      	bx	lr

080102a6 <_prtl16>:
 80102a6:	b410      	push	{r4}
 80102a8:	b085      	sub	sp, #20
 80102aa:	2300      	movs	r3, #0
 80102ac:	f88d 3004 	strb.w	r3, [sp, #4]
 80102b0:	2301      	movs	r3, #1
 80102b2:	e00b      	b.n	80102cc <_prtl16+0x26>
 80102b4:	f000 020f 	and.w	r2, r0, #15
 80102b8:	4c13      	ldr	r4, [pc, #76]	@ (8010308 <_prtl16+0x62>)
 80102ba:	f814 c002 	ldrb.w	ip, [r4, r2]
 80102be:	f103 0210 	add.w	r2, r3, #16
 80102c2:	446a      	add	r2, sp
 80102c4:	f802 cc0c 	strb.w	ip, [r2, #-12]
 80102c8:	1100      	asrs	r0, r0, #4
 80102ca:	3301      	adds	r3, #1
 80102cc:	2b08      	cmp	r3, #8
 80102ce:	ddf1      	ble.n	80102b4 <_prtl16+0xe>
 80102d0:	2308      	movs	r3, #8
 80102d2:	e000      	b.n	80102d6 <_prtl16+0x30>
 80102d4:	3b01      	subs	r3, #1
 80102d6:	f103 0210 	add.w	r2, r3, #16
 80102da:	446a      	add	r2, sp
 80102dc:	f812 2c0c 	ldrb.w	r2, [r2, #-12]
 80102e0:	2a30      	cmp	r2, #48	@ 0x30
 80102e2:	d0f7      	beq.n	80102d4 <_prtl16+0x2e>
 80102e4:	b94b      	cbnz	r3, 80102fa <_prtl16+0x54>
 80102e6:	3301      	adds	r3, #1
 80102e8:	e007      	b.n	80102fa <_prtl16+0x54>
 80102ea:	f103 0210 	add.w	r2, r3, #16
 80102ee:	446a      	add	r2, sp
 80102f0:	f812 2c0c 	ldrb.w	r2, [r2, #-12]
 80102f4:	f801 2b01 	strb.w	r2, [r1], #1
 80102f8:	3b01      	subs	r3, #1
 80102fa:	2b00      	cmp	r3, #0
 80102fc:	daf5      	bge.n	80102ea <_prtl16+0x44>
 80102fe:	b005      	add	sp, #20
 8010300:	f85d 4b04 	ldr.w	r4, [sp], #4
 8010304:	4770      	bx	lr
 8010306:	bf00      	nop
 8010308:	0801c6a0 	.word	0x0801c6a0

0801030c <_prtX16>:
 801030c:	b410      	push	{r4}
 801030e:	b085      	sub	sp, #20
 8010310:	2300      	movs	r3, #0
 8010312:	f88d 3004 	strb.w	r3, [sp, #4]
 8010316:	2301      	movs	r3, #1
 8010318:	e00b      	b.n	8010332 <_prtX16+0x26>
 801031a:	f000 020f 	and.w	r2, r0, #15
 801031e:	4c13      	ldr	r4, [pc, #76]	@ (801036c <_prtX16+0x60>)
 8010320:	f814 c002 	ldrb.w	ip, [r4, r2]
 8010324:	f103 0210 	add.w	r2, r3, #16
 8010328:	446a      	add	r2, sp
 801032a:	f802 cc0c 	strb.w	ip, [r2, #-12]
 801032e:	1100      	asrs	r0, r0, #4
 8010330:	3301      	adds	r3, #1
 8010332:	2b08      	cmp	r3, #8
 8010334:	ddf1      	ble.n	801031a <_prtX16+0xe>
 8010336:	2308      	movs	r3, #8
 8010338:	e000      	b.n	801033c <_prtX16+0x30>
 801033a:	3b01      	subs	r3, #1
 801033c:	f103 0210 	add.w	r2, r3, #16
 8010340:	446a      	add	r2, sp
 8010342:	f812 2c0c 	ldrb.w	r2, [r2, #-12]
 8010346:	2a30      	cmp	r2, #48	@ 0x30
 8010348:	d0f7      	beq.n	801033a <_prtX16+0x2e>
 801034a:	b94b      	cbnz	r3, 8010360 <_prtX16+0x54>
 801034c:	3301      	adds	r3, #1
 801034e:	e007      	b.n	8010360 <_prtX16+0x54>
 8010350:	f103 0210 	add.w	r2, r3, #16
 8010354:	446a      	add	r2, sp
 8010356:	f812 2c0c 	ldrb.w	r2, [r2, #-12]
 801035a:	f801 2b01 	strb.w	r2, [r1], #1
 801035e:	3b01      	subs	r3, #1
 8010360:	2b00      	cmp	r3, #0
 8010362:	daf5      	bge.n	8010350 <_prtX16+0x44>
 8010364:	b005      	add	sp, #20
 8010366:	f85d 4b04 	ldr.w	r4, [sp], #4
 801036a:	4770      	bx	lr
 801036c:	0801c6b4 	.word	0x0801c6b4

08010370 <_prtl2>:
 8010370:	b08a      	sub	sp, #40	@ 0x28
 8010372:	2300      	movs	r3, #0
 8010374:	f88d 3004 	strb.w	r3, [sp, #4]
 8010378:	2301      	movs	r3, #1
 801037a:	e008      	b.n	801038e <_prtl2+0x1e>
 801037c:	f04f 0c31 	mov.w	ip, #49	@ 0x31
 8010380:	f103 0228 	add.w	r2, r3, #40	@ 0x28
 8010384:	446a      	add	r2, sp
 8010386:	f802 cc24 	strb.w	ip, [r2, #-36]
 801038a:	1040      	asrs	r0, r0, #1
 801038c:	3301      	adds	r3, #1
 801038e:	2b20      	cmp	r3, #32
 8010390:	dc05      	bgt.n	801039e <_prtl2+0x2e>
 8010392:	f010 0f01 	tst.w	r0, #1
 8010396:	d1f1      	bne.n	801037c <_prtl2+0xc>
 8010398:	f04f 0c30 	mov.w	ip, #48	@ 0x30
 801039c:	e7f0      	b.n	8010380 <_prtl2+0x10>
 801039e:	2320      	movs	r3, #32
 80103a0:	e000      	b.n	80103a4 <_prtl2+0x34>
 80103a2:	3b01      	subs	r3, #1
 80103a4:	f103 0228 	add.w	r2, r3, #40	@ 0x28
 80103a8:	446a      	add	r2, sp
 80103aa:	f812 2c24 	ldrb.w	r2, [r2, #-36]
 80103ae:	2a30      	cmp	r2, #48	@ 0x30
 80103b0:	d0f7      	beq.n	80103a2 <_prtl2+0x32>
 80103b2:	b94b      	cbnz	r3, 80103c8 <_prtl2+0x58>
 80103b4:	3301      	adds	r3, #1
 80103b6:	e007      	b.n	80103c8 <_prtl2+0x58>
 80103b8:	f103 0228 	add.w	r2, r3, #40	@ 0x28
 80103bc:	446a      	add	r2, sp
 80103be:	f812 2c24 	ldrb.w	r2, [r2, #-36]
 80103c2:	f801 2b01 	strb.w	r2, [r1], #1
 80103c6:	3b01      	subs	r3, #1
 80103c8:	2b00      	cmp	r3, #0
 80103ca:	daf5      	bge.n	80103b8 <_prtl2+0x48>
 80103cc:	b00a      	add	sp, #40	@ 0x28
 80103ce:	4770      	bx	lr

080103d0 <_doprnt>:
 80103d0:	e92d 4ff0 	stmdb	sp!, {r4, r5, r6, r7, r8, r9, sl, fp, lr}
 80103d4:	b089      	sub	sp, #36	@ 0x24
 80103d6:	4604      	mov	r4, r0
 80103d8:	9101      	str	r1, [sp, #4]
 80103da:	4615      	mov	r5, r2
 80103dc:	e001      	b.n	80103e2 <_doprnt+0x12>
 80103de:	47a8      	blx	r5
 80103e0:	4634      	mov	r4, r6
 80103e2:	4626      	mov	r6, r4
 80103e4:	f816 0b01 	ldrb.w	r0, [r6], #1
 80103e8:	2825      	cmp	r0, #37	@ 0x25
 80103ea:	d004      	beq.n	80103f6 <_doprnt+0x26>
 80103ec:	2800      	cmp	r0, #0
 80103ee:	d1f6      	bne.n	80103de <_doprnt+0xe>
 80103f0:	b009      	add	sp, #36	@ 0x24
 80103f2:	e8bd 8ff0 	ldmia.w	sp!, {r4, r5, r6, r7, r8, r9, sl, fp, pc}
 80103f6:	f894 b001 	ldrb.w	fp, [r4, #1]
 80103fa:	f1bb 0f25 	cmp.w	fp, #37	@ 0x25
 80103fe:	d053      	beq.n	80104a8 <_doprnt+0xd8>
 8010400:	f1bb 0f2d 	cmp.w	fp, #45	@ 0x2d
 8010404:	d054      	beq.n	80104b0 <_doprnt+0xe0>
 8010406:	f896 a000 	ldrb.w	sl, [r6]
 801040a:	f1ba 0f30 	cmp.w	sl, #48	@ 0x30
 801040e:	d051      	beq.n	80104b4 <_doprnt+0xe4>
 8010410:	f04f 0a20 	mov.w	sl, #32
 8010414:	7833      	ldrb	r3, [r6, #0]
 8010416:	2b2a      	cmp	r3, #42	@ 0x2a
 8010418:	d15c      	bne.n	80104d4 <_doprnt+0x104>
 801041a:	9b01      	ldr	r3, [sp, #4]
 801041c:	1d1a      	adds	r2, r3, #4
 801041e:	9201      	str	r2, [sp, #4]
 8010420:	681f      	ldr	r7, [r3, #0]
 8010422:	3601      	adds	r6, #1
 8010424:	7833      	ldrb	r3, [r6, #0]
 8010426:	2b2e      	cmp	r3, #46	@ 0x2e
 8010428:	d056      	beq.n	80104d8 <_doprnt+0x108>
 801042a:	f04f 0900 	mov.w	r9, #0
 801042e:	4634      	mov	r4, r6
 8010430:	f814 0b01 	ldrb.w	r0, [r4], #1
 8010434:	2800      	cmp	r0, #0
 8010436:	d06c      	beq.n	8010512 <_doprnt+0x142>
 8010438:	f1a0 0348 	sub.w	r3, r0, #72	@ 0x48
 801043c:	2b30      	cmp	r3, #48	@ 0x30
 801043e:	f200 8116 	bhi.w	801066e <_doprnt+0x29e>
 8010442:	e8df f013 	tbh	[pc, r3, lsl #1]
 8010446:	00df      	.short	0x00df
 8010448:	01140114 	.word	0x01140114
 801044c:	01140114 	.word	0x01140114
 8010450:	01140114 	.word	0x01140114
 8010454:	01140114 	.word	0x01140114
 8010458:	01140114 	.word	0x01140114
 801045c:	01140114 	.word	0x01140114
 8010460:	01140114 	.word	0x01140114
 8010464:	00c50114 	.word	0x00c50114
 8010468:	01140114 	.word	0x01140114
 801046c:	01140114 	.word	0x01140114
 8010470:	01140114 	.word	0x01140114
 8010474:	01140114 	.word	0x01140114
 8010478:	01070114 	.word	0x01070114
 801047c:	00890069 	.word	0x00890069
 8010480:	011a0114 	.word	0x011a0114
 8010484:	00f30114 	.word	0x00f30114
 8010488:	01140114 	.word	0x01140114
 801048c:	01140114 	.word	0x01140114
 8010490:	01140114 	.word	0x01140114
 8010494:	011400b8 	.word	0x011400b8
 8010498:	01140114 	.word	0x01140114
 801049c:	0114007b 	.word	0x0114007b
 80104a0:	0114009a 	.word	0x0114009a
 80104a4:	00d20114 	.word	0x00d20114
 80104a8:	3402      	adds	r4, #2
 80104aa:	4658      	mov	r0, fp
 80104ac:	47a8      	blx	r5
 80104ae:	e798      	b.n	80103e2 <_doprnt+0x12>
 80104b0:	1ca6      	adds	r6, r4, #2
 80104b2:	e7a8      	b.n	8010406 <_doprnt+0x36>
 80104b4:	3601      	adds	r6, #1
 80104b6:	e7ad      	b.n	8010414 <_doprnt+0x44>
 80104b8:	eb07 0787 	add.w	r7, r7, r7, lsl #2
 80104bc:	3601      	adds	r6, #1
 80104be:	eb03 0347 	add.w	r3, r3, r7, lsl #1
 80104c2:	f1a3 0730 	sub.w	r7, r3, #48	@ 0x30
 80104c6:	7833      	ldrb	r3, [r6, #0]
 80104c8:	f1a3 0230 	sub.w	r2, r3, #48	@ 0x30
 80104cc:	b2d2      	uxtb	r2, r2
 80104ce:	2a09      	cmp	r2, #9
 80104d0:	d9f2      	bls.n	80104b8 <_doprnt+0xe8>
 80104d2:	e7a7      	b.n	8010424 <_doprnt+0x54>
 80104d4:	2700      	movs	r7, #0
 80104d6:	e7f6      	b.n	80104c6 <_doprnt+0xf6>
 80104d8:	1c71      	adds	r1, r6, #1
 80104da:	7873      	ldrb	r3, [r6, #1]
 80104dc:	2b2a      	cmp	r3, #42	@ 0x2a
 80104de:	d115      	bne.n	801050c <_doprnt+0x13c>
 80104e0:	9b01      	ldr	r3, [sp, #4]
 80104e2:	1d1a      	adds	r2, r3, #4
 80104e4:	9201      	str	r2, [sp, #4]
 80104e6:	f8d3 9000 	ldr.w	r9, [r3]
 80104ea:	3602      	adds	r6, #2
 80104ec:	e79f      	b.n	801042e <_doprnt+0x5e>
 80104ee:	eb09 0989 	add.w	r9, r9, r9, lsl #2
 80104f2:	3101      	adds	r1, #1
 80104f4:	eb03 0349 	add.w	r3, r3, r9, lsl #1
 80104f8:	f1a3 0930 	sub.w	r9, r3, #48	@ 0x30
 80104fc:	780b      	ldrb	r3, [r1, #0]
 80104fe:	f1a3 0230 	sub.w	r2, r3, #48	@ 0x30
 8010502:	b2d2      	uxtb	r2, r2
 8010504:	2a09      	cmp	r2, #9
 8010506:	d9f2      	bls.n	80104ee <_doprnt+0x11e>
 8010508:	460e      	mov	r6, r1
 801050a:	e790      	b.n	801042e <_doprnt+0x5e>
 801050c:	f04f 0900 	mov.w	r9, #0
 8010510:	e7f4      	b.n	80104fc <_doprnt+0x12c>
 8010512:	2025      	movs	r0, #37	@ 0x25
 8010514:	47a8      	blx	r5
 8010516:	e76b      	b.n	80103f0 <_doprnt+0x20>
 8010518:	9b01      	ldr	r3, [sp, #4]
 801051a:	1d1a      	adds	r2, r3, #4
 801051c:	9201      	str	r2, [sp, #4]
 801051e:	681b      	ldr	r3, [r3, #0]
 8010520:	f88d 300c 	strb.w	r3, [sp, #12]
 8010524:	f04f 0900 	mov.w	r9, #0
 8010528:	f88d 900d 	strb.w	r9, [sp, #13]
 801052c:	f8cd 9000 	str.w	r9, [sp]
 8010530:	f04f 0a20 	mov.w	sl, #32
 8010534:	f10d 080c 	add.w	r8, sp, #12
 8010538:	2600      	movs	r6, #0
 801053a:	e0ab      	b.n	8010694 <_doprnt+0x2c4>
 801053c:	9b01      	ldr	r3, [sp, #4]
 801053e:	1d1a      	adds	r2, r3, #4
 8010540:	9201      	str	r2, [sp, #4]
 8010542:	f8d3 8000 	ldr.w	r8, [r3]
 8010546:	f1b8 0f00 	cmp.w	r8, #0
 801054a:	f000 809b 	beq.w	8010684 <_doprnt+0x2b4>
 801054e:	2300      	movs	r3, #0
 8010550:	9300      	str	r3, [sp, #0]
 8010552:	f04f 0a20 	mov.w	sl, #32
 8010556:	e7ef      	b.n	8010538 <_doprnt+0x168>
 8010558:	9b01      	ldr	r3, [sp, #4]
 801055a:	1d1a      	adds	r2, r3, #4
 801055c:	9201      	str	r2, [sp, #4]
 801055e:	6818      	ldr	r0, [r3, #0]
 8010560:	2800      	cmp	r0, #0
 8010562:	db07      	blt.n	8010574 <_doprnt+0x1a4>
 8010564:	2300      	movs	r3, #0
 8010566:	9300      	str	r3, [sp, #0]
 8010568:	a903      	add	r1, sp, #12
 801056a:	f7ff fe0d 	bl	8010188 <_prtl10>
 801056e:	f10d 080c 	add.w	r8, sp, #12
 8010572:	e7e1      	b.n	8010538 <_doprnt+0x168>
 8010574:	232d      	movs	r3, #45	@ 0x2d
 8010576:	9300      	str	r3, [sp, #0]
 8010578:	e7f6      	b.n	8010568 <_doprnt+0x198>
 801057a:	9b01      	ldr	r3, [sp, #4]
 801057c:	1d1a      	adds	r2, r3, #4
 801057e:	9201      	str	r2, [sp, #4]
 8010580:	6818      	ldr	r0, [r3, #0]
 8010582:	2600      	movs	r6, #0
 8010584:	e007      	b.n	8010596 <_doprnt+0x1c6>
 8010586:	f100 4044 	add.w	r0, r0, #3288334336	@ 0xc4000000
 801058a:	f500 00ca 	add.w	r0, r0, #6619136	@ 0x650000
 801058e:	f500 5058 	add.w	r0, r0, #13824	@ 0x3600
 8010592:	3601      	adds	r6, #1
 8010594:	b2f6      	uxtb	r6, r6
 8010596:	2800      	cmp	r0, #0
 8010598:	dbf5      	blt.n	8010586 <_doprnt+0x1b6>
 801059a:	a903      	add	r1, sp, #12
 801059c:	f7ff fdf4 	bl	8010188 <_prtl10>
 80105a0:	f89d 300c 	ldrb.w	r3, [sp, #12]
 80105a4:	4433      	add	r3, r6
 80105a6:	f88d 300c 	strb.w	r3, [sp, #12]
 80105aa:	2300      	movs	r3, #0
 80105ac:	9300      	str	r3, [sp, #0]
 80105ae:	4699      	mov	r9, r3
 80105b0:	f10d 080c 	add.w	r8, sp, #12
 80105b4:	e7c0      	b.n	8010538 <_doprnt+0x168>
 80105b6:	9b01      	ldr	r3, [sp, #4]
 80105b8:	1d1a      	adds	r2, r3, #4
 80105ba:	9201      	str	r2, [sp, #4]
 80105bc:	a903      	add	r1, sp, #12
 80105be:	6818      	ldr	r0, [r3, #0]
 80105c0:	f7ff fe40 	bl	8010244 <_prtl8>
 80105c4:	2300      	movs	r3, #0
 80105c6:	9300      	str	r3, [sp, #0]
 80105c8:	4699      	mov	r9, r3
 80105ca:	f10d 080c 	add.w	r8, sp, #12
 80105ce:	e7b3      	b.n	8010538 <_doprnt+0x168>
 80105d0:	9b01      	ldr	r3, [sp, #4]
 80105d2:	1d1a      	adds	r2, r3, #4
 80105d4:	9201      	str	r2, [sp, #4]
 80105d6:	a903      	add	r1, sp, #12
 80105d8:	6818      	ldr	r0, [r3, #0]
 80105da:	f7ff fe97 	bl	801030c <_prtX16>
 80105de:	2300      	movs	r3, #0
 80105e0:	9300      	str	r3, [sp, #0]
 80105e2:	4699      	mov	r9, r3
 80105e4:	f10d 080c 	add.w	r8, sp, #12
 80105e8:	e7a6      	b.n	8010538 <_doprnt+0x168>
 80105ea:	9b01      	ldr	r3, [sp, #4]
 80105ec:	1d1a      	adds	r2, r3, #4
 80105ee:	9201      	str	r2, [sp, #4]
 80105f0:	a903      	add	r1, sp, #12
 80105f2:	6818      	ldr	r0, [r3, #0]
 80105f4:	f7ff fe57 	bl	80102a6 <_prtl16>
 80105f8:	2300      	movs	r3, #0
 80105fa:	9300      	str	r3, [sp, #0]
 80105fc:	4699      	mov	r9, r3
 80105fe:	f10d 080c 	add.w	r8, sp, #12
 8010602:	e799      	b.n	8010538 <_doprnt+0x168>
 8010604:	9b01      	ldr	r3, [sp, #4]
 8010606:	1d1a      	adds	r2, r3, #4
 8010608:	9201      	str	r2, [sp, #4]
 801060a:	a903      	add	r1, sp, #12
 801060c:	6818      	ldr	r0, [r3, #0]
 801060e:	f7ff fe7d 	bl	801030c <_prtX16>
 8010612:	9b01      	ldr	r3, [sp, #4]
 8010614:	1d1a      	adds	r2, r3, #4
 8010616:	9201      	str	r2, [sp, #4]
 8010618:	a905      	add	r1, sp, #20
 801061a:	6818      	ldr	r0, [r3, #0]
 801061c:	f7ff fe76 	bl	801030c <_prtX16>
 8010620:	2300      	movs	r3, #0
 8010622:	9300      	str	r3, [sp, #0]
 8010624:	4699      	mov	r9, r3
 8010626:	f10d 080c 	add.w	r8, sp, #12
 801062a:	e785      	b.n	8010538 <_doprnt+0x168>
 801062c:	9b01      	ldr	r3, [sp, #4]
 801062e:	1d1a      	adds	r2, r3, #4
 8010630:	9201      	str	r2, [sp, #4]
 8010632:	a903      	add	r1, sp, #12
 8010634:	6818      	ldr	r0, [r3, #0]
 8010636:	f7ff fe36 	bl	80102a6 <_prtl16>
 801063a:	9b01      	ldr	r3, [sp, #4]
 801063c:	1d1a      	adds	r2, r3, #4
 801063e:	9201      	str	r2, [sp, #4]
 8010640:	a905      	add	r1, sp, #20
 8010642:	6818      	ldr	r0, [r3, #0]
 8010644:	f7ff fe2f 	bl	80102a6 <_prtl16>
 8010648:	2300      	movs	r3, #0
 801064a:	9300      	str	r3, [sp, #0]
 801064c:	4699      	mov	r9, r3
 801064e:	f10d 080c 	add.w	r8, sp, #12
 8010652:	e771      	b.n	8010538 <_doprnt+0x168>
 8010654:	9b01      	ldr	r3, [sp, #4]
 8010656:	1d1a      	adds	r2, r3, #4
 8010658:	9201      	str	r2, [sp, #4]
 801065a:	a903      	add	r1, sp, #12
 801065c:	6818      	ldr	r0, [r3, #0]
 801065e:	f7ff fe87 	bl	8010370 <_prtl2>
 8010662:	2300      	movs	r3, #0
 8010664:	9300      	str	r3, [sp, #0]
 8010666:	4699      	mov	r9, r3
 8010668:	f10d 080c 	add.w	r8, sp, #12
 801066c:	e764      	b.n	8010538 <_doprnt+0x168>
 801066e:	47a8      	blx	r5
 8010670:	2300      	movs	r3, #0
 8010672:	9300      	str	r3, [sp, #0]
 8010674:	f10d 080c 	add.w	r8, sp, #12
 8010678:	e75e      	b.n	8010538 <_doprnt+0x168>
 801067a:	2300      	movs	r3, #0
 801067c:	9300      	str	r3, [sp, #0]
 801067e:	f10d 080c 	add.w	r8, sp, #12
 8010682:	e759      	b.n	8010538 <_doprnt+0x168>
 8010684:	2300      	movs	r3, #0
 8010686:	9300      	str	r3, [sp, #0]
 8010688:	f04f 0a20 	mov.w	sl, #32
 801068c:	f8df 80ac 	ldr.w	r8, [pc, #172]	@ 801073c <_doprnt+0x36c>
 8010690:	e752      	b.n	8010538 <_doprnt+0x168>
 8010692:	3601      	adds	r6, #1
 8010694:	f818 3006 	ldrb.w	r3, [r8, r6]
 8010698:	2b00      	cmp	r3, #0
 801069a:	d1fa      	bne.n	8010692 <_doprnt+0x2c2>
 801069c:	2f50      	cmp	r7, #80	@ 0x50
 801069e:	d900      	bls.n	80106a2 <_doprnt+0x2d2>
 80106a0:	2700      	movs	r7, #0
 80106a2:	f1b9 0f50 	cmp.w	r9, #80	@ 0x50
 80106a6:	d816      	bhi.n	80106d6 <_doprnt+0x306>
 80106a8:	f1b9 0f00 	cmp.w	r9, #0
 80106ac:	d015      	beq.n	80106da <_doprnt+0x30a>
 80106ae:	454e      	cmp	r6, r9
 80106b0:	dd00      	ble.n	80106b4 <_doprnt+0x2e4>
 80106b2:	464e      	mov	r6, r9
 80106b4:	b107      	cbz	r7, 80106b8 <_doprnt+0x2e8>
 80106b6:	1bbf      	subs	r7, r7, r6
 80106b8:	9b00      	ldr	r3, [sp, #0]
 80106ba:	2b2d      	cmp	r3, #45	@ 0x2d
 80106bc:	d013      	beq.n	80106e6 <_doprnt+0x316>
 80106be:	9b00      	ldr	r3, [sp, #0]
 80106c0:	2b2d      	cmp	r3, #45	@ 0x2d
 80106c2:	d012      	beq.n	80106ea <_doprnt+0x31a>
 80106c4:	f1bb 0f2d 	cmp.w	fp, #45	@ 0x2d
 80106c8:	d11c      	bne.n	8010704 <_doprnt+0x334>
 80106ca:	9b00      	ldr	r3, [sp, #0]
 80106cc:	2b2d      	cmp	r3, #45	@ 0x2d
 80106ce:	d01c      	beq.n	801070a <_doprnt+0x33a>
 80106d0:	f04f 0900 	mov.w	r9, #0
 80106d4:	e024      	b.n	8010720 <_doprnt+0x350>
 80106d6:	f04f 0900 	mov.w	r9, #0
 80106da:	2f00      	cmp	r7, #0
 80106dc:	d0ef      	beq.n	80106be <_doprnt+0x2ee>
 80106de:	f1b9 0f00 	cmp.w	r9, #0
 80106e2:	d0e7      	beq.n	80106b4 <_doprnt+0x2e4>
 80106e4:	e7e3      	b.n	80106ae <_doprnt+0x2de>
 80106e6:	3f01      	subs	r7, #1
 80106e8:	e7e9      	b.n	80106be <_doprnt+0x2ee>
 80106ea:	f1ba 0f30 	cmp.w	sl, #48	@ 0x30
 80106ee:	d1e9      	bne.n	80106c4 <_doprnt+0x2f4>
 80106f0:	4618      	mov	r0, r3
 80106f2:	47a8      	blx	r5
 80106f4:	e7e6      	b.n	80106c4 <_doprnt+0x2f4>
 80106f6:	4650      	mov	r0, sl
 80106f8:	47a8      	blx	r5
 80106fa:	f109 0901 	add.w	r9, r9, #1
 80106fe:	45b9      	cmp	r9, r7
 8010700:	dbf9      	blt.n	80106f6 <_doprnt+0x326>
 8010702:	e7e2      	b.n	80106ca <_doprnt+0x2fa>
 8010704:	f04f 0900 	mov.w	r9, #0
 8010708:	e7f9      	b.n	80106fe <_doprnt+0x32e>
 801070a:	f1ba 0f20 	cmp.w	sl, #32
 801070e:	d1df      	bne.n	80106d0 <_doprnt+0x300>
 8010710:	4618      	mov	r0, r3
 8010712:	47a8      	blx	r5
 8010714:	e7dc      	b.n	80106d0 <_doprnt+0x300>
 8010716:	f818 0009 	ldrb.w	r0, [r8, r9]
 801071a:	47a8      	blx	r5
 801071c:	f109 0901 	add.w	r9, r9, #1
 8010720:	45b1      	cmp	r9, r6
 8010722:	dbf8      	blt.n	8010716 <_doprnt+0x346>
 8010724:	f1bb 0f2d 	cmp.w	fp, #45	@ 0x2d
 8010728:	f47f ae5b 	bne.w	80103e2 <_doprnt+0x12>
 801072c:	2600      	movs	r6, #0
 801072e:	e002      	b.n	8010736 <_doprnt+0x366>
 8010730:	4650      	mov	r0, sl
 8010732:	47a8      	blx	r5
 8010734:	3601      	adds	r6, #1
 8010736:	42be      	cmp	r6, r7
 8010738:	dbfa      	blt.n	8010730 <_doprnt+0x360>
 801073a:	e652      	b.n	80103e2 <_doprnt+0x12>
 801073c:	0801c6c8 	.word	0x0801c6c8

08010740 <_instr>:
 8010740:	e92d 4ff8 	stmdb	sp!, {r3, r4, r5, r6, r7, r8, r9, sl, fp, lr}
 8010744:	4683      	mov	fp, r0
 8010746:	468a      	mov	sl, r1
 8010748:	4615      	mov	r5, r2
 801074a:	461e      	mov	r6, r3
 801074c:	9f0b      	ldr	r7, [sp, #44]	@ 0x2c
 801074e:	f8dd 8030 	ldr.w	r8, [sp, #48]	@ 0x30
 8010752:	2300      	movs	r3, #0
 8010754:	9a0d      	ldr	r2, [sp, #52]	@ 0x34
 8010756:	6013      	str	r3, [r2, #0]
 8010758:	2963      	cmp	r1, #99	@ 0x63
 801075a:	d017      	beq.n	801078c <_instr+0x4c>
 801075c:	f1ba 0f73 	cmp.w	sl, #115	@ 0x73
 8010760:	d01a      	beq.n	8010798 <_instr+0x58>
 8010762:	2400      	movs	r4, #0
 8010764:	4641      	mov	r1, r8
 8010766:	4638      	mov	r0, r7
 8010768:	47b0      	blx	r6
 801076a:	4b28      	ldr	r3, [pc, #160]	@ (801080c <_instr+0xcc>)
 801076c:	5c1b      	ldrb	r3, [r3, r0]
 801076e:	4223      	tst	r3, r4
 8010770:	d002      	beq.n	8010778 <_instr+0x38>
 8010772:	f110 0f02 	cmn.w	r0, #2
 8010776:	d1f5      	bne.n	8010764 <_instr+0x24>
 8010778:	f1ba 0f63 	cmp.w	sl, #99	@ 0x63
 801077c:	d021      	beq.n	80107c2 <_instr+0x82>
 801077e:	f1ba 0f5b 	cmp.w	sl, #91	@ 0x5b
 8010782:	d021      	beq.n	80107c8 <_instr+0x88>
 8010784:	f04f 0901 	mov.w	r9, #1
 8010788:	465c      	mov	r4, fp
 801078a:	e00d      	b.n	80107a8 <_instr+0x68>
 801078c:	f247 5330 	movw	r3, #30000	@ 0x7530
 8010790:	429d      	cmp	r5, r3
 8010792:	d1e3      	bne.n	801075c <_instr+0x1c>
 8010794:	2501      	movs	r5, #1
 8010796:	e7e1      	b.n	801075c <_instr+0x1c>
 8010798:	2401      	movs	r4, #1
 801079a:	e7e3      	b.n	8010764 <_instr+0x24>
 801079c:	3d01      	subs	r5, #1
 801079e:	2d00      	cmp	r5, #0
 80107a0:	dd15      	ble.n	80107ce <_instr+0x8e>
 80107a2:	4641      	mov	r1, r8
 80107a4:	4638      	mov	r0, r7
 80107a6:	47b0      	blx	r6
 80107a8:	f110 0f02 	cmn.w	r0, #2
 80107ac:	d00f      	beq.n	80107ce <_instr+0x8e>
 80107ae:	4b17      	ldr	r3, [pc, #92]	@ (801080c <_instr+0xcc>)
 80107b0:	5c1b      	ldrb	r3, [r3, r0]
 80107b2:	ea13 0f09 	tst.w	r3, r9
 80107b6:	d10a      	bne.n	80107ce <_instr+0x8e>
 80107b8:	2c00      	cmp	r4, #0
 80107ba:	d0ef      	beq.n	801079c <_instr+0x5c>
 80107bc:	f804 0b01 	strb.w	r0, [r4], #1
 80107c0:	e7ec      	b.n	801079c <_instr+0x5c>
 80107c2:	f04f 0900 	mov.w	r9, #0
 80107c6:	e7df      	b.n	8010788 <_instr+0x48>
 80107c8:	f04f 0902 	mov.w	r9, #2
 80107cc:	e7dc      	b.n	8010788 <_instr+0x48>
 80107ce:	f110 0f02 	cmn.w	r0, #2
 80107d2:	d013      	beq.n	80107fc <_instr+0xbc>
 80107d4:	2d00      	cmp	r5, #0
 80107d6:	dd03      	ble.n	80107e0 <_instr+0xa0>
 80107d8:	4641      	mov	r1, r8
 80107da:	4638      	mov	r0, r7
 80107dc:	9b0a      	ldr	r3, [sp, #40]	@ 0x28
 80107de:	4798      	blx	r3
 80107e0:	2300      	movs	r3, #0
 80107e2:	9a0d      	ldr	r2, [sp, #52]	@ 0x34
 80107e4:	6013      	str	r3, [r2, #0]
 80107e6:	b16c      	cbz	r4, 8010804 <_instr+0xc4>
 80107e8:	455c      	cmp	r4, fp
 80107ea:	d00d      	beq.n	8010808 <_instr+0xc8>
 80107ec:	f1ba 0f63 	cmp.w	sl, #99	@ 0x63
 80107f0:	d001      	beq.n	80107f6 <_instr+0xb6>
 80107f2:	2300      	movs	r3, #0
 80107f4:	7023      	strb	r3, [r4, #0]
 80107f6:	2001      	movs	r0, #1
 80107f8:	e8bd 8ff8 	ldmia.w	sp!, {r3, r4, r5, r6, r7, r8, r9, sl, fp, pc}
 80107fc:	2301      	movs	r3, #1
 80107fe:	9a0d      	ldr	r2, [sp, #52]	@ 0x34
 8010800:	6013      	str	r3, [r2, #0]
 8010802:	e7f0      	b.n	80107e6 <_instr+0xa6>
 8010804:	2000      	movs	r0, #0
 8010806:	e7f7      	b.n	80107f8 <_instr+0xb8>
 8010808:	2000      	movs	r0, #0
 801080a:	e7f5      	b.n	80107f8 <_instr+0xb8>
 801080c:	20000000 	.word	0x20000000

08010810 <_innum>:
 8010810:	e92d 4ff0 	stmdb	sp!, {r4, r5, r6, r7, r8, r9, sl, fp, lr}
 8010814:	b097      	sub	sp, #92	@ 0x5c
 8010816:	9004      	str	r0, [sp, #16]
 8010818:	4614      	mov	r4, r2
 801081a:	469a      	mov	sl, r3
 801081c:	9f20      	ldr	r7, [sp, #128]	@ 0x80
 801081e:	f8dd 8088 	ldr.w	r8, [sp, #136]	@ 0x88
 8010822:	f8dd 908c 	ldr.w	r9, [sp, #140]	@ 0x8c
 8010826:	f1a1 035b 	sub.w	r3, r1, #91	@ 0x5b
 801082a:	2b1d      	cmp	r3, #29
 801082c:	d810      	bhi.n	8010850 <_innum+0x40>
 801082e:	e8df f003 	tbb	[pc, r3]
 8010832:	0f24      	.short	0x0f24
 8010834:	0f0f0f0f 	.word	0x0f0f0f0f
 8010838:	0f240f0f 	.word	0x0f240f0f
 801083c:	0f0f0f0f 	.word	0x0f0f0f0f
 8010840:	0f0f0f0f 	.word	0x0f0f0f0f
 8010844:	0f390f0f 	.word	0x0f390f0f
 8010848:	0f240f0f 	.word	0x0f240f0f
 801084c:	360f0f0f 	.word	0x360f0f0f
 8010850:	f04f 0b0a 	mov.w	fp, #10
 8010854:	4649      	mov	r1, r9
 8010856:	4640      	mov	r0, r8
 8010858:	47b8      	blx	r7
 801085a:	b2c0      	uxtb	r0, r0
 801085c:	2820      	cmp	r0, #32
 801085e:	d0f9      	beq.n	8010854 <_innum+0x44>
 8010860:	282b      	cmp	r0, #43	@ 0x2b
 8010862:	d030      	beq.n	80108c6 <_innum+0xb6>
 8010864:	d821      	bhi.n	80108aa <_innum+0x9a>
 8010866:	f1a0 0309 	sub.w	r3, r0, #9
 801086a:	b2db      	uxtb	r3, r3
 801086c:	2b01      	cmp	r3, #1
 801086e:	d9f1      	bls.n	8010854 <_innum+0x44>
 8010870:	2300      	movs	r3, #0
 8010872:	9305      	str	r3, [sp, #20]
 8010874:	ad06      	add	r5, sp, #24
 8010876:	2600      	movs	r6, #0
 8010878:	e046      	b.n	8010908 <_innum+0xf8>
 801087a:	9b04      	ldr	r3, [sp, #16]
 801087c:	b10b      	cbz	r3, 8010882 <_innum+0x72>
 801087e:	681b      	ldr	r3, [r3, #0]
 8010880:	9304      	str	r3, [sp, #16]
 8010882:	9b24      	ldr	r3, [sp, #144]	@ 0x90
 8010884:	9303      	str	r3, [sp, #12]
 8010886:	f8cd 9008 	str.w	r9, [sp, #8]
 801088a:	f8cd 8004 	str.w	r8, [sp, #4]
 801088e:	9b21      	ldr	r3, [sp, #132]	@ 0x84
 8010890:	9300      	str	r3, [sp, #0]
 8010892:	463b      	mov	r3, r7
 8010894:	4622      	mov	r2, r4
 8010896:	9804      	ldr	r0, [sp, #16]
 8010898:	f7ff ff52 	bl	8010740 <_instr>
 801089c:	e063      	b.n	8010966 <_innum+0x156>
 801089e:	f04f 0b10 	mov.w	fp, #16
 80108a2:	e7d7      	b.n	8010854 <_innum+0x44>
 80108a4:	f04f 0b08 	mov.w	fp, #8
 80108a8:	e7d4      	b.n	8010854 <_innum+0x44>
 80108aa:	282d      	cmp	r0, #45	@ 0x2d
 80108ac:	d168      	bne.n	8010980 <_innum+0x170>
 80108ae:	f88d 0018 	strb.w	r0, [sp, #24]
 80108b2:	4649      	mov	r1, r9
 80108b4:	4640      	mov	r0, r8
 80108b6:	47b8      	blx	r7
 80108b8:	b2c0      	uxtb	r0, r0
 80108ba:	3c01      	subs	r4, #1
 80108bc:	2301      	movs	r3, #1
 80108be:	9305      	str	r3, [sp, #20]
 80108c0:	f10d 0519 	add.w	r5, sp, #25
 80108c4:	e7d7      	b.n	8010876 <_innum+0x66>
 80108c6:	3c01      	subs	r4, #1
 80108c8:	4649      	mov	r1, r9
 80108ca:	4640      	mov	r0, r8
 80108cc:	47b8      	blx	r7
 80108ce:	b2c0      	uxtb	r0, r0
 80108d0:	2300      	movs	r3, #0
 80108d2:	9305      	str	r3, [sp, #20]
 80108d4:	ad06      	add	r5, sp, #24
 80108d6:	e7ce      	b.n	8010876 <_innum+0x66>
 80108d8:	f1bb 0f08 	cmp.w	fp, #8
 80108dc:	d046      	beq.n	801096c <_innum+0x15c>
 80108de:	f1bb 0f0a 	cmp.w	fp, #10
 80108e2:	d045      	beq.n	8010970 <_innum+0x160>
 80108e4:	0136      	lsls	r6, r6, #4
 80108e6:	f1a0 0230 	sub.w	r2, r0, #48	@ 0x30
 80108ea:	b2d2      	uxtb	r2, r2
 80108ec:	2a09      	cmp	r2, #9
 80108ee:	d904      	bls.n	80108fa <_innum+0xea>
 80108f0:	2b05      	cmp	r3, #5
 80108f2:	d841      	bhi.n	8010978 <_innum+0x168>
 80108f4:	f1a0 0257 	sub.w	r2, r0, #87	@ 0x57
 80108f8:	b2d2      	uxtb	r2, r2
 80108fa:	4416      	add	r6, r2
 80108fc:	f805 0b01 	strb.w	r0, [r5], #1
 8010900:	4649      	mov	r1, r9
 8010902:	4640      	mov	r0, r8
 8010904:	47b8      	blx	r7
 8010906:	b2c0      	uxtb	r0, r0
 8010908:	3c01      	subs	r4, #1
 801090a:	d411      	bmi.n	8010930 <_innum+0x120>
 801090c:	4b28      	ldr	r3, [pc, #160]	@ (80109b0 <_innum+0x1a0>)
 801090e:	5c1b      	ldrb	r3, [r3, r0]
 8010910:	f013 0f04 	tst.w	r3, #4
 8010914:	d102      	bne.n	801091c <_innum+0x10c>
 8010916:	f1bb 0f10 	cmp.w	fp, #16
 801091a:	d109      	bne.n	8010930 <_innum+0x120>
 801091c:	f1a0 0361 	sub.w	r3, r0, #97	@ 0x61
 8010920:	b2db      	uxtb	r3, r3
 8010922:	2b05      	cmp	r3, #5
 8010924:	d9d8      	bls.n	80108d8 <_innum+0xc8>
 8010926:	f1a0 0241 	sub.w	r2, r0, #65	@ 0x41
 801092a:	b2d2      	uxtb	r2, r2
 801092c:	2a05      	cmp	r2, #5
 801092e:	d9d3      	bls.n	80108d8 <_innum+0xc8>
 8010930:	9b05      	ldr	r3, [sp, #20]
 8010932:	b103      	cbz	r3, 8010936 <_innum+0x126>
 8010934:	4276      	negs	r6, r6
 8010936:	4649      	mov	r1, r9
 8010938:	4640      	mov	r0, r8
 801093a:	9b21      	ldr	r3, [sp, #132]	@ 0x84
 801093c:	4798      	blx	r3
 801093e:	2300      	movs	r3, #0
 8010940:	9a24      	ldr	r2, [sp, #144]	@ 0x90
 8010942:	6013      	str	r3, [r2, #0]
 8010944:	9b04      	ldr	r3, [sp, #16]
 8010946:	b373      	cbz	r3, 80109a6 <_innum+0x196>
 8010948:	ab06      	add	r3, sp, #24
 801094a:	429d      	cmp	r5, r3
 801094c:	d02d      	beq.n	80109aa <_innum+0x19a>
 801094e:	2300      	movs	r3, #0
 8010950:	702b      	strb	r3, [r5, #0]
 8010952:	f1ba 0f01 	cmp.w	sl, #1
 8010956:	d01c      	beq.n	8010992 <_innum+0x182>
 8010958:	f1ba 0f02 	cmp.w	sl, #2
 801095c:	d01e      	beq.n	801099c <_innum+0x18c>
 801095e:	f1ba 0f00 	cmp.w	sl, #0
 8010962:	d011      	beq.n	8010988 <_innum+0x178>
 8010964:	2001      	movs	r0, #1
 8010966:	b017      	add	sp, #92	@ 0x5c
 8010968:	e8bd 8ff0 	ldmia.w	sp!, {r4, r5, r6, r7, r8, r9, sl, fp, pc}
 801096c:	00f6      	lsls	r6, r6, #3
 801096e:	e7ba      	b.n	80108e6 <_innum+0xd6>
 8010970:	eb06 0686 	add.w	r6, r6, r6, lsl #2
 8010974:	0076      	lsls	r6, r6, #1
 8010976:	e7b6      	b.n	80108e6 <_innum+0xd6>
 8010978:	f1a0 0237 	sub.w	r2, r0, #55	@ 0x37
 801097c:	b2d2      	uxtb	r2, r2
 801097e:	e7bc      	b.n	80108fa <_innum+0xea>
 8010980:	2300      	movs	r3, #0
 8010982:	9305      	str	r3, [sp, #20]
 8010984:	ad06      	add	r5, sp, #24
 8010986:	e776      	b.n	8010876 <_innum+0x66>
 8010988:	9b04      	ldr	r3, [sp, #16]
 801098a:	681b      	ldr	r3, [r3, #0]
 801098c:	801e      	strh	r6, [r3, #0]
 801098e:	2001      	movs	r0, #1
 8010990:	e7e9      	b.n	8010966 <_innum+0x156>
 8010992:	9b04      	ldr	r3, [sp, #16]
 8010994:	681b      	ldr	r3, [r3, #0]
 8010996:	601e      	str	r6, [r3, #0]
 8010998:	4650      	mov	r0, sl
 801099a:	e7e4      	b.n	8010966 <_innum+0x156>
 801099c:	9b04      	ldr	r3, [sp, #16]
 801099e:	681b      	ldr	r3, [r3, #0]
 80109a0:	601e      	str	r6, [r3, #0]
 80109a2:	2001      	movs	r0, #1
 80109a4:	e7df      	b.n	8010966 <_innum+0x156>
 80109a6:	2000      	movs	r0, #0
 80109a8:	e7dd      	b.n	8010966 <_innum+0x156>
 80109aa:	2000      	movs	r0, #0
 80109ac:	e7db      	b.n	8010966 <_innum+0x156>
 80109ae:	bf00      	nop
 80109b0:	0801c445 	.word	0x0801c445

080109b4 <_getccl>:
 80109b4:	b430      	push	{r4, r5}
 80109b6:	7803      	ldrb	r3, [r0, #0]
 80109b8:	2b5e      	cmp	r3, #94	@ 0x5e
 80109ba:	d002      	beq.n	80109c2 <_getccl+0xe>
 80109bc:	2400      	movs	r4, #0
 80109be:	2300      	movs	r3, #0
 80109c0:	e008      	b.n	80109d4 <_getccl+0x20>
 80109c2:	3001      	adds	r0, #1
 80109c4:	2401      	movs	r4, #1
 80109c6:	e7fa      	b.n	80109be <_getccl+0xa>
 80109c8:	4916      	ldr	r1, [pc, #88]	@ (8010a24 <_getccl+0x70>)
 80109ca:	5cca      	ldrb	r2, [r1, r3]
 80109cc:	f042 0202 	orr.w	r2, r2, #2
 80109d0:	54ca      	strb	r2, [r1, r3]
 80109d2:	3301      	adds	r3, #1
 80109d4:	2b7f      	cmp	r3, #127	@ 0x7f
 80109d6:	dc10      	bgt.n	80109fa <_getccl+0x46>
 80109d8:	2c00      	cmp	r4, #0
 80109da:	d0f5      	beq.n	80109c8 <_getccl+0x14>
 80109dc:	4911      	ldr	r1, [pc, #68]	@ (8010a24 <_getccl+0x70>)
 80109de:	5cca      	ldrb	r2, [r1, r3]
 80109e0:	f022 0202 	bic.w	r2, r2, #2
 80109e4:	54ca      	strb	r2, [r1, r3]
 80109e6:	e7f4      	b.n	80109d2 <_getccl+0x1e>
 80109e8:	1c59      	adds	r1, r3, #1
 80109ea:	4d0e      	ldr	r5, [pc, #56]	@ (8010a24 <_getccl+0x70>)
 80109ec:	f815 c003 	ldrb.w	ip, [r5, r3]
 80109f0:	f02c 0c02 	bic.w	ip, ip, #2
 80109f4:	f805 c003 	strb.w	ip, [r5, r3]
 80109f8:	b189      	cbz	r1, 8010a1e <_getccl+0x6a>
 80109fa:	4602      	mov	r2, r0
 80109fc:	3001      	adds	r0, #1
 80109fe:	7813      	ldrb	r3, [r2, #0]
 8010a00:	f003 017f 	and.w	r1, r3, #127	@ 0x7f
 8010a04:	295d      	cmp	r1, #93	@ 0x5d
 8010a06:	d00b      	beq.n	8010a20 <_getccl+0x6c>
 8010a08:	2c00      	cmp	r4, #0
 8010a0a:	d0ed      	beq.n	80109e8 <_getccl+0x34>
 8010a0c:	1c59      	adds	r1, r3, #1
 8010a0e:	4d05      	ldr	r5, [pc, #20]	@ (8010a24 <_getccl+0x70>)
 8010a10:	f815 c003 	ldrb.w	ip, [r5, r3]
 8010a14:	f04c 0c02 	orr.w	ip, ip, #2
 8010a18:	f805 c003 	strb.w	ip, [r5, r3]
 8010a1c:	e7ec      	b.n	80109f8 <_getccl+0x44>
 8010a1e:	4610      	mov	r0, r2
 8010a20:	bc30      	pop	{r4, r5}
 8010a22:	4770      	bx	lr
 8010a24:	20000000 	.word	0x20000000

08010a28 <_doscan>:
 8010a28:	e92d 4ff0 	stmdb	sp!, {r4, r5, r6, r7, r8, r9, sl, fp, lr}
 8010a2c:	b08b      	sub	sp, #44	@ 0x2c
 8010a2e:	4604      	mov	r4, r0
 8010a30:	9106      	str	r1, [sp, #24]
 8010a32:	4617      	mov	r7, r2
 8010a34:	469b      	mov	fp, r3
 8010a36:	f8dd 8050 	ldr.w	r8, [sp, #80]	@ 0x50
 8010a3a:	f8dd 9054 	ldr.w	r9, [sp, #84]	@ 0x54
 8010a3e:	2300      	movs	r3, #0
 8010a40:	9309      	str	r3, [sp, #36]	@ 0x24
 8010a42:	469a      	mov	sl, r3
 8010a44:	e075      	b.n	8010b32 <_doscan+0x10a>
 8010a46:	462c      	mov	r4, r5
 8010a48:	e073      	b.n	8010b32 <_doscan+0x10a>
 8010a4a:	1ca3      	adds	r3, r4, #2
 8010a4c:	7866      	ldrb	r6, [r4, #1]
 8010a4e:	2e25      	cmp	r6, #37	@ 0x25
 8010a50:	d068      	beq.n	8010b24 <_doscan+0xfc>
 8010a52:	2e2a      	cmp	r6, #42	@ 0x2a
 8010a54:	d006      	beq.n	8010a64 <_doscan+0x3c>
 8010a56:	9a06      	ldr	r2, [sp, #24]
 8010a58:	9207      	str	r2, [sp, #28]
 8010a5a:	3204      	adds	r2, #4
 8010a5c:	9206      	str	r2, [sp, #24]
 8010a5e:	461c      	mov	r4, r3
 8010a60:	2500      	movs	r5, #0
 8010a62:	e00b      	b.n	8010a7c <_doscan+0x54>
 8010a64:	3403      	adds	r4, #3
 8010a66:	786e      	ldrb	r6, [r5, #1]
 8010a68:	2300      	movs	r3, #0
 8010a6a:	9307      	str	r3, [sp, #28]
 8010a6c:	e7f8      	b.n	8010a60 <_doscan+0x38>
 8010a6e:	eb05 0585 	add.w	r5, r5, r5, lsl #2
 8010a72:	eb06 0545 	add.w	r5, r6, r5, lsl #1
 8010a76:	3d30      	subs	r5, #48	@ 0x30
 8010a78:	f814 6b01 	ldrb.w	r6, [r4], #1
 8010a7c:	4b5f      	ldr	r3, [pc, #380]	@ (8010bfc <_doscan+0x1d4>)
 8010a7e:	5d9b      	ldrb	r3, [r3, r6]
 8010a80:	f013 0f04 	tst.w	r3, #4
 8010a84:	d1f3      	bne.n	8010a6e <_doscan+0x46>
 8010a86:	b90d      	cbnz	r5, 8010a8c <_doscan+0x64>
 8010a88:	f247 5530 	movw	r5, #30000	@ 0x7530
 8010a8c:	2e6c      	cmp	r6, #108	@ 0x6c
 8010a8e:	d02a      	beq.n	8010ae6 <_doscan+0xbe>
 8010a90:	2e68      	cmp	r6, #104	@ 0x68
 8010a92:	d02c      	beq.n	8010aee <_doscan+0xc6>
 8010a94:	2e5b      	cmp	r6, #91	@ 0x5b
 8010a96:	d02e      	beq.n	8010af6 <_doscan+0xce>
 8010a98:	2301      	movs	r3, #1
 8010a9a:	4a58      	ldr	r2, [pc, #352]	@ (8010bfc <_doscan+0x1d4>)
 8010a9c:	5d92      	ldrb	r2, [r2, r6]
 8010a9e:	f012 0f01 	tst.w	r2, #1
 8010aa2:	d001      	beq.n	8010aa8 <_doscan+0x80>
 8010aa4:	3620      	adds	r6, #32
 8010aa6:	2302      	movs	r3, #2
 8010aa8:	2e00      	cmp	r6, #0
 8010aaa:	f000 80a1 	beq.w	8010bf0 <_doscan+0x1c8>
 8010aae:	aa09      	add	r2, sp, #36	@ 0x24
 8010ab0:	9204      	str	r2, [sp, #16]
 8010ab2:	f8cd 900c 	str.w	r9, [sp, #12]
 8010ab6:	f8cd 8008 	str.w	r8, [sp, #8]
 8010aba:	f8cd b004 	str.w	fp, [sp, #4]
 8010abe:	9700      	str	r7, [sp, #0]
 8010ac0:	462a      	mov	r2, r5
 8010ac2:	4631      	mov	r1, r6
 8010ac4:	9d07      	ldr	r5, [sp, #28]
 8010ac6:	4628      	mov	r0, r5
 8010ac8:	f7ff fea2 	bl	8010810 <_innum>
 8010acc:	b110      	cbz	r0, 8010ad4 <_doscan+0xac>
 8010ace:	b10d      	cbz	r5, 8010ad4 <_doscan+0xac>
 8010ad0:	f10a 0a01 	add.w	sl, sl, #1
 8010ad4:	9b09      	ldr	r3, [sp, #36]	@ 0x24
 8010ad6:	b363      	cbz	r3, 8010b32 <_doscan+0x10a>
 8010ad8:	f1ba 0f00 	cmp.w	sl, #0
 8010adc:	f040 8084 	bne.w	8010be8 <_doscan+0x1c0>
 8010ae0:	f04f 3aff 	mov.w	sl, #4294967295	@ 0xffffffff
 8010ae4:	e080      	b.n	8010be8 <_doscan+0x1c0>
 8010ae6:	f814 6b01 	ldrb.w	r6, [r4], #1
 8010aea:	2302      	movs	r3, #2
 8010aec:	e7d5      	b.n	8010a9a <_doscan+0x72>
 8010aee:	f814 6b01 	ldrb.w	r6, [r4], #1
 8010af2:	2300      	movs	r3, #0
 8010af4:	e7d1      	b.n	8010a9a <_doscan+0x72>
 8010af6:	4620      	mov	r0, r4
 8010af8:	f7ff ff5c 	bl	80109b4 <_getccl>
 8010afc:	4604      	mov	r4, r0
 8010afe:	2301      	movs	r3, #1
 8010b00:	e7cb      	b.n	8010a9a <_doscan+0x72>
 8010b02:	4649      	mov	r1, r9
 8010b04:	4640      	mov	r0, r8
 8010b06:	47b8      	blx	r7
 8010b08:	2820      	cmp	r0, #32
 8010b0a:	d0fa      	beq.n	8010b02 <_doscan+0xda>
 8010b0c:	2809      	cmp	r0, #9
 8010b0e:	d0f8      	beq.n	8010b02 <_doscan+0xda>
 8010b10:	280a      	cmp	r0, #10
 8010b12:	d0f6      	beq.n	8010b02 <_doscan+0xda>
 8010b14:	f110 0f02 	cmn.w	r0, #2
 8010b18:	d095      	beq.n	8010a46 <_doscan+0x1e>
 8010b1a:	4649      	mov	r1, r9
 8010b1c:	4640      	mov	r0, r8
 8010b1e:	47d8      	blx	fp
 8010b20:	462c      	mov	r4, r5
 8010b22:	e006      	b.n	8010b32 <_doscan+0x10a>
 8010b24:	461d      	mov	r5, r3
 8010b26:	4649      	mov	r1, r9
 8010b28:	4640      	mov	r0, r8
 8010b2a:	47b8      	blx	r7
 8010b2c:	4286      	cmp	r6, r0
 8010b2e:	d155      	bne.n	8010bdc <_doscan+0x1b4>
 8010b30:	462c      	mov	r4, r5
 8010b32:	4625      	mov	r5, r4
 8010b34:	f815 6b01 	ldrb.w	r6, [r5], #1
 8010b38:	2e25      	cmp	r6, #37	@ 0x25
 8010b3a:	d8f4      	bhi.n	8010b26 <_doscan+0xfe>
 8010b3c:	a301      	add	r3, pc, #4	@ (adr r3, 8010b44 <_doscan+0x11c>)
 8010b3e:	f853 f026 	ldr.w	pc, [r3, r6, lsl #2]
 8010b42:	bf00      	nop
 8010b44:	08010be9 	.word	0x08010be9
 8010b48:	08010b27 	.word	0x08010b27
 8010b4c:	08010b27 	.word	0x08010b27
 8010b50:	08010b27 	.word	0x08010b27
 8010b54:	08010b27 	.word	0x08010b27
 8010b58:	08010b27 	.word	0x08010b27
 8010b5c:	08010b27 	.word	0x08010b27
 8010b60:	08010b27 	.word	0x08010b27
 8010b64:	08010b27 	.word	0x08010b27
 8010b68:	08010b03 	.word	0x08010b03
 8010b6c:	08010b03 	.word	0x08010b03
 8010b70:	08010b27 	.word	0x08010b27
 8010b74:	08010b27 	.word	0x08010b27
 8010b78:	08010b27 	.word	0x08010b27
 8010b7c:	08010b27 	.word	0x08010b27
 8010b80:	08010b27 	.word	0x08010b27
 8010b84:	08010b27 	.word	0x08010b27
 8010b88:	08010b27 	.word	0x08010b27
 8010b8c:	08010b27 	.word	0x08010b27
 8010b90:	08010b27 	.word	0x08010b27
 8010b94:	08010b27 	.word	0x08010b27
 8010b98:	08010b27 	.word	0x08010b27
 8010b9c:	08010b27 	.word	0x08010b27
 8010ba0:	08010b27 	.word	0x08010b27
 8010ba4:	08010b27 	.word	0x08010b27
 8010ba8:	08010b27 	.word	0x08010b27
 8010bac:	08010b27 	.word	0x08010b27
 8010bb0:	08010b27 	.word	0x08010b27
 8010bb4:	08010b27 	.word	0x08010b27
 8010bb8:	08010b27 	.word	0x08010b27
 8010bbc:	08010b27 	.word	0x08010b27
 8010bc0:	08010b27 	.word	0x08010b27
 8010bc4:	08010b03 	.word	0x08010b03
 8010bc8:	08010b27 	.word	0x08010b27
 8010bcc:	08010b27 	.word	0x08010b27
 8010bd0:	08010b27 	.word	0x08010b27
 8010bd4:	08010b27 	.word	0x08010b27
 8010bd8:	08010a4b 	.word	0x08010a4b
 8010bdc:	f110 0f02 	cmn.w	r0, #2
 8010be0:	d009      	beq.n	8010bf6 <_doscan+0x1ce>
 8010be2:	4649      	mov	r1, r9
 8010be4:	4640      	mov	r0, r8
 8010be6:	47d8      	blx	fp
 8010be8:	4650      	mov	r0, sl
 8010bea:	b00b      	add	sp, #44	@ 0x2c
 8010bec:	e8bd 8ff0 	ldmia.w	sp!, {r4, r5, r6, r7, r8, r9, sl, fp, pc}
 8010bf0:	f04f 3aff 	mov.w	sl, #4294967295	@ 0xffffffff
 8010bf4:	e7f8      	b.n	8010be8 <_doscan+0x1c0>
 8010bf6:	f04f 3aff 	mov.w	sl, #4294967295	@ 0xffffffff
 8010bfa:	e7f5      	b.n	8010be8 <_doscan+0x1c0>
 8010bfc:	0801c445 	.word	0x0801c445

08010c00 <elf_find_section>:
 8010c00:	e92d 41f0 	stmdb	sp!, {r4, r5, r6, r7, r8, lr}
 8010c04:	4605      	mov	r5, r0
 8010c06:	4688      	mov	r8, r1
 8010c08:	6a07      	ldr	r7, [r0, #32]
 8010c0a:	19c6      	adds	r6, r0, r7
 8010c0c:	8e43      	ldrh	r3, [r0, #50]	@ 0x32
 8010c0e:	8dc2      	ldrh	r2, [r0, #46]	@ 0x2e
 8010c10:	fb02 7703 	mla	r7, r2, r3, r7
 8010c14:	4407      	add	r7, r0
 8010c16:	2400      	movs	r4, #0
 8010c18:	e003      	b.n	8010c22 <elf_find_section+0x22>
 8010c1a:	8deb      	ldrh	r3, [r5, #46]	@ 0x2e
 8010c1c:	441e      	add	r6, r3
 8010c1e:	3401      	adds	r4, #1
 8010c20:	b2a4      	uxth	r4, r4
 8010c22:	8e2b      	ldrh	r3, [r5, #48]	@ 0x30
 8010c24:	42a3      	cmp	r3, r4
 8010c26:	d909      	bls.n	8010c3c <elf_find_section+0x3c>
 8010c28:	6938      	ldr	r0, [r7, #16]
 8010c2a:	6833      	ldr	r3, [r6, #0]
 8010c2c:	4418      	add	r0, r3
 8010c2e:	4641      	mov	r1, r8
 8010c30:	4428      	add	r0, r5
 8010c32:	f001 ff4b 	bl	8012acc <strcmp>
 8010c36:	2800      	cmp	r0, #0
 8010c38:	d1ef      	bne.n	8010c1a <elf_find_section+0x1a>
 8010c3a:	e000      	b.n	8010c3e <elf_find_section+0x3e>
 8010c3c:	2600      	movs	r6, #0
 8010c3e:	4630      	mov	r0, r6
 8010c40:	e8bd 81f0 	ldmia.w	sp!, {r4, r5, r6, r7, r8, pc}

08010c44 <elf_execve>:
 8010c44:	e92d 43f8 	stmdb	sp!, {r3, r4, r5, r6, r7, r8, r9, lr}
 8010c48:	4604      	mov	r4, r0
 8010c4a:	4689      	mov	r9, r1
 8010c4c:	4957      	ldr	r1, [pc, #348]	@ (8010dac <elf_execve+0x168>)
 8010c4e:	f008 f929 	bl	8018ea4 <fl_fopen>
 8010c52:	b348      	cbz	r0, 8010ca8 <elf_execve+0x64>
 8010c54:	4680      	mov	r8, r0
 8010c56:	2202      	movs	r2, #2
 8010c58:	2100      	movs	r1, #0
 8010c5a:	f008 fb2e 	bl	80192ba <fl_fseek>
 8010c5e:	4640      	mov	r0, r8
 8010c60:	f008 fb96 	bl	8019390 <fl_ftell>
 8010c64:	4604      	mov	r4, r0
 8010c66:	2200      	movs	r2, #0
 8010c68:	4611      	mov	r1, r2
 8010c6a:	4640      	mov	r0, r8
 8010c6c:	f008 fb25 	bl	80192ba <fl_fseek>
 8010c70:	4620      	mov	r0, r4
 8010c72:	f000 fd3b 	bl	80116ec <malloc>
 8010c76:	4605      	mov	r5, r0
 8010c78:	4643      	mov	r3, r8
 8010c7a:	2201      	movs	r2, #1
 8010c7c:	4621      	mov	r1, r4
 8010c7e:	f008 fa65 	bl	801914c <fl_fread>
 8010c82:	4284      	cmp	r4, r0
 8010c84:	d117      	bne.n	8010cb6 <elf_execve+0x72>
 8010c86:	782b      	ldrb	r3, [r5, #0]
 8010c88:	2b7f      	cmp	r3, #127	@ 0x7f
 8010c8a:	d11d      	bne.n	8010cc8 <elf_execve+0x84>
 8010c8c:	786b      	ldrb	r3, [r5, #1]
 8010c8e:	2b45      	cmp	r3, #69	@ 0x45
 8010c90:	d11a      	bne.n	8010cc8 <elf_execve+0x84>
 8010c92:	78ab      	ldrb	r3, [r5, #2]
 8010c94:	2b4c      	cmp	r3, #76	@ 0x4c
 8010c96:	d117      	bne.n	8010cc8 <elf_execve+0x84>
 8010c98:	78eb      	ldrb	r3, [r5, #3]
 8010c9a:	2b46      	cmp	r3, #70	@ 0x46
 8010c9c:	d114      	bne.n	8010cc8 <elf_execve+0x84>
 8010c9e:	69ee      	ldr	r6, [r5, #28]
 8010ca0:	442e      	add	r6, r5
 8010ca2:	2700      	movs	r7, #0
 8010ca4:	463c      	mov	r4, r7
 8010ca6:	e026      	b.n	8010cf6 <elf_execve+0xb2>
 8010ca8:	4621      	mov	r1, r4
 8010caa:	4841      	ldr	r0, [pc, #260]	@ (8010db0 <elf_execve+0x16c>)
 8010cac:	f005 fa40 	bl	8016130 <kprintf>
 8010cb0:	f04f 30ff 	mov.w	r0, #4294967295	@ 0xffffffff
 8010cb4:	e010      	b.n	8010cd8 <elf_execve+0x94>
 8010cb6:	4640      	mov	r0, r8
 8010cb8:	f008 fa10 	bl	80190dc <fl_fclose>
 8010cbc:	4628      	mov	r0, r5
 8010cbe:	f000 fd27 	bl	8011710 <free>
 8010cc2:	f06f 0001 	mvn.w	r0, #1
 8010cc6:	e007      	b.n	8010cd8 <elf_execve+0x94>
 8010cc8:	4640      	mov	r0, r8
 8010cca:	f008 fa07 	bl	80190dc <fl_fclose>
 8010cce:	4628      	mov	r0, r5
 8010cd0:	f000 fd1e 	bl	8011710 <free>
 8010cd4:	f06f 0002 	mvn.w	r0, #2
 8010cd8:	e8bd 83f8 	ldmia.w	sp!, {r3, r4, r5, r6, r7, r8, r9, pc}
 8010cdc:	e7fe      	b.n	8010cdc <elf_execve+0x98>
 8010cde:	186b      	adds	r3, r5, r1
 8010ce0:	5d1b      	ldrb	r3, [r3, r4]
 8010ce2:	5513      	strb	r3, [r2, r4]
 8010ce4:	3401      	adds	r4, #1
 8010ce6:	6933      	ldr	r3, [r6, #16]
 8010ce8:	42a3      	cmp	r3, r4
 8010cea:	d8f8      	bhi.n	8010cde <elf_execve+0x9a>
 8010cec:	4604      	mov	r4, r0
 8010cee:	8d6b      	ldrh	r3, [r5, #42]	@ 0x2a
 8010cf0:	441e      	add	r6, r3
 8010cf2:	3701      	adds	r7, #1
 8010cf4:	b2bf      	uxth	r7, r7
 8010cf6:	8dab      	ldrh	r3, [r5, #44]	@ 0x2c
 8010cf8:	42bb      	cmp	r3, r7
 8010cfa:	d912      	bls.n	8010d22 <elf_execve+0xde>
 8010cfc:	6833      	ldr	r3, [r6, #0]
 8010cfe:	2b01      	cmp	r3, #1
 8010d00:	d1f5      	bne.n	8010cee <elf_execve+0xaa>
 8010d02:	2c00      	cmp	r4, #0
 8010d04:	d1ea      	bne.n	8010cdc <elf_execve+0x98>
 8010d06:	6970      	ldr	r0, [r6, #20]
 8010d08:	3008      	adds	r0, #8
 8010d0a:	f000 fcef 	bl	80116ec <malloc>
 8010d0e:	f8c9 0004 	str.w	r0, [r9, #4]
 8010d12:	6973      	ldr	r3, [r6, #20]
 8010d14:	3308      	adds	r3, #8
 8010d16:	f8c9 3014 	str.w	r3, [r9, #20]
 8010d1a:	6871      	ldr	r1, [r6, #4]
 8010d1c:	68b2      	ldr	r2, [r6, #8]
 8010d1e:	4402      	add	r2, r0
 8010d20:	e7e1      	b.n	8010ce6 <elf_execve+0xa2>
 8010d22:	4924      	ldr	r1, [pc, #144]	@ (8010db4 <elf_execve+0x170>)
 8010d24:	4628      	mov	r0, r5
 8010d26:	f7ff ff6b 	bl	8010c00 <elf_find_section>
 8010d2a:	4603      	mov	r3, r0
 8010d2c:	b158      	cbz	r0, 8010d46 <elf_execve+0x102>
 8010d2e:	68c0      	ldr	r0, [r0, #12]
 8010d30:	4420      	add	r0, r4
 8010d32:	6959      	ldr	r1, [r3, #20]
 8010d34:	0889      	lsrs	r1, r1, #2
 8010d36:	2300      	movs	r3, #0
 8010d38:	e003      	b.n	8010d42 <elf_execve+0xfe>
 8010d3a:	2200      	movs	r2, #0
 8010d3c:	f840 2023 	str.w	r2, [r0, r3, lsl #2]
 8010d40:	3301      	adds	r3, #1
 8010d42:	428b      	cmp	r3, r1
 8010d44:	d3f9      	bcc.n	8010d3a <elf_execve+0xf6>
 8010d46:	491c      	ldr	r1, [pc, #112]	@ (8010db8 <elf_execve+0x174>)
 8010d48:	4628      	mov	r0, r5
 8010d4a:	f7ff ff59 	bl	8010c00 <elf_find_section>
 8010d4e:	b168      	cbz	r0, 8010d6c <elf_execve+0x128>
 8010d50:	68c1      	ldr	r1, [r0, #12]
 8010d52:	4421      	add	r1, r4
 8010d54:	6940      	ldr	r0, [r0, #20]
 8010d56:	0880      	lsrs	r0, r0, #2
 8010d58:	2300      	movs	r3, #0
 8010d5a:	e005      	b.n	8010d68 <elf_execve+0x124>
 8010d5c:	f851 2023 	ldr.w	r2, [r1, r3, lsl #2]
 8010d60:	4422      	add	r2, r4
 8010d62:	f841 2023 	str.w	r2, [r1, r3, lsl #2]
 8010d66:	3301      	adds	r3, #1
 8010d68:	4283      	cmp	r3, r0
 8010d6a:	d3f7      	bcc.n	8010d5c <elf_execve+0x118>
 8010d6c:	4913      	ldr	r1, [pc, #76]	@ (8010dbc <elf_execve+0x178>)
 8010d6e:	4628      	mov	r0, r5
 8010d70:	f7ff ff46 	bl	8010c00 <elf_find_section>
 8010d74:	b178      	cbz	r0, 8010d96 <elf_execve+0x152>
 8010d76:	68c7      	ldr	r7, [r0, #12]
 8010d78:	4427      	add	r7, r4
 8010d7a:	6943      	ldr	r3, [r0, #20]
 8010d7c:	ea4f 0993 	mov.w	r9, r3, lsr #2
 8010d80:	2600      	movs	r6, #0
 8010d82:	e006      	b.n	8010d92 <elf_execve+0x14e>
 8010d84:	f857 3026 	ldr.w	r3, [r7, r6, lsl #2]
 8010d88:	4423      	add	r3, r4
 8010d8a:	f847 3026 	str.w	r3, [r7, r6, lsl #2]
 8010d8e:	4798      	blx	r3
 8010d90:	3601      	adds	r6, #1
 8010d92:	454e      	cmp	r6, r9
 8010d94:	d3f6      	bcc.n	8010d84 <elf_execve+0x140>
 8010d96:	4640      	mov	r0, r8
 8010d98:	f008 f9a0 	bl	80190dc <fl_fclose>
 8010d9c:	4628      	mov	r0, r5
 8010d9e:	f000 fcb7 	bl	8011710 <free>
 8010da2:	69a8      	ldr	r0, [r5, #24]
 8010da4:	4420      	add	r0, r4
 8010da6:	f040 0001 	orr.w	r0, r0, #1
 8010daa:	e795      	b.n	8010cd8 <elf_execve+0x94>
 8010dac:	0801c9d4 	.word	0x0801c9d4
 8010db0:	0801c6d0 	.word	0x0801c6d0
 8010db4:	0801c6e0 	.word	0x0801c6e0
 8010db8:	0801c6e8 	.word	0x0801c6e8
 8010dbc:	0801c6f0 	.word	0x0801c6f0

08010dc0 <_prtl10>:
 8010dc0:	b084      	sub	sp, #16
 8010dc2:	2300      	movs	r3, #0
 8010dc4:	f88d 3004 	strb.w	r3, [sp, #4]
 8010dc8:	2201      	movs	r2, #1
 8010dca:	e012      	b.n	8010df2 <_prtl10+0x32>
 8010dcc:	4b16      	ldr	r3, [pc, #88]	@ (8010e28 <_prtl10+0x68>)
 8010dce:	fb83 3c00 	smull	r3, ip, r3, r0
 8010dd2:	17c3      	asrs	r3, r0, #31
 8010dd4:	ebc3 03ac 	rsb	r3, r3, ip, asr #2
 8010dd8:	469c      	mov	ip, r3
 8010dda:	eb03 0383 	add.w	r3, r3, r3, lsl #2
 8010dde:	eba0 0343 	sub.w	r3, r0, r3, lsl #1
 8010de2:	3330      	adds	r3, #48	@ 0x30
 8010de4:	f102 0010 	add.w	r0, r2, #16
 8010de8:	4468      	add	r0, sp
 8010dea:	f800 3c0c 	strb.w	r3, [r0, #-12]
 8010dee:	4660      	mov	r0, ip
 8010df0:	3201      	adds	r2, #1
 8010df2:	2a0a      	cmp	r2, #10
 8010df4:	ddea      	ble.n	8010dcc <_prtl10+0xc>
 8010df6:	230a      	movs	r3, #10
 8010df8:	e000      	b.n	8010dfc <_prtl10+0x3c>
 8010dfa:	3b01      	subs	r3, #1
 8010dfc:	f103 0210 	add.w	r2, r3, #16
 8010e00:	446a      	add	r2, sp
 8010e02:	f812 2c0c 	ldrb.w	r2, [r2, #-12]
 8010e06:	2a30      	cmp	r2, #48	@ 0x30
 8010e08:	d0f7      	beq.n	8010dfa <_prtl10+0x3a>
 8010e0a:	b94b      	cbnz	r3, 8010e20 <_prtl10+0x60>
 8010e0c:	3301      	adds	r3, #1
 8010e0e:	e007      	b.n	8010e20 <_prtl10+0x60>
 8010e10:	f103 0210 	add.w	r2, r3, #16
 8010e14:	446a      	add	r2, sp
 8010e16:	f812 2c0c 	ldrb.w	r2, [r2, #-12]
 8010e1a:	f801 2b01 	strb.w	r2, [r1], #1
 8010e1e:	3b01      	subs	r3, #1
 8010e20:	2b00      	cmp	r3, #0
 8010e22:	daf5      	bge.n	8010e10 <_prtl10+0x50>
 8010e24:	b004      	add	sp, #16
 8010e26:	4770      	bx	lr
 8010e28:	66666667 	.word	0x66666667

08010e2c <_prtl8>:
 8010e2c:	b084      	sub	sp, #16
 8010e2e:	2300      	movs	r3, #0
 8010e30:	f88d 3004 	strb.w	r3, [sp, #4]
 8010e34:	2301      	movs	r3, #1
 8010e36:	e009      	b.n	8010e4c <_prtl8+0x20>
 8010e38:	f000 0207 	and.w	r2, r0, #7
 8010e3c:	3230      	adds	r2, #48	@ 0x30
 8010e3e:	f103 0c10 	add.w	ip, r3, #16
 8010e42:	44ec      	add	ip, sp
 8010e44:	f80c 2c0c 	strb.w	r2, [ip, #-12]
 8010e48:	10c0      	asrs	r0, r0, #3
 8010e4a:	3301      	adds	r3, #1
 8010e4c:	2b0b      	cmp	r3, #11
 8010e4e:	ddf3      	ble.n	8010e38 <_prtl8+0xc>
 8010e50:	f89d 300f 	ldrb.w	r3, [sp, #15]
 8010e54:	f003 0333 	and.w	r3, r3, #51	@ 0x33
 8010e58:	f88d 300f 	strb.w	r3, [sp, #15]
 8010e5c:	230b      	movs	r3, #11
 8010e5e:	e000      	b.n	8010e62 <_prtl8+0x36>
 8010e60:	3b01      	subs	r3, #1
 8010e62:	f103 0210 	add.w	r2, r3, #16
 8010e66:	446a      	add	r2, sp
 8010e68:	f812 2c0c 	ldrb.w	r2, [r2, #-12]
 8010e6c:	2a30      	cmp	r2, #48	@ 0x30
 8010e6e:	d0f7      	beq.n	8010e60 <_prtl8+0x34>
 8010e70:	b94b      	cbnz	r3, 8010e86 <_prtl8+0x5a>
 8010e72:	3301      	adds	r3, #1
 8010e74:	e007      	b.n	8010e86 <_prtl8+0x5a>
 8010e76:	f103 0210 	add.w	r2, r3, #16
 8010e7a:	446a      	add	r2, sp
 8010e7c:	f812 2c0c 	ldrb.w	r2, [r2, #-12]
 8010e80:	f801 2b01 	strb.w	r2, [r1], #1
 8010e84:	3b01      	subs	r3, #1
 8010e86:	2b00      	cmp	r3, #0
 8010e88:	daf5      	bge.n	8010e76 <_prtl8+0x4a>
 8010e8a:	b004      	add	sp, #16
 8010e8c:	4770      	bx	lr

08010e8e <_prtl16>:
 8010e8e:	b410      	push	{r4}
 8010e90:	b085      	sub	sp, #20
 8010e92:	2300      	movs	r3, #0
 8010e94:	f88d 3004 	strb.w	r3, [sp, #4]
 8010e98:	2301      	movs	r3, #1
 8010e9a:	e00b      	b.n	8010eb4 <_prtl16+0x26>
 8010e9c:	f000 020f 	and.w	r2, r0, #15
 8010ea0:	4c13      	ldr	r4, [pc, #76]	@ (8010ef0 <_prtl16+0x62>)
 8010ea2:	f814 c002 	ldrb.w	ip, [r4, r2]
 8010ea6:	f103 0210 	add.w	r2, r3, #16
 8010eaa:	446a      	add	r2, sp
 8010eac:	f802 cc0c 	strb.w	ip, [r2, #-12]
 8010eb0:	1100      	asrs	r0, r0, #4
 8010eb2:	3301      	adds	r3, #1
 8010eb4:	2b08      	cmp	r3, #8
 8010eb6:	ddf1      	ble.n	8010e9c <_prtl16+0xe>
 8010eb8:	2308      	movs	r3, #8
 8010eba:	e000      	b.n	8010ebe <_prtl16+0x30>
 8010ebc:	3b01      	subs	r3, #1
 8010ebe:	f103 0210 	add.w	r2, r3, #16
 8010ec2:	446a      	add	r2, sp
 8010ec4:	f812 2c0c 	ldrb.w	r2, [r2, #-12]
 8010ec8:	2a30      	cmp	r2, #48	@ 0x30
 8010eca:	d0f7      	beq.n	8010ebc <_prtl16+0x2e>
 8010ecc:	b94b      	cbnz	r3, 8010ee2 <_prtl16+0x54>
 8010ece:	3301      	adds	r3, #1
 8010ed0:	e007      	b.n	8010ee2 <_prtl16+0x54>
 8010ed2:	f103 0210 	add.w	r2, r3, #16
 8010ed6:	446a      	add	r2, sp
 8010ed8:	f812 2c0c 	ldrb.w	r2, [r2, #-12]
 8010edc:	f801 2b01 	strb.w	r2, [r1], #1
 8010ee0:	3b01      	subs	r3, #1
 8010ee2:	2b00      	cmp	r3, #0
 8010ee4:	daf5      	bge.n	8010ed2 <_prtl16+0x44>
 8010ee6:	b005      	add	sp, #20
 8010ee8:	f85d 4b04 	ldr.w	r4, [sp], #4
 8010eec:	4770      	bx	lr
 8010eee:	bf00      	nop
 8010ef0:	0801c6a0 	.word	0x0801c6a0

08010ef4 <_prtX16>:
 8010ef4:	b410      	push	{r4}
 8010ef6:	b085      	sub	sp, #20
 8010ef8:	2300      	movs	r3, #0
 8010efa:	f88d 3004 	strb.w	r3, [sp, #4]
 8010efe:	2301      	movs	r3, #1
 8010f00:	e00b      	b.n	8010f1a <_prtX16+0x26>
 8010f02:	f000 020f 	and.w	r2, r0, #15
 8010f06:	4c13      	ldr	r4, [pc, #76]	@ (8010f54 <_prtX16+0x60>)
 8010f08:	f814 c002 	ldrb.w	ip, [r4, r2]
 8010f0c:	f103 0210 	add.w	r2, r3, #16
 8010f10:	446a      	add	r2, sp
 8010f12:	f802 cc0c 	strb.w	ip, [r2, #-12]
 8010f16:	1100      	asrs	r0, r0, #4
 8010f18:	3301      	adds	r3, #1
 8010f1a:	2b08      	cmp	r3, #8
 8010f1c:	ddf1      	ble.n	8010f02 <_prtX16+0xe>
 8010f1e:	2308      	movs	r3, #8
 8010f20:	e000      	b.n	8010f24 <_prtX16+0x30>
 8010f22:	3b01      	subs	r3, #1
 8010f24:	f103 0210 	add.w	r2, r3, #16
 8010f28:	446a      	add	r2, sp
 8010f2a:	f812 2c0c 	ldrb.w	r2, [r2, #-12]
 8010f2e:	2a30      	cmp	r2, #48	@ 0x30
 8010f30:	d0f7      	beq.n	8010f22 <_prtX16+0x2e>
 8010f32:	b94b      	cbnz	r3, 8010f48 <_prtX16+0x54>
 8010f34:	3301      	adds	r3, #1
 8010f36:	e007      	b.n	8010f48 <_prtX16+0x54>
 8010f38:	f103 0210 	add.w	r2, r3, #16
 8010f3c:	446a      	add	r2, sp
 8010f3e:	f812 2c0c 	ldrb.w	r2, [r2, #-12]
 8010f42:	f801 2b01 	strb.w	r2, [r1], #1
 8010f46:	3b01      	subs	r3, #1
 8010f48:	2b00      	cmp	r3, #0
 8010f4a:	daf5      	bge.n	8010f38 <_prtX16+0x44>
 8010f4c:	b005      	add	sp, #20
 8010f4e:	f85d 4b04 	ldr.w	r4, [sp], #4
 8010f52:	4770      	bx	lr
 8010f54:	0801c6b4 	.word	0x0801c6b4

08010f58 <_prtl2>:
 8010f58:	b08a      	sub	sp, #40	@ 0x28
 8010f5a:	2300      	movs	r3, #0
 8010f5c:	f88d 3004 	strb.w	r3, [sp, #4]
 8010f60:	2301      	movs	r3, #1
 8010f62:	e008      	b.n	8010f76 <_prtl2+0x1e>
 8010f64:	f04f 0c31 	mov.w	ip, #49	@ 0x31
 8010f68:	f103 0228 	add.w	r2, r3, #40	@ 0x28
 8010f6c:	446a      	add	r2, sp
 8010f6e:	f802 cc24 	strb.w	ip, [r2, #-36]
 8010f72:	1040      	asrs	r0, r0, #1
 8010f74:	3301      	adds	r3, #1
 8010f76:	2b20      	cmp	r3, #32
 8010f78:	dc05      	bgt.n	8010f86 <_prtl2+0x2e>
 8010f7a:	f010 0f01 	tst.w	r0, #1
 8010f7e:	d1f1      	bne.n	8010f64 <_prtl2+0xc>
 8010f80:	f04f 0c30 	mov.w	ip, #48	@ 0x30
 8010f84:	e7f0      	b.n	8010f68 <_prtl2+0x10>
 8010f86:	2320      	movs	r3, #32
 8010f88:	e000      	b.n	8010f8c <_prtl2+0x34>
 8010f8a:	3b01      	subs	r3, #1
 8010f8c:	f103 0228 	add.w	r2, r3, #40	@ 0x28
 8010f90:	446a      	add	r2, sp
 8010f92:	f812 2c24 	ldrb.w	r2, [r2, #-36]
 8010f96:	2a30      	cmp	r2, #48	@ 0x30
 8010f98:	d0f7      	beq.n	8010f8a <_prtl2+0x32>
 8010f9a:	b94b      	cbnz	r3, 8010fb0 <_prtl2+0x58>
 8010f9c:	3301      	adds	r3, #1
 8010f9e:	e007      	b.n	8010fb0 <_prtl2+0x58>
 8010fa0:	f103 0228 	add.w	r2, r3, #40	@ 0x28
 8010fa4:	446a      	add	r2, sp
 8010fa6:	f812 2c24 	ldrb.w	r2, [r2, #-36]
 8010faa:	f801 2b01 	strb.w	r2, [r1], #1
 8010fae:	3b01      	subs	r3, #1
 8010fb0:	2b00      	cmp	r3, #0
 8010fb2:	daf5      	bge.n	8010fa0 <_prtl2+0x48>
 8010fb4:	b00a      	add	sp, #40	@ 0x28
 8010fb6:	4770      	bx	lr

08010fb8 <_fdoprnt2>:
 8010fb8:	e92d 4ff0 	stmdb	sp!, {r4, r5, r6, r7, r8, r9, sl, fp, lr}
 8010fbc:	b08d      	sub	sp, #52	@ 0x34
 8010fbe:	4683      	mov	fp, r0
 8010fc0:	9105      	str	r1, [sp, #20]
 8010fc2:	4614      	mov	r4, r2
 8010fc4:	461d      	mov	r5, r3
 8010fc6:	9e16      	ldr	r6, [sp, #88]	@ 0x58
 8010fc8:	465f      	mov	r7, fp
 8010fca:	f817 2b01 	ldrb.w	r2, [r7], #1
 8010fce:	2a25      	cmp	r2, #37	@ 0x25
 8010fd0:	d007      	beq.n	8010fe2 <_fdoprnt2+0x2a>
 8010fd2:	2a00      	cmp	r2, #0
 8010fd4:	f000 808c 	beq.w	80110f0 <_fdoprnt2+0x138>
 8010fd8:	4629      	mov	r1, r5
 8010fda:	4630      	mov	r0, r6
 8010fdc:	47a0      	blx	r4
 8010fde:	46bb      	mov	fp, r7
 8010fe0:	e7f2      	b.n	8010fc8 <_fdoprnt2+0x10>
 8010fe2:	f89b 3001 	ldrb.w	r3, [fp, #1]
 8010fe6:	9301      	str	r3, [sp, #4]
 8010fe8:	2b25      	cmp	r3, #37	@ 0x25
 8010fea:	d043      	beq.n	8011074 <_fdoprnt2+0xbc>
 8010fec:	9b01      	ldr	r3, [sp, #4]
 8010fee:	2b2d      	cmp	r3, #45	@ 0x2d
 8010ff0:	d047      	beq.n	8011082 <_fdoprnt2+0xca>
 8010ff2:	783b      	ldrb	r3, [r7, #0]
 8010ff4:	9303      	str	r3, [sp, #12]
 8010ff6:	2b30      	cmp	r3, #48	@ 0x30
 8010ff8:	d046      	beq.n	8011088 <_fdoprnt2+0xd0>
 8010ffa:	2320      	movs	r3, #32
 8010ffc:	9303      	str	r3, [sp, #12]
 8010ffe:	783b      	ldrb	r3, [r7, #0]
 8011000:	2b2a      	cmp	r3, #42	@ 0x2a
 8011002:	d151      	bne.n	80110a8 <_fdoprnt2+0xf0>
 8011004:	9b05      	ldr	r3, [sp, #20]
 8011006:	1d1a      	adds	r2, r3, #4
 8011008:	9205      	str	r2, [sp, #20]
 801100a:	f8d3 9000 	ldr.w	r9, [r3]
 801100e:	3701      	adds	r7, #1
 8011010:	783b      	ldrb	r3, [r7, #0]
 8011012:	2b2e      	cmp	r3, #46	@ 0x2e
 8011014:	d04b      	beq.n	80110ae <_fdoprnt2+0xf6>
 8011016:	f04f 0800 	mov.w	r8, #0
 801101a:	46bb      	mov	fp, r7
 801101c:	f81b 2b01 	ldrb.w	r2, [fp], #1
 8011020:	2a00      	cmp	r2, #0
 8011022:	d061      	beq.n	80110e8 <_fdoprnt2+0x130>
 8011024:	f1a2 0358 	sub.w	r3, r2, #88	@ 0x58
 8011028:	2b20      	cmp	r3, #32
 801102a:	f200 80e7 	bhi.w	80111fc <_fdoprnt2+0x244>
 801102e:	e8df f013 	tbh	[pc, r3, lsl #1]
 8011032:	00be      	.short	0x00be
 8011034:	00e500e5 	.word	0x00e500e5
 8011038:	00e500e5 	.word	0x00e500e5
 801103c:	00e500e5 	.word	0x00e500e5
 8011040:	00e500e5 	.word	0x00e500e5
 8011044:	00d800e5 	.word	0x00d800e5
 8011048:	00810062 	.word	0x00810062
 801104c:	00e500e5 	.word	0x00e500e5
 8011050:	00e500e5 	.word	0x00e500e5
 8011054:	00e500e5 	.word	0x00e500e5
 8011058:	00e500e5 	.word	0x00e500e5
 801105c:	00e500e5 	.word	0x00e500e5
 8011060:	00e500b1 	.word	0x00e500b1
 8011064:	00e500e5 	.word	0x00e500e5
 8011068:	00e50074 	.word	0x00e50074
 801106c:	00e50093 	.word	0x00e50093
 8011070:	00cb00e5 	.word	0x00cb00e5
 8011074:	f10b 0b02 	add.w	fp, fp, #2
 8011078:	461a      	mov	r2, r3
 801107a:	4629      	mov	r1, r5
 801107c:	4630      	mov	r0, r6
 801107e:	47a0      	blx	r4
 8011080:	e7a2      	b.n	8010fc8 <_fdoprnt2+0x10>
 8011082:	f10b 0702 	add.w	r7, fp, #2
 8011086:	e7b4      	b.n	8010ff2 <_fdoprnt2+0x3a>
 8011088:	3701      	adds	r7, #1
 801108a:	e7b8      	b.n	8010ffe <_fdoprnt2+0x46>
 801108c:	eb09 0989 	add.w	r9, r9, r9, lsl #2
 8011090:	3701      	adds	r7, #1
 8011092:	eb03 0349 	add.w	r3, r3, r9, lsl #1
 8011096:	f1a3 0930 	sub.w	r9, r3, #48	@ 0x30
 801109a:	783b      	ldrb	r3, [r7, #0]
 801109c:	f1a3 0230 	sub.w	r2, r3, #48	@ 0x30
 80110a0:	b2d2      	uxtb	r2, r2
 80110a2:	2a09      	cmp	r2, #9
 80110a4:	d9f2      	bls.n	801108c <_fdoprnt2+0xd4>
 80110a6:	e7b3      	b.n	8011010 <_fdoprnt2+0x58>
 80110a8:	f04f 0900 	mov.w	r9, #0
 80110ac:	e7f5      	b.n	801109a <_fdoprnt2+0xe2>
 80110ae:	1c79      	adds	r1, r7, #1
 80110b0:	787b      	ldrb	r3, [r7, #1]
 80110b2:	2b2a      	cmp	r3, #42	@ 0x2a
 80110b4:	d115      	bne.n	80110e2 <_fdoprnt2+0x12a>
 80110b6:	9b05      	ldr	r3, [sp, #20]
 80110b8:	1d1a      	adds	r2, r3, #4
 80110ba:	9205      	str	r2, [sp, #20]
 80110bc:	f8d3 8000 	ldr.w	r8, [r3]
 80110c0:	3702      	adds	r7, #2
 80110c2:	e7aa      	b.n	801101a <_fdoprnt2+0x62>
 80110c4:	eb08 0888 	add.w	r8, r8, r8, lsl #2
 80110c8:	3101      	adds	r1, #1
 80110ca:	eb03 0348 	add.w	r3, r3, r8, lsl #1
 80110ce:	f1a3 0830 	sub.w	r8, r3, #48	@ 0x30
 80110d2:	780b      	ldrb	r3, [r1, #0]
 80110d4:	f1a3 0230 	sub.w	r2, r3, #48	@ 0x30
 80110d8:	b2d2      	uxtb	r2, r2
 80110da:	2a09      	cmp	r2, #9
 80110dc:	d9f2      	bls.n	80110c4 <_fdoprnt2+0x10c>
 80110de:	460f      	mov	r7, r1
 80110e0:	e79b      	b.n	801101a <_fdoprnt2+0x62>
 80110e2:	f04f 0800 	mov.w	r8, #0
 80110e6:	e7f4      	b.n	80110d2 <_fdoprnt2+0x11a>
 80110e8:	2225      	movs	r2, #37	@ 0x25
 80110ea:	4629      	mov	r1, r5
 80110ec:	4630      	mov	r0, r6
 80110ee:	47a0      	blx	r4
 80110f0:	b00d      	add	sp, #52	@ 0x34
 80110f2:	e8bd 8ff0 	ldmia.w	sp!, {r4, r5, r6, r7, r8, r9, sl, fp, pc}
 80110f6:	9b05      	ldr	r3, [sp, #20]
 80110f8:	1d1a      	adds	r2, r3, #4
 80110fa:	9205      	str	r2, [sp, #20]
 80110fc:	681b      	ldr	r3, [r3, #0]
 80110fe:	f88d 301c 	strb.w	r3, [sp, #28]
 8011102:	f04f 0800 	mov.w	r8, #0
 8011106:	f88d 801d 	strb.w	r8, [sp, #29]
 801110a:	f8cd 8008 	str.w	r8, [sp, #8]
 801110e:	2320      	movs	r3, #32
 8011110:	9303      	str	r3, [sp, #12]
 8011112:	f10d 0a1c 	add.w	sl, sp, #28
 8011116:	2700      	movs	r7, #0
 8011118:	e080      	b.n	801121c <_fdoprnt2+0x264>
 801111a:	9b05      	ldr	r3, [sp, #20]
 801111c:	1d1a      	adds	r2, r3, #4
 801111e:	9205      	str	r2, [sp, #20]
 8011120:	f8d3 a000 	ldr.w	sl, [r3]
 8011124:	f1ba 0f00 	cmp.w	sl, #0
 8011128:	d070      	beq.n	801120c <_fdoprnt2+0x254>
 801112a:	2300      	movs	r3, #0
 801112c:	9302      	str	r3, [sp, #8]
 801112e:	2320      	movs	r3, #32
 8011130:	9303      	str	r3, [sp, #12]
 8011132:	e7f0      	b.n	8011116 <_fdoprnt2+0x15e>
 8011134:	9b05      	ldr	r3, [sp, #20]
 8011136:	1d1a      	adds	r2, r3, #4
 8011138:	9205      	str	r2, [sp, #20]
 801113a:	6818      	ldr	r0, [r3, #0]
 801113c:	2800      	cmp	r0, #0
 801113e:	db07      	blt.n	8011150 <_fdoprnt2+0x198>
 8011140:	2300      	movs	r3, #0
 8011142:	9302      	str	r3, [sp, #8]
 8011144:	a907      	add	r1, sp, #28
 8011146:	f7ff fe3b 	bl	8010dc0 <_prtl10>
 801114a:	f10d 0a1c 	add.w	sl, sp, #28
 801114e:	e7e2      	b.n	8011116 <_fdoprnt2+0x15e>
 8011150:	4240      	negs	r0, r0
 8011152:	232d      	movs	r3, #45	@ 0x2d
 8011154:	9302      	str	r3, [sp, #8]
 8011156:	e7f5      	b.n	8011144 <_fdoprnt2+0x18c>
 8011158:	9b05      	ldr	r3, [sp, #20]
 801115a:	1d1a      	adds	r2, r3, #4
 801115c:	9205      	str	r2, [sp, #20]
 801115e:	6818      	ldr	r0, [r3, #0]
 8011160:	2700      	movs	r7, #0
 8011162:	2800      	cmp	r0, #0
 8011164:	da08      	bge.n	8011178 <_fdoprnt2+0x1c0>
 8011166:	f100 4044 	add.w	r0, r0, #3288334336	@ 0xc4000000
 801116a:	f500 00ca 	add.w	r0, r0, #6619136	@ 0x650000
 801116e:	f500 5058 	add.w	r0, r0, #13824	@ 0x3600
 8011172:	3701      	adds	r7, #1
 8011174:	b2ff      	uxtb	r7, r7
 8011176:	e7f4      	b.n	8011162 <_fdoprnt2+0x1aa>
 8011178:	a907      	add	r1, sp, #28
 801117a:	f7ff fe21 	bl	8010dc0 <_prtl10>
 801117e:	f89d 301c 	ldrb.w	r3, [sp, #28]
 8011182:	443b      	add	r3, r7
 8011184:	f88d 301c 	strb.w	r3, [sp, #28]
 8011188:	2300      	movs	r3, #0
 801118a:	9302      	str	r3, [sp, #8]
 801118c:	4698      	mov	r8, r3
 801118e:	f10d 0a1c 	add.w	sl, sp, #28
 8011192:	e7c0      	b.n	8011116 <_fdoprnt2+0x15e>
 8011194:	9b05      	ldr	r3, [sp, #20]
 8011196:	1d1a      	adds	r2, r3, #4
 8011198:	9205      	str	r2, [sp, #20]
 801119a:	a907      	add	r1, sp, #28
 801119c:	6818      	ldr	r0, [r3, #0]
 801119e:	f7ff fe45 	bl	8010e2c <_prtl8>
 80111a2:	2300      	movs	r3, #0
 80111a4:	9302      	str	r3, [sp, #8]
 80111a6:	4698      	mov	r8, r3
 80111a8:	f10d 0a1c 	add.w	sl, sp, #28
 80111ac:	e7b3      	b.n	8011116 <_fdoprnt2+0x15e>
 80111ae:	9b05      	ldr	r3, [sp, #20]
 80111b0:	1d1a      	adds	r2, r3, #4
 80111b2:	9205      	str	r2, [sp, #20]
 80111b4:	a907      	add	r1, sp, #28
 80111b6:	6818      	ldr	r0, [r3, #0]
 80111b8:	f7ff fe9c 	bl	8010ef4 <_prtX16>
 80111bc:	2300      	movs	r3, #0
 80111be:	9302      	str	r3, [sp, #8]
 80111c0:	4698      	mov	r8, r3
 80111c2:	f10d 0a1c 	add.w	sl, sp, #28
 80111c6:	e7a6      	b.n	8011116 <_fdoprnt2+0x15e>
 80111c8:	9b05      	ldr	r3, [sp, #20]
 80111ca:	1d1a      	adds	r2, r3, #4
 80111cc:	9205      	str	r2, [sp, #20]
 80111ce:	a907      	add	r1, sp, #28
 80111d0:	6818      	ldr	r0, [r3, #0]
 80111d2:	f7ff fe5c 	bl	8010e8e <_prtl16>
 80111d6:	2300      	movs	r3, #0
 80111d8:	9302      	str	r3, [sp, #8]
 80111da:	4698      	mov	r8, r3
 80111dc:	f10d 0a1c 	add.w	sl, sp, #28
 80111e0:	e799      	b.n	8011116 <_fdoprnt2+0x15e>
 80111e2:	9b05      	ldr	r3, [sp, #20]
 80111e4:	1d1a      	adds	r2, r3, #4
 80111e6:	9205      	str	r2, [sp, #20]
 80111e8:	a907      	add	r1, sp, #28
 80111ea:	6818      	ldr	r0, [r3, #0]
 80111ec:	f7ff feb4 	bl	8010f58 <_prtl2>
 80111f0:	2300      	movs	r3, #0
 80111f2:	9302      	str	r3, [sp, #8]
 80111f4:	4698      	mov	r8, r3
 80111f6:	f10d 0a1c 	add.w	sl, sp, #28
 80111fa:	e78c      	b.n	8011116 <_fdoprnt2+0x15e>
 80111fc:	4629      	mov	r1, r5
 80111fe:	4630      	mov	r0, r6
 8011200:	47a0      	blx	r4
 8011202:	2300      	movs	r3, #0
 8011204:	9302      	str	r3, [sp, #8]
 8011206:	f10d 0a1c 	add.w	sl, sp, #28
 801120a:	e784      	b.n	8011116 <_fdoprnt2+0x15e>
 801120c:	2300      	movs	r3, #0
 801120e:	9302      	str	r3, [sp, #8]
 8011210:	2320      	movs	r3, #32
 8011212:	9303      	str	r3, [sp, #12]
 8011214:	f8df a0d8 	ldr.w	sl, [pc, #216]	@ 80112f0 <_fdoprnt2+0x338>
 8011218:	e77d      	b.n	8011116 <_fdoprnt2+0x15e>
 801121a:	3701      	adds	r7, #1
 801121c:	f81a 3007 	ldrb.w	r3, [sl, r7]
 8011220:	2b00      	cmp	r3, #0
 8011222:	d1fa      	bne.n	801121a <_fdoprnt2+0x262>
 8011224:	f1b9 0f50 	cmp.w	r9, #80	@ 0x50
 8011228:	d901      	bls.n	801122e <_fdoprnt2+0x276>
 801122a:	f04f 0900 	mov.w	r9, #0
 801122e:	f1b8 0f50 	cmp.w	r8, #80	@ 0x50
 8011232:	d819      	bhi.n	8011268 <_fdoprnt2+0x2b0>
 8011234:	f1b8 0f00 	cmp.w	r8, #0
 8011238:	d018      	beq.n	801126c <_fdoprnt2+0x2b4>
 801123a:	4547      	cmp	r7, r8
 801123c:	dd00      	ble.n	8011240 <_fdoprnt2+0x288>
 801123e:	4647      	mov	r7, r8
 8011240:	f1b9 0f00 	cmp.w	r9, #0
 8011244:	d001      	beq.n	801124a <_fdoprnt2+0x292>
 8011246:	eba9 0907 	sub.w	r9, r9, r7
 801124a:	9b02      	ldr	r3, [sp, #8]
 801124c:	2b2d      	cmp	r3, #45	@ 0x2d
 801124e:	d014      	beq.n	801127a <_fdoprnt2+0x2c2>
 8011250:	9b02      	ldr	r3, [sp, #8]
 8011252:	2b2d      	cmp	r3, #45	@ 0x2d
 8011254:	d014      	beq.n	8011280 <_fdoprnt2+0x2c8>
 8011256:	9b01      	ldr	r3, [sp, #4]
 8011258:	2b2d      	cmp	r3, #45	@ 0x2d
 801125a:	d123      	bne.n	80112a4 <_fdoprnt2+0x2ec>
 801125c:	9b02      	ldr	r3, [sp, #8]
 801125e:	2b2d      	cmp	r3, #45	@ 0x2d
 8011260:	d025      	beq.n	80112ae <_fdoprnt2+0x2f6>
 8011262:	f04f 0800 	mov.w	r8, #0
 8011266:	e031      	b.n	80112cc <_fdoprnt2+0x314>
 8011268:	f04f 0800 	mov.w	r8, #0
 801126c:	f1b9 0f00 	cmp.w	r9, #0
 8011270:	d0ee      	beq.n	8011250 <_fdoprnt2+0x298>
 8011272:	f1b8 0f00 	cmp.w	r8, #0
 8011276:	d0e3      	beq.n	8011240 <_fdoprnt2+0x288>
 8011278:	e7df      	b.n	801123a <_fdoprnt2+0x282>
 801127a:	f109 39ff 	add.w	r9, r9, #4294967295	@ 0xffffffff
 801127e:	e7e7      	b.n	8011250 <_fdoprnt2+0x298>
 8011280:	9b03      	ldr	r3, [sp, #12]
 8011282:	2b30      	cmp	r3, #48	@ 0x30
 8011284:	d1e7      	bne.n	8011256 <_fdoprnt2+0x29e>
 8011286:	9a02      	ldr	r2, [sp, #8]
 8011288:	4629      	mov	r1, r5
 801128a:	4630      	mov	r0, r6
 801128c:	47a0      	blx	r4
 801128e:	e7e2      	b.n	8011256 <_fdoprnt2+0x29e>
 8011290:	463a      	mov	r2, r7
 8011292:	4629      	mov	r1, r5
 8011294:	4630      	mov	r0, r6
 8011296:	47a0      	blx	r4
 8011298:	f108 0801 	add.w	r8, r8, #1
 801129c:	45c8      	cmp	r8, r9
 801129e:	dbf7      	blt.n	8011290 <_fdoprnt2+0x2d8>
 80112a0:	9f04      	ldr	r7, [sp, #16]
 80112a2:	e7db      	b.n	801125c <_fdoprnt2+0x2a4>
 80112a4:	f04f 0800 	mov.w	r8, #0
 80112a8:	9704      	str	r7, [sp, #16]
 80112aa:	9f03      	ldr	r7, [sp, #12]
 80112ac:	e7f6      	b.n	801129c <_fdoprnt2+0x2e4>
 80112ae:	9b03      	ldr	r3, [sp, #12]
 80112b0:	2b20      	cmp	r3, #32
 80112b2:	d1d6      	bne.n	8011262 <_fdoprnt2+0x2aa>
 80112b4:	9a02      	ldr	r2, [sp, #8]
 80112b6:	4629      	mov	r1, r5
 80112b8:	4630      	mov	r0, r6
 80112ba:	47a0      	blx	r4
 80112bc:	e7d1      	b.n	8011262 <_fdoprnt2+0x2aa>
 80112be:	f81a 2008 	ldrb.w	r2, [sl, r8]
 80112c2:	4629      	mov	r1, r5
 80112c4:	4630      	mov	r0, r6
 80112c6:	47a0      	blx	r4
 80112c8:	f108 0801 	add.w	r8, r8, #1
 80112cc:	45b8      	cmp	r8, r7
 80112ce:	dbf6      	blt.n	80112be <_fdoprnt2+0x306>
 80112d0:	9b01      	ldr	r3, [sp, #4]
 80112d2:	2b2d      	cmp	r3, #45	@ 0x2d
 80112d4:	f47f ae78 	bne.w	8010fc8 <_fdoprnt2+0x10>
 80112d8:	2700      	movs	r7, #0
 80112da:	f8dd 800c 	ldr.w	r8, [sp, #12]
 80112de:	e004      	b.n	80112ea <_fdoprnt2+0x332>
 80112e0:	4642      	mov	r2, r8
 80112e2:	4629      	mov	r1, r5
 80112e4:	4630      	mov	r0, r6
 80112e6:	47a0      	blx	r4
 80112e8:	3701      	adds	r7, #1
 80112ea:	454f      	cmp	r7, r9
 80112ec:	dbf8      	blt.n	80112e0 <_fdoprnt2+0x328>
 80112ee:	e66b      	b.n	8010fc8 <_fdoprnt2+0x10>
 80112f0:	0801c6c8 	.word	0x0801c6c8

080112f4 <_fdoprnt>:
 80112f4:	e92d 4ff0 	stmdb	sp!, {r4, r5, r6, r7, r8, r9, sl, fp, lr}
 80112f8:	b08b      	sub	sp, #44	@ 0x2c
 80112fa:	4604      	mov	r4, r0
 80112fc:	9103      	str	r1, [sp, #12]
 80112fe:	4615      	mov	r5, r2
 8011300:	461e      	mov	r6, r3
 8011302:	4627      	mov	r7, r4
 8011304:	f817 1b01 	ldrb.w	r1, [r7], #1
 8011308:	2925      	cmp	r1, #37	@ 0x25
 801130a:	d006      	beq.n	801131a <_fdoprnt+0x26>
 801130c:	2900      	cmp	r1, #0
 801130e:	f000 8087 	beq.w	8011420 <_fdoprnt+0x12c>
 8011312:	4630      	mov	r0, r6
 8011314:	47a8      	blx	r5
 8011316:	463c      	mov	r4, r7
 8011318:	e7f3      	b.n	8011302 <_fdoprnt+0xe>
 801131a:	f894 b001 	ldrb.w	fp, [r4, #1]
 801131e:	f1bb 0f25 	cmp.w	fp, #37	@ 0x25
 8011322:	d043      	beq.n	80113ac <_fdoprnt+0xb8>
 8011324:	f1bb 0f2d 	cmp.w	fp, #45	@ 0x2d
 8011328:	d045      	beq.n	80113b6 <_fdoprnt+0xc2>
 801132a:	783b      	ldrb	r3, [r7, #0]
 801132c:	9301      	str	r3, [sp, #4]
 801132e:	2b30      	cmp	r3, #48	@ 0x30
 8011330:	d043      	beq.n	80113ba <_fdoprnt+0xc6>
 8011332:	2320      	movs	r3, #32
 8011334:	9301      	str	r3, [sp, #4]
 8011336:	783b      	ldrb	r3, [r7, #0]
 8011338:	2b2a      	cmp	r3, #42	@ 0x2a
 801133a:	d14e      	bne.n	80113da <_fdoprnt+0xe6>
 801133c:	9b03      	ldr	r3, [sp, #12]
 801133e:	1d1a      	adds	r2, r3, #4
 8011340:	9203      	str	r2, [sp, #12]
 8011342:	f8d3 9000 	ldr.w	r9, [r3]
 8011346:	3701      	adds	r7, #1
 8011348:	783b      	ldrb	r3, [r7, #0]
 801134a:	2b2e      	cmp	r3, #46	@ 0x2e
 801134c:	d048      	beq.n	80113e0 <_fdoprnt+0xec>
 801134e:	f04f 0800 	mov.w	r8, #0
 8011352:	463c      	mov	r4, r7
 8011354:	f814 1b01 	ldrb.w	r1, [r4], #1
 8011358:	2900      	cmp	r1, #0
 801135a:	d05e      	beq.n	801141a <_fdoprnt+0x126>
 801135c:	f1a1 0358 	sub.w	r3, r1, #88	@ 0x58
 8011360:	2b20      	cmp	r3, #32
 8011362:	f200 80e2 	bhi.w	801152a <_fdoprnt+0x236>
 8011366:	e8df f013 	tbh	[pc, r3, lsl #1]
 801136a:	00b9      	.short	0x00b9
 801136c:	00e000e0 	.word	0x00e000e0
 8011370:	00e000e0 	.word	0x00e000e0
 8011374:	00e000e0 	.word	0x00e000e0
 8011378:	00e000e0 	.word	0x00e000e0
 801137c:	00d300e0 	.word	0x00d300e0
 8011380:	007c005e 	.word	0x007c005e
 8011384:	00e000e0 	.word	0x00e000e0
 8011388:	00e000e0 	.word	0x00e000e0
 801138c:	00e000e0 	.word	0x00e000e0
 8011390:	00e000e0 	.word	0x00e000e0
 8011394:	00e000e0 	.word	0x00e000e0
 8011398:	00e000ac 	.word	0x00e000ac
 801139c:	00e000e0 	.word	0x00e000e0
 80113a0:	00e0006f 	.word	0x00e0006f
 80113a4:	00e0008e 	.word	0x00e0008e
 80113a8:	00c600e0 	.word	0x00c600e0
 80113ac:	3402      	adds	r4, #2
 80113ae:	4659      	mov	r1, fp
 80113b0:	4630      	mov	r0, r6
 80113b2:	47a8      	blx	r5
 80113b4:	e7a5      	b.n	8011302 <_fdoprnt+0xe>
 80113b6:	1ca7      	adds	r7, r4, #2
 80113b8:	e7b7      	b.n	801132a <_fdoprnt+0x36>
 80113ba:	3701      	adds	r7, #1
 80113bc:	e7bb      	b.n	8011336 <_fdoprnt+0x42>
 80113be:	eb09 0989 	add.w	r9, r9, r9, lsl #2
 80113c2:	3701      	adds	r7, #1
 80113c4:	eb03 0349 	add.w	r3, r3, r9, lsl #1
 80113c8:	f1a3 0930 	sub.w	r9, r3, #48	@ 0x30
 80113cc:	783b      	ldrb	r3, [r7, #0]
 80113ce:	f1a3 0230 	sub.w	r2, r3, #48	@ 0x30
 80113d2:	b2d2      	uxtb	r2, r2
 80113d4:	2a09      	cmp	r2, #9
 80113d6:	d9f2      	bls.n	80113be <_fdoprnt+0xca>
 80113d8:	e7b6      	b.n	8011348 <_fdoprnt+0x54>
 80113da:	f04f 0900 	mov.w	r9, #0
 80113de:	e7f5      	b.n	80113cc <_fdoprnt+0xd8>
 80113e0:	1c79      	adds	r1, r7, #1
 80113e2:	787b      	ldrb	r3, [r7, #1]
 80113e4:	2b2a      	cmp	r3, #42	@ 0x2a
 80113e6:	d115      	bne.n	8011414 <_fdoprnt+0x120>
 80113e8:	9b03      	ldr	r3, [sp, #12]
 80113ea:	1d1a      	adds	r2, r3, #4
 80113ec:	9203      	str	r2, [sp, #12]
 80113ee:	f8d3 8000 	ldr.w	r8, [r3]
 80113f2:	3702      	adds	r7, #2
 80113f4:	e7ad      	b.n	8011352 <_fdoprnt+0x5e>
 80113f6:	eb08 0288 	add.w	r2, r8, r8, lsl #2
 80113fa:	3101      	adds	r1, #1
 80113fc:	eb03 0342 	add.w	r3, r3, r2, lsl #1
 8011400:	f1a3 0830 	sub.w	r8, r3, #48	@ 0x30
 8011404:	780b      	ldrb	r3, [r1, #0]
 8011406:	f1a3 0230 	sub.w	r2, r3, #48	@ 0x30
 801140a:	b2d2      	uxtb	r2, r2
 801140c:	2a09      	cmp	r2, #9
 801140e:	d9f2      	bls.n	80113f6 <_fdoprnt+0x102>
 8011410:	460f      	mov	r7, r1
 8011412:	e79e      	b.n	8011352 <_fdoprnt+0x5e>
 8011414:	f04f 0800 	mov.w	r8, #0
 8011418:	e7f4      	b.n	8011404 <_fdoprnt+0x110>
 801141a:	2125      	movs	r1, #37	@ 0x25
 801141c:	4630      	mov	r0, r6
 801141e:	47a8      	blx	r5
 8011420:	b00b      	add	sp, #44	@ 0x2c
 8011422:	e8bd 8ff0 	ldmia.w	sp!, {r4, r5, r6, r7, r8, r9, sl, fp, pc}
 8011426:	9b03      	ldr	r3, [sp, #12]
 8011428:	1d1a      	adds	r2, r3, #4
 801142a:	9203      	str	r2, [sp, #12]
 801142c:	681b      	ldr	r3, [r3, #0]
 801142e:	f88d 3014 	strb.w	r3, [sp, #20]
 8011432:	2300      	movs	r3, #0
 8011434:	f88d 3015 	strb.w	r3, [sp, #21]
 8011438:	9302      	str	r3, [sp, #8]
 801143a:	4698      	mov	r8, r3
 801143c:	2320      	movs	r3, #32
 801143e:	9301      	str	r3, [sp, #4]
 8011440:	f10d 0a14 	add.w	sl, sp, #20
 8011444:	2700      	movs	r7, #0
 8011446:	e07f      	b.n	8011548 <_fdoprnt+0x254>
 8011448:	9b03      	ldr	r3, [sp, #12]
 801144a:	1d1a      	adds	r2, r3, #4
 801144c:	9203      	str	r2, [sp, #12]
 801144e:	f8d3 a000 	ldr.w	sl, [r3]
 8011452:	f1ba 0f00 	cmp.w	sl, #0
 8011456:	d06f      	beq.n	8011538 <_fdoprnt+0x244>
 8011458:	2300      	movs	r3, #0
 801145a:	9302      	str	r3, [sp, #8]
 801145c:	2320      	movs	r3, #32
 801145e:	9301      	str	r3, [sp, #4]
 8011460:	e7f0      	b.n	8011444 <_fdoprnt+0x150>
 8011462:	9b03      	ldr	r3, [sp, #12]
 8011464:	1d1a      	adds	r2, r3, #4
 8011466:	9203      	str	r2, [sp, #12]
 8011468:	6818      	ldr	r0, [r3, #0]
 801146a:	2800      	cmp	r0, #0
 801146c:	db07      	blt.n	801147e <_fdoprnt+0x18a>
 801146e:	2300      	movs	r3, #0
 8011470:	9302      	str	r3, [sp, #8]
 8011472:	a905      	add	r1, sp, #20
 8011474:	f7ff fca4 	bl	8010dc0 <_prtl10>
 8011478:	f10d 0a14 	add.w	sl, sp, #20
 801147c:	e7e2      	b.n	8011444 <_fdoprnt+0x150>
 801147e:	4240      	negs	r0, r0
 8011480:	232d      	movs	r3, #45	@ 0x2d
 8011482:	9302      	str	r3, [sp, #8]
 8011484:	e7f5      	b.n	8011472 <_fdoprnt+0x17e>
 8011486:	9b03      	ldr	r3, [sp, #12]
 8011488:	1d1a      	adds	r2, r3, #4
 801148a:	9203      	str	r2, [sp, #12]
 801148c:	6818      	ldr	r0, [r3, #0]
 801148e:	2700      	movs	r7, #0
 8011490:	2800      	cmp	r0, #0
 8011492:	da08      	bge.n	80114a6 <_fdoprnt+0x1b2>
 8011494:	f100 4044 	add.w	r0, r0, #3288334336	@ 0xc4000000
 8011498:	f500 00ca 	add.w	r0, r0, #6619136	@ 0x650000
 801149c:	f500 5058 	add.w	r0, r0, #13824	@ 0x3600
 80114a0:	3701      	adds	r7, #1
 80114a2:	b2ff      	uxtb	r7, r7
 80114a4:	e7f4      	b.n	8011490 <_fdoprnt+0x19c>
 80114a6:	a905      	add	r1, sp, #20
 80114a8:	f7ff fc8a 	bl	8010dc0 <_prtl10>
 80114ac:	f89d 3014 	ldrb.w	r3, [sp, #20]
 80114b0:	443b      	add	r3, r7
 80114b2:	f88d 3014 	strb.w	r3, [sp, #20]
 80114b6:	2300      	movs	r3, #0
 80114b8:	9302      	str	r3, [sp, #8]
 80114ba:	4698      	mov	r8, r3
 80114bc:	f10d 0a14 	add.w	sl, sp, #20
 80114c0:	e7c0      	b.n	8011444 <_fdoprnt+0x150>
 80114c2:	9b03      	ldr	r3, [sp, #12]
 80114c4:	1d1a      	adds	r2, r3, #4
 80114c6:	9203      	str	r2, [sp, #12]
 80114c8:	a905      	add	r1, sp, #20
 80114ca:	6818      	ldr	r0, [r3, #0]
 80114cc:	f7ff fcae 	bl	8010e2c <_prtl8>
 80114d0:	2300      	movs	r3, #0
 80114d2:	9302      	str	r3, [sp, #8]
 80114d4:	4698      	mov	r8, r3
 80114d6:	f10d 0a14 	add.w	sl, sp, #20
 80114da:	e7b3      	b.n	8011444 <_fdoprnt+0x150>
 80114dc:	9b03      	ldr	r3, [sp, #12]
 80114de:	1d1a      	adds	r2, r3, #4
 80114e0:	9203      	str	r2, [sp, #12]
 80114e2:	a905      	add	r1, sp, #20
 80114e4:	6818      	ldr	r0, [r3, #0]
 80114e6:	f7ff fd05 	bl	8010ef4 <_prtX16>
 80114ea:	2300      	movs	r3, #0
 80114ec:	9302      	str	r3, [sp, #8]
 80114ee:	4698      	mov	r8, r3
 80114f0:	f10d 0a14 	add.w	sl, sp, #20
 80114f4:	e7a6      	b.n	8011444 <_fdoprnt+0x150>
 80114f6:	9b03      	ldr	r3, [sp, #12]
 80114f8:	1d1a      	adds	r2, r3, #4
 80114fa:	9203      	str	r2, [sp, #12]
 80114fc:	a905      	add	r1, sp, #20
 80114fe:	6818      	ldr	r0, [r3, #0]
 8011500:	f7ff fcc5 	bl	8010e8e <_prtl16>
 8011504:	2300      	movs	r3, #0
 8011506:	9302      	str	r3, [sp, #8]
 8011508:	4698      	mov	r8, r3
 801150a:	f10d 0a14 	add.w	sl, sp, #20
 801150e:	e799      	b.n	8011444 <_fdoprnt+0x150>
 8011510:	9b03      	ldr	r3, [sp, #12]
 8011512:	1d1a      	adds	r2, r3, #4
 8011514:	9203      	str	r2, [sp, #12]
 8011516:	a905      	add	r1, sp, #20
 8011518:	6818      	ldr	r0, [r3, #0]
 801151a:	f7ff fd1d 	bl	8010f58 <_prtl2>
 801151e:	2300      	movs	r3, #0
 8011520:	9302      	str	r3, [sp, #8]
 8011522:	4698      	mov	r8, r3
 8011524:	f10d 0a14 	add.w	sl, sp, #20
 8011528:	e78c      	b.n	8011444 <_fdoprnt+0x150>
 801152a:	4630      	mov	r0, r6
 801152c:	47a8      	blx	r5
 801152e:	2300      	movs	r3, #0
 8011530:	9302      	str	r3, [sp, #8]
 8011532:	f10d 0a14 	add.w	sl, sp, #20
 8011536:	e785      	b.n	8011444 <_fdoprnt+0x150>
 8011538:	2300      	movs	r3, #0
 801153a:	9302      	str	r3, [sp, #8]
 801153c:	2320      	movs	r3, #32
 801153e:	9301      	str	r3, [sp, #4]
 8011540:	f8df a0c4 	ldr.w	sl, [pc, #196]	@ 8011608 <_fdoprnt+0x314>
 8011544:	e77e      	b.n	8011444 <_fdoprnt+0x150>
 8011546:	3701      	adds	r7, #1
 8011548:	f81a 3007 	ldrb.w	r3, [sl, r7]
 801154c:	2b00      	cmp	r3, #0
 801154e:	d1fa      	bne.n	8011546 <_fdoprnt+0x252>
 8011550:	f1b9 0f50 	cmp.w	r9, #80	@ 0x50
 8011554:	d901      	bls.n	801155a <_fdoprnt+0x266>
 8011556:	f04f 0900 	mov.w	r9, #0
 801155a:	f1b8 0f50 	cmp.w	r8, #80	@ 0x50
 801155e:	d819      	bhi.n	8011594 <_fdoprnt+0x2a0>
 8011560:	f1b8 0f00 	cmp.w	r8, #0
 8011564:	d018      	beq.n	8011598 <_fdoprnt+0x2a4>
 8011566:	4547      	cmp	r7, r8
 8011568:	dd00      	ble.n	801156c <_fdoprnt+0x278>
 801156a:	4647      	mov	r7, r8
 801156c:	f1b9 0f00 	cmp.w	r9, #0
 8011570:	d001      	beq.n	8011576 <_fdoprnt+0x282>
 8011572:	eba9 0907 	sub.w	r9, r9, r7
 8011576:	9b02      	ldr	r3, [sp, #8]
 8011578:	2b2d      	cmp	r3, #45	@ 0x2d
 801157a:	d014      	beq.n	80115a6 <_fdoprnt+0x2b2>
 801157c:	9b02      	ldr	r3, [sp, #8]
 801157e:	2b2d      	cmp	r3, #45	@ 0x2d
 8011580:	d014      	beq.n	80115ac <_fdoprnt+0x2b8>
 8011582:	f1bb 0f2d 	cmp.w	fp, #45	@ 0x2d
 8011586:	d120      	bne.n	80115ca <_fdoprnt+0x2d6>
 8011588:	9b02      	ldr	r3, [sp, #8]
 801158a:	2b2d      	cmp	r3, #45	@ 0x2d
 801158c:	d020      	beq.n	80115d0 <_fdoprnt+0x2dc>
 801158e:	f04f 0800 	mov.w	r8, #0
 8011592:	e02a      	b.n	80115ea <_fdoprnt+0x2f6>
 8011594:	f04f 0800 	mov.w	r8, #0
 8011598:	f1b9 0f00 	cmp.w	r9, #0
 801159c:	d0ee      	beq.n	801157c <_fdoprnt+0x288>
 801159e:	f1b8 0f00 	cmp.w	r8, #0
 80115a2:	d0e3      	beq.n	801156c <_fdoprnt+0x278>
 80115a4:	e7df      	b.n	8011566 <_fdoprnt+0x272>
 80115a6:	f109 39ff 	add.w	r9, r9, #4294967295	@ 0xffffffff
 80115aa:	e7e7      	b.n	801157c <_fdoprnt+0x288>
 80115ac:	9b01      	ldr	r3, [sp, #4]
 80115ae:	2b30      	cmp	r3, #48	@ 0x30
 80115b0:	d1e7      	bne.n	8011582 <_fdoprnt+0x28e>
 80115b2:	9902      	ldr	r1, [sp, #8]
 80115b4:	4630      	mov	r0, r6
 80115b6:	47a8      	blx	r5
 80115b8:	e7e3      	b.n	8011582 <_fdoprnt+0x28e>
 80115ba:	9901      	ldr	r1, [sp, #4]
 80115bc:	4630      	mov	r0, r6
 80115be:	47a8      	blx	r5
 80115c0:	f108 0801 	add.w	r8, r8, #1
 80115c4:	45c8      	cmp	r8, r9
 80115c6:	dbf8      	blt.n	80115ba <_fdoprnt+0x2c6>
 80115c8:	e7de      	b.n	8011588 <_fdoprnt+0x294>
 80115ca:	f04f 0800 	mov.w	r8, #0
 80115ce:	e7f9      	b.n	80115c4 <_fdoprnt+0x2d0>
 80115d0:	9b01      	ldr	r3, [sp, #4]
 80115d2:	2b20      	cmp	r3, #32
 80115d4:	d1db      	bne.n	801158e <_fdoprnt+0x29a>
 80115d6:	9902      	ldr	r1, [sp, #8]
 80115d8:	4630      	mov	r0, r6
 80115da:	47a8      	blx	r5
 80115dc:	e7d7      	b.n	801158e <_fdoprnt+0x29a>
 80115de:	f81a 1008 	ldrb.w	r1, [sl, r8]
 80115e2:	4630      	mov	r0, r6
 80115e4:	47a8      	blx	r5
 80115e6:	f108 0801 	add.w	r8, r8, #1
 80115ea:	45b8      	cmp	r8, r7
 80115ec:	dbf7      	blt.n	80115de <_fdoprnt+0x2ea>
 80115ee:	f1bb 0f2d 	cmp.w	fp, #45	@ 0x2d
 80115f2:	f47f ae86 	bne.w	8011302 <_fdoprnt+0xe>
 80115f6:	2700      	movs	r7, #0
 80115f8:	e003      	b.n	8011602 <_fdoprnt+0x30e>
 80115fa:	9901      	ldr	r1, [sp, #4]
 80115fc:	4630      	mov	r0, r6
 80115fe:	47a8      	blx	r5
 8011600:	3701      	adds	r7, #1
 8011602:	454f      	cmp	r7, r9
 8011604:	dbf9      	blt.n	80115fa <_fdoprnt+0x306>
 8011606:	e67c      	b.n	8011302 <_fdoprnt+0xe>
 8011608:	0801c6c8 	.word	0x0801c6c8

0801160c <fgetc>:
 801160c:	b508      	push	{r3, lr}
 801160e:	f004 fa89 	bl	8015b24 <getc>
 8011612:	2800      	cmp	r0, #0
 8011614:	db00      	blt.n	8011618 <fgetc+0xc>
 8011616:	bd08      	pop	{r3, pc}
 8011618:	f06f 0001 	mvn.w	r0, #1
 801161c:	e7fb      	b.n	8011616 <fgetc+0xa>

0801161e <fgets>:
 801161e:	b5f8      	push	{r3, r4, r5, r6, r7, lr}
 8011620:	4607      	mov	r7, r0
 8011622:	460d      	mov	r5, r1
 8011624:	4616      	mov	r6, r2
 8011626:	4604      	mov	r4, r0
 8011628:	2300      	movs	r3, #0
 801162a:	3d01      	subs	r5, #1
 801162c:	2d00      	cmp	r5, #0
 801162e:	dd0e      	ble.n	801164e <fgets+0x30>
 8011630:	4630      	mov	r0, r6
 8011632:	f004 fa77 	bl	8015b24 <getc>
 8011636:	1e03      	subs	r3, r0, #0
 8011638:	db09      	blt.n	801164e <fgets+0x30>
 801163a:	46a4      	mov	ip, r4
 801163c:	f80c 3b01 	strb.w	r3, [ip], #1
 8011640:	2b0a      	cmp	r3, #10
 8011642:	d003      	beq.n	801164c <fgets+0x2e>
 8011644:	2b0d      	cmp	r3, #13
 8011646:	d008      	beq.n	801165a <fgets+0x3c>
 8011648:	4664      	mov	r4, ip
 801164a:	e7ee      	b.n	801162a <fgets+0xc>
 801164c:	4664      	mov	r4, ip
 801164e:	2b00      	cmp	r3, #0
 8011650:	db05      	blt.n	801165e <fgets+0x40>
 8011652:	2300      	movs	r3, #0
 8011654:	7023      	strb	r3, [r4, #0]
 8011656:	4638      	mov	r0, r7
 8011658:	bdf8      	pop	{r3, r4, r5, r6, r7, pc}
 801165a:	4664      	mov	r4, ip
 801165c:	e7f7      	b.n	801164e <fgets+0x30>
 801165e:	42bc      	cmp	r4, r7
 8011660:	d1f7      	bne.n	8011652 <fgets+0x34>
 8011662:	2000      	movs	r0, #0
 8011664:	e7f8      	b.n	8011658 <fgets+0x3a>
	...

08011668 <fprintf>:
 8011668:	b40e      	push	{r1, r2, r3}
 801166a:	b500      	push	{lr}
 801166c:	b082      	sub	sp, #8
 801166e:	4603      	mov	r3, r0
 8011670:	a903      	add	r1, sp, #12
 8011672:	f851 0b04 	ldr.w	r0, [r1], #4
 8011676:	9101      	str	r1, [sp, #4]
 8011678:	4a04      	ldr	r2, [pc, #16]	@ (801168c <fprintf+0x24>)
 801167a:	f7ff fe3b 	bl	80112f4 <_fdoprnt>
 801167e:	2000      	movs	r0, #0
 8011680:	b002      	add	sp, #8
 8011682:	f85d eb04 	ldr.w	lr, [sp], #4
 8011686:	b003      	add	sp, #12
 8011688:	4770      	bx	lr
 801168a:	bf00      	nop
 801168c:	08015ba1 	.word	0x08015ba1

08011690 <fputc>:
 8011690:	b510      	push	{r4, lr}
 8011692:	4604      	mov	r4, r0
 8011694:	4608      	mov	r0, r1
 8011696:	b2e1      	uxtb	r1, r4
 8011698:	f004 fa82 	bl	8015ba0 <putc>
 801169c:	f1b0 3fff 	cmp.w	r0, #4294967295	@ 0xffffffff
 80116a0:	d001      	beq.n	80116a6 <fputc+0x16>
 80116a2:	4620      	mov	r0, r4
 80116a4:	bd10      	pop	{r4, pc}
 80116a6:	f06f 0401 	mvn.w	r4, #1
 80116aa:	e7fa      	b.n	80116a2 <fputc+0x12>

080116ac <fputs>:
 80116ac:	b538      	push	{r3, r4, r5, lr}
 80116ae:	4604      	mov	r4, r0
 80116b0:	460d      	mov	r5, r1
 80116b2:	2000      	movs	r0, #0
 80116b4:	e002      	b.n	80116bc <fputs+0x10>
 80116b6:	4628      	mov	r0, r5
 80116b8:	f004 fa72 	bl	8015ba0 <putc>
 80116bc:	f814 1b01 	ldrb.w	r1, [r4], #1
 80116c0:	2900      	cmp	r1, #0
 80116c2:	d1f8      	bne.n	80116b6 <fputs+0xa>
 80116c4:	bd38      	pop	{r3, r4, r5, pc}
	...

080116c8 <getchar>:
 80116c8:	b508      	push	{r3, lr}
 80116ca:	4b06      	ldr	r3, [pc, #24]	@ (80116e4 <getchar+0x1c>)
 80116cc:	681b      	ldr	r3, [r3, #0]
 80116ce:	eb03 1303 	add.w	r3, r3, r3, lsl #4
 80116d2:	009a      	lsls	r2, r3, #2
 80116d4:	4b04      	ldr	r3, [pc, #16]	@ (80116e8 <getchar+0x20>)
 80116d6:	4413      	add	r3, r2
 80116d8:	f9b3 0032 	ldrsh.w	r0, [r3, #50]	@ 0x32
 80116dc:	f7ff ff96 	bl	801160c <fgetc>
 80116e0:	bd08      	pop	{r3, pc}
 80116e2:	bf00      	nop
 80116e4:	20001c78 	.word	0x20001c78
 80116e8:	200017bc 	.word	0x200017bc

080116ec <malloc>:
 80116ec:	b160      	cbz	r0, 8011708 <malloc+0x1c>
 80116ee:	b510      	push	{r4, lr}
 80116f0:	4604      	mov	r4, r0
 80116f2:	3408      	adds	r4, #8
 80116f4:	4620      	mov	r0, r4
 80116f6:	f004 fd9b 	bl	8016230 <getmem>
 80116fa:	f1b0 3fff 	cmp.w	r0, #4294967295	@ 0xffffffff
 80116fe:	d005      	beq.n	801170c <malloc+0x20>
 8011700:	6000      	str	r0, [r0, #0]
 8011702:	6044      	str	r4, [r0, #4]
 8011704:	3008      	adds	r0, #8
 8011706:	bd10      	pop	{r4, pc}
 8011708:	2000      	movs	r0, #0
 801170a:	4770      	bx	lr
 801170c:	2000      	movs	r0, #0
 801170e:	e7fa      	b.n	8011706 <malloc+0x1a>

08011710 <free>:
 8011710:	b508      	push	{r3, lr}
 8011712:	4603      	mov	r3, r0
 8011714:	3808      	subs	r0, #8
 8011716:	f853 2c08 	ldr.w	r2, [r3, #-8]
 801171a:	4282      	cmp	r2, r0
 801171c:	d000      	beq.n	8011720 <free+0x10>
 801171e:	bd08      	pop	{r3, pc}
 8011720:	f853 1c04 	ldr.w	r1, [r3, #-4]
 8011724:	f004 fd2e 	bl	8016184 <freemem>
 8011728:	e7f9      	b.n	801171e <free+0xe>

0801172a <realloc>:
 801172a:	b570      	push	{r4, r5, r6, lr}
 801172c:	b1a9      	cbz	r1, 801175a <realloc+0x30>
 801172e:	4604      	mov	r4, r0
 8011730:	460e      	mov	r6, r1
 8011732:	b168      	cbz	r0, 8011750 <realloc+0x26>
 8011734:	4608      	mov	r0, r1
 8011736:	f7ff ffd9 	bl	80116ec <malloc>
 801173a:	4605      	mov	r5, r0
 801173c:	b130      	cbz	r0, 801174c <realloc+0x22>
 801173e:	4632      	mov	r2, r6
 8011740:	4621      	mov	r1, r4
 8011742:	f001 f977 	bl	8012a34 <memcpy>
 8011746:	4620      	mov	r0, r4
 8011748:	f7ff ffe2 	bl	8011710 <free>
 801174c:	4628      	mov	r0, r5
 801174e:	bd70      	pop	{r4, r5, r6, pc}
 8011750:	4608      	mov	r0, r1
 8011752:	f7ff ffcb 	bl	80116ec <malloc>
 8011756:	4605      	mov	r5, r0
 8011758:	e7f8      	b.n	801174c <realloc+0x22>
 801175a:	2500      	movs	r5, #0
 801175c:	e7f6      	b.n	801174c <realloc+0x22>

0801175e <calloc>:
 801175e:	b538      	push	{r3, r4, r5, lr}
 8011760:	fb01 f400 	mul.w	r4, r1, r0
 8011764:	4620      	mov	r0, r4
 8011766:	f7ff ffc1 	bl	80116ec <malloc>
 801176a:	4605      	mov	r5, r0
 801176c:	b118      	cbz	r0, 8011776 <calloc+0x18>
 801176e:	4622      	mov	r2, r4
 8011770:	2100      	movs	r1, #0
 8011772:	f001 f958 	bl	8012a26 <memset>
 8011776:	4628      	mov	r0, r5
 8011778:	bd38      	pop	{r3, r4, r5, pc}

0801177a <cc_malloc>:
 801177a:	b160      	cbz	r0, 8011796 <cc_malloc+0x1c>
 801177c:	b510      	push	{r4, lr}
 801177e:	4604      	mov	r4, r0
 8011780:	3408      	adds	r4, #8
 8011782:	4620      	mov	r0, r4
 8011784:	f004 fe3e 	bl	8016404 <getmemcc>
 8011788:	f1b0 3fff 	cmp.w	r0, #4294967295	@ 0xffffffff
 801178c:	d005      	beq.n	801179a <cc_malloc+0x20>
 801178e:	6000      	str	r0, [r0, #0]
 8011790:	6044      	str	r4, [r0, #4]
 8011792:	3008      	adds	r0, #8
 8011794:	bd10      	pop	{r4, pc}
 8011796:	2000      	movs	r0, #0
 8011798:	4770      	bx	lr
 801179a:	2000      	movs	r0, #0
 801179c:	e7fa      	b.n	8011794 <cc_malloc+0x1a>

0801179e <cc_free>:
 801179e:	b508      	push	{r3, lr}
 80117a0:	4603      	mov	r3, r0
 80117a2:	3808      	subs	r0, #8
 80117a4:	f853 2c08 	ldr.w	r2, [r3, #-8]
 80117a8:	4282      	cmp	r2, r0
 80117aa:	d000      	beq.n	80117ae <cc_free+0x10>
 80117ac:	bd08      	pop	{r3, pc}
 80117ae:	f853 1c04 	ldr.w	r1, [r3, #-4]
 80117b2:	f004 fdd1 	bl	8016358 <freememcc>
 80117b6:	e7f9      	b.n	80117ac <cc_free+0xe>

080117b8 <cc_realloc>:
 80117b8:	b570      	push	{r4, r5, r6, lr}
 80117ba:	b1a9      	cbz	r1, 80117e8 <cc_realloc+0x30>
 80117bc:	4604      	mov	r4, r0
 80117be:	460e      	mov	r6, r1
 80117c0:	b168      	cbz	r0, 80117de <cc_realloc+0x26>
 80117c2:	4608      	mov	r0, r1
 80117c4:	f7ff ffd9 	bl	801177a <cc_malloc>
 80117c8:	4605      	mov	r5, r0
 80117ca:	b130      	cbz	r0, 80117da <cc_realloc+0x22>
 80117cc:	4632      	mov	r2, r6
 80117ce:	4621      	mov	r1, r4
 80117d0:	f001 f930 	bl	8012a34 <memcpy>
 80117d4:	4620      	mov	r0, r4
 80117d6:	f7ff ffe2 	bl	801179e <cc_free>
 80117da:	4628      	mov	r0, r5
 80117dc:	bd70      	pop	{r4, r5, r6, pc}
 80117de:	4608      	mov	r0, r1
 80117e0:	f7ff ffcb 	bl	801177a <cc_malloc>
 80117e4:	4605      	mov	r5, r0
 80117e6:	e7f8      	b.n	80117da <cc_realloc+0x22>
 80117e8:	2500      	movs	r5, #0
 80117ea:	e7f6      	b.n	80117da <cc_realloc+0x22>

080117ec <cc_calloc>:
 80117ec:	b538      	push	{r3, r4, r5, lr}
 80117ee:	fb01 f400 	mul.w	r4, r1, r0
 80117f2:	4620      	mov	r0, r4
 80117f4:	f7ff ffc1 	bl	801177a <cc_malloc>
 80117f8:	4605      	mov	r5, r0
 80117fa:	b118      	cbz	r0, 8011804 <cc_calloc+0x18>
 80117fc:	4622      	mov	r2, r4
 80117fe:	2100      	movs	r1, #0
 8011800:	f001 f911 	bl	8012a26 <memset>
 8011804:	4628      	mov	r0, r5
 8011806:	bd38      	pop	{r3, r4, r5, pc}

08011808 <atangentf>:
 8011808:	b510      	push	{r4, lr}
 801180a:	ed2d 8b04 	vpush	{d8-d9}
 801180e:	b082      	sub	sp, #8
 8011810:	eeb0 9a40 	vmov.f32	s18, s0
 8011814:	eef0 8a60 	vmov.f32	s17, s1
 8011818:	eeb0 8a41 	vmov.f32	s16, s2
 801181c:	4604      	mov	r4, r0
 801181e:	b1f8      	cbz	r0, 8011860 <atangentf+0x58>
 8011820:	eeb5 1a40 	vcmp.f32	s2, #0.0
 8011824:	eef1 fa10 	vmrs	APSR_nzcv, fpscr
 8011828:	d108      	bne.n	801183c <atangentf+0x34>
 801182a:	eef5 0a40 	vcmp.f32	s1, #0.0
 801182e:	eef1 fa10 	vmrs	APSR_nzcv, fpscr
 8011832:	f000 809e 	beq.w	8011972 <atangentf+0x16a>
 8011836:	ed9f 0a50 	vldr	s0, [pc, #320]	@ 8011978 <atangentf+0x170>
 801183a:	e06c      	b.n	8011916 <atangentf+0x10e>
 801183c:	a801      	add	r0, sp, #4
 801183e:	eeb0 0a60 	vmov.f32	s0, s1
 8011842:	f000 f8e2 	bl	8011a0a <frexpf>
 8011846:	4668      	mov	r0, sp
 8011848:	eeb0 0a48 	vmov.f32	s0, s16
 801184c:	f000 f8dd 	bl	8011a0a <frexpf>
 8011850:	9b01      	ldr	r3, [sp, #4]
 8011852:	9a00      	ldr	r2, [sp, #0]
 8011854:	1a9b      	subs	r3, r3, r2
 8011856:	2b80      	cmp	r3, #128	@ 0x80
 8011858:	dc75      	bgt.n	8011946 <atangentf+0x13e>
 801185a:	f113 0f7d 	cmn.w	r3, #125	@ 0x7d
 801185e:	db75      	blt.n	801194c <atangentf+0x144>
 8011860:	2c00      	cmp	r4, #0
 8011862:	d067      	beq.n	8011934 <atangentf+0x12c>
 8011864:	ee88 0a88 	vdiv.f32	s0, s17, s16
 8011868:	f000 fbdb 	bl	8012022 <fabsf>
 801186c:	eef0 7a40 	vmov.f32	s15, s0
 8011870:	eeb7 7a00 	vmov.f32	s14, #112	@ 0x3f800000  1.0
 8011874:	eef4 7ac7 	vcmpe.f32	s15, s14
 8011878:	eef1 fa10 	vmrs	APSR_nzcv, fpscr
 801187c:	dd61      	ble.n	8011942 <atangentf+0x13a>
 801187e:	eec7 7a27 	vdiv.f32	s15, s14, s15
 8011882:	2202      	movs	r2, #2
 8011884:	ed9f 7a3d 	vldr	s14, [pc, #244]	@ 801197c <atangentf+0x174>
 8011888:	eef4 7ac7 	vcmpe.f32	s15, s14
 801188c:	eef1 fa10 	vmrs	APSR_nzcv, fpscr
 8011890:	dd12      	ble.n	80118b8 <atangentf+0xb0>
 8011892:	ed9f 7a3b 	vldr	s14, [pc, #236]	@ 8011980 <atangentf+0x178>
 8011896:	ee27 7a87 	vmul.f32	s14, s15, s14
 801189a:	eef6 6a00 	vmov.f32	s13, #96	@ 0x3f000000  0.5
 801189e:	ee37 7a66 	vsub.f32	s14, s14, s13
 80118a2:	ee37 7a66 	vsub.f32	s14, s14, s13
 80118a6:	ee37 7a27 	vadd.f32	s14, s14, s15
 80118aa:	eddf 6a36 	vldr	s13, [pc, #216]	@ 8011984 <atangentf+0x17c>
 80118ae:	ee77 6aa6 	vadd.f32	s13, s15, s13
 80118b2:	eec7 7a26 	vdiv.f32	s15, s14, s13
 80118b6:	3201      	adds	r2, #1
 80118b8:	ed9f 7a33 	vldr	s14, [pc, #204]	@ 8011988 <atangentf+0x180>
 80118bc:	eef4 7ac7 	vcmpe.f32	s15, s14
 80118c0:	eef1 fa10 	vmrs	APSR_nzcv, fpscr
 80118c4:	dd06      	ble.n	80118d4 <atangentf+0xcc>
 80118c6:	ed9f 7a31 	vldr	s14, [pc, #196]	@ 801198c <atangentf+0x184>
 80118ca:	eef4 7ac7 	vcmpe.f32	s15, s14
 80118ce:	eef1 fa10 	vmrs	APSR_nzcv, fpscr
 80118d2:	d415      	bmi.n	8011900 <atangentf+0xf8>
 80118d4:	ee67 6aa7 	vmul.f32	s13, s15, s15
 80118d8:	ed9f 7a2d 	vldr	s14, [pc, #180]	@ 8011990 <atangentf+0x188>
 80118dc:	ee26 7a87 	vmul.f32	s14, s13, s14
 80118e0:	ed9f 6a2c 	vldr	s12, [pc, #176]	@ 8011994 <atangentf+0x18c>
 80118e4:	ee37 7a46 	vsub.f32	s14, s14, s12
 80118e8:	ee27 7a26 	vmul.f32	s14, s14, s13
 80118ec:	ed9f 6a2a 	vldr	s12, [pc, #168]	@ 8011998 <atangentf+0x190>
 80118f0:	ee76 6a86 	vadd.f32	s13, s13, s12
 80118f4:	ee87 6a26 	vdiv.f32	s12, s14, s13
 80118f8:	ee27 7a86 	vmul.f32	s14, s15, s12
 80118fc:	ee77 7a87 	vadd.f32	s15, s15, s14
 8011900:	2a01      	cmp	r2, #1
 8011902:	dd01      	ble.n	8011908 <atangentf+0x100>
 8011904:	eef1 7a67 	vneg.f32	s15, s15
 8011908:	4b24      	ldr	r3, [pc, #144]	@ (801199c <atangentf+0x194>)
 801190a:	eb03 0382 	add.w	r3, r3, r2, lsl #2
 801190e:	ed93 7a00 	vldr	s14, [r3]
 8011912:	ee37 0a27 	vadd.f32	s0, s14, s15
 8011916:	b324      	cbz	r4, 8011962 <atangentf+0x15a>
 8011918:	eeb5 8ac0 	vcmpe.f32	s16, #0.0
 801191c:	eef1 fa10 	vmrs	APSR_nzcv, fpscr
 8011920:	d417      	bmi.n	8011952 <atangentf+0x14a>
 8011922:	eef5 8ac0 	vcmpe.f32	s17, #0.0
 8011926:	eef1 fa10 	vmrs	APSR_nzcv, fpscr
 801192a:	d417      	bmi.n	801195c <atangentf+0x154>
 801192c:	b002      	add	sp, #8
 801192e:	ecbd 8b04 	vpop	{d8-d9}
 8011932:	bd10      	pop	{r4, pc}
 8011934:	eeb0 0a49 	vmov.f32	s0, s18
 8011938:	f000 fb73 	bl	8012022 <fabsf>
 801193c:	eef0 7a40 	vmov.f32	s15, s0
 8011940:	e796      	b.n	8011870 <atangentf+0x68>
 8011942:	2200      	movs	r2, #0
 8011944:	e79e      	b.n	8011884 <atangentf+0x7c>
 8011946:	ed9f 0a0c 	vldr	s0, [pc, #48]	@ 8011978 <atangentf+0x170>
 801194a:	e7e4      	b.n	8011916 <atangentf+0x10e>
 801194c:	ed9f 0a14 	vldr	s0, [pc, #80]	@ 80119a0 <atangentf+0x198>
 8011950:	e7e1      	b.n	8011916 <atangentf+0x10e>
 8011952:	eddf 7a14 	vldr	s15, [pc, #80]	@ 80119a4 <atangentf+0x19c>
 8011956:	ee37 0ac0 	vsub.f32	s0, s15, s0
 801195a:	e7e2      	b.n	8011922 <atangentf+0x11a>
 801195c:	eeb1 0a40 	vneg.f32	s0, s0
 8011960:	e7e4      	b.n	801192c <atangentf+0x124>
 8011962:	eeb5 9ac0 	vcmpe.f32	s18, #0.0
 8011966:	eef1 fa10 	vmrs	APSR_nzcv, fpscr
 801196a:	d5df      	bpl.n	801192c <atangentf+0x124>
 801196c:	eeb1 0a40 	vneg.f32	s0, s0
 8011970:	e7dc      	b.n	801192c <atangentf+0x124>
 8011972:	ed9f 0a0d 	vldr	s0, [pc, #52]	@ 80119a8 <atangentf+0x1a0>
 8011976:	e7d9      	b.n	801192c <atangentf+0x124>
 8011978:	3fc90fdb 	.word	0x3fc90fdb
 801197c:	3e8930a4 	.word	0x3e8930a4
 8011980:	3f3b67ae 	.word	0x3f3b67ae
 8011984:	3fddb3d7 	.word	0x3fddb3d7
 8011988:	b93504f3 	.word	0xb93504f3
 801198c:	393504f3 	.word	0x393504f3
 8011990:	bd508691 	.word	0xbd508691
 8011994:	3ef110f6 	.word	0x3ef110f6
 8011998:	3fb4ccd3 	.word	0x3fb4ccd3
 801199c:	0801c4c8 	.word	0x0801c4c8
 80119a0:	00000000 	.word	0x00000000
 80119a4:	40490fdb 	.word	0x40490fdb
 80119a8:	4f7fd000 	.word	0x4f7fd000

080119ac <atanf>:
 80119ac:	b508      	push	{r3, lr}
 80119ae:	ed2d 8b02 	vpush	{d8}
 80119b2:	eeb0 8a40 	vmov.f32	s16, s0
 80119b6:	f000 f81f 	bl	80119f8 <numtestf>
 80119ba:	2801      	cmp	r0, #1
 80119bc:	d00c      	beq.n	80119d8 <atanf+0x2c>
 80119be:	2802      	cmp	r0, #2
 80119c0:	d00d      	beq.n	80119de <atanf+0x32>
 80119c2:	b188      	cbz	r0, 80119e8 <atanf+0x3c>
 80119c4:	eddf 0a0a 	vldr	s1, [pc, #40]	@ 80119f0 <atanf+0x44>
 80119c8:	2000      	movs	r0, #0
 80119ca:	eeb0 1a60 	vmov.f32	s2, s1
 80119ce:	eeb0 0a48 	vmov.f32	s0, s16
 80119d2:	f7ff ff19 	bl	8011808 <atangentf>
 80119d6:	e004      	b.n	80119e2 <atanf+0x36>
 80119d8:	ed9f 0a06 	vldr	s0, [pc, #24]	@ 80119f4 <atanf+0x48>
 80119dc:	e001      	b.n	80119e2 <atanf+0x36>
 80119de:	eeb0 0a48 	vmov.f32	s0, s16
 80119e2:	ecbd 8b02 	vpop	{d8}
 80119e6:	bd08      	pop	{r3, pc}
 80119e8:	ed9f 0a01 	vldr	s0, [pc, #4]	@ 80119f0 <atanf+0x44>
 80119ec:	e7f9      	b.n	80119e2 <atanf+0x36>
 80119ee:	bf00      	nop
 80119f0:	00000000 	.word	0x00000000
 80119f4:	3fc90fdb 	.word	0x3fc90fdb

080119f8 <numtestf>:
 80119f8:	eeb5 0a40 	vcmp.f32	s0, #0.0
 80119fc:	eef1 fa10 	vmrs	APSR_nzcv, fpscr
 8011a00:	d101      	bne.n	8011a06 <numtestf+0xe>
 8011a02:	2000      	movs	r0, #0
 8011a04:	4770      	bx	lr
 8011a06:	2003      	movs	r0, #3
 8011a08:	4770      	bx	lr

08011a0a <frexpf>:
 8011a0a:	b538      	push	{r3, r4, r5, lr}
 8011a0c:	ee10 4a10 	vmov	r4, s0
 8011a10:	4605      	mov	r5, r0
 8011a12:	f7ff fff1 	bl	80119f8 <numtestf>
 8011a16:	2802      	cmp	r0, #2
 8011a18:	d804      	bhi.n	8011a24 <frexpf+0x1a>
 8011a1a:	2300      	movs	r3, #0
 8011a1c:	602b      	str	r3, [r5, #0]
 8011a1e:	ee00 4a10 	vmov	s0, r4
 8011a22:	bd38      	pop	{r3, r4, r5, pc}
 8011a24:	f3c4 53c7 	ubfx	r3, r4, #23, #8
 8011a28:	3b7e      	subs	r3, #126	@ 0x7e
 8011a2a:	602b      	str	r3, [r5, #0]
 8011a2c:	f3c4 0416 	ubfx	r4, r4, #0, #23
 8011a30:	f044 537c 	orr.w	r3, r4, #1056964608	@ 0x3f000000
 8011a34:	ee00 3a10 	vmov	s0, r3
 8011a38:	e7f3      	b.n	8011a22 <frexpf+0x18>

08011a3a <logarithm>:
 8011a3a:	eeb5 0a40 	vcmp.f32	s0, #0.0
 8011a3e:	eef1 fa10 	vmrs	APSR_nzcv, fpscr
 8011a42:	d069      	beq.n	8011b18 <logarithm+0xde>
 8011a44:	b510      	push	{r4, lr}
 8011a46:	b082      	sub	sp, #8
 8011a48:	4604      	mov	r4, r0
 8011a4a:	eeb5 0ac0 	vcmpe.f32	s0, #0.0
 8011a4e:	eef1 fa10 	vmrs	APSR_nzcv, fpscr
 8011a52:	d464      	bmi.n	8011b1e <logarithm+0xe4>
 8011a54:	ee10 3a10 	vmov	r3, s0
 8011a58:	f023 4200 	bic.w	r2, r3, #2147483648	@ 0x80000000
 8011a5c:	f102 4300 	add.w	r3, r2, #2147483648	@ 0x80000000
 8011a60:	f503 1380 	add.w	r3, r3, #1048576	@ 0x100000
 8011a64:	2b00      	cmp	r3, #0
 8011a66:	db05      	blt.n	8011a74 <logarithm+0x3a>
 8011a68:	f1b2 4fff 	cmp.w	r2, #2139095040	@ 0x7f800000
 8011a6c:	d95b      	bls.n	8011b26 <logarithm+0xec>
 8011a6e:	ed9f 0a2f 	vldr	s0, [pc, #188]	@ 8011b2c <logarithm+0xf2>
 8011a72:	e056      	b.n	8011b22 <logarithm+0xe8>
 8011a74:	a801      	add	r0, sp, #4
 8011a76:	f7ff ffc8 	bl	8011a0a <frexpf>
 8011a7a:	eef6 7a00 	vmov.f32	s15, #96	@ 0x3f000000  0.5
 8011a7e:	ee70 7a67 	vsub.f32	s15, s0, s15
 8011a82:	ed9f 7a2b 	vldr	s14, [pc, #172]	@ 8011b30 <logarithm+0xf6>
 8011a86:	eeb4 0ac7 	vcmpe.f32	s0, s14
 8011a8a:	eef1 fa10 	vmrs	APSR_nzcv, fpscr
 8011a8e:	dd37      	ble.n	8011b00 <logarithm+0xc6>
 8011a90:	eeb6 7a00 	vmov.f32	s14, #96	@ 0x3f000000  0.5
 8011a94:	ee77 7ac7 	vsub.f32	s15, s15, s14
 8011a98:	ee20 0a07 	vmul.f32	s0, s0, s14
 8011a9c:	ee30 0a07 	vadd.f32	s0, s0, s14
 8011aa0:	ee87 7a80 	vdiv.f32	s14, s15, s0
 8011aa4:	ee27 6a07 	vmul.f32	s12, s14, s14
 8011aa8:	ee67 6a06 	vmul.f32	s13, s14, s12
 8011aac:	eddf 7a21 	vldr	s15, [pc, #132]	@ 8011b34 <logarithm+0xfa>
 8011ab0:	ee66 6aa7 	vmul.f32	s13, s13, s15
 8011ab4:	eef7 7a00 	vmov.f32	s15, #112	@ 0x3f800000  1.0
 8011ab8:	ee76 7a27 	vadd.f32	s15, s12, s15
 8011abc:	ee67 7a86 	vmul.f32	s15, s15, s12
 8011ac0:	ed9f 6a1d 	vldr	s12, [pc, #116]	@ 8011b38 <logarithm+0xfe>
 8011ac4:	ee77 7ac6 	vsub.f32	s15, s15, s12
 8011ac8:	ee86 0aa7 	vdiv.f32	s0, s13, s15
 8011acc:	ee30 0a07 	vadd.f32	s0, s0, s14
 8011ad0:	9b01      	ldr	r3, [sp, #4]
 8011ad2:	b17b      	cbz	r3, 8011af4 <logarithm+0xba>
 8011ad4:	ee07 3a90 	vmov	s15, r3
 8011ad8:	eef8 7ae7 	vcvt.f32.s32	s15, s15
 8011adc:	ed9f 7a17 	vldr	s14, [pc, #92]	@ 8011b3c <logarithm+0x102>
 8011ae0:	ee27 7a87 	vmul.f32	s14, s15, s14
 8011ae4:	ee37 0a00 	vadd.f32	s0, s14, s0
 8011ae8:	ed9f 7a15 	vldr	s14, [pc, #84]	@ 8011b40 <logarithm+0x106>
 8011aec:	ee67 7a87 	vmul.f32	s15, s15, s14
 8011af0:	ee30 0a27 	vadd.f32	s0, s0, s15
 8011af4:	b1ac      	cbz	r4, 8011b22 <logarithm+0xe8>
 8011af6:	eddf 7a13 	vldr	s15, [pc, #76]	@ 8011b44 <logarithm+0x10a>
 8011afa:	ee20 0a27 	vmul.f32	s0, s0, s15
 8011afe:	e010      	b.n	8011b22 <logarithm+0xe8>
 8011b00:	9b01      	ldr	r3, [sp, #4]
 8011b02:	3b01      	subs	r3, #1
 8011b04:	9301      	str	r3, [sp, #4]
 8011b06:	eeb6 7a00 	vmov.f32	s14, #96	@ 0x3f000000  0.5
 8011b0a:	ee67 6a87 	vmul.f32	s13, s15, s14
 8011b0e:	ee76 6a87 	vadd.f32	s13, s13, s14
 8011b12:	ee87 7aa6 	vdiv.f32	s14, s15, s13
 8011b16:	e7c5      	b.n	8011aa4 <logarithm+0x6a>
 8011b18:	ed9f 0a0b 	vldr	s0, [pc, #44]	@ 8011b48 <logarithm+0x10e>
 8011b1c:	4770      	bx	lr
 8011b1e:	ed9f 0a03 	vldr	s0, [pc, #12]	@ 8011b2c <logarithm+0xf2>
 8011b22:	b002      	add	sp, #8
 8011b24:	bd10      	pop	{r4, pc}
 8011b26:	ed9f 0a09 	vldr	s0, [pc, #36]	@ 8011b4c <logarithm+0x112>
 8011b2a:	e7fa      	b.n	8011b22 <logarithm+0xe8>
 8011b2c:	4f7fd000 	.word	0x4f7fd000
 8011b30:	3f3504f3 	.word	0x3f3504f3
 8011b34:	bf0d7e3d 	.word	0xbf0d7e3d
 8011b38:	40d43f3a 	.word	0x40d43f3a
 8011b3c:	35bfbe8e 	.word	0x35bfbe8e
 8011b40:	3f317200 	.word	0x3f317200
 8011b44:	3ede5bd9 	.word	0x3ede5bd9
 8011b48:	ceff0000 	.word	0xceff0000
 8011b4c:	4eff0000 	.word	0x4eff0000

08011b50 <modff>:
 8011b50:	ee10 3a10 	vmov	r3, s0
 8011b54:	f3c3 52c7 	ubfx	r2, r3, #23, #8
 8011b58:	3a7f      	subs	r2, #127	@ 0x7f
 8011b5a:	2a16      	cmp	r2, #22
 8011b5c:	dc1c      	bgt.n	8011b98 <modff+0x48>
 8011b5e:	2a00      	cmp	r2, #0
 8011b60:	db0e      	blt.n	8011b80 <modff+0x30>
 8011b62:	b410      	push	{r4}
 8011b64:	4c10      	ldr	r4, [pc, #64]	@ (8011ba8 <modff+0x58>)
 8011b66:	fa44 f202 	asr.w	r2, r4, r2
 8011b6a:	4213      	tst	r3, r2
 8011b6c:	d10c      	bne.n	8011b88 <modff+0x38>
 8011b6e:	ed80 0a00 	vstr	s0, [r0]
 8011b72:	f003 4300 	and.w	r3, r3, #2147483648	@ 0x80000000
 8011b76:	ee00 3a10 	vmov	s0, r3
 8011b7a:	f85d 4b04 	ldr.w	r4, [sp], #4
 8011b7e:	4770      	bx	lr
 8011b80:	f003 4100 	and.w	r1, r3, #2147483648	@ 0x80000000
 8011b84:	6001      	str	r1, [r0, #0]
 8011b86:	4770      	bx	lr
 8011b88:	ea23 0102 	bic.w	r1, r3, r2
 8011b8c:	6001      	str	r1, [r0, #0]
 8011b8e:	ee07 1a10 	vmov	s14, r1
 8011b92:	ee30 0a47 	vsub.f32	s0, s0, s14
 8011b96:	e7f0      	b.n	8011b7a <modff+0x2a>
 8011b98:	ed80 0a00 	vstr	s0, [r0]
 8011b9c:	f003 4300 	and.w	r3, r3, #2147483648	@ 0x80000000
 8011ba0:	ee00 3a10 	vmov	s0, r3
 8011ba4:	4770      	bx	lr
 8011ba6:	bf00      	nop
 8011ba8:	007fffff 	.word	0x007fffff

08011bac <floorf>:
 8011bac:	b500      	push	{lr}
 8011bae:	ed2d 8b02 	vpush	{d8}
 8011bb2:	b083      	sub	sp, #12
 8011bb4:	eeb0 8a40 	vmov.f32	s16, s0
 8011bb8:	eeff 7a00 	vmov.f32	s15, #240	@ 0xbf800000 -1.0
 8011bbc:	eeb4 0ae7 	vcmpe.f32	s0, s15
 8011bc0:	eef1 fa10 	vmrs	APSR_nzcv, fpscr
 8011bc4:	dd06      	ble.n	8011bd4 <floorf+0x28>
 8011bc6:	eef7 7a00 	vmov.f32	s15, #112	@ 0x3f800000  1.0
 8011bca:	eeb4 0ae7 	vcmpe.f32	s0, s15
 8011bce:	eef1 fa10 	vmrs	APSR_nzcv, fpscr
 8011bd2:	d415      	bmi.n	8011c00 <floorf+0x54>
 8011bd4:	a801      	add	r0, sp, #4
 8011bd6:	eeb0 0a48 	vmov.f32	s0, s16
 8011bda:	f7ff ffb9 	bl	8011b50 <modff>
 8011bde:	eeb5 0a40 	vcmp.f32	s0, #0.0
 8011be2:	eef1 fa10 	vmrs	APSR_nzcv, fpscr
 8011be6:	d01d      	beq.n	8011c24 <floorf+0x78>
 8011be8:	eeb5 8ac0 	vcmpe.f32	s16, #0.0
 8011bec:	eef1 fa10 	vmrs	APSR_nzcv, fpscr
 8011bf0:	db11      	blt.n	8011c16 <floorf+0x6a>
 8011bf2:	ed9d 0a01 	vldr	s0, [sp, #4]
 8011bf6:	b003      	add	sp, #12
 8011bf8:	ecbd 8b02 	vpop	{d8}
 8011bfc:	f85d fb04 	ldr.w	pc, [sp], #4
 8011c00:	eeb5 0ac0 	vcmpe.f32	s0, #0.0
 8011c04:	eef1 fa10 	vmrs	APSR_nzcv, fpscr
 8011c08:	db02      	blt.n	8011c10 <floorf+0x64>
 8011c0a:	ed9f 0a08 	vldr	s0, [pc, #32]	@ 8011c2c <floorf+0x80>
 8011c0e:	e7f2      	b.n	8011bf6 <floorf+0x4a>
 8011c10:	eebf 0a00 	vmov.f32	s0, #240	@ 0xbf800000 -1.0
 8011c14:	e7ef      	b.n	8011bf6 <floorf+0x4a>
 8011c16:	ed9d 0a01 	vldr	s0, [sp, #4]
 8011c1a:	eef7 7a00 	vmov.f32	s15, #112	@ 0x3f800000  1.0
 8011c1e:	ee30 0a67 	vsub.f32	s0, s0, s15
 8011c22:	e7e8      	b.n	8011bf6 <floorf+0x4a>
 8011c24:	eeb0 0a48 	vmov.f32	s0, s16
 8011c28:	e7e5      	b.n	8011bf6 <floorf+0x4a>
 8011c2a:	bf00      	nop
 8011c2c:	00000000 	.word	0x00000000

08011c30 <ldexpf>:
 8011c30:	b538      	push	{r3, r4, r5, lr}
 8011c32:	ed2d 8b02 	vpush	{d8}
 8011c36:	eeb0 8a40 	vmov.f32	s16, s0
 8011c3a:	4604      	mov	r4, r0
 8011c3c:	ee10 5a10 	vmov	r5, s0
 8011c40:	eeb8 0ac0 	vcvt.f32.s32	s0, s0
 8011c44:	f7ff fed8 	bl	80119f8 <numtestf>
 8011c48:	2802      	cmp	r0, #2
 8011c4a:	d90f      	bls.n	8011c6c <ldexpf+0x3c>
 8011c4c:	f3c5 53c7 	ubfx	r3, r5, #23, #8
 8011c50:	1918      	adds	r0, r3, r4
 8011c52:	28ff      	cmp	r0, #255	@ 0xff
 8011c54:	dc08      	bgt.n	8011c68 <ldexpf+0x38>
 8011c56:	2801      	cmp	r0, #1
 8011c58:	dd0d      	ble.n	8011c76 <ldexpf+0x46>
 8011c5a:	f025 45ff 	bic.w	r5, r5, #2139095040	@ 0x7f800000
 8011c5e:	ea45 53c0 	orr.w	r3, r5, r0, lsl #23
 8011c62:	ee08 3a10 	vmov	s16, r3
 8011c66:	e001      	b.n	8011c6c <ldexpf+0x3c>
 8011c68:	ed9f 8a04 	vldr	s16, [pc, #16]	@ 8011c7c <ldexpf+0x4c>
 8011c6c:	eeb0 0a48 	vmov.f32	s0, s16
 8011c70:	ecbd 8b02 	vpop	{d8}
 8011c74:	bd38      	pop	{r3, r4, r5, pc}
 8011c76:	ed9f 8a02 	vldr	s16, [pc, #8]	@ 8011c80 <ldexpf+0x50>
 8011c7a:	e7f7      	b.n	8011c6c <ldexpf+0x3c>
 8011c7c:	4eff0000 	.word	0x4eff0000
 8011c80:	ceff0000 	.word	0xceff0000

08011c84 <expf>:
 8011c84:	b508      	push	{r3, lr}
 8011c86:	ed2d 8b02 	vpush	{d8}
 8011c8a:	eeb0 8a40 	vmov.f32	s16, s0
 8011c8e:	f7ff feb3 	bl	80119f8 <numtestf>
 8011c92:	2801      	cmp	r0, #1
 8011c94:	d056      	beq.n	8011d44 <expf+0xc0>
 8011c96:	2802      	cmp	r0, #2
 8011c98:	d066      	beq.n	8011d68 <expf+0xe4>
 8011c9a:	2800      	cmp	r0, #0
 8011c9c:	d069      	beq.n	8011d72 <expf+0xee>
 8011c9e:	eddf 7a3c 	vldr	s15, [pc, #240]	@ 8011d90 <expf+0x10c>
 8011ca2:	eeb4 8ae7 	vcmpe.f32	s16, s15
 8011ca6:	eef1 fa10 	vmrs	APSR_nzcv, fpscr
 8011caa:	dc68      	bgt.n	8011d7e <expf+0xfa>
 8011cac:	eddf 7a39 	vldr	s15, [pc, #228]	@ 8011d94 <expf+0x110>
 8011cb0:	eeb4 8ae7 	vcmpe.f32	s16, s15
 8011cb4:	eef1 fa10 	vmrs	APSR_nzcv, fpscr
 8011cb8:	d464      	bmi.n	8011d84 <expf+0x100>
 8011cba:	eddf 7a37 	vldr	s15, [pc, #220]	@ 8011d98 <expf+0x114>
 8011cbe:	eeb4 8ae7 	vcmpe.f32	s16, s15
 8011cc2:	eef1 fa10 	vmrs	APSR_nzcv, fpscr
 8011cc6:	dd06      	ble.n	8011cd6 <expf+0x52>
 8011cc8:	eddf 7a34 	vldr	s15, [pc, #208]	@ 8011d9c <expf+0x118>
 8011ccc:	eeb4 8ae7 	vcmpe.f32	s16, s15
 8011cd0:	eef1 fa10 	vmrs	APSR_nzcv, fpscr
 8011cd4:	d459      	bmi.n	8011d8a <expf+0x106>
 8011cd6:	eeb5 8ac0 	vcmpe.f32	s16, #0.0
 8011cda:	eef1 fa10 	vmrs	APSR_nzcv, fpscr
 8011cde:	d438      	bmi.n	8011d52 <expf+0xce>
 8011ce0:	eddf 7a2f 	vldr	s15, [pc, #188]	@ 8011da0 <expf+0x11c>
 8011ce4:	ee68 7a27 	vmul.f32	s15, s16, s15
 8011ce8:	eeb6 7a00 	vmov.f32	s14, #96	@ 0x3f000000  0.5
 8011cec:	ee77 7a87 	vadd.f32	s15, s15, s14
 8011cf0:	eefd 7ae7 	vcvt.s32.f32	s15, s15
 8011cf4:	eeb8 6ae7 	vcvt.f32.s32	s12, s15
 8011cf8:	ed9f 7a2a 	vldr	s14, [pc, #168]	@ 8011da4 <expf+0x120>
 8011cfc:	ee26 6a07 	vmul.f32	s12, s12, s14
 8011d00:	ee38 6a46 	vsub.f32	s12, s16, s12
 8011d04:	ee26 7a06 	vmul.f32	s14, s12, s12
 8011d08:	eddf 6a27 	vldr	s13, [pc, #156]	@ 8011da8 <expf+0x124>
 8011d0c:	ee67 6a26 	vmul.f32	s13, s14, s13
 8011d10:	eef5 5a00 	vmov.f32	s11, #80	@ 0x3e800000  0.250
 8011d14:	ee76 6aa5 	vadd.f32	s13, s13, s11
 8011d18:	ee66 6a86 	vmul.f32	s13, s13, s12
 8011d1c:	ed9f 6a23 	vldr	s12, [pc, #140]	@ 8011dac <expf+0x128>
 8011d20:	ee27 7a06 	vmul.f32	s14, s14, s12
 8011d24:	eeb6 6a00 	vmov.f32	s12, #96	@ 0x3f000000  0.5
 8011d28:	ee37 7a06 	vadd.f32	s14, s14, s12
 8011d2c:	ee37 7a66 	vsub.f32	s14, s14, s13
 8011d30:	ee86 0a87 	vdiv.f32	s0, s13, s14
 8011d34:	ee17 0a90 	vmov	r0, s15
 8011d38:	3001      	adds	r0, #1
 8011d3a:	ee30 0a06 	vadd.f32	s0, s0, s12
 8011d3e:	f7ff ff77 	bl	8011c30 <ldexpf>
 8011d42:	e013      	b.n	8011d6c <expf+0xe8>
 8011d44:	ee18 3a10 	vmov	r3, s16
 8011d48:	2b00      	cmp	r3, #0
 8011d4a:	db15      	blt.n	8011d78 <expf+0xf4>
 8011d4c:	ed9f 0a18 	vldr	s0, [pc, #96]	@ 8011db0 <expf+0x12c>
 8011d50:	e00c      	b.n	8011d6c <expf+0xe8>
 8011d52:	eddf 7a13 	vldr	s15, [pc, #76]	@ 8011da0 <expf+0x11c>
 8011d56:	ee68 7a27 	vmul.f32	s15, s16, s15
 8011d5a:	eeb6 7a00 	vmov.f32	s14, #96	@ 0x3f000000  0.5
 8011d5e:	ee77 7ac7 	vsub.f32	s15, s15, s14
 8011d62:	eefd 7ae7 	vcvt.s32.f32	s15, s15
 8011d66:	e7c5      	b.n	8011cf4 <expf+0x70>
 8011d68:	eeb0 0a48 	vmov.f32	s0, s16
 8011d6c:	ecbd 8b02 	vpop	{d8}
 8011d70:	bd08      	pop	{r3, pc}
 8011d72:	eeb7 0a00 	vmov.f32	s0, #112	@ 0x3f800000  1.0
 8011d76:	e7f9      	b.n	8011d6c <expf+0xe8>
 8011d78:	ed9f 0a0e 	vldr	s0, [pc, #56]	@ 8011db4 <expf+0x130>
 8011d7c:	e7f6      	b.n	8011d6c <expf+0xe8>
 8011d7e:	eeb0 0a48 	vmov.f32	s0, s16
 8011d82:	e7f3      	b.n	8011d6c <expf+0xe8>
 8011d84:	eeb0 0a48 	vmov.f32	s0, s16
 8011d88:	e7f0      	b.n	8011d6c <expf+0xe8>
 8011d8a:	eeb7 0a00 	vmov.f32	s0, #112	@ 0x3f800000  1.0
 8011d8e:	e7ed      	b.n	8011d6c <expf+0xe8>
 8011d90:	44317218 	.word	0x44317218
 8011d94:	c43a4887 	.word	0xc43a4887
 8011d98:	b93504f3 	.word	0xb93504f3
 8011d9c:	393504f3 	.word	0x393504f3
 8011da0:	3fb8aa3b 	.word	0x3fb8aa3b
 8011da4:	3f317218 	.word	0x3f317218
 8011da8:	3b885308 	.word	0x3b885308
 8011dac:	3d4cbf5b 	.word	0x3d4cbf5b
 8011db0:	4eff0000 	.word	0x4eff0000
 8011db4:	00000000 	.word	0x00000000

08011db8 <powf>:
 8011db8:	b530      	push	{r4, r5, lr}
 8011dba:	ed2d 8b04 	vpush	{d8-d9}
 8011dbe:	b083      	sub	sp, #12
 8011dc0:	eeb0 8a40 	vmov.f32	s16, s0
 8011dc4:	eef0 8a60 	vmov.f32	s17, s1
 8011dc8:	ee10 4a10 	vmov	r4, s0
 8011dcc:	a801      	add	r0, sp, #4
 8011dce:	eeb0 0a60 	vmov.f32	s0, s1
 8011dd2:	f7ff febd 	bl	8011b50 <modff>
 8011dd6:	eeb0 9a40 	vmov.f32	s18, s0
 8011dda:	eeb5 0a40 	vcmp.f32	s0, #0.0
 8011dde:	eef1 fa10 	vmrs	APSR_nzcv, fpscr
 8011de2:	d00b      	beq.n	8011dfc <powf+0x44>
 8011de4:	2500      	movs	r5, #0
 8011de6:	eeb5 8a40 	vcmp.f32	s16, #0.0
 8011dea:	eef1 fa10 	vmrs	APSR_nzcv, fpscr
 8011dee:	d117      	bne.n	8011e20 <powf+0x68>
 8011df0:	eeb0 0a48 	vmov.f32	s0, s16
 8011df4:	b003      	add	sp, #12
 8011df6:	ecbd 8b04 	vpop	{d8-d9}
 8011dfa:	bd30      	pop	{r4, r5, pc}
 8011dfc:	f04f 30ff 	mov.w	r0, #4294967295	@ 0xffffffff
 8011e00:	eeb0 0a68 	vmov.f32	s0, s17
 8011e04:	f7ff ff14 	bl	8011c30 <ldexpf>
 8011e08:	4668      	mov	r0, sp
 8011e0a:	f7ff fea1 	bl	8011b50 <modff>
 8011e0e:	eeb5 0a40 	vcmp.f32	s0, #0.0
 8011e12:	eef1 fa10 	vmrs	APSR_nzcv, fpscr
 8011e16:	d001      	beq.n	8011e1c <powf+0x64>
 8011e18:	2500      	movs	r5, #0
 8011e1a:	e7e4      	b.n	8011de6 <powf+0x2e>
 8011e1c:	2501      	movs	r5, #1
 8011e1e:	e7e2      	b.n	8011de6 <powf+0x2e>
 8011e20:	eeb0 0a48 	vmov.f32	s0, s16
 8011e24:	f000 f8fd 	bl	8012022 <fabsf>
 8011e28:	2000      	movs	r0, #0
 8011e2a:	f7ff fe06 	bl	8011a3a <logarithm>
 8011e2e:	ee20 0a28 	vmul.f32	s0, s0, s17
 8011e32:	ed8d 0a00 	vstr	s0, [sp]
 8011e36:	eddf 7a3a 	vldr	s15, [pc, #232]	@ 8011f20 <powf+0x168>
 8011e3a:	eeb4 0ae7 	vcmpe.f32	s0, s15
 8011e3e:	eef1 fa10 	vmrs	APSR_nzcv, fpscr
 8011e42:	db0e      	blt.n	8011e62 <powf+0xaa>
 8011e44:	2c00      	cmp	r4, #0
 8011e46:	db02      	blt.n	8011e4e <powf+0x96>
 8011e48:	ed9f 8a36 	vldr	s16, [pc, #216]	@ 8011f24 <powf+0x16c>
 8011e4c:	e7d0      	b.n	8011df0 <powf+0x38>
 8011e4e:	eeb5 9a40 	vcmp.f32	s18, #0.0
 8011e52:	eef1 fa10 	vmrs	APSR_nzcv, fpscr
 8011e56:	d15a      	bne.n	8011f0e <powf+0x156>
 8011e58:	2d00      	cmp	r5, #0
 8011e5a:	d05b      	beq.n	8011f14 <powf+0x15c>
 8011e5c:	ed9f 8a31 	vldr	s16, [pc, #196]	@ 8011f24 <powf+0x16c>
 8011e60:	e7c6      	b.n	8011df0 <powf+0x38>
 8011e62:	eddf 7a31 	vldr	s15, [pc, #196]	@ 8011f28 <powf+0x170>
 8011e66:	eeb4 0ae7 	vcmpe.f32	s0, s15
 8011e6a:	eef1 fa10 	vmrs	APSR_nzcv, fpscr
 8011e6e:	d454      	bmi.n	8011f1a <powf+0x162>
 8011e70:	eeb5 9a40 	vcmp.f32	s18, #0.0
 8011e74:	eef1 fa10 	vmrs	APSR_nzcv, fpscr
 8011e78:	d012      	beq.n	8011ea0 <powf+0xe8>
 8011e7a:	2c00      	cmp	r4, #0
 8011e7c:	db3f      	blt.n	8011efe <powf+0x146>
 8011e7e:	ed9d 0a00 	vldr	s0, [sp]
 8011e82:	f7ff feff 	bl	8011c84 <expf>
 8011e86:	eeb0 8a40 	vmov.f32	s16, s0
 8011e8a:	2d00      	cmp	r5, #0
 8011e8c:	d1b0      	bne.n	8011df0 <powf+0x38>
 8011e8e:	2c00      	cmp	r4, #0
 8011e90:	daae      	bge.n	8011df0 <powf+0x38>
 8011e92:	ee10 3a10 	vmov	r3, s0
 8011e96:	f043 4300 	orr.w	r3, r3, #2147483648	@ 0x80000000
 8011e9a:	ee08 3a10 	vmov	s16, r3
 8011e9e:	e7a7      	b.n	8011df0 <powf+0x38>
 8011ea0:	ed9d 0a01 	vldr	s0, [sp, #4]
 8011ea4:	f000 f8bd 	bl	8012022 <fabsf>
 8011ea8:	eddf 7a20 	vldr	s15, [pc, #128]	@ 8011f2c <powf+0x174>
 8011eac:	eeb4 0ae7 	vcmpe.f32	s0, s15
 8011eb0:	eef1 fa10 	vmrs	APSR_nzcv, fpscr
 8011eb4:	d8e1      	bhi.n	8011e7a <powf+0xc2>
 8011eb6:	eddd 7a01 	vldr	s15, [sp, #4]
 8011eba:	eefd 7ae7 	vcvt.s32.f32	s15, s15
 8011ebe:	ee17 1a90 	vmov	r1, s15
 8011ec2:	2900      	cmp	r1, #0
 8011ec4:	db03      	blt.n	8011ece <powf+0x116>
 8011ec6:	460b      	mov	r3, r1
 8011ec8:	eef7 7a00 	vmov.f32	s15, #112	@ 0x3f800000  1.0
 8011ecc:	e004      	b.n	8011ed8 <powf+0x120>
 8011ece:	424b      	negs	r3, r1
 8011ed0:	e7fa      	b.n	8011ec8 <powf+0x110>
 8011ed2:	ee28 8a08 	vmul.f32	s16, s16, s16
 8011ed6:	0853      	lsrs	r3, r2, #1
 8011ed8:	2b00      	cmp	r3, #0
 8011eda:	dd06      	ble.n	8011eea <powf+0x132>
 8011edc:	461a      	mov	r2, r3
 8011ede:	f013 0f01 	tst.w	r3, #1
 8011ee2:	d0f6      	beq.n	8011ed2 <powf+0x11a>
 8011ee4:	ee67 7a88 	vmul.f32	s15, s15, s16
 8011ee8:	e7f3      	b.n	8011ed2 <powf+0x11a>
 8011eea:	2900      	cmp	r1, #0
 8011eec:	db02      	blt.n	8011ef4 <powf+0x13c>
 8011eee:	eeb0 8a67 	vmov.f32	s16, s15
 8011ef2:	e77d      	b.n	8011df0 <powf+0x38>
 8011ef4:	eeb7 7a00 	vmov.f32	s14, #112	@ 0x3f800000  1.0
 8011ef8:	eec7 7a27 	vdiv.f32	s15, s14, s15
 8011efc:	e7f7      	b.n	8011eee <powf+0x136>
 8011efe:	eeb5 9a40 	vcmp.f32	s18, #0.0
 8011f02:	eef1 fa10 	vmrs	APSR_nzcv, fpscr
 8011f06:	d0ba      	beq.n	8011e7e <powf+0xc6>
 8011f08:	ed9f 8a09 	vldr	s16, [pc, #36]	@ 8011f30 <powf+0x178>
 8011f0c:	e770      	b.n	8011df0 <powf+0x38>
 8011f0e:	ed9f 8a08 	vldr	s16, [pc, #32]	@ 8011f30 <powf+0x178>
 8011f12:	e76d      	b.n	8011df0 <powf+0x38>
 8011f14:	ed9f 8a07 	vldr	s16, [pc, #28]	@ 8011f34 <powf+0x17c>
 8011f18:	e76a      	b.n	8011df0 <powf+0x38>
 8011f1a:	ed9f 8a05 	vldr	s16, [pc, #20]	@ 8011f30 <powf+0x178>
 8011f1e:	e767      	b.n	8011df0 <powf+0x38>
 8011f20:	44317218 	.word	0x44317218
 8011f24:	4eff0000 	.word	0x4eff0000
 8011f28:	c43a4887 	.word	0xc43a4887
 8011f2c:	46fffe00 	.word	0x46fffe00
 8011f30:	00000000 	.word	0x00000000
 8011f34:	ceff0000 	.word	0xceff0000

08011f38 <sqrtf>:
 8011f38:	b500      	push	{lr}
 8011f3a:	ed2d 8b02 	vpush	{d8}
 8011f3e:	b083      	sub	sp, #12
 8011f40:	eeb0 8a40 	vmov.f32	s16, s0
 8011f44:	f7ff fd58 	bl	80119f8 <numtestf>
 8011f48:	2801      	cmp	r0, #1
 8011f4a:	d023      	beq.n	8011f94 <sqrtf+0x5c>
 8011f4c:	2802      	cmp	r0, #2
 8011f4e:	d027      	beq.n	8011fa0 <sqrtf+0x68>
 8011f50:	eeb5 8a40 	vcmp.f32	s16, #0.0
 8011f54:	eef1 fa10 	vmrs	APSR_nzcv, fpscr
 8011f58:	d046      	beq.n	8011fe8 <sqrtf+0xb0>
 8011f5a:	eeb5 8ac0 	vcmpe.f32	s16, #0.0
 8011f5e:	eef1 fa10 	vmrs	APSR_nzcv, fpscr
 8011f62:	d444      	bmi.n	8011fee <sqrtf+0xb6>
 8011f64:	a801      	add	r0, sp, #4
 8011f66:	eeb0 0a48 	vmov.f32	s0, s16
 8011f6a:	f7ff fd4e 	bl	8011a0a <frexpf>
 8011f6e:	eeb0 7a40 	vmov.f32	s14, s0
 8011f72:	9a01      	ldr	r2, [sp, #4]
 8011f74:	f002 0101 	and.w	r1, r2, #1
 8011f78:	eddf 7a1e 	vldr	s15, [pc, #120]	@ 8011ff4 <sqrtf+0xbc>
 8011f7c:	ee60 7a27 	vmul.f32	s15, s0, s15
 8011f80:	eddf 6a1d 	vldr	s13, [pc, #116]	@ 8011ff8 <sqrtf+0xc0>
 8011f84:	ee37 0aa6 	vadd.f32	s0, s15, s13
 8011f88:	eef6 7a00 	vmov.f32	s15, #96	@ 0x3f000000  0.5
 8011f8c:	ee67 7a27 	vmul.f32	s15, s14, s15
 8011f90:	2300      	movs	r3, #0
 8011f92:	e015      	b.n	8011fc0 <sqrtf+0x88>
 8011f94:	ee18 3a10 	vmov	r3, s16
 8011f98:	2b00      	cmp	r3, #0
 8011f9a:	db22      	blt.n	8011fe2 <sqrtf+0xaa>
 8011f9c:	ed9f 8a17 	vldr	s16, [pc, #92]	@ 8011ffc <sqrtf+0xc4>
 8011fa0:	eeb0 0a48 	vmov.f32	s0, s16
 8011fa4:	b003      	add	sp, #12
 8011fa6:	ecbd 8b02 	vpop	{d8}
 8011faa:	f85d fb04 	ldr.w	pc, [sp], #4
 8011fae:	eeb6 7a00 	vmov.f32	s14, #96	@ 0x3f000000  0.5
 8011fb2:	ee20 7a07 	vmul.f32	s14, s0, s14
 8011fb6:	eec7 6a80 	vdiv.f32	s13, s15, s0
 8011fba:	ee37 0a26 	vadd.f32	s0, s14, s13
 8011fbe:	3301      	adds	r3, #1
 8011fc0:	2b01      	cmp	r3, #1
 8011fc2:	ddf4      	ble.n	8011fae <sqrtf+0x76>
 8011fc4:	b129      	cbz	r1, 8011fd2 <sqrtf+0x9a>
 8011fc6:	eddf 7a0e 	vldr	s15, [pc, #56]	@ 8012000 <sqrtf+0xc8>
 8011fca:	ee20 0a27 	vmul.f32	s0, s0, s15
 8011fce:	3201      	adds	r2, #1
 8011fd0:	9201      	str	r2, [sp, #4]
 8011fd2:	9801      	ldr	r0, [sp, #4]
 8011fd4:	1040      	asrs	r0, r0, #1
 8011fd6:	9001      	str	r0, [sp, #4]
 8011fd8:	f7ff fe2a 	bl	8011c30 <ldexpf>
 8011fdc:	eeb0 8a40 	vmov.f32	s16, s0
 8011fe0:	e7de      	b.n	8011fa0 <sqrtf+0x68>
 8011fe2:	ed9f 8a08 	vldr	s16, [pc, #32]	@ 8012004 <sqrtf+0xcc>
 8011fe6:	e7db      	b.n	8011fa0 <sqrtf+0x68>
 8011fe8:	ed9f 8a07 	vldr	s16, [pc, #28]	@ 8012008 <sqrtf+0xd0>
 8011fec:	e7d8      	b.n	8011fa0 <sqrtf+0x68>
 8011fee:	ed9f 8a03 	vldr	s16, [pc, #12]	@ 8011ffc <sqrtf+0xc4>
 8011ff2:	e7d5      	b.n	8011fa0 <sqrtf+0x68>
 8011ff4:	3f1714ba 	.word	0x3f1714ba
 8011ff8:	3ed5a9a8 	.word	0x3ed5a9a8
 8011ffc:	4f7fd000 	.word	0x4f7fd000
 8012000:	3f3504f3 	.word	0x3f3504f3
 8012004:	4eff0000 	.word	0x4eff0000
 8012008:	00000000 	.word	0x00000000

0801200c <lowpass>:
 801200c:	eef7 7a00 	vmov.f32	s15, #112	@ 0x3f800000  1.0
 8012010:	ee77 7ac1 	vsub.f32	s15, s15, s2
 8012014:	ee27 0a80 	vmul.f32	s0, s15, s0
 8012018:	ee21 1a20 	vmul.f32	s2, s2, s1
 801201c:	ee31 0a00 	vadd.f32	s0, s2, s0
 8012020:	4770      	bx	lr

08012022 <fabsf>:
 8012022:	eeb5 0ac0 	vcmpe.f32	s0, #0.0
 8012026:	eef1 fa10 	vmrs	APSR_nzcv, fpscr
 801202a:	dd00      	ble.n	801202e <fabsf+0xc>
 801202c:	4770      	bx	lr
 801202e:	eeb1 0a40 	vneg.f32	s0, s0
 8012032:	e7fb      	b.n	801202c <fabsf+0xa>

08012034 <pow>:
 8012034:	4602      	mov	r2, r0
 8012036:	b141      	cbz	r1, 801204a <pow+0x16>
 8012038:	1e4b      	subs	r3, r1, #1
 801203a:	e002      	b.n	8012042 <pow+0xe>
 801203c:	fb00 f202 	mul.w	r2, r0, r2
 8012040:	3b01      	subs	r3, #1
 8012042:	2b00      	cmp	r3, #0
 8012044:	d1fa      	bne.n	801203c <pow+0x8>
 8012046:	4610      	mov	r0, r2
 8012048:	4770      	bx	lr
 801204a:	2001      	movs	r0, #1
 801204c:	4770      	bx	lr
	...

08012050 <sinef>:
 8012050:	b538      	push	{r3, r4, r5, lr}
 8012052:	ed2d 8b02 	vpush	{d8}
 8012056:	eeb0 8a40 	vmov.f32	s16, s0
 801205a:	4604      	mov	r4, r0
 801205c:	f7ff fccc 	bl	80119f8 <numtestf>
 8012060:	2801      	cmp	r0, #1
 8012062:	f000 8085 	beq.w	8012170 <sinef+0x120>
 8012066:	2802      	cmp	r0, #2
 8012068:	f000 8084 	beq.w	8012174 <sinef+0x124>
 801206c:	2c00      	cmp	r4, #0
 801206e:	d165      	bne.n	801213c <sinef+0xec>
 8012070:	eeb5 8ac0 	vcmpe.f32	s16, #0.0
 8012074:	eef1 fa10 	vmrs	APSR_nzcv, fpscr
 8012078:	d46a      	bmi.n	8012150 <sinef+0x100>
 801207a:	eeb0 0a48 	vmov.f32	s0, s16
 801207e:	2501      	movs	r5, #1
 8012080:	eddf 7a3f 	vldr	s15, [pc, #252]	@ 8012180 <sinef+0x130>
 8012084:	eeb4 0ae7 	vcmpe.f32	s0, s15
 8012088:	eef1 fa10 	vmrs	APSR_nzcv, fpscr
 801208c:	dc72      	bgt.n	8012174 <sinef+0x124>
 801208e:	eeb5 0ac0 	vcmpe.f32	s0, #0.0
 8012092:	eef1 fa10 	vmrs	APSR_nzcv, fpscr
 8012096:	d460      	bmi.n	801215a <sinef+0x10a>
 8012098:	eddf 7a3a 	vldr	s15, [pc, #232]	@ 8012184 <sinef+0x134>
 801209c:	ee20 0a27 	vmul.f32	s0, s0, s15
 80120a0:	eef6 7a00 	vmov.f32	s15, #96	@ 0x3f000000  0.5
 80120a4:	ee30 0a27 	vadd.f32	s0, s0, s15
 80120a8:	eebd 0ac0 	vcvt.s32.f32	s0, s0
 80120ac:	eef8 8ac0 	vcvt.f32.s32	s17, s0
 80120b0:	ee10 3a10 	vmov	r3, s0
 80120b4:	f013 0f01 	tst.w	r3, #1
 80120b8:	d000      	beq.n	80120bc <sinef+0x6c>
 80120ba:	426d      	negs	r5, r5
 80120bc:	b11c      	cbz	r4, 80120c6 <sinef+0x76>
 80120be:	eef6 7a00 	vmov.f32	s15, #96	@ 0x3f000000  0.5
 80120c2:	ee78 8ae7 	vsub.f32	s17, s17, s15
 80120c6:	eeb0 0a48 	vmov.f32	s0, s16
 80120ca:	f7ff ffaa 	bl	8012022 <fabsf>
 80120ce:	eddf 7a2e 	vldr	s15, [pc, #184]	@ 8012188 <sinef+0x138>
 80120d2:	ee68 8aa7 	vmul.f32	s17, s17, s15
 80120d6:	ee30 8a68 	vsub.f32	s16, s0, s17
 80120da:	eddf 7a2c 	vldr	s15, [pc, #176]	@ 801218c <sinef+0x13c>
 80120de:	eeb4 8ae7 	vcmpe.f32	s16, s15
 80120e2:	eef1 fa10 	vmrs	APSR_nzcv, fpscr
 80120e6:	dd06      	ble.n	80120f6 <sinef+0xa6>
 80120e8:	eddf 7a29 	vldr	s15, [pc, #164]	@ 8012190 <sinef+0x140>
 80120ec:	eeb4 8ae7 	vcmpe.f32	s16, s15
 80120f0:	eef1 fa10 	vmrs	APSR_nzcv, fpscr
 80120f4:	d41b      	bmi.n	801212e <sinef+0xde>
 80120f6:	ee28 7a08 	vmul.f32	s14, s16, s16
 80120fa:	eddf 7a26 	vldr	s15, [pc, #152]	@ 8012194 <sinef+0x144>
 80120fe:	ee67 7a27 	vmul.f32	s15, s14, s15
 8012102:	eddf 6a25 	vldr	s13, [pc, #148]	@ 8012198 <sinef+0x148>
 8012106:	ee77 7ae6 	vsub.f32	s15, s15, s13
 801210a:	ee67 7a87 	vmul.f32	s15, s15, s14
 801210e:	eddf 6a23 	vldr	s13, [pc, #140]	@ 801219c <sinef+0x14c>
 8012112:	ee77 7aa6 	vadd.f32	s15, s15, s13
 8012116:	ee67 7a87 	vmul.f32	s15, s15, s14
 801211a:	eddf 6a21 	vldr	s13, [pc, #132]	@ 80121a0 <sinef+0x150>
 801211e:	ee77 7ae6 	vsub.f32	s15, s15, s13
 8012122:	ee67 7a87 	vmul.f32	s15, s15, s14
 8012126:	ee68 7a27 	vmul.f32	s15, s16, s15
 801212a:	ee38 8a27 	vadd.f32	s16, s16, s15
 801212e:	ee07 5a90 	vmov	s15, r5
 8012132:	eef8 7ae7 	vcvt.f32.s32	s15, s15
 8012136:	ee27 8a88 	vmul.f32	s16, s15, s16
 801213a:	e01b      	b.n	8012174 <sinef+0x124>
 801213c:	eeb0 0a48 	vmov.f32	s0, s16
 8012140:	f7ff ff6f 	bl	8012022 <fabsf>
 8012144:	eddf 7a17 	vldr	s15, [pc, #92]	@ 80121a4 <sinef+0x154>
 8012148:	ee30 0a27 	vadd.f32	s0, s0, s15
 801214c:	2501      	movs	r5, #1
 801214e:	e797      	b.n	8012080 <sinef+0x30>
 8012150:	eeb1 0a48 	vneg.f32	s0, s16
 8012154:	f04f 35ff 	mov.w	r5, #4294967295	@ 0xffffffff
 8012158:	e792      	b.n	8012080 <sinef+0x30>
 801215a:	eddf 7a0a 	vldr	s15, [pc, #40]	@ 8012184 <sinef+0x134>
 801215e:	ee20 0a27 	vmul.f32	s0, s0, s15
 8012162:	eef6 7a00 	vmov.f32	s15, #96	@ 0x3f000000  0.5
 8012166:	ee30 0a67 	vsub.f32	s0, s0, s15
 801216a:	eebd 0ac0 	vcvt.s32.f32	s0, s0
 801216e:	e79d      	b.n	80120ac <sinef+0x5c>
 8012170:	ed9f 8a0d 	vldr	s16, [pc, #52]	@ 80121a8 <sinef+0x158>
 8012174:	eeb0 0a48 	vmov.f32	s0, s16
 8012178:	ecbd 8b02 	vpop	{d8}
 801217c:	bd38      	pop	{r3, r4, r5, pc}
 801217e:	bf00      	nop
 8012180:	4d490fdb 	.word	0x4d490fdb
 8012184:	3ea2f983 	.word	0x3ea2f983
 8012188:	40490fdb 	.word	0x40490fdb
 801218c:	b93504f3 	.word	0xb93504f3
 8012190:	393504f3 	.word	0x393504f3
 8012194:	362e9c5b 	.word	0x362e9c5b
 8012198:	394fb222 	.word	0x394fb222
 801219c:	3c08873e 	.word	0x3c08873e
 80121a0:	3e2aaaa4 	.word	0x3e2aaaa4
 80121a4:	3fc90fdb 	.word	0x3fc90fdb
 80121a8:	4f7fd000 	.word	0x4f7fd000

080121ac <asinef>:
 80121ac:	b538      	push	{r3, r4, r5, lr}
 80121ae:	ed2d 8b02 	vpush	{d8}
 80121b2:	eeb0 8a40 	vmov.f32	s16, s0
 80121b6:	4604      	mov	r4, r0
 80121b8:	f7ff fc1e 	bl	80119f8 <numtestf>
 80121bc:	1e43      	subs	r3, r0, #1
 80121be:	2b01      	cmp	r3, #1
 80121c0:	d809      	bhi.n	80121d6 <asinef+0x2a>
 80121c2:	2802      	cmp	r0, #2
 80121c4:	d004      	beq.n	80121d0 <asinef+0x24>
 80121c6:	ed9f 0a49 	vldr	s0, [pc, #292]	@ 80122ec <asinef+0x140>
 80121ca:	ecbd 8b02 	vpop	{d8}
 80121ce:	bd38      	pop	{r3, r4, r5, pc}
 80121d0:	eeb0 0a48 	vmov.f32	s0, s16
 80121d4:	e7f9      	b.n	80121ca <asinef+0x1e>
 80121d6:	eeb0 0a48 	vmov.f32	s0, s16
 80121da:	f7ff ff22 	bl	8012022 <fabsf>
 80121de:	eef6 7a00 	vmov.f32	s15, #96	@ 0x3f000000  0.5
 80121e2:	eeb4 0ae7 	vcmpe.f32	s0, s15
 80121e6:	eef1 fa10 	vmrs	APSR_nzcv, fpscr
 80121ea:	dd1d      	ble.n	8012228 <asinef+0x7c>
 80121ec:	f1c4 0501 	rsb	r5, r4, #1
 80121f0:	eef7 7a00 	vmov.f32	s15, #112	@ 0x3f800000  1.0
 80121f4:	eeb4 0ae7 	vcmpe.f32	s0, s15
 80121f8:	eef1 fa10 	vmrs	APSR_nzcv, fpscr
 80121fc:	dd02      	ble.n	8012204 <asinef+0x58>
 80121fe:	ed9f 0a3c 	vldr	s0, [pc, #240]	@ 80122f0 <asinef+0x144>
 8012202:	e7e2      	b.n	80121ca <asinef+0x1e>
 8012204:	ee77 8ac0 	vsub.f32	s17, s15, s0
 8012208:	eef6 7a00 	vmov.f32	s15, #96	@ 0x3f000000  0.5
 801220c:	ee68 8aa7 	vmul.f32	s17, s17, s15
 8012210:	eeb0 0a68 	vmov.f32	s0, s17
 8012214:	f7ff fe90 	bl	8011f38 <sqrtf>
 8012218:	eef8 7a00 	vmov.f32	s15, #128	@ 0xc0000000 -2.0
 801221c:	ee20 0a27 	vmul.f32	s0, s0, s15
 8012220:	ed9f 7a34 	vldr	s14, [pc, #208]	@ 80122f4 <asinef+0x148>
 8012224:	2301      	movs	r3, #1
 8012226:	e00c      	b.n	8012242 <asinef+0x96>
 8012228:	eddf 7a33 	vldr	s15, [pc, #204]	@ 80122f8 <asinef+0x14c>
 801222c:	eeb4 0ae7 	vcmpe.f32	s0, s15
 8012230:	eef1 fa10 	vmrs	APSR_nzcv, fpscr
 8012234:	d439      	bmi.n	80122aa <asinef+0xfe>
 8012236:	ee60 8a00 	vmul.f32	s17, s0, s0
 801223a:	4625      	mov	r5, r4
 801223c:	ed9f 7a2d 	vldr	s14, [pc, #180]	@ 80122f4 <asinef+0x148>
 8012240:	2300      	movs	r3, #0
 8012242:	eddf 7a2d 	vldr	s15, [pc, #180]	@ 80122f8 <asinef+0x14c>
 8012246:	eeb4 0ae7 	vcmpe.f32	s0, s15
 801224a:	eef1 fa10 	vmrs	APSR_nzcv, fpscr
 801224e:	da00      	bge.n	8012252 <asinef+0xa6>
 8012250:	b1cb      	cbz	r3, 8012286 <asinef+0xda>
 8012252:	eddf 6a2a 	vldr	s13, [pc, #168]	@ 80122fc <asinef+0x150>
 8012256:	ee68 6aa6 	vmul.f32	s13, s17, s13
 801225a:	eddf 7a29 	vldr	s15, [pc, #164]	@ 8012300 <asinef+0x154>
 801225e:	ee76 6aa7 	vadd.f32	s13, s13, s15
 8012262:	ee66 6aa8 	vmul.f32	s13, s13, s17
 8012266:	eddf 7a27 	vldr	s15, [pc, #156]	@ 8012304 <asinef+0x158>
 801226a:	ee78 7ae7 	vsub.f32	s15, s17, s15
 801226e:	ee67 7aa8 	vmul.f32	s15, s15, s17
 8012272:	ed9f 7a25 	vldr	s14, [pc, #148]	@ 8012308 <asinef+0x15c>
 8012276:	ee77 7a87 	vadd.f32	s15, s15, s14
 801227a:	ee86 7aa7 	vdiv.f32	s14, s13, s15
 801227e:	ee20 7a07 	vmul.f32	s14, s0, s14
 8012282:	ee37 7a00 	vadd.f32	s14, s14, s0
 8012286:	b9bc      	cbnz	r4, 80122b8 <asinef+0x10c>
 8012288:	4b20      	ldr	r3, [pc, #128]	@ (801230c <asinef+0x160>)
 801228a:	eb03 0385 	add.w	r3, r3, r5, lsl #2
 801228e:	edd3 7a00 	vldr	s15, [r3]
 8012292:	ee37 7a87 	vadd.f32	s14, s15, s14
 8012296:	ee37 0a87 	vadd.f32	s0, s15, s14
 801229a:	eeb5 8ac0 	vcmpe.f32	s16, #0.0
 801229e:	eef1 fa10 	vmrs	APSR_nzcv, fpscr
 80122a2:	d592      	bpl.n	80121ca <asinef+0x1e>
 80122a4:	eeb1 0a40 	vneg.f32	s0, s0
 80122a8:	e78f      	b.n	80121ca <asinef+0x1e>
 80122aa:	eeb0 7a40 	vmov.f32	s14, s0
 80122ae:	4625      	mov	r5, r4
 80122b0:	eddf 8a10 	vldr	s17, [pc, #64]	@ 80122f4 <asinef+0x148>
 80122b4:	2300      	movs	r3, #0
 80122b6:	e7c4      	b.n	8012242 <asinef+0x96>
 80122b8:	eeb5 8ac0 	vcmpe.f32	s16, #0.0
 80122bc:	eef1 fa10 	vmrs	APSR_nzcv, fpscr
 80122c0:	d409      	bmi.n	80122d6 <asinef+0x12a>
 80122c2:	4b12      	ldr	r3, [pc, #72]	@ (801230c <asinef+0x160>)
 80122c4:	eb03 0385 	add.w	r3, r3, r5, lsl #2
 80122c8:	ed93 0a00 	vldr	s0, [r3]
 80122cc:	ee30 7a47 	vsub.f32	s14, s0, s14
 80122d0:	ee30 0a07 	vadd.f32	s0, s0, s14
 80122d4:	e779      	b.n	80121ca <asinef+0x1e>
 80122d6:	4b0d      	ldr	r3, [pc, #52]	@ (801230c <asinef+0x160>)
 80122d8:	eb03 0385 	add.w	r3, r3, r5, lsl #2
 80122dc:	ed93 0a02 	vldr	s0, [r3, #8]
 80122e0:	ee30 7a07 	vadd.f32	s14, s0, s14
 80122e4:	ee30 0a07 	vadd.f32	s0, s0, s14
 80122e8:	e76f      	b.n	80121ca <asinef+0x1e>
 80122ea:	bf00      	nop
 80122ec:	4eff0000 	.word	0x4eff0000
 80122f0:	4f7fd000 	.word	0x4f7fd000
 80122f4:	00000000 	.word	0x00000000
 80122f8:	393504f3 	.word	0x393504f3
 80122fc:	bf012065 	.word	0xbf012065
 8012300:	3f6f166b 	.word	0x3f6f166b
 8012304:	40b18d0b 	.word	0x40b18d0b
 8012308:	40b350f0 	.word	0x40b350f0
 801230c:	0801c4d8 	.word	0x0801c4d8

08012310 <tanf>:
 8012310:	b508      	push	{r3, lr}
 8012312:	ed2d 8b02 	vpush	{d8}
 8012316:	eeb0 8a40 	vmov.f32	s16, s0
 801231a:	f7ff fb6d 	bl	80119f8 <numtestf>
 801231e:	2801      	cmp	r0, #1
 8012320:	d064      	beq.n	80123ec <tanf+0xdc>
 8012322:	2802      	cmp	r0, #2
 8012324:	d064      	beq.n	80123f0 <tanf+0xe0>
 8012326:	eeb0 0a48 	vmov.f32	s0, s16
 801232a:	f7ff fe7a 	bl	8012022 <fabsf>
 801232e:	eddf 7a34 	vldr	s15, [pc, #208]	@ 8012400 <tanf+0xf0>
 8012332:	eeb4 0ae7 	vcmpe.f32	s0, s15
 8012336:	eef1 fa10 	vmrs	APSR_nzcv, fpscr
 801233a:	dc5e      	bgt.n	80123fa <tanf+0xea>
 801233c:	eeb5 8ac0 	vcmpe.f32	s16, #0.0
 8012340:	eef1 fa10 	vmrs	APSR_nzcv, fpscr
 8012344:	d441      	bmi.n	80123ca <tanf+0xba>
 8012346:	eddf 6a2f 	vldr	s13, [pc, #188]	@ 8012404 <tanf+0xf4>
 801234a:	ee68 6a26 	vmul.f32	s13, s16, s13
 801234e:	eef6 7a00 	vmov.f32	s15, #96	@ 0x3f000000  0.5
 8012352:	ee76 6aa7 	vadd.f32	s13, s13, s15
 8012356:	eefd 6ae6 	vcvt.s32.f32	s13, s13
 801235a:	eef8 7ae6 	vcvt.f32.s32	s15, s13
 801235e:	ed9f 7a2a 	vldr	s14, [pc, #168]	@ 8012408 <tanf+0xf8>
 8012362:	ee67 7a87 	vmul.f32	s15, s15, s14
 8012366:	ee78 7a67 	vsub.f32	s15, s16, s15
 801236a:	ed9f 7a28 	vldr	s14, [pc, #160]	@ 801240c <tanf+0xfc>
 801236e:	eef4 7ac7 	vcmpe.f32	s15, s14
 8012372:	eef1 fa10 	vmrs	APSR_nzcv, fpscr
 8012376:	dd06      	ble.n	8012386 <tanf+0x76>
 8012378:	ed9f 7a25 	vldr	s14, [pc, #148]	@ 8012410 <tanf+0x100>
 801237c:	eef4 7ac7 	vcmpe.f32	s15, s14
 8012380:	eef1 fa10 	vmrs	APSR_nzcv, fpscr
 8012384:	d42c      	bmi.n	80123e0 <tanf+0xd0>
 8012386:	ee27 6aa7 	vmul.f32	s12, s15, s15
 801238a:	ed9f 7a22 	vldr	s14, [pc, #136]	@ 8012414 <tanf+0x104>
 801238e:	ee26 7a07 	vmul.f32	s14, s12, s14
 8012392:	ee27 7a27 	vmul.f32	s14, s14, s15
 8012396:	ee77 7a87 	vadd.f32	s15, s15, s14
 801239a:	ed9f 7a1f 	vldr	s14, [pc, #124]	@ 8012418 <tanf+0x108>
 801239e:	ee26 7a07 	vmul.f32	s14, s12, s14
 80123a2:	eddf 5a1e 	vldr	s11, [pc, #120]	@ 801241c <tanf+0x10c>
 80123a6:	ee37 7a65 	vsub.f32	s14, s14, s11
 80123aa:	ee27 7a06 	vmul.f32	s14, s14, s12
 80123ae:	eeb7 6a00 	vmov.f32	s12, #112	@ 0x3f800000  1.0
 80123b2:	ee37 7a06 	vadd.f32	s14, s14, s12
 80123b6:	ee16 3a90 	vmov	r3, s13
 80123ba:	f013 0f01 	tst.w	r3, #1
 80123be:	d012      	beq.n	80123e6 <tanf+0xd6>
 80123c0:	eeb1 7a47 	vneg.f32	s14, s14
 80123c4:	ee87 8a27 	vdiv.f32	s16, s14, s15
 80123c8:	e012      	b.n	80123f0 <tanf+0xe0>
 80123ca:	eddf 6a0e 	vldr	s13, [pc, #56]	@ 8012404 <tanf+0xf4>
 80123ce:	ee68 6a26 	vmul.f32	s13, s16, s13
 80123d2:	eef6 7a00 	vmov.f32	s15, #96	@ 0x3f000000  0.5
 80123d6:	ee76 6ae7 	vsub.f32	s13, s13, s15
 80123da:	eefd 6ae6 	vcvt.s32.f32	s13, s13
 80123de:	e7bc      	b.n	801235a <tanf+0x4a>
 80123e0:	eeb7 7a00 	vmov.f32	s14, #112	@ 0x3f800000  1.0
 80123e4:	e7e7      	b.n	80123b6 <tanf+0xa6>
 80123e6:	ee87 8a87 	vdiv.f32	s16, s15, s14
 80123ea:	e001      	b.n	80123f0 <tanf+0xe0>
 80123ec:	ed9f 8a0c 	vldr	s16, [pc, #48]	@ 8012420 <tanf+0x110>
 80123f0:	eeb0 0a48 	vmov.f32	s0, s16
 80123f4:	ecbd 8b02 	vpop	{d8}
 80123f8:	bd08      	pop	{r3, pc}
 80123fa:	eeb0 8a40 	vmov.f32	s16, s0
 80123fe:	e7f7      	b.n	80123f0 <tanf+0xe0>
 8012400:	4cc90fdb 	.word	0x4cc90fdb
 8012404:	3f22f983 	.word	0x3f22f983
 8012408:	3fc90fdb 	.word	0x3fc90fdb
 801240c:	b93504f3 	.word	0xb93504f3
 8012410:	393504f3 	.word	0x393504f3
 8012414:	bdc433b8 	.word	0xbdc433b8
 8012418:	3c1f3375 	.word	0x3c1f3375
 801241c:	3edbb7af 	.word	0x3edbb7af
 8012420:	4f7fd000 	.word	0x4f7fd000

08012424 <printf>:
 8012424:	b40f      	push	{r0, r1, r2, r3}
 8012426:	b500      	push	{lr}
 8012428:	b083      	sub	sp, #12
 801242a:	a904      	add	r1, sp, #16
 801242c:	f851 0b04 	ldr.w	r0, [r1], #4
 8012430:	9101      	str	r1, [sp, #4]
 8012432:	4b09      	ldr	r3, [pc, #36]	@ (8012458 <printf+0x34>)
 8012434:	681b      	ldr	r3, [r3, #0]
 8012436:	eb03 1303 	add.w	r3, r3, r3, lsl #4
 801243a:	009a      	lsls	r2, r3, #2
 801243c:	4b07      	ldr	r3, [pc, #28]	@ (801245c <printf+0x38>)
 801243e:	4413      	add	r3, r2
 8012440:	f9b3 3034 	ldrsh.w	r3, [r3, #52]	@ 0x34
 8012444:	4a06      	ldr	r2, [pc, #24]	@ (8012460 <printf+0x3c>)
 8012446:	6fd2      	ldr	r2, [r2, #124]	@ 0x7c
 8012448:	f7fe ff54 	bl	80112f4 <_fdoprnt>
 801244c:	2000      	movs	r0, #0
 801244e:	b003      	add	sp, #12
 8012450:	f85d eb04 	ldr.w	lr, [sp], #4
 8012454:	b004      	add	sp, #16
 8012456:	4770      	bx	lr
 8012458:	20001c78 	.word	0x20001c78
 801245c:	200017bc 	.word	0x200017bc
 8012460:	200016f4 	.word	0x200016f4

08012464 <putchar>:
 8012464:	b508      	push	{r3, lr}
 8012466:	4b06      	ldr	r3, [pc, #24]	@ (8012480 <putchar+0x1c>)
 8012468:	681b      	ldr	r3, [r3, #0]
 801246a:	eb03 1303 	add.w	r3, r3, r3, lsl #4
 801246e:	009a      	lsls	r2, r3, #2
 8012470:	4b04      	ldr	r3, [pc, #16]	@ (8012484 <putchar+0x20>)
 8012472:	4413      	add	r3, r2
 8012474:	f9b3 1034 	ldrsh.w	r1, [r3, #52]	@ 0x34
 8012478:	f7ff f90a 	bl	8011690 <fputc>
 801247c:	bd08      	pop	{r3, pc}
 801247e:	bf00      	nop
 8012480:	20001c78 	.word	0x20001c78
 8012484:	200017bc 	.word	0x200017bc

08012488 <qsexc>:
 8012488:	b500      	push	{lr}
 801248a:	4b08      	ldr	r3, [pc, #32]	@ (80124ac <qsexc+0x24>)
 801248c:	681a      	ldr	r2, [r3, #0]
 801248e:	f890 c000 	ldrb.w	ip, [r0]
 8012492:	f891 e000 	ldrb.w	lr, [r1]
 8012496:	f880 e000 	strb.w	lr, [r0]
 801249a:	3001      	adds	r0, #1
 801249c:	f881 c000 	strb.w	ip, [r1]
 80124a0:	3101      	adds	r1, #1
 80124a2:	3a01      	subs	r2, #1
 80124a4:	d1f3      	bne.n	801248e <qsexc+0x6>
 80124a6:	f85d fb04 	ldr.w	pc, [sp], #4
 80124aa:	bf00      	nop
 80124ac:	20000398 	.word	0x20000398

080124b0 <qstexc>:
 80124b0:	b510      	push	{r4, lr}
 80124b2:	4b0a      	ldr	r3, [pc, #40]	@ (80124dc <qstexc+0x2c>)
 80124b4:	681c      	ldr	r4, [r3, #0]
 80124b6:	f890 c000 	ldrb.w	ip, [r0]
 80124ba:	f892 e000 	ldrb.w	lr, [r2]
 80124be:	f880 e000 	strb.w	lr, [r0]
 80124c2:	3001      	adds	r0, #1
 80124c4:	f891 e000 	ldrb.w	lr, [r1]
 80124c8:	f882 e000 	strb.w	lr, [r2]
 80124cc:	3201      	adds	r2, #1
 80124ce:	f881 c000 	strb.w	ip, [r1]
 80124d2:	3101      	adds	r1, #1
 80124d4:	3c01      	subs	r4, #1
 80124d6:	d1ee      	bne.n	80124b6 <qstexc+0x6>
 80124d8:	bd10      	pop	{r4, pc}
 80124da:	bf00      	nop
 80124dc:	20000398 	.word	0x20000398

080124e0 <qs1>:
 80124e0:	e92d 4ff8 	stmdb	sp!, {r3, r4, r5, r6, r7, r8, r9, sl, fp, lr}
 80124e4:	4682      	mov	sl, r0
 80124e6:	468b      	mov	fp, r1
 80124e8:	4b36      	ldr	r3, [pc, #216]	@ (80125c4 <qs1+0xe4>)
 80124ea:	f8d3 8000 	ldr.w	r8, [r3]
 80124ee:	ebab 030a 	sub.w	r3, fp, sl
 80124f2:	4598      	cmp	r8, r3
 80124f4:	d263      	bcs.n	80125be <qs1+0xde>
 80124f6:	ea4f 0248 	mov.w	r2, r8, lsl #1
 80124fa:	fbb3 f3f2 	udiv	r3, r3, r2
 80124fe:	fb03 a708 	mla	r7, r3, r8, sl
 8012502:	f1c8 0900 	rsb	r9, r8, #0
 8012506:	ebab 0408 	sub.w	r4, fp, r8
 801250a:	463e      	mov	r6, r7
 801250c:	4655      	mov	r5, sl
 801250e:	e029      	b.n	8012564 <qs1+0x84>
 8012510:	444f      	add	r7, r9
 8012512:	4639      	mov	r1, r7
 8012514:	4628      	mov	r0, r5
 8012516:	f7ff ffb7 	bl	8012488 <qsexc>
 801251a:	e023      	b.n	8012564 <qs1+0x84>
 801251c:	4446      	add	r6, r8
 801251e:	4621      	mov	r1, r4
 8012520:	4630      	mov	r0, r6
 8012522:	f7ff ffb1 	bl	8012488 <qsexc>
 8012526:	e00a      	b.n	801253e <qs1+0x5e>
 8012528:	4446      	add	r6, r8
 801252a:	4622      	mov	r2, r4
 801252c:	4631      	mov	r1, r6
 801252e:	4628      	mov	r0, r5
 8012530:	f7ff ffbe 	bl	80124b0 <qstexc>
 8012534:	eb07 0508 	add.w	r5, r7, r8
 8012538:	462f      	mov	r7, r5
 801253a:	e000      	b.n	801253e <qs1+0x5e>
 801253c:	444c      	add	r4, r9
 801253e:	42b4      	cmp	r4, r6
 8012540:	d91d      	bls.n	801257e <qs1+0x9e>
 8012542:	4b20      	ldr	r3, [pc, #128]	@ (80125c4 <qs1+0xe4>)
 8012544:	685b      	ldr	r3, [r3, #4]
 8012546:	4621      	mov	r1, r4
 8012548:	4630      	mov	r0, r6
 801254a:	4798      	blx	r3
 801254c:	2800      	cmp	r0, #0
 801254e:	d0e5      	beq.n	801251c <qs1+0x3c>
 8012550:	2800      	cmp	r0, #0
 8012552:	ddf3      	ble.n	801253c <qs1+0x5c>
 8012554:	42bd      	cmp	r5, r7
 8012556:	d0e7      	beq.n	8012528 <qs1+0x48>
 8012558:	4621      	mov	r1, r4
 801255a:	4628      	mov	r0, r5
 801255c:	f7ff ff94 	bl	8012488 <qsexc>
 8012560:	444c      	add	r4, r9
 8012562:	4445      	add	r5, r8
 8012564:	42bd      	cmp	r5, r7
 8012566:	d2ea      	bcs.n	801253e <qs1+0x5e>
 8012568:	4b16      	ldr	r3, [pc, #88]	@ (80125c4 <qs1+0xe4>)
 801256a:	685b      	ldr	r3, [r3, #4]
 801256c:	4639      	mov	r1, r7
 801256e:	4628      	mov	r0, r5
 8012570:	4798      	blx	r3
 8012572:	2800      	cmp	r0, #0
 8012574:	d0cc      	beq.n	8012510 <qs1+0x30>
 8012576:	2800      	cmp	r0, #0
 8012578:	dae1      	bge.n	801253e <qs1+0x5e>
 801257a:	4445      	add	r5, r8
 801257c:	e7f2      	b.n	8012564 <qs1+0x84>
 801257e:	42bd      	cmp	r5, r7
 8012580:	d009      	beq.n	8012596 <qs1+0xb6>
 8012582:	444f      	add	r7, r9
 8012584:	462a      	mov	r2, r5
 8012586:	4639      	mov	r1, r7
 8012588:	4620      	mov	r0, r4
 801258a:	f7ff ff91 	bl	80124b0 <qstexc>
 801258e:	eb06 0409 	add.w	r4, r6, r9
 8012592:	4626      	mov	r6, r4
 8012594:	e7e6      	b.n	8012564 <qs1+0x84>
 8012596:	eba7 030a 	sub.w	r3, r7, sl
 801259a:	ebab 0206 	sub.w	r2, fp, r6
 801259e:	4293      	cmp	r3, r2
 80125a0:	db06      	blt.n	80125b0 <qs1+0xd0>
 80125a2:	4659      	mov	r1, fp
 80125a4:	eb06 0008 	add.w	r0, r6, r8
 80125a8:	f7ff ff9a 	bl	80124e0 <qs1>
 80125ac:	46bb      	mov	fp, r7
 80125ae:	e79e      	b.n	80124ee <qs1+0xe>
 80125b0:	4639      	mov	r1, r7
 80125b2:	4650      	mov	r0, sl
 80125b4:	f7ff ff94 	bl	80124e0 <qs1>
 80125b8:	eb06 0a08 	add.w	sl, r6, r8
 80125bc:	e797      	b.n	80124ee <qs1+0xe>
 80125be:	e8bd 8ff8 	ldmia.w	sp!, {r3, r4, r5, r6, r7, r8, r9, sl, fp, pc}
 80125c2:	bf00      	nop
 80125c4:	20000398 	.word	0x20000398

080125c8 <qsort>:
 80125c8:	b510      	push	{r4, lr}
 80125ca:	4c04      	ldr	r4, [pc, #16]	@ (80125dc <qsort+0x14>)
 80125cc:	6063      	str	r3, [r4, #4]
 80125ce:	6022      	str	r2, [r4, #0]
 80125d0:	fb01 0102 	mla	r1, r1, r2, r0
 80125d4:	f7ff ff84 	bl	80124e0 <qs1>
 80125d8:	bd10      	pop	{r4, pc}
 80125da:	bf00      	nop
 80125dc:	20000398 	.word	0x20000398

080125e0 <rand_r>:
 80125e0:	4602      	mov	r2, r0
 80125e2:	6801      	ldr	r1, [r0, #0]
 80125e4:	f244 13a7 	movw	r3, #16807	@ 0x41a7
 80125e8:	fb03 f101 	mul.w	r1, r3, r1
 80125ec:	084b      	lsrs	r3, r1, #1
 80125ee:	4805      	ldr	r0, [pc, #20]	@ (8012604 <rand_r+0x24>)
 80125f0:	fba0 0303 	umull	r0, r3, r0, r3
 80125f4:	0f58      	lsrs	r0, r3, #29
 80125f6:	ebc0 7380 	rsb	r3, r0, r0, lsl #30
 80125fa:	eba1 0043 	sub.w	r0, r1, r3, lsl #1
 80125fe:	6010      	str	r0, [r2, #0]
 8012600:	4770      	bx	lr
 8012602:	bf00      	nop
 8012604:	80000003 	.word	0x80000003

08012608 <rand>:
 8012608:	b508      	push	{r3, lr}
 801260a:	4802      	ldr	r0, [pc, #8]	@ (8012614 <rand+0xc>)
 801260c:	f7ff ffe8 	bl	80125e0 <rand_r>
 8012610:	bd08      	pop	{r3, pc}
 8012612:	bf00      	nop
 8012614:	20000080 	.word	0x20000080

08012618 <srand>:
 8012618:	4b01      	ldr	r3, [pc, #4]	@ (8012620 <srand+0x8>)
 801261a:	6018      	str	r0, [r3, #0]
 801261c:	4770      	bx	lr
 801261e:	bf00      	nop
 8012620:	20000080 	.word	0x20000080

08012624 <sprntf>:
 8012624:	4603      	mov	r3, r0
 8012626:	b2c8      	uxtb	r0, r1
 8012628:	681a      	ldr	r2, [r3, #0]
 801262a:	1c51      	adds	r1, r2, #1
 801262c:	6019      	str	r1, [r3, #0]
 801262e:	7010      	strb	r0, [r2, #0]
 8012630:	4770      	bx	lr

08012632 <sprintf>:
 8012632:	b40e      	push	{r1, r2, r3}
 8012634:	b510      	push	{r4, lr}
 8012636:	b083      	sub	sp, #12
 8012638:	4604      	mov	r4, r0
 801263a:	a905      	add	r1, sp, #20
 801263c:	f851 0b04 	ldr.w	r0, [r1], #4
 8012640:	9400      	str	r4, [sp, #0]
 8012642:	9101      	str	r1, [sp, #4]
 8012644:	466b      	mov	r3, sp
 8012646:	4a07      	ldr	r2, [pc, #28]	@ (8012664 <sprintf+0x32>)
 8012648:	f7fe fe54 	bl	80112f4 <_fdoprnt>
 801264c:	9b00      	ldr	r3, [sp, #0]
 801264e:	1c5a      	adds	r2, r3, #1
 8012650:	9200      	str	r2, [sp, #0]
 8012652:	2200      	movs	r2, #0
 8012654:	701a      	strb	r2, [r3, #0]
 8012656:	4620      	mov	r0, r4
 8012658:	b003      	add	sp, #12
 801265a:	e8bd 4010 	ldmia.w	sp!, {r4, lr}
 801265e:	b003      	add	sp, #12
 8012660:	4770      	bx	lr
 8012662:	bf00      	nop
 8012664:	08012625 	.word	0x08012625

08012668 <int_abs>:
 8012668:	2800      	cmp	r0, #0
 801266a:	dd00      	ble.n	801266e <int_abs+0x6>
 801266c:	4770      	bx	lr
 801266e:	4240      	negs	r0, r0
 8012670:	e7fc      	b.n	801266c <int_abs+0x4>

08012672 <labs>:
 8012672:	2800      	cmp	r0, #0
 8012674:	db00      	blt.n	8012678 <labs+0x6>
 8012676:	4770      	bx	lr
 8012678:	4240      	negs	r0, r0
 801267a:	e7fc      	b.n	8012676 <labs+0x4>

0801267c <abs>:
 801267c:	2800      	cmp	r0, #0
 801267e:	bfb8      	it	lt
 8012680:	4240      	neglt	r0, r0
 8012682:	4770      	bx	lr

08012684 <strndup>:
 8012684:	b570      	push	{r4, r5, r6, lr}
 8012686:	4605      	mov	r5, r0
 8012688:	f000 faed 	bl	8012c66 <strnlen>
 801268c:	4604      	mov	r4, r0
 801268e:	3001      	adds	r0, #1
 8012690:	f7ff f82c 	bl	80116ec <malloc>
 8012694:	4606      	mov	r6, r0
 8012696:	b128      	cbz	r0, 80126a4 <strndup+0x20>
 8012698:	4622      	mov	r2, r4
 801269a:	4629      	mov	r1, r5
 801269c:	f000 fa45 	bl	8012b2a <strncpy>
 80126a0:	2300      	movs	r3, #0
 80126a2:	5533      	strb	r3, [r6, r4]
 80126a4:	4630      	mov	r0, r6
 80126a6:	bd70      	pop	{r4, r5, r6, pc}

080126a8 <strdup>:
 80126a8:	b510      	push	{r4, lr}
 80126aa:	4604      	mov	r4, r0
 80126ac:	f000 f9f1 	bl	8012a92 <strlen>
 80126b0:	4601      	mov	r1, r0
 80126b2:	4620      	mov	r0, r4
 80126b4:	f7ff ffe6 	bl	8012684 <strndup>
 80126b8:	bd10      	pop	{r4, pc}

080126ba <atol>:
 80126ba:	b410      	push	{r4}
 80126bc:	4601      	mov	r1, r0
 80126be:	780b      	ldrb	r3, [r1, #0]
 80126c0:	2b2b      	cmp	r3, #43	@ 0x2b
 80126c2:	d010      	beq.n	80126e6 <atol+0x2c>
 80126c4:	d807      	bhi.n	80126d6 <atol+0x1c>
 80126c6:	2b09      	cmp	r3, #9
 80126c8:	d001      	beq.n	80126ce <atol+0x14>
 80126ca:	2b20      	cmp	r3, #32
 80126cc:	d101      	bne.n	80126d2 <atol+0x18>
 80126ce:	3101      	adds	r1, #1
 80126d0:	e7f5      	b.n	80126be <atol+0x4>
 80126d2:	2400      	movs	r4, #0
 80126d4:	e003      	b.n	80126de <atol+0x24>
 80126d6:	2b2d      	cmp	r3, #45	@ 0x2d
 80126d8:	d103      	bne.n	80126e2 <atol+0x28>
 80126da:	2401      	movs	r4, #1
 80126dc:	3101      	adds	r1, #1
 80126de:	2000      	movs	r0, #0
 80126e0:	e00a      	b.n	80126f8 <atol+0x3e>
 80126e2:	2400      	movs	r4, #0
 80126e4:	e7fb      	b.n	80126de <atol+0x24>
 80126e6:	2400      	movs	r4, #0
 80126e8:	e7f8      	b.n	80126dc <atol+0x22>
 80126ea:	eb00 0080 	add.w	r0, r0, r0, lsl #2
 80126ee:	3101      	adds	r1, #1
 80126f0:	eb03 0340 	add.w	r3, r3, r0, lsl #1
 80126f4:	f1a3 0030 	sub.w	r0, r3, #48	@ 0x30
 80126f8:	780b      	ldrb	r3, [r1, #0]
 80126fa:	f1a3 0230 	sub.w	r2, r3, #48	@ 0x30
 80126fe:	b2d2      	uxtb	r2, r2
 8012700:	2a09      	cmp	r2, #9
 8012702:	d9f2      	bls.n	80126ea <atol+0x30>
 8012704:	b104      	cbz	r4, 8012708 <atol+0x4e>
 8012706:	4240      	negs	r0, r0
 8012708:	f85d 4b04 	ldr.w	r4, [sp], #4
 801270c:	4770      	bx	lr

0801270e <atoi>:
 801270e:	b538      	push	{r3, r4, r5, lr}
 8012710:	4605      	mov	r5, r0
 8012712:	2400      	movs	r4, #0
 8012714:	e000      	b.n	8012718 <atoi+0xa>
 8012716:	3401      	adds	r4, #1
 8012718:	4912      	ldr	r1, [pc, #72]	@ (8012764 <atoi+0x56>)
 801271a:	5d28      	ldrb	r0, [r5, r4]
 801271c:	f000 fa1e 	bl	8012b5c <chrnlst>
 8012720:	4603      	mov	r3, r0
 8012722:	2800      	cmp	r0, #0
 8012724:	d1f7      	bne.n	8012716 <atoi+0x8>
 8012726:	5d2a      	ldrb	r2, [r5, r4]
 8012728:	2a2d      	cmp	r2, #45	@ 0x2d
 801272a:	d003      	beq.n	8012734 <atoi+0x26>
 801272c:	2a2b      	cmp	r2, #43	@ 0x2b
 801272e:	d10a      	bne.n	8012746 <atoi+0x38>
 8012730:	3401      	adds	r4, #1
 8012732:	e008      	b.n	8012746 <atoi+0x38>
 8012734:	3401      	adds	r4, #1
 8012736:	2001      	movs	r0, #1
 8012738:	e005      	b.n	8012746 <atoi+0x38>
 801273a:	eb03 0383 	add.w	r3, r3, r3, lsl #2
 801273e:	3a30      	subs	r2, #48	@ 0x30
 8012740:	eb02 0343 	add.w	r3, r2, r3, lsl #1
 8012744:	3401      	adds	r4, #1
 8012746:	5d2a      	ldrb	r2, [r5, r4]
 8012748:	f1a2 0130 	sub.w	r1, r2, #48	@ 0x30
 801274c:	b2c9      	uxtb	r1, r1
 801274e:	2909      	cmp	r1, #9
 8012750:	d9f3      	bls.n	801273a <atoi+0x2c>
 8012752:	b120      	cbz	r0, 801275e <atoi+0x50>
 8012754:	f04f 30ff 	mov.w	r0, #4294967295	@ 0xffffffff
 8012758:	fb03 f000 	mul.w	r0, r3, r0
 801275c:	bd38      	pop	{r3, r4, r5, pc}
 801275e:	2001      	movs	r0, #1
 8012760:	e7fa      	b.n	8012758 <atoi+0x4a>
 8012762:	bf00      	nop
 8012764:	0801c6fc 	.word	0x0801c6fc

08012768 <uitoa>:
 8012768:	b5f0      	push	{r4, r5, r6, r7, lr}
 801276a:	b08b      	sub	sp, #44	@ 0x2c
 801276c:	4684      	mov	ip, r0
 801276e:	460c      	mov	r4, r1
 8012770:	4617      	mov	r7, r2
 8012772:	469e      	mov	lr, r3
 8012774:	ad01      	add	r5, sp, #4
 8012776:	4e17      	ldr	r6, [pc, #92]	@ (80127d4 <uitoa+0x6c>)
 8012778:	ce0f      	ldmia	r6!, {r0, r1, r2, r3}
 801277a:	c50f      	stmia	r5!, {r0, r1, r2, r3}
 801277c:	ce0f      	ldmia	r6!, {r0, r1, r2, r3}
 801277e:	c50f      	stmia	r5!, {r0, r1, r2, r3}
 8012780:	6833      	ldr	r3, [r6, #0]
 8012782:	602b      	str	r3, [r5, #0]
 8012784:	b307      	cbz	r7, 80127c8 <uitoa+0x60>
 8012786:	4639      	mov	r1, r7
 8012788:	f1ae 0302 	sub.w	r3, lr, #2
 801278c:	2b22      	cmp	r3, #34	@ 0x22
 801278e:	d81d      	bhi.n	80127cc <uitoa+0x64>
 8012790:	2000      	movs	r0, #0
 8012792:	e000      	b.n	8012796 <uitoa+0x2e>
 8012794:	469c      	mov	ip, r3
 8012796:	fbbc f2fe 	udiv	r2, ip, lr
 801279a:	fb0e c212 	mls	r2, lr, r2, ip
 801279e:	3228      	adds	r2, #40	@ 0x28
 80127a0:	446a      	add	r2, sp
 80127a2:	f812 2c24 	ldrb.w	r2, [r2, #-36]
 80127a6:	5422      	strb	r2, [r4, r0]
 80127a8:	3001      	adds	r0, #1
 80127aa:	3901      	subs	r1, #1
 80127ac:	d003      	beq.n	80127b6 <uitoa+0x4e>
 80127ae:	fbbc f3fe 	udiv	r3, ip, lr
 80127b2:	45f4      	cmp	ip, lr
 80127b4:	d2ee      	bcs.n	8012794 <uitoa+0x2c>
 80127b6:	b159      	cbz	r1, 80127d0 <uitoa+0x68>
 80127b8:	2300      	movs	r3, #0
 80127ba:	5423      	strb	r3, [r4, r0]
 80127bc:	4620      	mov	r0, r4
 80127be:	f000 f971 	bl	8012aa4 <strreverse>
 80127c2:	4620      	mov	r0, r4
 80127c4:	b00b      	add	sp, #44	@ 0x2c
 80127c6:	bdf0      	pop	{r4, r5, r6, r7, pc}
 80127c8:	2000      	movs	r0, #0
 80127ca:	e7fb      	b.n	80127c4 <uitoa+0x5c>
 80127cc:	2000      	movs	r0, #0
 80127ce:	e7f9      	b.n	80127c4 <uitoa+0x5c>
 80127d0:	2000      	movs	r0, #0
 80127d2:	e7f7      	b.n	80127c4 <uitoa+0x5c>
 80127d4:	0801c704 	.word	0x0801c704

080127d8 <itoa>:
 80127d8:	b1b2      	cbz	r2, 8012808 <itoa+0x30>
 80127da:	b5f8      	push	{r3, r4, r5, r6, r7, lr}
 80127dc:	460e      	mov	r6, r1
 80127de:	461c      	mov	r4, r3
 80127e0:	4615      	mov	r5, r2
 80127e2:	3b02      	subs	r3, #2
 80127e4:	2b22      	cmp	r3, #34	@ 0x22
 80127e6:	d811      	bhi.n	801280c <itoa+0x34>
 80127e8:	2800      	cmp	r0, #0
 80127ea:	db08      	blt.n	80127fe <itoa+0x26>
 80127ec:	2700      	movs	r7, #0
 80127ee:	f7ff ff3b 	bl	8012668 <int_abs>
 80127f2:	4623      	mov	r3, r4
 80127f4:	462a      	mov	r2, r5
 80127f6:	19f1      	adds	r1, r6, r7
 80127f8:	f7ff ffb6 	bl	8012768 <uitoa>
 80127fc:	bdf8      	pop	{r3, r4, r5, r6, r7, pc}
 80127fe:	232d      	movs	r3, #45	@ 0x2d
 8012800:	700b      	strb	r3, [r1, #0]
 8012802:	1e55      	subs	r5, r2, #1
 8012804:	2701      	movs	r7, #1
 8012806:	e7f2      	b.n	80127ee <itoa+0x16>
 8012808:	2000      	movs	r0, #0
 801280a:	4770      	bx	lr
 801280c:	2000      	movs	r0, #0
 801280e:	e7f5      	b.n	80127fc <itoa+0x24>

08012810 <ftoa>:
 8012810:	b570      	push	{r4, r5, r6, lr}
 8012812:	ed2d 8b04 	vpush	{d8-d9}
 8012816:	4606      	mov	r6, r0
 8012818:	460d      	mov	r5, r1
 801281a:	ee10 2a10 	vmov	r2, s0
 801281e:	f022 4300 	bic.w	r3, r2, #2147483648	@ 0x80000000
 8012822:	f1b3 4fff 	cmp.w	r3, #2139095040	@ 0x7f800000
 8012826:	d81e      	bhi.n	8012866 <ftoa+0x56>
 8012828:	eeb0 8a40 	vmov.f32	s16, s0
 801282c:	eeb0 9a60 	vmov.f32	s18, s1
 8012830:	f1b3 4fff 	cmp.w	r3, #2139095040	@ 0x7f800000
 8012834:	d034      	beq.n	80128a0 <ftoa+0x90>
 8012836:	eeb5 0ac0 	vcmpe.f32	s0, #0.0
 801283a:	eef1 fa10 	vmrs	APSR_nzcv, fpscr
 801283e:	d476      	bmi.n	801292e <ftoa+0x11e>
 8012840:	2001      	movs	r0, #1
 8012842:	eeb0 0a48 	vmov.f32	s0, s16
 8012846:	f7ff f8f8 	bl	8011a3a <logarithm>
 801284a:	eefd 7ac0 	vcvt.s32.f32	s15, s0
 801284e:	ee17 4a90 	vmov	r4, s15
 8012852:	2c00      	cmp	r4, #0
 8012854:	da75      	bge.n	8012942 <ftoa+0x132>
 8012856:	4633      	mov	r3, r6
 8012858:	2230      	movs	r2, #48	@ 0x30
 801285a:	f803 2b02 	strb.w	r2, [r3], #2
 801285e:	222e      	movs	r2, #46	@ 0x2e
 8012860:	7072      	strb	r2, [r6, #1]
 8012862:	461e      	mov	r6, r3
 8012864:	e06d      	b.n	8012942 <ftoa+0x132>
 8012866:	226e      	movs	r2, #110	@ 0x6e
 8012868:	7002      	strb	r2, [r0, #0]
 801286a:	2301      	movs	r3, #1
 801286c:	fbb3 f3f1 	udiv	r3, r3, r1
 8012870:	fb01 f303 	mul.w	r3, r1, r3
 8012874:	f1c3 0301 	rsb	r3, r3, #1
 8012878:	2161      	movs	r1, #97	@ 0x61
 801287a:	54c1      	strb	r1, [r0, r3]
 801287c:	2302      	movs	r3, #2
 801287e:	fbb3 f3f5 	udiv	r3, r3, r5
 8012882:	fb05 f303 	mul.w	r3, r5, r3
 8012886:	f1c3 0302 	rsb	r3, r3, #2
 801288a:	54c2      	strb	r2, [r0, r3]
 801288c:	2303      	movs	r3, #3
 801288e:	fbb3 f3f5 	udiv	r3, r3, r5
 8012892:	fb05 f303 	mul.w	r3, r5, r3
 8012896:	f1c3 0303 	rsb	r3, r3, #3
 801289a:	2200      	movs	r2, #0
 801289c:	54c2      	strb	r2, [r0, r3]
 801289e:	e089      	b.n	80129b4 <ftoa+0x1a4>
 80128a0:	2a00      	cmp	r2, #0
 80128a2:	db1d      	blt.n	80128e0 <ftoa+0xd0>
 80128a4:	2369      	movs	r3, #105	@ 0x69
 80128a6:	7003      	strb	r3, [r0, #0]
 80128a8:	2301      	movs	r3, #1
 80128aa:	fbb3 f3f1 	udiv	r3, r3, r1
 80128ae:	fb01 f303 	mul.w	r3, r1, r3
 80128b2:	f1c3 0301 	rsb	r3, r3, #1
 80128b6:	226e      	movs	r2, #110	@ 0x6e
 80128b8:	54c2      	strb	r2, [r0, r3]
 80128ba:	2302      	movs	r3, #2
 80128bc:	fbb3 f3f1 	udiv	r3, r3, r1
 80128c0:	fb01 f303 	mul.w	r3, r1, r3
 80128c4:	f1c3 0302 	rsb	r3, r3, #2
 80128c8:	2266      	movs	r2, #102	@ 0x66
 80128ca:	54c2      	strb	r2, [r0, r3]
 80128cc:	2303      	movs	r3, #3
 80128ce:	fbb3 f3f1 	udiv	r3, r3, r1
 80128d2:	fb01 f303 	mul.w	r3, r1, r3
 80128d6:	f1c3 0303 	rsb	r3, r3, #3
 80128da:	2200      	movs	r2, #0
 80128dc:	54c2      	strb	r2, [r0, r3]
 80128de:	e069      	b.n	80129b4 <ftoa+0x1a4>
 80128e0:	232d      	movs	r3, #45	@ 0x2d
 80128e2:	7003      	strb	r3, [r0, #0]
 80128e4:	2301      	movs	r3, #1
 80128e6:	fbb3 f3f1 	udiv	r3, r3, r1
 80128ea:	fb01 f303 	mul.w	r3, r1, r3
 80128ee:	f1c3 0301 	rsb	r3, r3, #1
 80128f2:	2269      	movs	r2, #105	@ 0x69
 80128f4:	54c2      	strb	r2, [r0, r3]
 80128f6:	2302      	movs	r3, #2
 80128f8:	fbb3 f3f1 	udiv	r3, r3, r1
 80128fc:	fb01 f303 	mul.w	r3, r1, r3
 8012900:	f1c3 0302 	rsb	r3, r3, #2
 8012904:	226e      	movs	r2, #110	@ 0x6e
 8012906:	54c2      	strb	r2, [r0, r3]
 8012908:	2303      	movs	r3, #3
 801290a:	fbb3 f3f1 	udiv	r3, r3, r1
 801290e:	fb01 f303 	mul.w	r3, r1, r3
 8012912:	f1c3 0303 	rsb	r3, r3, #3
 8012916:	2266      	movs	r2, #102	@ 0x66
 8012918:	54c2      	strb	r2, [r0, r3]
 801291a:	2304      	movs	r3, #4
 801291c:	fbb3 f3f1 	udiv	r3, r3, r1
 8012920:	fb01 f303 	mul.w	r3, r1, r3
 8012924:	f1c3 0304 	rsb	r3, r3, #4
 8012928:	2200      	movs	r2, #0
 801292a:	54c2      	strb	r2, [r0, r3]
 801292c:	e042      	b.n	80129b4 <ftoa+0x1a4>
 801292e:	232d      	movs	r3, #45	@ 0x2d
 8012930:	f806 3b01 	strb.w	r3, [r6], #1
 8012934:	1e4d      	subs	r5, r1, #1
 8012936:	eeb1 8a40 	vneg.f32	s16, s0
 801293a:	e781      	b.n	8012840 <ftoa+0x30>
 801293c:	3c01      	subs	r4, #1
 801293e:	461d      	mov	r5, r3
 8012940:	4616      	mov	r6, r2
 8012942:	eddf 7a21 	vldr	s15, [pc, #132]	@ 80129c8 <ftoa+0x1b8>
 8012946:	ee79 7a27 	vadd.f32	s15, s18, s15
 801294a:	eef4 7ac8 	vcmpe.f32	s15, s16
 801294e:	eef1 fa10 	vmrs	APSR_nzcv, fpscr
 8012952:	d401      	bmi.n	8012958 <ftoa+0x148>
 8012954:	2c00      	cmp	r4, #0
 8012956:	db27      	blt.n	80129a8 <ftoa+0x198>
 8012958:	2d01      	cmp	r5, #1
 801295a:	d925      	bls.n	80129a8 <ftoa+0x198>
 801295c:	ee07 4a90 	vmov	s15, r4
 8012960:	eef8 0ae7 	vcvt.f32.s32	s1, s15
 8012964:	eeb2 0a04 	vmov.f32	s0, #36	@ 0x41200000  10.0
 8012968:	f7ff fa26 	bl	8011db8 <powf>
 801296c:	eef0 8a40 	vmov.f32	s17, s0
 8012970:	ee88 0a28 	vdiv.f32	s0, s16, s17
 8012974:	f7ff f91a 	bl	8011bac <floorf>
 8012978:	eefd 7ac0 	vcvt.s32.f32	s15, s0
 801297c:	eeb8 7ae7 	vcvt.f32.s32	s14, s15
 8012980:	ee27 7a28 	vmul.f32	s14, s14, s17
 8012984:	ee38 8a47 	vsub.f32	s16, s16, s14
 8012988:	4632      	mov	r2, r6
 801298a:	ee17 3a90 	vmov	r3, s15
 801298e:	3330      	adds	r3, #48	@ 0x30
 8012990:	f802 3b01 	strb.w	r3, [r2], #1
 8012994:	1e6b      	subs	r3, r5, #1
 8012996:	2c00      	cmp	r4, #0
 8012998:	d1d0      	bne.n	801293c <ftoa+0x12c>
 801299a:	2b01      	cmp	r3, #1
 801299c:	d9ce      	bls.n	801293c <ftoa+0x12c>
 801299e:	1cb2      	adds	r2, r6, #2
 80129a0:	232e      	movs	r3, #46	@ 0x2e
 80129a2:	7073      	strb	r3, [r6, #1]
 80129a4:	1eab      	subs	r3, r5, #2
 80129a6:	e7c9      	b.n	801293c <ftoa+0x12c>
 80129a8:	f816 3c01 	ldrb.w	r3, [r6, #-1]
 80129ac:	2b2e      	cmp	r3, #46	@ 0x2e
 80129ae:	d004      	beq.n	80129ba <ftoa+0x1aa>
 80129b0:	2300      	movs	r3, #0
 80129b2:	7033      	strb	r3, [r6, #0]
 80129b4:	ecbd 8b04 	vpop	{d8-d9}
 80129b8:	bd70      	pop	{r4, r5, r6, pc}
 80129ba:	2d01      	cmp	r5, #1
 80129bc:	d9f8      	bls.n	80129b0 <ftoa+0x1a0>
 80129be:	2330      	movs	r3, #48	@ 0x30
 80129c0:	f806 3b01 	strb.w	r3, [r6], #1
 80129c4:	e7f4      	b.n	80129b0 <ftoa+0x1a0>
 80129c6:	bf00      	nop
 80129c8:	00000000 	.word	0x00000000

080129cc <bzero>:
 80129cc:	2900      	cmp	r1, #0
 80129ce:	dd04      	ble.n	80129da <bzero+0xe>
 80129d0:	2200      	movs	r2, #0
 80129d2:	7002      	strb	r2, [r0, #0]
 80129d4:	3001      	adds	r0, #1
 80129d6:	3901      	subs	r1, #1
 80129d8:	d1fa      	bne.n	80129d0 <bzero+0x4>
 80129da:	4770      	bx	lr

080129dc <abort>:
 80129dc:	b508      	push	{r3, lr}
 80129de:	f04f 30ff 	mov.w	r0, #4294967295	@ 0xffffffff
 80129e2:	f002 fea7 	bl	8015734 <exit>
 80129e6:	bd08      	pop	{r3, pc}

080129e8 <memchr>:
 80129e8:	e001      	b.n	80129ee <memchr+0x6>
 80129ea:	3001      	adds	r0, #1
 80129ec:	461a      	mov	r2, r3
 80129ee:	1e53      	subs	r3, r2, #1
 80129f0:	b11a      	cbz	r2, 80129fa <memchr+0x12>
 80129f2:	7802      	ldrb	r2, [r0, #0]
 80129f4:	428a      	cmp	r2, r1
 80129f6:	d1f8      	bne.n	80129ea <memchr+0x2>
 80129f8:	e000      	b.n	80129fc <memchr+0x14>
 80129fa:	2000      	movs	r0, #0
 80129fc:	4770      	bx	lr

080129fe <memcmp>:
 80129fe:	4603      	mov	r3, r0
 8012a00:	4610      	mov	r0, r2
 8012a02:	e002      	b.n	8012a0a <memcmp+0xc>
 8012a04:	3301      	adds	r3, #1
 8012a06:	3101      	adds	r1, #1
 8012a08:	4660      	mov	r0, ip
 8012a0a:	f100 3cff 	add.w	ip, r0, #4294967295	@ 0xffffffff
 8012a0e:	b130      	cbz	r0, 8012a1e <memcmp+0x20>
 8012a10:	7818      	ldrb	r0, [r3, #0]
 8012a12:	780a      	ldrb	r2, [r1, #0]
 8012a14:	4290      	cmp	r0, r2
 8012a16:	d0f5      	beq.n	8012a04 <memcmp+0x6>
 8012a18:	d902      	bls.n	8012a20 <memcmp+0x22>
 8012a1a:	2001      	movs	r0, #1
 8012a1c:	4770      	bx	lr
 8012a1e:	4770      	bx	lr
 8012a20:	f04f 30ff 	mov.w	r0, #4294967295	@ 0xffffffff
 8012a24:	4770      	bx	lr

08012a26 <memset>:
 8012a26:	4402      	add	r2, r0
 8012a28:	e001      	b.n	8012a2e <memset+0x8>
 8012a2a:	f800 1b01 	strb.w	r1, [r0], #1
 8012a2e:	4290      	cmp	r0, r2
 8012a30:	d3fb      	bcc.n	8012a2a <memset+0x4>
 8012a32:	4770      	bx	lr

08012a34 <memcpy>:
 8012a34:	4603      	mov	r3, r0
 8012a36:	f04f 0c00 	mov.w	ip, #0
 8012a3a:	4594      	cmp	ip, r2
 8012a3c:	da0a      	bge.n	8012a54 <memcpy+0x20>
 8012a3e:	b500      	push	{lr}
 8012a40:	f811 eb01 	ldrb.w	lr, [r1], #1
 8012a44:	f803 eb01 	strb.w	lr, [r3], #1
 8012a48:	f10c 0c01 	add.w	ip, ip, #1
 8012a4c:	4594      	cmp	ip, r2
 8012a4e:	dbf7      	blt.n	8012a40 <memcpy+0xc>
 8012a50:	f85d fb04 	ldr.w	pc, [sp], #4
 8012a54:	4770      	bx	lr

08012a56 <memmove>:
 8012a56:	4281      	cmp	r1, r0
 8012a58:	d303      	bcc.n	8012a62 <memmove+0xc>
 8012a5a:	e00b      	b.n	8012a74 <memmove+0x1e>
 8012a5c:	5cca      	ldrb	r2, [r1, r3]
 8012a5e:	54c2      	strb	r2, [r0, r3]
 8012a60:	461a      	mov	r2, r3
 8012a62:	1e53      	subs	r3, r2, #1
 8012a64:	2a00      	cmp	r2, #0
 8012a66:	d1f9      	bne.n	8012a5c <memmove+0x6>
 8012a68:	4770      	bx	lr
 8012a6a:	f811 2b01 	ldrb.w	r2, [r1], #1
 8012a6e:	f800 2b01 	strb.w	r2, [r0], #1
 8012a72:	461a      	mov	r2, r3
 8012a74:	1e53      	subs	r3, r2, #1
 8012a76:	2a00      	cmp	r2, #0
 8012a78:	d1f7      	bne.n	8012a6a <memmove+0x14>
 8012a7a:	4770      	bx	lr

08012a7c <strchr>:
 8012a7c:	e000      	b.n	8012a80 <strchr+0x4>
 8012a7e:	3001      	adds	r0, #1
 8012a80:	7803      	ldrb	r3, [r0, #0]
 8012a82:	428b      	cmp	r3, r1
 8012a84:	d001      	beq.n	8012a8a <strchr+0xe>
 8012a86:	2b00      	cmp	r3, #0
 8012a88:	d1f9      	bne.n	8012a7e <strchr+0x2>
 8012a8a:	428b      	cmp	r3, r1
 8012a8c:	d000      	beq.n	8012a90 <strchr+0x14>
 8012a8e:	2000      	movs	r0, #0
 8012a90:	4770      	bx	lr

08012a92 <strlen>:
 8012a92:	4603      	mov	r3, r0
 8012a94:	2000      	movs	r0, #0
 8012a96:	e000      	b.n	8012a9a <strlen+0x8>
 8012a98:	3001      	adds	r0, #1
 8012a9a:	f813 2b01 	ldrb.w	r2, [r3], #1
 8012a9e:	2a00      	cmp	r2, #0
 8012aa0:	d1fa      	bne.n	8012a98 <strlen+0x6>
 8012aa2:	4770      	bx	lr

08012aa4 <strreverse>:
 8012aa4:	4602      	mov	r2, r0
 8012aa6:	b180      	cbz	r0, 8012aca <strreverse+0x26>
 8012aa8:	7803      	ldrb	r3, [r0, #0]
 8012aaa:	b173      	cbz	r3, 8012aca <strreverse+0x26>
 8012aac:	4601      	mov	r1, r0
 8012aae:	460b      	mov	r3, r1
 8012ab0:	f811 0f01 	ldrb.w	r0, [r1, #1]!
 8012ab4:	2800      	cmp	r0, #0
 8012ab6:	d1fa      	bne.n	8012aae <strreverse+0xa>
 8012ab8:	e005      	b.n	8012ac6 <strreverse+0x22>
 8012aba:	7811      	ldrb	r1, [r2, #0]
 8012abc:	7818      	ldrb	r0, [r3, #0]
 8012abe:	f802 0b01 	strb.w	r0, [r2], #1
 8012ac2:	f803 1901 	strb.w	r1, [r3], #-1
 8012ac6:	4293      	cmp	r3, r2
 8012ac8:	d8f7      	bhi.n	8012aba <strreverse+0x16>
 8012aca:	4770      	bx	lr

08012acc <strcmp>:
 8012acc:	e001      	b.n	8012ad2 <strcmp+0x6>
 8012ace:	3001      	adds	r0, #1
 8012ad0:	3101      	adds	r1, #1
 8012ad2:	7803      	ldrb	r3, [r0, #0]
 8012ad4:	780a      	ldrb	r2, [r1, #0]
 8012ad6:	4293      	cmp	r3, r2
 8012ad8:	d102      	bne.n	8012ae0 <strcmp+0x14>
 8012ada:	b10b      	cbz	r3, 8012ae0 <strcmp+0x14>
 8012adc:	2a00      	cmp	r2, #0
 8012ade:	d1f6      	bne.n	8012ace <strcmp+0x2>
 8012ae0:	4293      	cmp	r3, r2
 8012ae2:	d002      	beq.n	8012aea <strcmp+0x1e>
 8012ae4:	d903      	bls.n	8012aee <strcmp+0x22>
 8012ae6:	2001      	movs	r0, #1
 8012ae8:	4770      	bx	lr
 8012aea:	2000      	movs	r0, #0
 8012aec:	4770      	bx	lr
 8012aee:	f04f 30ff 	mov.w	r0, #4294967295	@ 0xffffffff
 8012af2:	4770      	bx	lr

08012af4 <strncmp>:
 8012af4:	b410      	push	{r4}
 8012af6:	7803      	ldrb	r3, [r0, #0]
 8012af8:	780c      	ldrb	r4, [r1, #0]
 8012afa:	42a3      	cmp	r3, r4
 8012afc:	d106      	bne.n	8012b0c <strncmp+0x18>
 8012afe:	b12b      	cbz	r3, 8012b0c <strncmp+0x18>
 8012b00:	b124      	cbz	r4, 8012b0c <strncmp+0x18>
 8012b02:	b11a      	cbz	r2, 8012b0c <strncmp+0x18>
 8012b04:	3001      	adds	r0, #1
 8012b06:	3101      	adds	r1, #1
 8012b08:	3a01      	subs	r2, #1
 8012b0a:	e7f4      	b.n	8012af6 <strncmp+0x2>
 8012b0c:	b122      	cbz	r2, 8012b18 <strncmp+0x24>
 8012b0e:	42a3      	cmp	r3, r4
 8012b10:	d006      	beq.n	8012b20 <strncmp+0x2c>
 8012b12:	d907      	bls.n	8012b24 <strncmp+0x30>
 8012b14:	2001      	movs	r0, #1
 8012b16:	e000      	b.n	8012b1a <strncmp+0x26>
 8012b18:	4610      	mov	r0, r2
 8012b1a:	f85d 4b04 	ldr.w	r4, [sp], #4
 8012b1e:	4770      	bx	lr
 8012b20:	2000      	movs	r0, #0
 8012b22:	e7fa      	b.n	8012b1a <strncmp+0x26>
 8012b24:	f04f 30ff 	mov.w	r0, #4294967295	@ 0xffffffff
 8012b28:	e7f7      	b.n	8012b1a <strncmp+0x26>

08012b2a <strncpy>:
 8012b2a:	b410      	push	{r4}
 8012b2c:	4603      	mov	r3, r0
 8012b2e:	e003      	b.n	8012b38 <strncpy+0xe>
 8012b30:	3101      	adds	r1, #1
 8012b32:	f803 4b01 	strb.w	r4, [r3], #1
 8012b36:	4662      	mov	r2, ip
 8012b38:	780c      	ldrb	r4, [r1, #0]
 8012b3a:	b124      	cbz	r4, 8012b46 <strncpy+0x1c>
 8012b3c:	f102 3cff 	add.w	ip, r2, #4294967295	@ 0xffffffff
 8012b40:	2a00      	cmp	r2, #0
 8012b42:	dcf5      	bgt.n	8012b30 <strncpy+0x6>
 8012b44:	4662      	mov	r2, ip
 8012b46:	1e51      	subs	r1, r2, #1
 8012b48:	2a00      	cmp	r2, #0
 8012b4a:	dd04      	ble.n	8012b56 <strncpy+0x2c>
 8012b4c:	2200      	movs	r2, #0
 8012b4e:	f803 2b01 	strb.w	r2, [r3], #1
 8012b52:	460a      	mov	r2, r1
 8012b54:	e7f7      	b.n	8012b46 <strncpy+0x1c>
 8012b56:	f85d 4b04 	ldr.w	r4, [sp], #4
 8012b5a:	4770      	bx	lr

08012b5c <chrnlst>:
 8012b5c:	2200      	movs	r2, #0
 8012b5e:	e000      	b.n	8012b62 <chrnlst+0x6>
 8012b60:	3201      	adds	r2, #1
 8012b62:	5c8b      	ldrb	r3, [r1, r2]
 8012b64:	b11b      	cbz	r3, 8012b6e <chrnlst+0x12>
 8012b66:	4283      	cmp	r3, r0
 8012b68:	d1fa      	bne.n	8012b60 <chrnlst+0x4>
 8012b6a:	2001      	movs	r0, #1
 8012b6c:	4770      	bx	lr
 8012b6e:	2000      	movs	r0, #0
 8012b70:	4770      	bx	lr

08012b72 <strncat>:
 8012b72:	b510      	push	{r4, lr}
 8012b74:	4684      	mov	ip, r0
 8012b76:	4663      	mov	r3, ip
 8012b78:	f10c 0c01 	add.w	ip, ip, #1
 8012b7c:	781c      	ldrb	r4, [r3, #0]
 8012b7e:	2c00      	cmp	r4, #0
 8012b80:	d1f9      	bne.n	8012b76 <strncat+0x4>
 8012b82:	468e      	mov	lr, r1
 8012b84:	780c      	ldrb	r4, [r1, #0]
 8012b86:	3101      	adds	r1, #1
 8012b88:	701c      	strb	r4, [r3, #0]
 8012b8a:	3301      	adds	r3, #1
 8012b8c:	b124      	cbz	r4, 8012b98 <strncat+0x26>
 8012b8e:	3a01      	subs	r2, #1
 8012b90:	d5f7      	bpl.n	8012b82 <strncat+0x10>
 8012b92:	2200      	movs	r2, #0
 8012b94:	f803 2c01 	strb.w	r2, [r3, #-1]
 8012b98:	bd10      	pop	{r4, pc}

08012b9a <strstr>:
 8012b9a:	7803      	ldrb	r3, [r0, #0]
 8012b9c:	b33b      	cbz	r3, 8012bee <strstr+0x54>
 8012b9e:	780a      	ldrb	r2, [r1, #0]
 8012ba0:	429a      	cmp	r2, r3
 8012ba2:	d01a      	beq.n	8012bda <strstr+0x40>
 8012ba4:	3001      	adds	r0, #1
 8012ba6:	e7f8      	b.n	8012b9a <strstr>
 8012ba8:	f10c 0c01 	add.w	ip, ip, #1
 8012bac:	3301      	adds	r3, #1
 8012bae:	f89c 2000 	ldrb.w	r2, [ip]
 8012bb2:	b11a      	cbz	r2, 8012bbc <strstr+0x22>
 8012bb4:	781c      	ldrb	r4, [r3, #0]
 8012bb6:	b10c      	cbz	r4, 8012bbc <strstr+0x22>
 8012bb8:	42a2      	cmp	r2, r4
 8012bba:	d0f5      	beq.n	8012ba8 <strstr+0xe>
 8012bbc:	781b      	ldrb	r3, [r3, #0]
 8012bbe:	b14b      	cbz	r3, 8012bd4 <strstr+0x3a>
 8012bc0:	3001      	adds	r0, #1
 8012bc2:	7803      	ldrb	r3, [r0, #0]
 8012bc4:	b12b      	cbz	r3, 8012bd2 <strstr+0x38>
 8012bc6:	780a      	ldrb	r2, [r1, #0]
 8012bc8:	429a      	cmp	r2, r3
 8012bca:	d1f9      	bne.n	8012bc0 <strstr+0x26>
 8012bcc:	460b      	mov	r3, r1
 8012bce:	4684      	mov	ip, r0
 8012bd0:	e7ed      	b.n	8012bae <strstr+0x14>
 8012bd2:	2000      	movs	r0, #0
 8012bd4:	f85d 4b04 	ldr.w	r4, [sp], #4
 8012bd8:	4770      	bx	lr
 8012bda:	460b      	mov	r3, r1
 8012bdc:	4684      	mov	ip, r0
 8012bde:	7802      	ldrb	r2, [r0, #0]
 8012be0:	b10a      	cbz	r2, 8012be6 <strstr+0x4c>
 8012be2:	b410      	push	{r4}
 8012be4:	e7e6      	b.n	8012bb4 <strstr+0x1a>
 8012be6:	780b      	ldrb	r3, [r1, #0]
 8012be8:	2b00      	cmp	r3, #0
 8012bea:	d1db      	bne.n	8012ba4 <strstr+0xa>
 8012bec:	4770      	bx	lr
 8012bee:	2000      	movs	r0, #0
 8012bf0:	4770      	bx	lr

08012bf2 <strcpy>:
 8012bf2:	780a      	ldrb	r2, [r1, #0]
 8012bf4:	3101      	adds	r1, #1
 8012bf6:	7002      	strb	r2, [r0, #0]
 8012bf8:	3001      	adds	r0, #1
 8012bfa:	2a00      	cmp	r2, #0
 8012bfc:	d1f9      	bne.n	8012bf2 <strcpy>
 8012bfe:	2000      	movs	r0, #0
 8012c00:	4770      	bx	lr

08012c02 <strspn>:
 8012c02:	b500      	push	{lr}
 8012c04:	468e      	mov	lr, r1
 8012c06:	4684      	mov	ip, r0
 8012c08:	e002      	b.n	8012c10 <strspn+0xe>
 8012c0a:	b163      	cbz	r3, 8012c26 <strspn+0x24>
 8012c0c:	f10c 0c01 	add.w	ip, ip, #1
 8012c10:	f89c 1000 	ldrb.w	r1, [ip]
 8012c14:	b139      	cbz	r1, 8012c26 <strspn+0x24>
 8012c16:	4672      	mov	r2, lr
 8012c18:	7813      	ldrb	r3, [r2, #0]
 8012c1a:	2b00      	cmp	r3, #0
 8012c1c:	d0f5      	beq.n	8012c0a <strspn+0x8>
 8012c1e:	428b      	cmp	r3, r1
 8012c20:	d0f3      	beq.n	8012c0a <strspn+0x8>
 8012c22:	3201      	adds	r2, #1
 8012c24:	e7f8      	b.n	8012c18 <strspn+0x16>
 8012c26:	ebac 0000 	sub.w	r0, ip, r0
 8012c2a:	f85d fb04 	ldr.w	pc, [sp], #4

08012c2e <strcat>:
 8012c2e:	b538      	push	{r3, r4, r5, lr}
 8012c30:	4604      	mov	r4, r0
 8012c32:	460d      	mov	r5, r1
 8012c34:	f7ff ff2d 	bl	8012a92 <strlen>
 8012c38:	4629      	mov	r1, r5
 8012c3a:	4420      	add	r0, r4
 8012c3c:	f7ff ffd9 	bl	8012bf2 <strcpy>
 8012c40:	4620      	mov	r0, r4
 8012c42:	bd38      	pop	{r3, r4, r5, pc}

08012c44 <strcspn>:
 8012c44:	b510      	push	{r4, lr}
 8012c46:	4686      	mov	lr, r0
 8012c48:	4674      	mov	r4, lr
 8012c4a:	f814 cb01 	ldrb.w	ip, [r4], #1
 8012c4e:	460a      	mov	r2, r1
 8012c50:	7813      	ldrb	r3, [r2, #0]
 8012c52:	3201      	adds	r2, #1
 8012c54:	459c      	cmp	ip, r3
 8012c56:	d003      	beq.n	8012c60 <strcspn+0x1c>
 8012c58:	2b00      	cmp	r3, #0
 8012c5a:	d1f9      	bne.n	8012c50 <strcspn+0xc>
 8012c5c:	46a6      	mov	lr, r4
 8012c5e:	e7f3      	b.n	8012c48 <strcspn+0x4>
 8012c60:	ebae 0000 	sub.w	r0, lr, r0
 8012c64:	bd10      	pop	{r4, pc}

08012c66 <strnlen>:
 8012c66:	4603      	mov	r3, r0
 8012c68:	2000      	movs	r0, #0
 8012c6a:	e000      	b.n	8012c6e <strnlen+0x8>
 8012c6c:	3001      	adds	r0, #1
 8012c6e:	f813 2b01 	ldrb.w	r2, [r3], #1
 8012c72:	b10a      	cbz	r2, 8012c78 <strnlen+0x12>
 8012c74:	4288      	cmp	r0, r1
 8012c76:	dbf9      	blt.n	8012c6c <strnlen+0x6>
 8012c78:	4770      	bx	lr

08012c7a <strtok>:
 8012c7a:	b430      	push	{r4, r5}
 8012c7c:	4605      	mov	r5, r0
 8012c7e:	b928      	cbnz	r0, 8012c8c <strtok+0x12>
 8012c80:	4b15      	ldr	r3, [pc, #84]	@ (8012cd8 <strtok+0x5e>)
 8012c82:	681d      	ldr	r5, [r3, #0]
 8012c84:	b915      	cbnz	r5, 8012c8c <strtok+0x12>
 8012c86:	4628      	mov	r0, r5
 8012c88:	e024      	b.n	8012cd4 <strtok+0x5a>
 8012c8a:	4665      	mov	r5, ip
 8012c8c:	46ac      	mov	ip, r5
 8012c8e:	f81c 4b01 	ldrb.w	r4, [ip], #1
 8012c92:	460a      	mov	r2, r1
 8012c94:	7813      	ldrb	r3, [r2, #0]
 8012c96:	3201      	adds	r2, #1
 8012c98:	b113      	cbz	r3, 8012ca0 <strtok+0x26>
 8012c9a:	429c      	cmp	r4, r3
 8012c9c:	d1fa      	bne.n	8012c94 <strtok+0x1a>
 8012c9e:	e7f4      	b.n	8012c8a <strtok+0x10>
 8012ca0:	b14c      	cbz	r4, 8012cb6 <strtok+0x3c>
 8012ca2:	f81c 4b01 	ldrb.w	r4, [ip], #1
 8012ca6:	460a      	mov	r2, r1
 8012ca8:	7813      	ldrb	r3, [r2, #0]
 8012caa:	3201      	adds	r2, #1
 8012cac:	429c      	cmp	r4, r3
 8012cae:	d006      	beq.n	8012cbe <strtok+0x44>
 8012cb0:	2b00      	cmp	r3, #0
 8012cb2:	d1f9      	bne.n	8012ca8 <strtok+0x2e>
 8012cb4:	e7f5      	b.n	8012ca2 <strtok+0x28>
 8012cb6:	2000      	movs	r0, #0
 8012cb8:	4b07      	ldr	r3, [pc, #28]	@ (8012cd8 <strtok+0x5e>)
 8012cba:	6018      	str	r0, [r3, #0]
 8012cbc:	e00a      	b.n	8012cd4 <strtok+0x5a>
 8012cbe:	b11c      	cbz	r4, 8012cc8 <strtok+0x4e>
 8012cc0:	2300      	movs	r3, #0
 8012cc2:	f80c 3c01 	strb.w	r3, [ip, #-1]
 8012cc6:	e001      	b.n	8012ccc <strtok+0x52>
 8012cc8:	f04f 0c00 	mov.w	ip, #0
 8012ccc:	4b02      	ldr	r3, [pc, #8]	@ (8012cd8 <strtok+0x5e>)
 8012cce:	f8c3 c000 	str.w	ip, [r3]
 8012cd2:	4628      	mov	r0, r5
 8012cd4:	bc30      	pop	{r4, r5}
 8012cd6:	4770      	bx	lr
 8012cd8:	200003a0 	.word	0x200003a0

08012cdc <strrchr>:
 8012cdc:	4603      	mov	r3, r0
 8012cde:	2000      	movs	r0, #0
 8012ce0:	e000      	b.n	8012ce4 <strrchr+0x8>
 8012ce2:	3301      	adds	r3, #1
 8012ce4:	781a      	ldrb	r2, [r3, #0]
 8012ce6:	b12a      	cbz	r2, 8012cf4 <strrchr+0x18>
 8012ce8:	fa5f fc81 	uxtb.w	ip, r1
 8012cec:	4594      	cmp	ip, r2
 8012cee:	d1f8      	bne.n	8012ce2 <strrchr+0x6>
 8012cf0:	4618      	mov	r0, r3
 8012cf2:	e7f6      	b.n	8012ce2 <strrchr+0x6>
 8012cf4:	b2c9      	uxtb	r1, r1
 8012cf6:	428a      	cmp	r2, r1
 8012cf8:	d000      	beq.n	8012cfc <strrchr+0x20>
 8012cfa:	4770      	bx	lr
 8012cfc:	4618      	mov	r0, r3
 8012cfe:	e7fc      	b.n	8012cfa <strrchr+0x1e>

08012d00 <strpbrk>:
 8012d00:	b410      	push	{r4}
 8012d02:	7804      	ldrb	r4, [r0, #0]
 8012d04:	b154      	cbz	r4, 8012d1c <strpbrk+0x1c>
 8012d06:	460b      	mov	r3, r1
 8012d08:	781a      	ldrb	r2, [r3, #0]
 8012d0a:	b12a      	cbz	r2, 8012d18 <strpbrk+0x18>
 8012d0c:	3301      	adds	r3, #1
 8012d0e:	42a2      	cmp	r2, r4
 8012d10:	d1fa      	bne.n	8012d08 <strpbrk+0x8>
 8012d12:	f85d 4b04 	ldr.w	r4, [sp], #4
 8012d16:	4770      	bx	lr
 8012d18:	3001      	adds	r0, #1
 8012d1a:	e7f2      	b.n	8012d02 <strpbrk+0x2>
 8012d1c:	2000      	movs	r0, #0
 8012d1e:	e7f8      	b.n	8012d12 <strpbrk+0x12>

08012d20 <addargs>:
 8012d20:	e92d 47f0 	stmdb	sp!, {r4, r5, r6, r7, r8, r9, sl, lr}
 8012d24:	4604      	mov	r4, r0
 8012d26:	460e      	mov	r6, r1
 8012d28:	4617      	mov	r7, r2
 8012d2a:	4699      	mov	r9, r3
 8012d2c:	f8dd 8024 	ldr.w	r8, [sp, #36]	@ 0x24
 8012d30:	f004 fa4c 	bl	80171cc <disable>
 8012d34:	4682      	mov	sl, r0
 8012d36:	2e00      	cmp	r6, #0
 8012d38:	dd15      	ble.n	8012d66 <addargs+0x46>
 8012d3a:	f1b9 0f00 	cmp.w	r9, #0
 8012d3e:	db12      	blt.n	8012d66 <addargs+0x46>
 8012d40:	eb04 1204 	add.w	r2, r4, r4, lsl #4
 8012d44:	4b23      	ldr	r3, [pc, #140]	@ (8012dd4 <addargs+0xb4>)
 8012d46:	eb03 0382 	add.w	r3, r3, r2, lsl #2
 8012d4a:	689d      	ldr	r5, [r3, #8]
 8012d4c:	68db      	ldr	r3, [r3, #12]
 8012d4e:	f1c3 0304 	rsb	r3, r3, #4
 8012d52:	eb05 0583 	add.w	r5, r5, r3, lsl #2
 8012d56:	3503      	adds	r5, #3
 8012d58:	f025 0503 	bic.w	r5, r5, #3
 8012d5c:	1c71      	adds	r1, r6, #1
 8012d5e:	0089      	lsls	r1, r1, #2
 8012d60:	4628      	mov	r0, r5
 8012d62:	2200      	movs	r2, #0
 8012d64:	e00d      	b.n	8012d82 <addargs+0x62>
 8012d66:	4650      	mov	r0, sl
 8012d68:	f004 fa34 	bl	80171d4 <restore>
 8012d6c:	f04f 30ff 	mov.w	r0, #4294967295	@ 0xffffffff
 8012d70:	e8bd 87f0 	ldmia.w	sp!, {r4, r5, r6, r7, r8, r9, sl, pc}
 8012d74:	f857 3022 	ldr.w	r3, [r7, r2, lsl #2]
 8012d78:	440b      	add	r3, r1
 8012d7a:	442b      	add	r3, r5
 8012d7c:	f840 3b04 	str.w	r3, [r0], #4
 8012d80:	3201      	adds	r2, #1
 8012d82:	42b2      	cmp	r2, r6
 8012d84:	dbf6      	blt.n	8012d74 <addargs+0x54>
 8012d86:	2300      	movs	r3, #0
 8012d88:	f840 3b04 	str.w	r3, [r0], #4
 8012d8c:	464a      	mov	r2, r9
 8012d8e:	9908      	ldr	r1, [sp, #32]
 8012d90:	f7ff fe50 	bl	8012a34 <memcpy>
 8012d94:	eb04 1204 	add.w	r2, r4, r4, lsl #4
 8012d98:	4b0e      	ldr	r3, [pc, #56]	@ (8012dd4 <addargs+0xb4>)
 8012d9a:	eb03 0382 	add.w	r3, r3, r2, lsl #2
 8012d9e:	6859      	ldr	r1, [r3, #4]
 8012da0:	e000      	b.n	8012da4 <addargs+0x84>
 8012da2:	3104      	adds	r1, #4
 8012da4:	eb04 1204 	add.w	r2, r4, r4, lsl #4
 8012da8:	4b0a      	ldr	r3, [pc, #40]	@ (8012dd4 <addargs+0xb4>)
 8012daa:	eb03 0382 	add.w	r3, r3, r2, lsl #2
 8012dae:	689b      	ldr	r3, [r3, #8]
 8012db0:	428b      	cmp	r3, r1
 8012db2:	d908      	bls.n	8012dc6 <addargs+0xa6>
 8012db4:	680b      	ldr	r3, [r1, #0]
 8012db6:	4543      	cmp	r3, r8
 8012db8:	d1f3      	bne.n	8012da2 <addargs+0x82>
 8012dba:	600d      	str	r5, [r1, #0]
 8012dbc:	4650      	mov	r0, sl
 8012dbe:	f004 fa09 	bl	80171d4 <restore>
 8012dc2:	2001      	movs	r0, #1
 8012dc4:	e7d4      	b.n	8012d70 <addargs+0x50>
 8012dc6:	4650      	mov	r0, sl
 8012dc8:	f004 fa04 	bl	80171d4 <restore>
 8012dcc:	f04f 30ff 	mov.w	r0, #4294967295	@ 0xffffffff
 8012dd0:	e7ce      	b.n	8012d70 <addargs+0x50>
 8012dd2:	bf00      	nop
 8012dd4:	200017bc 	.word	0x200017bc

08012dd8 <lexan>:
 8012dd8:	b5f0      	push	{r4, r5, r6, r7, lr}
 8012dda:	4696      	mov	lr, r2
 8012ddc:	461e      	mov	r6, r3
 8012dde:	9d05      	ldr	r5, [sp, #20]
 8012de0:	9c06      	ldr	r4, [sp, #24]
 8012de2:	2300      	movs	r3, #0
 8012de4:	469c      	mov	ip, r3
 8012de6:	e045      	b.n	8012e74 <lexan+0x9c>
 8012de8:	3001      	adds	r0, #1
 8012dea:	7801      	ldrb	r1, [r0, #0]
 8012dec:	2920      	cmp	r1, #32
 8012dee:	d0fb      	beq.n	8012de8 <lexan+0x10>
 8012df0:	2909      	cmp	r1, #9
 8012df2:	d0f9      	beq.n	8012de8 <lexan+0x10>
 8012df4:	290a      	cmp	r1, #10
 8012df6:	d02e      	beq.n	8012e56 <lexan+0x7e>
 8012df8:	b369      	cbz	r1, 8012e56 <lexan+0x7e>
 8012dfa:	ea4f 028c 	mov.w	r2, ip, lsl #2
 8012dfe:	f845 302c 	str.w	r3, [r5, ip, lsl #2]
 8012e02:	2926      	cmp	r1, #38	@ 0x26
 8012e04:	d02a      	beq.n	8012e5c <lexan+0x84>
 8012e06:	293c      	cmp	r1, #60	@ 0x3c
 8012e08:	d03e      	beq.n	8012e88 <lexan+0xb0>
 8012e0a:	2703      	movs	r7, #3
 8012e0c:	50a7      	str	r7, [r4, r2]
 8012e0e:	2927      	cmp	r1, #39	@ 0x27
 8012e10:	d046      	beq.n	8012ea0 <lexan+0xc8>
 8012e12:	2922      	cmp	r1, #34	@ 0x22
 8012e14:	d044      	beq.n	8012ea0 <lexan+0xc8>
 8012e16:	1c5f      	adds	r7, r3, #1
 8012e18:	f80e 1003 	strb.w	r1, [lr, r3]
 8012e1c:	3001      	adds	r0, #1
 8012e1e:	7802      	ldrb	r2, [r0, #0]
 8012e20:	2a0a      	cmp	r2, #10
 8012e22:	d053      	beq.n	8012ecc <lexan+0xf4>
 8012e24:	2a00      	cmp	r2, #0
 8012e26:	d051      	beq.n	8012ecc <lexan+0xf4>
 8012e28:	2a09      	cmp	r2, #9
 8012e2a:	d04f      	beq.n	8012ecc <lexan+0xf4>
 8012e2c:	d30e      	bcc.n	8012e4c <lexan+0x74>
 8012e2e:	2a3e      	cmp	r2, #62	@ 0x3e
 8012e30:	d80c      	bhi.n	8012e4c <lexan+0x74>
 8012e32:	2a20      	cmp	r2, #32
 8012e34:	d30a      	bcc.n	8012e4c <lexan+0x74>
 8012e36:	f1a2 0120 	sub.w	r1, r2, #32
 8012e3a:	b2c9      	uxtb	r1, r1
 8012e3c:	2301      	movs	r3, #1
 8012e3e:	408b      	lsls	r3, r1
 8012e40:	4930      	ldr	r1, [pc, #192]	@ (8012f04 <lexan+0x12c>)
 8012e42:	420b      	tst	r3, r1
 8012e44:	d142      	bne.n	8012ecc <lexan+0xf4>
 8012e46:	f013 0f80 	tst.w	r3, #128	@ 0x80
 8012e4a:	d155      	bne.n	8012ef8 <lexan+0x120>
 8012e4c:	f80e 2007 	strb.w	r2, [lr, r7]
 8012e50:	3001      	adds	r0, #1
 8012e52:	3701      	adds	r7, #1
 8012e54:	e7e3      	b.n	8012e1e <lexan+0x46>
 8012e56:	6033      	str	r3, [r6, #0]
 8012e58:	4660      	mov	r0, ip
 8012e5a:	e049      	b.n	8012ef0 <lexan+0x118>
 8012e5c:	2700      	movs	r7, #0
 8012e5e:	f844 702c 	str.w	r7, [r4, ip, lsl #2]
 8012e62:	1c5a      	adds	r2, r3, #1
 8012e64:	f80e 1003 	strb.w	r1, [lr, r3]
 8012e68:	f80e 7002 	strb.w	r7, [lr, r2]
 8012e6c:	3302      	adds	r3, #2
 8012e6e:	f10c 0c01 	add.w	ip, ip, #1
 8012e72:	3001      	adds	r0, #1
 8012e74:	7802      	ldrb	r2, [r0, #0]
 8012e76:	b3ca      	cbz	r2, 8012eec <lexan+0x114>
 8012e78:	2a0a      	cmp	r2, #10
 8012e7a:	d037      	beq.n	8012eec <lexan+0x114>
 8012e7c:	f1bc 0f1f 	cmp.w	ip, #31
 8012e80:	d9b3      	bls.n	8012dea <lexan+0x12>
 8012e82:	f04f 30ff 	mov.w	r0, #4294967295	@ 0xffffffff
 8012e86:	e033      	b.n	8012ef0 <lexan+0x118>
 8012e88:	2701      	movs	r7, #1
 8012e8a:	50a7      	str	r7, [r4, r2]
 8012e8c:	19da      	adds	r2, r3, r7
 8012e8e:	f80e 1003 	strb.w	r1, [lr, r3]
 8012e92:	2100      	movs	r1, #0
 8012e94:	f80e 1002 	strb.w	r1, [lr, r2]
 8012e98:	3302      	adds	r3, #2
 8012e9a:	44bc      	add	ip, r7
 8012e9c:	4438      	add	r0, r7
 8012e9e:	e7e9      	b.n	8012e74 <lexan+0x9c>
 8012ea0:	3001      	adds	r0, #1
 8012ea2:	e002      	b.n	8012eaa <lexan+0xd2>
 8012ea4:	f80e 2003 	strb.w	r2, [lr, r3]
 8012ea8:	3301      	adds	r3, #1
 8012eaa:	f810 2b01 	ldrb.w	r2, [r0], #1
 8012eae:	4291      	cmp	r1, r2
 8012eb0:	d003      	beq.n	8012eba <lexan+0xe2>
 8012eb2:	2a0a      	cmp	r2, #10
 8012eb4:	d001      	beq.n	8012eba <lexan+0xe2>
 8012eb6:	2a00      	cmp	r2, #0
 8012eb8:	d1f4      	bne.n	8012ea4 <lexan+0xcc>
 8012eba:	4291      	cmp	r1, r2
 8012ebc:	d119      	bne.n	8012ef2 <lexan+0x11a>
 8012ebe:	2200      	movs	r2, #0
 8012ec0:	f80e 2003 	strb.w	r2, [lr, r3]
 8012ec4:	f10c 0c01 	add.w	ip, ip, #1
 8012ec8:	3301      	adds	r3, #1
 8012eca:	e7d3      	b.n	8012e74 <lexan+0x9c>
 8012ecc:	3a22      	subs	r2, #34	@ 0x22
 8012ece:	b2d2      	uxtb	r2, r2
 8012ed0:	2a1c      	cmp	r2, #28
 8012ed2:	d804      	bhi.n	8012ede <lexan+0x106>
 8012ed4:	4b0c      	ldr	r3, [pc, #48]	@ (8012f08 <lexan+0x130>)
 8012ed6:	40d3      	lsrs	r3, r2
 8012ed8:	f013 0f01 	tst.w	r3, #1
 8012edc:	d10f      	bne.n	8012efe <lexan+0x126>
 8012ede:	1c7b      	adds	r3, r7, #1
 8012ee0:	2200      	movs	r2, #0
 8012ee2:	f80e 2007 	strb.w	r2, [lr, r7]
 8012ee6:	f10c 0c01 	add.w	ip, ip, #1
 8012eea:	e7c3      	b.n	8012e74 <lexan+0x9c>
 8012eec:	6033      	str	r3, [r6, #0]
 8012eee:	4660      	mov	r0, ip
 8012ef0:	bdf0      	pop	{r4, r5, r6, r7, pc}
 8012ef2:	f04f 30ff 	mov.w	r0, #4294967295	@ 0xffffffff
 8012ef6:	e7fb      	b.n	8012ef0 <lexan+0x118>
 8012ef8:	f04f 30ff 	mov.w	r0, #4294967295	@ 0xffffffff
 8012efc:	e7f8      	b.n	8012ef0 <lexan+0x118>
 8012efe:	f04f 30ff 	mov.w	r0, #4294967295	@ 0xffffffff
 8012f02:	e7f5      	b.n	8012ef0 <lexan+0x118>
 8012f04:	50000045 	.word	0x50000045
 8012f08:	14000021 	.word	0x14000021

08012f0c <update_path>:
 8012f0c:	b508      	push	{r3, lr}
 8012f0e:	4903      	ldr	r1, [pc, #12]	@ (8012f1c <update_path+0x10>)
 8012f10:	f101 0080 	add.w	r0, r1, #128	@ 0x80
 8012f14:	f7ff fe6d 	bl	8012bf2 <strcpy>
 8012f18:	bd08      	pop	{r3, pc}
 8012f1a:	bf00      	nop
 8012f1c:	200003a4 	.word	0x200003a4

08012f20 <full_path>:
 8012f20:	b538      	push	{r3, r4, r5, lr}
 8012f22:	4604      	mov	r4, r0
 8012f24:	b1b0      	cbz	r0, 8012f54 <full_path+0x34>
 8012f26:	7803      	ldrb	r3, [r0, #0]
 8012f28:	2b2f      	cmp	r3, #47	@ 0x2f
 8012f2a:	d014      	beq.n	8012f56 <full_path+0x36>
 8012f2c:	2202      	movs	r2, #2
 8012f2e:	491c      	ldr	r1, [pc, #112]	@ (8012fa0 <full_path+0x80>)
 8012f30:	f7ff fde0 	bl	8012af4 <strncmp>
 8012f34:	b900      	cbnz	r0, 8012f38 <full_path+0x18>
 8012f36:	3402      	adds	r4, #2
 8012f38:	491a      	ldr	r1, [pc, #104]	@ (8012fa4 <full_path+0x84>)
 8012f3a:	f101 0080 	add.w	r0, r1, #128	@ 0x80
 8012f3e:	f7ff fe58 	bl	8012bf2 <strcpy>
 8012f42:	2203      	movs	r2, #3
 8012f44:	4918      	ldr	r1, [pc, #96]	@ (8012fa8 <full_path+0x88>)
 8012f46:	4620      	mov	r0, r4
 8012f48:	f7ff fdd4 	bl	8012af4 <strncmp>
 8012f4c:	b188      	cbz	r0, 8012f72 <full_path+0x52>
 8012f4e:	7823      	ldrb	r3, [r4, #0]
 8012f50:	b943      	cbnz	r3, 8012f64 <full_path+0x44>
 8012f52:	4816      	ldr	r0, [pc, #88]	@ (8012fac <full_path+0x8c>)
 8012f54:	bd38      	pop	{r3, r4, r5, pc}
 8012f56:	4d15      	ldr	r5, [pc, #84]	@ (8012fac <full_path+0x8c>)
 8012f58:	4601      	mov	r1, r0
 8012f5a:	4628      	mov	r0, r5
 8012f5c:	f7ff fe49 	bl	8012bf2 <strcpy>
 8012f60:	4628      	mov	r0, r5
 8012f62:	e7f7      	b.n	8012f54 <full_path+0x34>
 8012f64:	4d11      	ldr	r5, [pc, #68]	@ (8012fac <full_path+0x8c>)
 8012f66:	4621      	mov	r1, r4
 8012f68:	4628      	mov	r0, r5
 8012f6a:	f7ff fe60 	bl	8012c2e <strcat>
 8012f6e:	4628      	mov	r0, r5
 8012f70:	e7f0      	b.n	8012f54 <full_path+0x34>
 8012f72:	3403      	adds	r4, #3
 8012f74:	212f      	movs	r1, #47	@ 0x2f
 8012f76:	480d      	ldr	r0, [pc, #52]	@ (8012fac <full_path+0x8c>)
 8012f78:	f7ff feb0 	bl	8012cdc <strrchr>
 8012f7c:	b108      	cbz	r0, 8012f82 <full_path+0x62>
 8012f7e:	2200      	movs	r2, #0
 8012f80:	7002      	strb	r2, [r0, #0]
 8012f82:	212f      	movs	r1, #47	@ 0x2f
 8012f84:	4809      	ldr	r0, [pc, #36]	@ (8012fac <full_path+0x8c>)
 8012f86:	f7ff fea9 	bl	8012cdc <strrchr>
 8012f8a:	b108      	cbz	r0, 8012f90 <full_path+0x70>
 8012f8c:	2200      	movs	r2, #0
 8012f8e:	7042      	strb	r2, [r0, #1]
 8012f90:	4d06      	ldr	r5, [pc, #24]	@ (8012fac <full_path+0x8c>)
 8012f92:	4621      	mov	r1, r4
 8012f94:	4628      	mov	r0, r5
 8012f96:	f7ff fe4a 	bl	8012c2e <strcat>
 8012f9a:	4628      	mov	r0, r5
 8012f9c:	e7da      	b.n	8012f54 <full_path+0x34>
 8012f9e:	bf00      	nop
 8012fa0:	0801c728 	.word	0x0801c728
 8012fa4:	200003a4 	.word	0x200003a4
 8012fa8:	0801c72c 	.word	0x0801c72c
 8012fac:	20000424 	.word	0x20000424

08012fb0 <shell>:
 8012fb0:	b570      	push	{r4, r5, r6, lr}
 8012fb2:	f5ad 7d06 	sub.w	sp, sp, #536	@ 0x218
 8012fb6:	4c86      	ldr	r4, [pc, #536]	@ (80131d0 <shell+0x220>)
 8012fb8:	f104 0580 	add.w	r5, r4, #128	@ 0x80
 8012fbc:	4985      	ldr	r1, [pc, #532]	@ (80131d4 <shell+0x224>)
 8012fbe:	4628      	mov	r0, r5
 8012fc0:	f7ff fe17 	bl	8012bf2 <strcpy>
 8012fc4:	4629      	mov	r1, r5
 8012fc6:	4620      	mov	r0, r4
 8012fc8:	f7ff fe13 	bl	8012bf2 <strcpy>
 8012fcc:	4b82      	ldr	r3, [pc, #520]	@ (80131d8 <shell+0x228>)
 8012fce:	4a83      	ldr	r2, [pc, #524]	@ (80131dc <shell+0x22c>)
 8012fd0:	9208      	str	r2, [sp, #32]
 8012fd2:	9307      	str	r3, [sp, #28]
 8012fd4:	4a82      	ldr	r2, [pc, #520]	@ (80131e0 <shell+0x230>)
 8012fd6:	9206      	str	r2, [sp, #24]
 8012fd8:	4a82      	ldr	r2, [pc, #520]	@ (80131e4 <shell+0x234>)
 8012fda:	9205      	str	r2, [sp, #20]
 8012fdc:	4a82      	ldr	r2, [pc, #520]	@ (80131e8 <shell+0x238>)
 8012fde:	9204      	str	r2, [sp, #16]
 8012fe0:	4a82      	ldr	r2, [pc, #520]	@ (80131ec <shell+0x23c>)
 8012fe2:	9203      	str	r2, [sp, #12]
 8012fe4:	4a82      	ldr	r2, [pc, #520]	@ (80131f0 <shell+0x240>)
 8012fe6:	9202      	str	r2, [sp, #8]
 8012fe8:	4a82      	ldr	r2, [pc, #520]	@ (80131f4 <shell+0x244>)
 8012fea:	9201      	str	r2, [sp, #4]
 8012fec:	4a82      	ldr	r2, [pc, #520]	@ (80131f8 <shell+0x248>)
 8012fee:	9200      	str	r2, [sp, #0]
 8012ff0:	4a82      	ldr	r2, [pc, #520]	@ (80131fc <shell+0x24c>)
 8012ff2:	4983      	ldr	r1, [pc, #524]	@ (8013200 <shell+0x250>)
 8012ff4:	2000      	movs	r0, #0
 8012ff6:	f7fe fb37 	bl	8011668 <fprintf>
 8012ffa:	4a82      	ldr	r2, [pc, #520]	@ (8013204 <shell+0x254>)
 8012ffc:	4982      	ldr	r1, [pc, #520]	@ (8013208 <shell+0x258>)
 8012ffe:	2000      	movs	r0, #0
 8013000:	f7fe fb32 	bl	8011668 <fprintf>
 8013004:	e009      	b.n	801301a <shell+0x6a>
 8013006:	4a81      	ldr	r2, [pc, #516]	@ (801320c <shell+0x25c>)
 8013008:	4981      	ldr	r1, [pc, #516]	@ (8013210 <shell+0x260>)
 801300a:	2000      	movs	r0, #0
 801300c:	f7fe fb2c 	bl	8011668 <fprintf>
 8013010:	e003      	b.n	801301a <shell+0x6a>
 8013012:	4980      	ldr	r1, [pc, #512]	@ (8013214 <shell+0x264>)
 8013014:	2000      	movs	r0, #0
 8013016:	f7fe fb27 	bl	8011668 <fprintf>
 801301a:	497f      	ldr	r1, [pc, #508]	@ (8013218 <shell+0x268>)
 801301c:	2000      	movs	r0, #0
 801301e:	f7fe fb23 	bl	8011668 <fprintf>
 8013022:	2221      	movs	r2, #33	@ 0x21
 8013024:	a97d      	add	r1, sp, #500	@ 0x1f4
 8013026:	2000      	movs	r0, #0
 8013028:	f002 fdd6 	bl	8015bd8 <read>
 801302c:	4601      	mov	r1, r0
 801302e:	f110 0f02 	cmn.w	r0, #2
 8013032:	f000 8084 	beq.w	801313e <shell+0x18e>
 8013036:	2801      	cmp	r0, #1
 8013038:	ddef      	ble.n	801301a <shell+0x6a>
 801303a:	f500 7306 	add.w	r3, r0, #536	@ 0x218
 801303e:	446b      	add	r3, sp
 8013040:	220a      	movs	r2, #10
 8013042:	f803 2c24 	strb.w	r2, [r3, #-36]
 8013046:	ab2b      	add	r3, sp, #172	@ 0xac
 8013048:	9301      	str	r3, [sp, #4]
 801304a:	ab4b      	add	r3, sp, #300	@ 0x12c
 801304c:	9300      	str	r3, [sp, #0]
 801304e:	ab6b      	add	r3, sp, #428	@ 0x1ac
 8013050:	aa6c      	add	r2, sp, #432	@ 0x1b0
 8013052:	a87d      	add	r0, sp, #500	@ 0x1f4
 8013054:	f7ff fec0 	bl	8012dd8 <lexan>
 8013058:	4604      	mov	r4, r0
 801305a:	f1b0 3fff 	cmp.w	r0, #4294967295	@ 0xffffffff
 801305e:	d0d2      	beq.n	8013006 <shell+0x56>
 8013060:	2800      	cmp	r0, #0
 8013062:	d0d6      	beq.n	8013012 <shell+0x62>
 8013064:	1e43      	subs	r3, r0, #1
 8013066:	aa2b      	add	r2, sp, #172	@ 0xac
 8013068:	f852 2023 	ldr.w	r2, [r2, r3, lsl #2]
 801306c:	b972      	cbnz	r2, 801308c <shell+0xdc>
 801306e:	9a6b      	ldr	r2, [sp, #428]	@ 0x1ac
 8013070:	3a02      	subs	r2, #2
 8013072:	926b      	str	r2, [sp, #428]	@ 0x1ac
 8013074:	461c      	mov	r4, r3
 8013076:	2501      	movs	r5, #1
 8013078:	2300      	movs	r3, #0
 801307a:	429c      	cmp	r4, r3
 801307c:	dd08      	ble.n	8013090 <shell+0xe0>
 801307e:	aa2b      	add	r2, sp, #172	@ 0xac
 8013080:	f852 2023 	ldr.w	r2, [r2, r3, lsl #2]
 8013084:	2a03      	cmp	r2, #3
 8013086:	d103      	bne.n	8013090 <shell+0xe0>
 8013088:	3301      	adds	r3, #1
 801308a:	e7f6      	b.n	801307a <shell+0xca>
 801308c:	2500      	movs	r5, #0
 801308e:	e7f3      	b.n	8013078 <shell+0xc8>
 8013090:	b10c      	cbz	r4, 8013096 <shell+0xe6>
 8013092:	429c      	cmp	r4, r3
 8013094:	dd2b      	ble.n	80130ee <shell+0x13e>
 8013096:	495d      	ldr	r1, [pc, #372]	@ (801320c <shell+0x25c>)
 8013098:	2000      	movs	r0, #0
 801309a:	f7fe fae5 	bl	8011668 <fprintf>
 801309e:	e7bc      	b.n	801301a <shell+0x6a>
 80130a0:	2301      	movs	r3, #1
 80130a2:	b973      	cbnz	r3, 80130c2 <shell+0x112>
 80130a4:	7813      	ldrb	r3, [r2, #0]
 80130a6:	b963      	cbnz	r3, 80130c2 <shell+0x112>
 80130a8:	45b6      	cmp	lr, r6
 80130aa:	d223      	bcs.n	80130f4 <shell+0x144>
 80130ac:	eb0c 024c 	add.w	r2, ip, ip, lsl #1
 80130b0:	4b5a      	ldr	r3, [pc, #360]	@ (801321c <shell+0x26c>)
 80130b2:	eb03 0382 	add.w	r3, r3, r2, lsl #2
 80130b6:	791b      	ldrb	r3, [r3, #4]
 80130b8:	2b00      	cmp	r3, #0
 80130ba:	d048      	beq.n	801314e <shell+0x19e>
 80130bc:	bb05      	cbnz	r5, 8013100 <shell+0x150>
 80130be:	2300      	movs	r3, #0
 80130c0:	e02e      	b.n	8013120 <shell+0x170>
 80130c2:	f10c 0c01 	add.w	ip, ip, #1
 80130c6:	46e6      	mov	lr, ip
 80130c8:	4b55      	ldr	r3, [pc, #340]	@ (8013220 <shell+0x270>)
 80130ca:	681e      	ldr	r6, [r3, #0]
 80130cc:	45b4      	cmp	ip, r6
 80130ce:	d2eb      	bcs.n	80130a8 <shell+0xf8>
 80130d0:	eb0c 034c 	add.w	r3, ip, ip, lsl #1
 80130d4:	4a51      	ldr	r2, [pc, #324]	@ (801321c <shell+0x26c>)
 80130d6:	f852 1023 	ldr.w	r1, [r2, r3, lsl #2]
 80130da:	aa6c      	add	r2, sp, #432	@ 0x1b0
 80130dc:	780b      	ldrb	r3, [r1, #0]
 80130de:	2b00      	cmp	r3, #0
 80130e0:	d0df      	beq.n	80130a2 <shell+0xf2>
 80130e2:	7810      	ldrb	r0, [r2, #0]
 80130e4:	4298      	cmp	r0, r3
 80130e6:	d1db      	bne.n	80130a0 <shell+0xf0>
 80130e8:	3101      	adds	r1, #1
 80130ea:	3201      	adds	r2, #1
 80130ec:	e7f6      	b.n	80130dc <shell+0x12c>
 80130ee:	f04f 0c00 	mov.w	ip, #0
 80130f2:	e7e8      	b.n	80130c6 <shell+0x116>
 80130f4:	aa6c      	add	r2, sp, #432	@ 0x1b0
 80130f6:	494b      	ldr	r1, [pc, #300]	@ (8013224 <shell+0x274>)
 80130f8:	2000      	movs	r0, #0
 80130fa:	f7fe fab5 	bl	8011668 <fprintf>
 80130fe:	e78c      	b.n	801301a <shell+0x6a>
 8013100:	4949      	ldr	r1, [pc, #292]	@ (8013228 <shell+0x278>)
 8013102:	2000      	movs	r0, #0
 8013104:	f7fe fab0 	bl	8011668 <fprintf>
 8013108:	e787      	b.n	801301a <shell+0x6a>
 801310a:	aa86      	add	r2, sp, #536	@ 0x218
 801310c:	eb02 0283 	add.w	r2, r2, r3, lsl #2
 8013110:	f852 2cec 	ldr.w	r2, [r2, #-236]
 8013114:	a96c      	add	r1, sp, #432	@ 0x1b0
 8013116:	440a      	add	r2, r1
 8013118:	a90a      	add	r1, sp, #40	@ 0x28
 801311a:	f841 2023 	str.w	r2, [r1, r3, lsl #2]
 801311e:	3301      	adds	r3, #1
 8013120:	429c      	cmp	r4, r3
 8013122:	dcf2      	bgt.n	801310a <shell+0x15a>
 8013124:	eb0c 0c4c 	add.w	ip, ip, ip, lsl #1
 8013128:	4b3c      	ldr	r3, [pc, #240]	@ (801321c <shell+0x26c>)
 801312a:	eb03 038c 	add.w	r3, r3, ip, lsl #2
 801312e:	689b      	ldr	r3, [r3, #8]
 8013130:	a90a      	add	r1, sp, #40	@ 0x28
 8013132:	4620      	mov	r0, r4
 8013134:	4798      	blx	r3
 8013136:	f110 0f03 	cmn.w	r0, #3
 801313a:	f47f af6e 	bne.w	801301a <shell+0x6a>
 801313e:	493b      	ldr	r1, [pc, #236]	@ (801322c <shell+0x27c>)
 8013140:	2000      	movs	r0, #0
 8013142:	f7fe fa91 	bl	8011668 <fprintf>
 8013146:	2001      	movs	r0, #1
 8013148:	f50d 7d06 	add.w	sp, sp, #536	@ 0x218
 801314c:	bd70      	pop	{r4, r5, r6, pc}
 801314e:	4b33      	ldr	r3, [pc, #204]	@ (801321c <shell+0x26c>)
 8013150:	eb0c 004c 	add.w	r0, ip, ip, lsl #1
 8013154:	eb03 0080 	add.w	r0, r3, r0, lsl #2
 8013158:	eb0c 0c4c 	add.w	ip, ip, ip, lsl #1
 801315c:	aa2a      	add	r2, sp, #168	@ 0xa8
 801315e:	9202      	str	r2, [sp, #8]
 8013160:	9401      	str	r4, [sp, #4]
 8013162:	2202      	movs	r2, #2
 8013164:	9200      	str	r2, [sp, #0]
 8013166:	f853 302c 	ldr.w	r3, [r3, ip, lsl #2]
 801316a:	2214      	movs	r2, #20
 801316c:	f44f 6100 	mov.w	r1, #2048	@ 0x800
 8013170:	6880      	ldr	r0, [r0, #8]
 8013172:	f001 ff3f 	bl	8014ff4 <create>
 8013176:	4606      	mov	r6, r0
 8013178:	f1b0 3fff 	cmp.w	r0, #4294967295	@ 0xffffffff
 801317c:	d023      	beq.n	80131c6 <shell+0x216>
 801317e:	ab2a      	add	r3, sp, #168	@ 0xa8
 8013180:	9301      	str	r3, [sp, #4]
 8013182:	ab6c      	add	r3, sp, #432	@ 0x1b0
 8013184:	9300      	str	r3, [sp, #0]
 8013186:	9b6b      	ldr	r3, [sp, #428]	@ 0x1ac
 8013188:	aa4b      	add	r2, sp, #300	@ 0x12c
 801318a:	4621      	mov	r1, r4
 801318c:	f7ff fdc8 	bl	8012d20 <addargs>
 8013190:	f1b0 3fff 	cmp.w	r0, #4294967295	@ 0xffffffff
 8013194:	d017      	beq.n	80131c6 <shell+0x216>
 8013196:	eb06 1206 	add.w	r2, r6, r6, lsl #4
 801319a:	4b25      	ldr	r3, [pc, #148]	@ (8013230 <shell+0x280>)
 801319c:	eb03 0382 	add.w	r3, r3, r2, lsl #2
 80131a0:	2200      	movs	r2, #0
 80131a2:	865a      	strh	r2, [r3, #50]	@ 0x32
 80131a4:	869a      	strh	r2, [r3, #52]	@ 0x34
 80131a6:	f003 f9d1 	bl	801654c <recvclr>
 80131aa:	4630      	mov	r0, r6
 80131ac:	f002 faa0 	bl	80156f0 <resume>
 80131b0:	2d00      	cmp	r5, #0
 80131b2:	f47f af32 	bne.w	801301a <shell+0x6a>
 80131b6:	f003 f9a1 	bl	80164fc <receive>
 80131ba:	42b0      	cmp	r0, r6
 80131bc:	f43f af2d 	beq.w	801301a <shell+0x6a>
 80131c0:	f003 f99c 	bl	80164fc <receive>
 80131c4:	e7f9      	b.n	80131ba <shell+0x20a>
 80131c6:	491b      	ldr	r1, [pc, #108]	@ (8013234 <shell+0x284>)
 80131c8:	2000      	movs	r0, #0
 80131ca:	f7fe fa4d 	bl	8011668 <fprintf>
 80131ce:	e724      	b.n	801301a <shell+0x6a>
 80131d0:	200003a4 	.word	0x200003a4
 80131d4:	0801d178 	.word	0x0801d178
 80131d8:	0801c730 	.word	0x0801c730
 80131dc:	0801c788 	.word	0x0801c788
 80131e0:	0801c790 	.word	0x0801c790
 80131e4:	0801c7bc 	.word	0x0801c7bc
 80131e8:	0801c7e8 	.word	0x0801c7e8
 80131ec:	0801c814 	.word	0x0801c814
 80131f0:	0801c840 	.word	0x0801c840
 80131f4:	0801c86c 	.word	0x0801c86c
 80131f8:	0801c898 	.word	0x0801c898
 80131fc:	0801c75c 	.word	0x0801c75c
 8013200:	0801c764 	.word	0x0801c764
 8013204:	0801c8c4 	.word	0x0801c8c4
 8013208:	0801c8d8 	.word	0x0801c8d8
 801320c:	0801c8e8 	.word	0x0801c8e8
 8013210:	0801c8f8 	.word	0x0801c8f8
 8013214:	0801cf0c 	.word	0x0801cf0c
 8013218:	0801c8e0 	.word	0x0801c8e0
 801321c:	0801c4e8 	.word	0x0801c4e8
 8013220:	20000084 	.word	0x20000084
 8013224:	0801c8fc 	.word	0x0801c8fc
 8013228:	0801c914 	.word	0x0801c914
 801322c:	0801c95c 	.word	0x0801c95c
 8013230:	200017bc 	.word	0x200017bc
 8013234:	0801c944 	.word	0x0801c944

08013238 <xsh_blink>:
 8013238:	b508      	push	{r3, lr}
 801323a:	2101      	movs	r1, #1
 801323c:	2003      	movs	r0, #3
 801323e:	f002 fc05 	bl	8015a4c <set>
 8013242:	f44f 70fa 	mov.w	r0, #500	@ 0x1f4
 8013246:	f002 f919 	bl	801547c <sleepms>
 801324a:	2100      	movs	r1, #0
 801324c:	2003      	movs	r0, #3
 801324e:	f002 fbfd 	bl	8015a4c <set>
 8013252:	2001      	movs	r0, #1
 8013254:	f002 f94a 	bl	80154ec <sleep>
 8013258:	e7ef      	b.n	801323a <xsh_blink+0x2>
	...

0801325c <xsh_cat>:
 801325c:	2801      	cmp	r0, #1
 801325e:	dd50      	ble.n	8013302 <xsh_cat+0xa6>
 8013260:	b5f8      	push	{r3, r4, r5, r6, r7, lr}
 8013262:	4606      	mov	r6, r0
 8013264:	460f      	mov	r7, r1
 8013266:	f100 4380 	add.w	r3, r0, #1073741824	@ 0x40000000
 801326a:	3b02      	subs	r3, #2
 801326c:	4929      	ldr	r1, [pc, #164]	@ (8013314 <xsh_cat+0xb8>)
 801326e:	f857 0023 	ldr.w	r0, [r7, r3, lsl #2]
 8013272:	f7ff fc2b 	bl	8012acc <strcmp>
 8013276:	bb40      	cbnz	r0, 80132ca <xsh_cat+0x6e>
 8013278:	6878      	ldr	r0, [r7, #4]
 801327a:	f7ff fe51 	bl	8012f20 <full_path>
 801327e:	4605      	mov	r5, r0
 8013280:	2800      	cmp	r0, #0
 8013282:	d041      	beq.n	8013308 <xsh_cat+0xac>
 8013284:	4924      	ldr	r1, [pc, #144]	@ (8013318 <xsh_cat+0xbc>)
 8013286:	f005 fe0d 	bl	8018ea4 <fl_fopen>
 801328a:	4604      	mov	r4, r0
 801328c:	b108      	cbz	r0, 8013292 <xsh_cat+0x36>
 801328e:	2501      	movs	r5, #1
 8013290:	e00e      	b.n	80132b0 <xsh_cat+0x54>
 8013292:	4629      	mov	r1, r5
 8013294:	4821      	ldr	r0, [pc, #132]	@ (801331c <xsh_cat+0xc0>)
 8013296:	f7ff f8c5 	bl	8012424 <printf>
 801329a:	e00c      	b.n	80132b6 <xsh_cat+0x5a>
 801329c:	4621      	mov	r1, r4
 801329e:	f857 0025 	ldr.w	r0, [r7, r5, lsl #2]
 80132a2:	f006 f961 	bl	8019568 <fl_fputs>
 80132a6:	4621      	mov	r1, r4
 80132a8:	481d      	ldr	r0, [pc, #116]	@ (8013320 <xsh_cat+0xc4>)
 80132aa:	f006 f95d 	bl	8019568 <fl_fputs>
 80132ae:	3501      	adds	r5, #1
 80132b0:	1eb3      	subs	r3, r6, #2
 80132b2:	42ab      	cmp	r3, r5
 80132b4:	dcf2      	bgt.n	801329c <xsh_cat+0x40>
 80132b6:	481b      	ldr	r0, [pc, #108]	@ (8013324 <xsh_cat+0xc8>)
 80132b8:	f7ff f8b4 	bl	8012424 <printf>
 80132bc:	4620      	mov	r0, r4
 80132be:	f005 ff0d 	bl	80190dc <fl_fclose>
 80132c2:	f7ff fe23 	bl	8012f0c <update_path>
 80132c6:	2000      	movs	r0, #0
 80132c8:	bdf8      	pop	{r3, r4, r5, r6, r7, pc}
 80132ca:	6878      	ldr	r0, [r7, #4]
 80132cc:	f7ff fe28 	bl	8012f20 <full_path>
 80132d0:	4605      	mov	r5, r0
 80132d2:	b1e0      	cbz	r0, 801330e <xsh_cat+0xb2>
 80132d4:	4914      	ldr	r1, [pc, #80]	@ (8013328 <xsh_cat+0xcc>)
 80132d6:	f005 fde5 	bl	8018ea4 <fl_fopen>
 80132da:	4604      	mov	r4, r0
 80132dc:	b958      	cbnz	r0, 80132f6 <xsh_cat+0x9a>
 80132de:	4629      	mov	r1, r5
 80132e0:	4812      	ldr	r0, [pc, #72]	@ (801332c <xsh_cat+0xd0>)
 80132e2:	f7ff f89f 	bl	8012424 <printf>
 80132e6:	e7e6      	b.n	80132b6 <xsh_cat+0x5a>
 80132e8:	4620      	mov	r0, r4
 80132ea:	f005 ffb3 	bl	8019254 <fl_fgetc>
 80132ee:	b2c1      	uxtb	r1, r0
 80132f0:	2000      	movs	r0, #0
 80132f2:	f002 fc55 	bl	8015ba0 <putc>
 80132f6:	4620      	mov	r0, r4
 80132f8:	f006 f855 	bl	80193a6 <fl_feof>
 80132fc:	2800      	cmp	r0, #0
 80132fe:	d0f3      	beq.n	80132e8 <xsh_cat+0x8c>
 8013300:	e7d9      	b.n	80132b6 <xsh_cat+0x5a>
 8013302:	f04f 30ff 	mov.w	r0, #4294967295	@ 0xffffffff
 8013306:	4770      	bx	lr
 8013308:	f04f 30ff 	mov.w	r0, #4294967295	@ 0xffffffff
 801330c:	e7dc      	b.n	80132c8 <xsh_cat+0x6c>
 801330e:	f04f 30ff 	mov.w	r0, #4294967295	@ 0xffffffff
 8013312:	e7d9      	b.n	80132c8 <xsh_cat+0x6c>
 8013314:	0801ca00 	.word	0x0801ca00
 8013318:	0801ca04 	.word	0x0801ca04
 801331c:	0801ca08 	.word	0x0801ca08
 8013320:	0801d024 	.word	0x0801d024
 8013324:	0801cf0c 	.word	0x0801cf0c
 8013328:	0801c9d4 	.word	0x0801c9d4
 801332c:	0801c904 	.word	0x0801c904

08013330 <xsh_cd>:
 8013330:	b510      	push	{r4, lr}
 8013332:	b084      	sub	sp, #16
 8013334:	684c      	ldr	r4, [r1, #4]
 8013336:	492a      	ldr	r1, [pc, #168]	@ (80133e0 <xsh_cd+0xb0>)
 8013338:	4620      	mov	r0, r4
 801333a:	f7ff fbc7 	bl	8012acc <strcmp>
 801333e:	b970      	cbnz	r0, 801335e <xsh_cd+0x2e>
 8013340:	4c28      	ldr	r4, [pc, #160]	@ (80133e4 <xsh_cd+0xb4>)
 8013342:	4929      	ldr	r1, [pc, #164]	@ (80133e8 <xsh_cd+0xb8>)
 8013344:	4620      	mov	r0, r4
 8013346:	f7ff fc54 	bl	8012bf2 <strcpy>
 801334a:	4620      	mov	r0, r4
 801334c:	f7ff fba1 	bl	8012a92 <strlen>
 8013350:	3801      	subs	r0, #1
 8013352:	5c23      	ldrb	r3, [r4, r0]
 8013354:	2b2f      	cmp	r3, #47	@ 0x2f
 8013356:	d13e      	bne.n	80133d6 <xsh_cd+0xa6>
 8013358:	2000      	movs	r0, #0
 801335a:	b004      	add	sp, #16
 801335c:	bd10      	pop	{r4, pc}
 801335e:	4923      	ldr	r1, [pc, #140]	@ (80133ec <xsh_cd+0xbc>)
 8013360:	4620      	mov	r0, r4
 8013362:	f7ff fbb3 	bl	8012acc <strcmp>
 8013366:	bb00      	cbnz	r0, 80133aa <xsh_cd+0x7a>
 8013368:	4921      	ldr	r1, [pc, #132]	@ (80133f0 <xsh_cd+0xc0>)
 801336a:	481e      	ldr	r0, [pc, #120]	@ (80133e4 <xsh_cd+0xb4>)
 801336c:	f7ff fbae 	bl	8012acc <strcmp>
 8013370:	b918      	cbnz	r0, 801337a <xsh_cd+0x4a>
 8013372:	4820      	ldr	r0, [pc, #128]	@ (80133f4 <xsh_cd+0xc4>)
 8013374:	f7ff f856 	bl	8012424 <printf>
 8013378:	e7ee      	b.n	8013358 <xsh_cd+0x28>
 801337a:	4c1b      	ldr	r4, [pc, #108]	@ (80133e8 <xsh_cd+0xb8>)
 801337c:	4919      	ldr	r1, [pc, #100]	@ (80133e4 <xsh_cd+0xb4>)
 801337e:	4620      	mov	r0, r4
 8013380:	f7ff fc37 	bl	8012bf2 <strcpy>
 8013384:	212f      	movs	r1, #47	@ 0x2f
 8013386:	4620      	mov	r0, r4
 8013388:	f7ff fca8 	bl	8012cdc <strrchr>
 801338c:	4603      	mov	r3, r0
 801338e:	b150      	cbz	r0, 80133a6 <xsh_cd+0x76>
 8013390:	2200      	movs	r2, #0
 8013392:	701a      	strb	r2, [r3, #0]
 8013394:	212f      	movs	r1, #47	@ 0x2f
 8013396:	4814      	ldr	r0, [pc, #80]	@ (80133e8 <xsh_cd+0xb8>)
 8013398:	f7ff fca0 	bl	8012cdc <strrchr>
 801339c:	2800      	cmp	r0, #0
 801339e:	d0cf      	beq.n	8013340 <xsh_cd+0x10>
 80133a0:	2200      	movs	r2, #0
 80133a2:	7042      	strb	r2, [r0, #1]
 80133a4:	e7cc      	b.n	8013340 <xsh_cd+0x10>
 80133a6:	4b0f      	ldr	r3, [pc, #60]	@ (80133e4 <xsh_cd+0xb4>)
 80133a8:	e7f2      	b.n	8013390 <xsh_cd+0x60>
 80133aa:	4620      	mov	r0, r4
 80133ac:	f7ff fdb8 	bl	8012f20 <full_path>
 80133b0:	a901      	add	r1, sp, #4
 80133b2:	480d      	ldr	r0, [pc, #52]	@ (80133e8 <xsh_cd+0xb8>)
 80133b4:	f006 f934 	bl	8019620 <fl_opendir>
 80133b8:	b118      	cbz	r0, 80133c2 <xsh_cd+0x92>
 80133ba:	a801      	add	r0, sp, #4
 80133bc:	f006 f9c4 	bl	8019748 <fl_closedir>
 80133c0:	e7be      	b.n	8013340 <xsh_cd+0x10>
 80133c2:	4c09      	ldr	r4, [pc, #36]	@ (80133e8 <xsh_cd+0xb8>)
 80133c4:	4621      	mov	r1, r4
 80133c6:	480c      	ldr	r0, [pc, #48]	@ (80133f8 <xsh_cd+0xc8>)
 80133c8:	f7ff f82c 	bl	8012424 <printf>
 80133cc:	4905      	ldr	r1, [pc, #20]	@ (80133e4 <xsh_cd+0xb4>)
 80133ce:	4620      	mov	r0, r4
 80133d0:	f7ff fc0f 	bl	8012bf2 <strcpy>
 80133d4:	e7c0      	b.n	8013358 <xsh_cd+0x28>
 80133d6:	4906      	ldr	r1, [pc, #24]	@ (80133f0 <xsh_cd+0xc0>)
 80133d8:	4620      	mov	r0, r4
 80133da:	f7ff fc28 	bl	8012c2e <strcat>
 80133de:	e7bb      	b.n	8013358 <xsh_cd+0x28>
 80133e0:	0801ca14 	.word	0x0801ca14
 80133e4:	200003a4 	.word	0x200003a4
 80133e8:	20000424 	.word	0x20000424
 80133ec:	0801cb28 	.word	0x0801cb28
 80133f0:	0801d178 	.word	0x0801d178
 80133f4:	0801ca18 	.word	0x0801ca18
 80133f8:	0801ca2c 	.word	0x0801ca2c

080133fc <calculateCpuUsage>:
 80133fc:	e92d 41f0 	stmdb	sp!, {r4, r5, r6, r7, r8, lr}
 8013400:	2400      	movs	r4, #0
 8013402:	4627      	mov	r7, r4
 8013404:	46a0      	mov	r8, r4
 8013406:	e013      	b.n	8013430 <calculateCpuUsage+0x34>
 8013408:	3401      	adds	r4, #1
 801340a:	4d14      	ldr	r5, [pc, #80]	@ (801345c <calculateCpuUsage+0x60>)
 801340c:	4e14      	ldr	r6, [pc, #80]	@ (8013460 <calculateCpuUsage+0x64>)
 801340e:	682b      	ldr	r3, [r5, #0]
 8013410:	6832      	ldr	r2, [r6, #0]
 8013412:	4621      	mov	r1, r4
 8013414:	4813      	ldr	r0, [pc, #76]	@ (8013464 <calculateCpuUsage+0x68>)
 8013416:	f7ff f805 	bl	8012424 <printf>
 801341a:	6833      	ldr	r3, [r6, #0]
 801341c:	682a      	ldr	r2, [r5, #0]
 801341e:	1a9b      	subs	r3, r3, r2
 8013420:	4498      	add	r8, r3
 8013422:	4417      	add	r7, r2
 8013424:	2300      	movs	r3, #0
 8013426:	6033      	str	r3, [r6, #0]
 8013428:	602b      	str	r3, [r5, #0]
 801342a:	2001      	movs	r0, #1
 801342c:	f002 f826 	bl	801547c <sleepms>
 8013430:	2c09      	cmp	r4, #9
 8013432:	dde9      	ble.n	8013408 <calculateCpuUsage+0xc>
 8013434:	eb18 0707 	adds.w	r7, r8, r7
 8013438:	d004      	beq.n	8013444 <calculateCpuUsage+0x48>
 801343a:	2364      	movs	r3, #100	@ 0x64
 801343c:	fb03 f808 	mul.w	r8, r3, r8
 8013440:	fbb8 f7f7 	udiv	r7, r8, r7
 8013444:	4b08      	ldr	r3, [pc, #32]	@ (8013468 <calculateCpuUsage+0x6c>)
 8013446:	fba3 2307 	umull	r2, r3, r3, r7
 801344a:	095b      	lsrs	r3, r3, #5
 801344c:	2164      	movs	r1, #100	@ 0x64
 801344e:	fb01 7113 	mls	r1, r1, r3, r7
 8013452:	4806      	ldr	r0, [pc, #24]	@ (801346c <calculateCpuUsage+0x70>)
 8013454:	f7fe ffe6 	bl	8012424 <printf>
 8013458:	e8bd 81f0 	ldmia.w	sp!, {r4, r5, r6, r7, r8, pc}
 801345c:	200017b4 	.word	0x200017b4
 8013460:	20001c74 	.word	0x20001c74
 8013464:	0801ca3c 	.word	0x0801ca3c
 8013468:	51eb851f 	.word	0x51eb851f
 801346c:	0801ca64 	.word	0x0801ca64

08013470 <xsh_cpu>:
 8013470:	b508      	push	{r3, lr}
 8013472:	f7ff ffc3 	bl	80133fc <calculateCpuUsage>
 8013476:	2000      	movs	r0, #0
 8013478:	bd08      	pop	{r3, pc}
 801347a:	bf00      	nop

0801347c <xsh_devdump>:
 801347c:	b510      	push	{r4, lr}
 801347e:	2801      	cmp	r0, #1
 8013480:	dc07      	bgt.n	8013492 <xsh_devdump+0x16>
 8013482:	4812      	ldr	r0, [pc, #72]	@ (80134cc <xsh_devdump+0x50>)
 8013484:	f7fe ffce 	bl	8012424 <printf>
 8013488:	4811      	ldr	r0, [pc, #68]	@ (80134d0 <xsh_devdump+0x54>)
 801348a:	f7fe ffcb 	bl	8012424 <printf>
 801348e:	2400      	movs	r4, #0
 8013490:	e018      	b.n	80134c4 <xsh_devdump+0x48>
 8013492:	4b10      	ldr	r3, [pc, #64]	@ (80134d4 <xsh_devdump+0x58>)
 8013494:	681b      	ldr	r3, [r3, #0]
 8013496:	eb03 1303 	add.w	r3, r3, r3, lsl #4
 801349a:	4a0f      	ldr	r2, [pc, #60]	@ (80134d8 <xsh_devdump+0x5c>)
 801349c:	eb02 0383 	add.w	r3, r2, r3, lsl #2
 80134a0:	490e      	ldr	r1, [pc, #56]	@ (80134dc <xsh_devdump+0x60>)
 80134a2:	f9b3 0036 	ldrsh.w	r0, [r3, #54]	@ 0x36
 80134a6:	f7fe f8df 	bl	8011668 <fprintf>
 80134aa:	2001      	movs	r0, #1
 80134ac:	e00d      	b.n	80134ca <xsh_devdump+0x4e>
 80134ae:	4a0c      	ldr	r2, [pc, #48]	@ (80134e0 <xsh_devdump+0x64>)
 80134b0:	234c      	movs	r3, #76	@ 0x4c
 80134b2:	fb03 2204 	mla	r2, r3, r4, r2
 80134b6:	6853      	ldr	r3, [r2, #4]
 80134b8:	6892      	ldr	r2, [r2, #8]
 80134ba:	4621      	mov	r1, r4
 80134bc:	4809      	ldr	r0, [pc, #36]	@ (80134e4 <xsh_devdump+0x68>)
 80134be:	f7fe ffb1 	bl	8012424 <printf>
 80134c2:	3401      	adds	r4, #1
 80134c4:	2c04      	cmp	r4, #4
 80134c6:	ddf2      	ble.n	80134ae <xsh_devdump+0x32>
 80134c8:	2000      	movs	r0, #0
 80134ca:	bd10      	pop	{r4, pc}
 80134cc:	0801ca98 	.word	0x0801ca98
 80134d0:	0801cab4 	.word	0x0801cab4
 80134d4:	20001c78 	.word	0x20001c78
 80134d8:	200017bc 	.word	0x200017bc
 80134dc:	0801ca80 	.word	0x0801ca80
 80134e0:	2000008c 	.word	0x2000008c
 80134e4:	0801cad0 	.word	0x0801cad0

080134e8 <xsh_dump>:
 80134e8:	b570      	push	{r4, r5, r6, lr}
 80134ea:	b088      	sub	sp, #32
 80134ec:	6848      	ldr	r0, [r1, #4]
 80134ee:	f7ff fd17 	bl	8012f20 <full_path>
 80134f2:	b3d0      	cbz	r0, 801356a <xsh_dump+0x82>
 80134f4:	4604      	mov	r4, r0
 80134f6:	491e      	ldr	r1, [pc, #120]	@ (8013570 <xsh_dump+0x88>)
 80134f8:	f005 fcd4 	bl	8018ea4 <fl_fopen>
 80134fc:	4605      	mov	r5, r0
 80134fe:	b190      	cbz	r0, 8013526 <xsh_dump+0x3e>
 8013500:	2202      	movs	r2, #2
 8013502:	2100      	movs	r1, #0
 8013504:	f005 fed9 	bl	80192ba <fl_fseek>
 8013508:	4628      	mov	r0, r5
 801350a:	f005 ff41 	bl	8019390 <fl_ftell>
 801350e:	4606      	mov	r6, r0
 8013510:	2200      	movs	r2, #0
 8013512:	4611      	mov	r1, r2
 8013514:	4628      	mov	r0, r5
 8013516:	f005 fed0 	bl	80192ba <fl_fseek>
 801351a:	4631      	mov	r1, r6
 801351c:	4815      	ldr	r0, [pc, #84]	@ (8013574 <xsh_dump+0x8c>)
 801351e:	f7fe ff81 	bl	8012424 <printf>
 8013522:	2400      	movs	r4, #0
 8013524:	e017      	b.n	8013556 <xsh_dump+0x6e>
 8013526:	4621      	mov	r1, r4
 8013528:	4813      	ldr	r0, [pc, #76]	@ (8013578 <xsh_dump+0x90>)
 801352a:	f7fe ff7b 	bl	8012424 <printf>
 801352e:	f04f 30ff 	mov.w	r0, #4294967295	@ 0xffffffff
 8013532:	e018      	b.n	8013566 <xsh_dump+0x7e>
 8013534:	462b      	mov	r3, r5
 8013536:	2201      	movs	r2, #1
 8013538:	2120      	movs	r1, #32
 801353a:	4668      	mov	r0, sp
 801353c:	f005 fe06 	bl	801914c <fl_fread>
 8013540:	2220      	movs	r2, #32
 8013542:	4669      	mov	r1, sp
 8013544:	4620      	mov	r0, r4
 8013546:	f002 f9d9 	bl	80158fc <hexDump2>
 801354a:	2220      	movs	r2, #32
 801354c:	2100      	movs	r1, #0
 801354e:	4668      	mov	r0, sp
 8013550:	f7ff fa69 	bl	8012a26 <memset>
 8013554:	3420      	adds	r4, #32
 8013556:	42b4      	cmp	r4, r6
 8013558:	d3ec      	bcc.n	8013534 <xsh_dump+0x4c>
 801355a:	4628      	mov	r0, r5
 801355c:	f005 fdbe 	bl	80190dc <fl_fclose>
 8013560:	f7ff fcd4 	bl	8012f0c <update_path>
 8013564:	2000      	movs	r0, #0
 8013566:	b008      	add	sp, #32
 8013568:	bd70      	pop	{r4, r5, r6, pc}
 801356a:	f04f 30ff 	mov.w	r0, #4294967295	@ 0xffffffff
 801356e:	e7fa      	b.n	8013566 <xsh_dump+0x7e>
 8013570:	0801c9d4 	.word	0x0801c9d4
 8013574:	0801cae4 	.word	0x0801cae4
 8013578:	0801c904 	.word	0x0801c904

0801357c <xsh_echo>:
 801357c:	b570      	push	{r4, r5, r6, lr}
 801357e:	2801      	cmp	r0, #1
 8013580:	dc04      	bgt.n	801358c <xsh_echo+0x10>
 8013582:	480b      	ldr	r0, [pc, #44]	@ (80135b0 <xsh_echo+0x34>)
 8013584:	f7fe ff4e 	bl	8012424 <printf>
 8013588:	2000      	movs	r0, #0
 801358a:	bd70      	pop	{r4, r5, r6, pc}
 801358c:	4605      	mov	r5, r0
 801358e:	460e      	mov	r6, r1
 8013590:	6849      	ldr	r1, [r1, #4]
 8013592:	4808      	ldr	r0, [pc, #32]	@ (80135b4 <xsh_echo+0x38>)
 8013594:	f7fe ff46 	bl	8012424 <printf>
 8013598:	2402      	movs	r4, #2
 801359a:	e005      	b.n	80135a8 <xsh_echo+0x2c>
 801359c:	f856 1024 	ldr.w	r1, [r6, r4, lsl #2]
 80135a0:	4805      	ldr	r0, [pc, #20]	@ (80135b8 <xsh_echo+0x3c>)
 80135a2:	f7fe ff3f 	bl	8012424 <printf>
 80135a6:	3401      	adds	r4, #1
 80135a8:	42ac      	cmp	r4, r5
 80135aa:	dbf7      	blt.n	801359c <xsh_echo+0x20>
 80135ac:	e7e9      	b.n	8013582 <xsh_echo+0x6>
 80135ae:	bf00      	nop
 80135b0:	0801cf0c 	.word	0x0801cf0c
 80135b4:	0801caf4 	.word	0x0801caf4
 80135b8:	0801caf8 	.word	0x0801caf8

080135bc <xsh_exit>:
 80135bc:	f06f 0002 	mvn.w	r0, #2
 80135c0:	4770      	bx	lr
	...

080135c4 <xsh_format>:
 80135c4:	b510      	push	{r4, lr}
 80135c6:	4b0a      	ldr	r3, [pc, #40]	@ (80135f0 <xsh_format+0x2c>)
 80135c8:	68db      	ldr	r3, [r3, #12]
 80135ca:	4798      	blx	r3
 80135cc:	4604      	mov	r4, r0
 80135ce:	4809      	ldr	r0, [pc, #36]	@ (80135f4 <xsh_format+0x30>)
 80135d0:	f7fe ff28 	bl	8012424 <printf>
 80135d4:	4908      	ldr	r1, [pc, #32]	@ (80135f8 <xsh_format+0x34>)
 80135d6:	6820      	ldr	r0, [r4, #0]
 80135d8:	f006 f8c2 	bl	8019760 <fl_format>
 80135dc:	b920      	cbnz	r0, 80135e8 <xsh_format+0x24>
 80135de:	4807      	ldr	r0, [pc, #28]	@ (80135fc <xsh_format+0x38>)
 80135e0:	f7fe ff20 	bl	8012424 <printf>
 80135e4:	2000      	movs	r0, #0
 80135e6:	bd10      	pop	{r4, pc}
 80135e8:	4805      	ldr	r0, [pc, #20]	@ (8013600 <xsh_format+0x3c>)
 80135ea:	f7fe ff1b 	bl	8012424 <printf>
 80135ee:	e7f9      	b.n	80135e4 <xsh_format+0x20>
 80135f0:	0801c688 	.word	0x0801c688
 80135f4:	0801cafc 	.word	0x0801cafc
 80135f8:	0801c8dc 	.word	0x0801c8dc
 80135fc:	0801cb18 	.word	0x0801cb18
 8013600:	0801cb0c 	.word	0x0801cb0c

08013604 <xsh_help>:
 8013604:	e92d 43f0 	stmdb	sp!, {r4, r5, r6, r7, r8, r9, lr}
 8013608:	b083      	sub	sp, #12
 801360a:	4604      	mov	r4, r0
 801360c:	460d      	mov	r5, r1
 801360e:	2802      	cmp	r0, #2
 8013610:	d005      	beq.n	801361e <xsh_help+0x1a>
 8013612:	2c02      	cmp	r4, #2
 8013614:	dc28      	bgt.n	8013668 <xsh_help+0x64>
 8013616:	2c02      	cmp	r4, #2
 8013618:	d16c      	bne.n	80136f4 <xsh_help+0xf0>
 801361a:	2100      	movs	r1, #0
 801361c:	e057      	b.n	80136ce <xsh_help+0xca>
 801361e:	2207      	movs	r2, #7
 8013620:	495c      	ldr	r1, [pc, #368]	@ (8013794 <xsh_help+0x190>)
 8013622:	6868      	ldr	r0, [r5, #4]
 8013624:	f7ff fa66 	bl	8012af4 <strncmp>
 8013628:	4606      	mov	r6, r0
 801362a:	2800      	cmp	r0, #0
 801362c:	d1f1      	bne.n	8013612 <xsh_help+0xe>
 801362e:	485a      	ldr	r0, [pc, #360]	@ (8013798 <xsh_help+0x194>)
 8013630:	f7fe fef8 	bl	8012424 <printf>
 8013634:	6829      	ldr	r1, [r5, #0]
 8013636:	4859      	ldr	r0, [pc, #356]	@ (801379c <xsh_help+0x198>)
 8013638:	f7fe fef4 	bl	8012424 <printf>
 801363c:	4858      	ldr	r0, [pc, #352]	@ (80137a0 <xsh_help+0x19c>)
 801363e:	f7fe fef1 	bl	8012424 <printf>
 8013642:	4858      	ldr	r0, [pc, #352]	@ (80137a4 <xsh_help+0x1a0>)
 8013644:	f7fe feee 	bl	8012424 <printf>
 8013648:	4857      	ldr	r0, [pc, #348]	@ (80137a8 <xsh_help+0x1a4>)
 801364a:	f7fe feeb 	bl	8012424 <printf>
 801364e:	4857      	ldr	r0, [pc, #348]	@ (80137ac <xsh_help+0x1a8>)
 8013650:	f7fe fee8 	bl	8012424 <printf>
 8013654:	4856      	ldr	r0, [pc, #344]	@ (80137b0 <xsh_help+0x1ac>)
 8013656:	f7fe fee5 	bl	8012424 <printf>
 801365a:	4856      	ldr	r0, [pc, #344]	@ (80137b4 <xsh_help+0x1b0>)
 801365c:	f7fe fee2 	bl	8012424 <printf>
 8013660:	4855      	ldr	r0, [pc, #340]	@ (80137b8 <xsh_help+0x1b4>)
 8013662:	f7fe fedf 	bl	8012424 <printf>
 8013666:	e091      	b.n	801378c <xsh_help+0x188>
 8013668:	4c54      	ldr	r4, [pc, #336]	@ (80137bc <xsh_help+0x1b8>)
 801366a:	4e55      	ldr	r6, [pc, #340]	@ (80137c0 <xsh_help+0x1bc>)
 801366c:	6833      	ldr	r3, [r6, #0]
 801366e:	eb03 1303 	add.w	r3, r3, r3, lsl #4
 8013672:	eb04 0383 	add.w	r3, r4, r3, lsl #2
 8013676:	682a      	ldr	r2, [r5, #0]
 8013678:	4952      	ldr	r1, [pc, #328]	@ (80137c4 <xsh_help+0x1c0>)
 801367a:	f9b3 0036 	ldrsh.w	r0, [r3, #54]	@ 0x36
 801367e:	f7fd fff3 	bl	8011668 <fprintf>
 8013682:	6833      	ldr	r3, [r6, #0]
 8013684:	eb03 1303 	add.w	r3, r3, r3, lsl #4
 8013688:	eb04 0483 	add.w	r4, r4, r3, lsl #2
 801368c:	682a      	ldr	r2, [r5, #0]
 801368e:	494e      	ldr	r1, [pc, #312]	@ (80137c8 <xsh_help+0x1c4>)
 8013690:	f9b4 0036 	ldrsh.w	r0, [r4, #54]	@ 0x36
 8013694:	f7fd ffe8 	bl	8011668 <fprintf>
 8013698:	2601      	movs	r6, #1
 801369a:	e077      	b.n	801378c <xsh_help+0x188>
 801369c:	3201      	adds	r2, #1
 801369e:	3001      	adds	r0, #1
 80136a0:	7813      	ldrb	r3, [r2, #0]
 80136a2:	b113      	cbz	r3, 80136aa <xsh_help+0xa6>
 80136a4:	7804      	ldrb	r4, [r0, #0]
 80136a6:	429c      	cmp	r4, r3
 80136a8:	d0f8      	beq.n	801369c <xsh_help+0x98>
 80136aa:	b97b      	cbnz	r3, 80136cc <xsh_help+0xc8>
 80136ac:	7803      	ldrb	r3, [r0, #0]
 80136ae:	b96b      	cbnz	r3, 80136cc <xsh_help+0xc8>
 80136b0:	9600      	str	r6, [sp, #0]
 80136b2:	4b38      	ldr	r3, [pc, #224]	@ (8013794 <xsh_help+0x190>)
 80136b4:	9301      	str	r3, [sp, #4]
 80136b6:	eb01 0141 	add.w	r1, r1, r1, lsl #1
 80136ba:	4b44      	ldr	r3, [pc, #272]	@ (80137cc <xsh_help+0x1c8>)
 80136bc:	eb03 0381 	add.w	r3, r3, r1, lsl #2
 80136c0:	689b      	ldr	r3, [r3, #8]
 80136c2:	4669      	mov	r1, sp
 80136c4:	2002      	movs	r0, #2
 80136c6:	4798      	blx	r3
 80136c8:	2600      	movs	r6, #0
 80136ca:	e05f      	b.n	801378c <xsh_help+0x188>
 80136cc:	3101      	adds	r1, #1
 80136ce:	4b40      	ldr	r3, [pc, #256]	@ (80137d0 <xsh_help+0x1cc>)
 80136d0:	681b      	ldr	r3, [r3, #0]
 80136d2:	4299      	cmp	r1, r3
 80136d4:	d207      	bcs.n	80136e6 <xsh_help+0xe2>
 80136d6:	eb01 0341 	add.w	r3, r1, r1, lsl #1
 80136da:	4a3c      	ldr	r2, [pc, #240]	@ (80137cc <xsh_help+0x1c8>)
 80136dc:	f852 2023 	ldr.w	r2, [r2, r3, lsl #2]
 80136e0:	686e      	ldr	r6, [r5, #4]
 80136e2:	4630      	mov	r0, r6
 80136e4:	e7dc      	b.n	80136a0 <xsh_help+0x9c>
 80136e6:	686a      	ldr	r2, [r5, #4]
 80136e8:	6829      	ldr	r1, [r5, #0]
 80136ea:	483a      	ldr	r0, [pc, #232]	@ (80137d4 <xsh_help+0x1d0>)
 80136ec:	f7fe fe9a 	bl	8012424 <printf>
 80136f0:	2601      	movs	r6, #1
 80136f2:	e04b      	b.n	801378c <xsh_help+0x188>
 80136f4:	4838      	ldr	r0, [pc, #224]	@ (80137d8 <xsh_help+0x1d4>)
 80136f6:	f7fe fe95 	bl	8012424 <printf>
 80136fa:	2500      	movs	r5, #0
 80136fc:	462c      	mov	r4, r5
 80136fe:	e000      	b.n	8013702 <xsh_help+0xfe>
 8013700:	3401      	adds	r4, #1
 8013702:	4b33      	ldr	r3, [pc, #204]	@ (80137d0 <xsh_help+0x1cc>)
 8013704:	681f      	ldr	r7, [r3, #0]
 8013706:	42bc      	cmp	r4, r7
 8013708:	d20b      	bcs.n	8013722 <xsh_help+0x11e>
 801370a:	eb04 0344 	add.w	r3, r4, r4, lsl #1
 801370e:	2150      	movs	r1, #80	@ 0x50
 8013710:	4a2e      	ldr	r2, [pc, #184]	@ (80137cc <xsh_help+0x1c8>)
 8013712:	f852 0023 	ldr.w	r0, [r2, r3, lsl #2]
 8013716:	f7ff faa6 	bl	8012c66 <strnlen>
 801371a:	4285      	cmp	r5, r0
 801371c:	daf0      	bge.n	8013700 <xsh_help+0xfc>
 801371e:	4605      	mov	r5, r0
 8013720:	e7ee      	b.n	8013700 <xsh_help+0xfc>
 8013722:	3501      	adds	r5, #1
 8013724:	2250      	movs	r2, #80	@ 0x50
 8013726:	fb92 f2f5 	sdiv	r2, r2, r5
 801372a:	2a06      	cmp	r2, #6
 801372c:	dd00      	ble.n	8013730 <xsh_help+0x12c>
 801372e:	2206      	movs	r2, #6
 8013730:	2550      	movs	r5, #80	@ 0x50
 8013732:	fb95 f5f2 	sdiv	r5, r5, r2
 8013736:	4417      	add	r7, r2
 8013738:	3f01      	subs	r7, #1
 801373a:	fbb7 f7f2 	udiv	r7, r7, r2
 801373e:	f04f 0800 	mov.w	r8, #0
 8013742:	e01e      	b.n	8013782 <xsh_help+0x17e>
 8013744:	4825      	ldr	r0, [pc, #148]	@ (80137dc <xsh_help+0x1d8>)
 8013746:	f7fe fe6d 	bl	8012424 <printf>
 801374a:	3401      	adds	r4, #1
 801374c:	42ac      	cmp	r4, r5
 801374e:	dbf9      	blt.n	8013744 <xsh_help+0x140>
 8013750:	443e      	add	r6, r7
 8013752:	4b1f      	ldr	r3, [pc, #124]	@ (80137d0 <xsh_help+0x1cc>)
 8013754:	681b      	ldr	r3, [r3, #0]
 8013756:	429e      	cmp	r6, r3
 8013758:	d20e      	bcs.n	8013778 <xsh_help+0x174>
 801375a:	eb06 0346 	add.w	r3, r6, r6, lsl #1
 801375e:	4a1b      	ldr	r2, [pc, #108]	@ (80137cc <xsh_help+0x1c8>)
 8013760:	f852 9023 	ldr.w	r9, [r2, r3, lsl #2]
 8013764:	2150      	movs	r1, #80	@ 0x50
 8013766:	4648      	mov	r0, r9
 8013768:	f7ff fa7d 	bl	8012c66 <strnlen>
 801376c:	4604      	mov	r4, r0
 801376e:	4649      	mov	r1, r9
 8013770:	481b      	ldr	r0, [pc, #108]	@ (80137e0 <xsh_help+0x1dc>)
 8013772:	f7fe fe57 	bl	8012424 <printf>
 8013776:	e7e9      	b.n	801374c <xsh_help+0x148>
 8013778:	481a      	ldr	r0, [pc, #104]	@ (80137e4 <xsh_help+0x1e0>)
 801377a:	f7fe fe53 	bl	8012424 <printf>
 801377e:	f108 0801 	add.w	r8, r8, #1
 8013782:	45b8      	cmp	r8, r7
 8013784:	da01      	bge.n	801378a <xsh_help+0x186>
 8013786:	4646      	mov	r6, r8
 8013788:	e7e3      	b.n	8013752 <xsh_help+0x14e>
 801378a:	2600      	movs	r6, #0
 801378c:	4630      	mov	r0, r6
 801378e:	b003      	add	sp, #12
 8013790:	e8bd 83f0 	ldmia.w	sp!, {r4, r5, r6, r7, r8, r9, pc}
 8013794:	0801cb2c 	.word	0x0801cb2c
 8013798:	0801cb34 	.word	0x0801cb34
 801379c:	0801cb3c 	.word	0x0801cb3c
 80137a0:	0801cb4c 	.word	0x0801cb4c
 80137a4:	0801cb5c 	.word	0x0801cb5c
 80137a8:	0801cb84 	.word	0x0801cb84
 80137ac:	0801cbb0 	.word	0x0801cbb0
 80137b0:	0801cbbc 	.word	0x0801cbbc
 80137b4:	0801cbe4 	.word	0x0801cbe4
 80137b8:	0801cc00 	.word	0x0801cc00
 80137bc:	200017bc 	.word	0x200017bc
 80137c0:	20001c78 	.word	0x20001c78
 80137c4:	0801cc24 	.word	0x0801cc24
 80137c8:	0801cc3c 	.word	0x0801cc3c
 80137cc:	0801c4e8 	.word	0x0801c4e8
 80137d0:	20000084 	.word	0x20000084
 80137d4:	0801cc64 	.word	0x0801cc64
 80137d8:	0801cc84 	.word	0x0801cc84
 80137dc:	0801d024 	.word	0x0801d024
 80137e0:	0801caf4 	.word	0x0801caf4
 80137e4:	0801cf0c 	.word	0x0801cf0c

080137e8 <xsh_kill>:
 80137e8:	b570      	push	{r4, r5, r6, lr}
 80137ea:	460d      	mov	r5, r1
 80137ec:	2802      	cmp	r0, #2
 80137ee:	d12d      	bne.n	801384c <xsh_kill+0x64>
 80137f0:	2207      	movs	r2, #7
 80137f2:	493f      	ldr	r1, [pc, #252]	@ (80138f0 <xsh_kill+0x108>)
 80137f4:	6868      	ldr	r0, [r5, #4]
 80137f6:	f7ff f97d 	bl	8012af4 <strncmp>
 80137fa:	b190      	cbz	r0, 8013822 <xsh_kill+0x3a>
 80137fc:	686b      	ldr	r3, [r5, #4]
 80137fe:	f813 2b01 	ldrb.w	r2, [r3], #1
 8013802:	2400      	movs	r4, #0
 8013804:	2a00      	cmp	r2, #0
 8013806:	d04b      	beq.n	80138a0 <xsh_kill+0xb8>
 8013808:	f1a2 0030 	sub.w	r0, r2, #48	@ 0x30
 801380c:	b2c0      	uxtb	r0, r0
 801380e:	2809      	cmp	r0, #9
 8013810:	d837      	bhi.n	8013882 <xsh_kill+0x9a>
 8013812:	eb04 0484 	add.w	r4, r4, r4, lsl #2
 8013816:	3a30      	subs	r2, #48	@ 0x30
 8013818:	eb02 0444 	add.w	r4, r2, r4, lsl #1
 801381c:	f813 2b01 	ldrb.w	r2, [r3], #1
 8013820:	e7f0      	b.n	8013804 <xsh_kill+0x1c>
 8013822:	6829      	ldr	r1, [r5, #0]
 8013824:	4833      	ldr	r0, [pc, #204]	@ (80138f4 <xsh_kill+0x10c>)
 8013826:	f7fe fdfd 	bl	8012424 <printf>
 801382a:	4833      	ldr	r0, [pc, #204]	@ (80138f8 <xsh_kill+0x110>)
 801382c:	f7fe fdfa 	bl	8012424 <printf>
 8013830:	4832      	ldr	r0, [pc, #200]	@ (80138fc <xsh_kill+0x114>)
 8013832:	f7fe fdf7 	bl	8012424 <printf>
 8013836:	4832      	ldr	r0, [pc, #200]	@ (8013900 <xsh_kill+0x118>)
 8013838:	f7fe fdf4 	bl	8012424 <printf>
 801383c:	4831      	ldr	r0, [pc, #196]	@ (8013904 <xsh_kill+0x11c>)
 801383e:	f7fe fdf1 	bl	8012424 <printf>
 8013842:	4831      	ldr	r0, [pc, #196]	@ (8013908 <xsh_kill+0x120>)
 8013844:	f7fe fdee 	bl	8012424 <printf>
 8013848:	2001      	movs	r0, #1
 801384a:	e019      	b.n	8013880 <xsh_kill+0x98>
 801384c:	4c2f      	ldr	r4, [pc, #188]	@ (801390c <xsh_kill+0x124>)
 801384e:	4e30      	ldr	r6, [pc, #192]	@ (8013910 <xsh_kill+0x128>)
 8013850:	6833      	ldr	r3, [r6, #0]
 8013852:	eb03 1303 	add.w	r3, r3, r3, lsl #4
 8013856:	eb04 0383 	add.w	r3, r4, r3, lsl #2
 801385a:	680a      	ldr	r2, [r1, #0]
 801385c:	492d      	ldr	r1, [pc, #180]	@ (8013914 <xsh_kill+0x12c>)
 801385e:	f9b3 0036 	ldrsh.w	r0, [r3, #54]	@ 0x36
 8013862:	f7fd ff01 	bl	8011668 <fprintf>
 8013866:	6833      	ldr	r3, [r6, #0]
 8013868:	eb03 1303 	add.w	r3, r3, r3, lsl #4
 801386c:	eb04 0483 	add.w	r4, r4, r3, lsl #2
 8013870:	682a      	ldr	r2, [r5, #0]
 8013872:	4929      	ldr	r1, [pc, #164]	@ (8013918 <xsh_kill+0x130>)
 8013874:	f9b4 0036 	ldrsh.w	r0, [r4, #54]	@ 0x36
 8013878:	f7fd fef6 	bl	8011668 <fprintf>
 801387c:	f04f 30ff 	mov.w	r0, #4294967295	@ 0xffffffff
 8013880:	bd70      	pop	{r4, r5, r6, pc}
 8013882:	4b23      	ldr	r3, [pc, #140]	@ (8013910 <xsh_kill+0x128>)
 8013884:	681b      	ldr	r3, [r3, #0]
 8013886:	eb03 1303 	add.w	r3, r3, r3, lsl #4
 801388a:	4a20      	ldr	r2, [pc, #128]	@ (801390c <xsh_kill+0x124>)
 801388c:	eb02 0383 	add.w	r3, r2, r3, lsl #2
 8013890:	682a      	ldr	r2, [r5, #0]
 8013892:	4922      	ldr	r1, [pc, #136]	@ (801391c <xsh_kill+0x134>)
 8013894:	f9b3 0036 	ldrsh.w	r0, [r3, #54]	@ 0x36
 8013898:	f7fd fee6 	bl	8011668 <fprintf>
 801389c:	2001      	movs	r0, #1
 801389e:	e7ef      	b.n	8013880 <xsh_kill+0x98>
 80138a0:	b13c      	cbz	r4, 80138b2 <xsh_kill+0xca>
 80138a2:	4620      	mov	r0, r4
 80138a4:	f001 fcfe 	bl	80152a4 <kill>
 80138a8:	f1b0 3fff 	cmp.w	r0, #4294967295	@ 0xffffffff
 80138ac:	d010      	beq.n	80138d0 <xsh_kill+0xe8>
 80138ae:	2000      	movs	r0, #0
 80138b0:	e7e6      	b.n	8013880 <xsh_kill+0x98>
 80138b2:	4b17      	ldr	r3, [pc, #92]	@ (8013910 <xsh_kill+0x128>)
 80138b4:	681b      	ldr	r3, [r3, #0]
 80138b6:	eb03 1303 	add.w	r3, r3, r3, lsl #4
 80138ba:	4a14      	ldr	r2, [pc, #80]	@ (801390c <xsh_kill+0x124>)
 80138bc:	eb02 0383 	add.w	r3, r2, r3, lsl #2
 80138c0:	682a      	ldr	r2, [r5, #0]
 80138c2:	4917      	ldr	r1, [pc, #92]	@ (8013920 <xsh_kill+0x138>)
 80138c4:	f9b3 0036 	ldrsh.w	r0, [r3, #54]	@ 0x36
 80138c8:	f7fd fece 	bl	8011668 <fprintf>
 80138cc:	2001      	movs	r0, #1
 80138ce:	e7d7      	b.n	8013880 <xsh_kill+0x98>
 80138d0:	4b0f      	ldr	r3, [pc, #60]	@ (8013910 <xsh_kill+0x128>)
 80138d2:	681b      	ldr	r3, [r3, #0]
 80138d4:	eb03 1303 	add.w	r3, r3, r3, lsl #4
 80138d8:	480c      	ldr	r0, [pc, #48]	@ (801390c <xsh_kill+0x124>)
 80138da:	eb00 0083 	add.w	r0, r0, r3, lsl #2
 80138de:	4623      	mov	r3, r4
 80138e0:	682a      	ldr	r2, [r5, #0]
 80138e2:	4910      	ldr	r1, [pc, #64]	@ (8013924 <xsh_kill+0x13c>)
 80138e4:	f9b0 0036 	ldrsh.w	r0, [r0, #54]	@ 0x36
 80138e8:	f7fd febe 	bl	8011668 <fprintf>
 80138ec:	2001      	movs	r0, #1
 80138ee:	e7c7      	b.n	8013880 <xsh_kill+0x98>
 80138f0:	0801cb2c 	.word	0x0801cb2c
 80138f4:	0801cc9c 	.word	0x0801cc9c
 80138f8:	0801cb4c 	.word	0x0801cb4c
 80138fc:	0801ccac 	.word	0x0801ccac
 8013900:	0801cbb0 	.word	0x0801cbb0
 8013904:	0801ccc4 	.word	0x0801ccc4
 8013908:	0801cc00 	.word	0x0801cc00
 801390c:	200017bc 	.word	0x200017bc
 8013910:	20001c78 	.word	0x20001c78
 8013914:	0801ccec 	.word	0x0801ccec
 8013918:	0801cc3c 	.word	0x0801cc3c
 801391c:	0801cd04 	.word	0x0801cd04
 8013920:	0801cd24 	.word	0x0801cd24
 8013924:	0801cd48 	.word	0x0801cd48

08013928 <xsh_ls>:
 8013928:	b500      	push	{lr}
 801392a:	b097      	sub	sp, #92	@ 0x5c
 801392c:	4810      	ldr	r0, [pc, #64]	@ (8013970 <xsh_ls+0x48>)
 801392e:	f7ff faf7 	bl	8012f20 <full_path>
 8013932:	a913      	add	r1, sp, #76	@ 0x4c
 8013934:	f005 fe74 	bl	8019620 <fl_opendir>
 8013938:	b928      	cbnz	r0, 8013946 <xsh_ls+0x1e>
 801393a:	e015      	b.n	8013968 <xsh_ls+0x40>
 801393c:	9a12      	ldr	r2, [sp, #72]	@ 0x48
 801393e:	4669      	mov	r1, sp
 8013940:	480c      	ldr	r0, [pc, #48]	@ (8013974 <xsh_ls+0x4c>)
 8013942:	f7fe fd6f 	bl	8012424 <printf>
 8013946:	4669      	mov	r1, sp
 8013948:	a813      	add	r0, sp, #76	@ 0x4c
 801394a:	f005 fea1 	bl	8019690 <fl_readdir>
 801394e:	b940      	cbnz	r0, 8013962 <xsh_ls+0x3a>
 8013950:	f89d 3040 	ldrb.w	r3, [sp, #64]	@ 0x40
 8013954:	2b00      	cmp	r3, #0
 8013956:	d0f1      	beq.n	801393c <xsh_ls+0x14>
 8013958:	4669      	mov	r1, sp
 801395a:	4807      	ldr	r0, [pc, #28]	@ (8013978 <xsh_ls+0x50>)
 801395c:	f7fe fd62 	bl	8012424 <printf>
 8013960:	e7f1      	b.n	8013946 <xsh_ls+0x1e>
 8013962:	a813      	add	r0, sp, #76	@ 0x4c
 8013964:	f005 fef0 	bl	8019748 <fl_closedir>
 8013968:	2000      	movs	r0, #0
 801396a:	b017      	add	sp, #92	@ 0x5c
 801396c:	f85d fb04 	ldr.w	pc, [sp], #4
 8013970:	0801c8dc 	.word	0x0801c8dc
 8013974:	0801cd70 	.word	0x0801cd70
 8013978:	0801cd64 	.word	0x0801cd64

0801397c <xsh_memdump>:
 801397c:	2802      	cmp	r0, #2
 801397e:	d001      	beq.n	8013984 <xsh_memdump+0x8>
 8013980:	2000      	movs	r0, #0
 8013982:	4770      	bx	lr
 8013984:	b510      	push	{r4, lr}
 8013986:	460c      	mov	r4, r1
 8013988:	2207      	movs	r2, #7
 801398a:	4908      	ldr	r1, [pc, #32]	@ (80139ac <xsh_memdump+0x30>)
 801398c:	6860      	ldr	r0, [r4, #4]
 801398e:	f7ff f8b1 	bl	8012af4 <strncmp>
 8013992:	b108      	cbz	r0, 8013998 <xsh_memdump+0x1c>
 8013994:	2000      	movs	r0, #0
 8013996:	bd10      	pop	{r4, pc}
 8013998:	6821      	ldr	r1, [r4, #0]
 801399a:	4805      	ldr	r0, [pc, #20]	@ (80139b0 <xsh_memdump+0x34>)
 801399c:	f7fe fd42 	bl	8012424 <printf>
 80139a0:	4804      	ldr	r0, [pc, #16]	@ (80139b4 <xsh_memdump+0x38>)
 80139a2:	f7fe fd3f 	bl	8012424 <printf>
 80139a6:	2001      	movs	r0, #1
 80139a8:	e7f5      	b.n	8013996 <xsh_memdump+0x1a>
 80139aa:	bf00      	nop
 80139ac:	0801cb2c 	.word	0x0801cb2c
 80139b0:	0801cd80 	.word	0x0801cd80
 80139b4:	0801cb4c 	.word	0x0801cb4c

080139b8 <printFreeList>:
 80139b8:	b510      	push	{r4, lr}
 80139ba:	480c      	ldr	r0, [pc, #48]	@ (80139ec <printFreeList+0x34>)
 80139bc:	f7fe fd32 	bl	8012424 <printf>
 80139c0:	480b      	ldr	r0, [pc, #44]	@ (80139f0 <printFreeList+0x38>)
 80139c2:	f7fe fd2f 	bl	8012424 <printf>
 80139c6:	480b      	ldr	r0, [pc, #44]	@ (80139f4 <printFreeList+0x3c>)
 80139c8:	f7fe fd2c 	bl	8012424 <printf>
 80139cc:	4b0a      	ldr	r3, [pc, #40]	@ (80139f8 <printFreeList+0x40>)
 80139ce:	681c      	ldr	r4, [r3, #0]
 80139d0:	e006      	b.n	80139e0 <printFreeList+0x28>
 80139d2:	6862      	ldr	r2, [r4, #4]
 80139d4:	4613      	mov	r3, r2
 80139d6:	4621      	mov	r1, r4
 80139d8:	4808      	ldr	r0, [pc, #32]	@ (80139fc <printFreeList+0x44>)
 80139da:	f7fe fd23 	bl	8012424 <printf>
 80139de:	6824      	ldr	r4, [r4, #0]
 80139e0:	2c00      	cmp	r4, #0
 80139e2:	d1f6      	bne.n	80139d2 <printFreeList+0x1a>
 80139e4:	4806      	ldr	r0, [pc, #24]	@ (8013a00 <printFreeList+0x48>)
 80139e6:	f7fe fd1d 	bl	8012424 <printf>
 80139ea:	bd10      	pop	{r4, pc}
 80139ec:	0801cda4 	.word	0x0801cda4
 80139f0:	0801cdb0 	.word	0x0801cdb0
 80139f4:	0801cddc 	.word	0x0801cddc
 80139f8:	20001c6c 	.word	0x20001c6c
 80139fc:	0801ce08 	.word	0x0801ce08
 8013a00:	0801cf0c 	.word	0x0801cf0c

08013a04 <xsh_memstat>:
 8013a04:	b570      	push	{r4, r5, r6, lr}
 8013a06:	4604      	mov	r4, r0
 8013a08:	460d      	mov	r5, r1
 8013a0a:	2802      	cmp	r0, #2
 8013a0c:	d012      	beq.n	8013a34 <xsh_memstat+0x30>
 8013a0e:	2c01      	cmp	r4, #1
 8013a10:	dc2c      	bgt.n	8013a6c <xsh_memstat+0x68>
 8013a12:	f002 fc7d 	bl	8016310 <heap_free>
 8013a16:	4601      	mov	r1, r0
 8013a18:	4821      	ldr	r0, [pc, #132]	@ (8013aa0 <xsh_memstat+0x9c>)
 8013a1a:	f002 fb89 	bl	8016130 <kprintf>
 8013a1e:	f002 fd61 	bl	80164e4 <heap_freecc>
 8013a22:	4601      	mov	r1, r0
 8013a24:	481f      	ldr	r0, [pc, #124]	@ (8013aa4 <xsh_memstat+0xa0>)
 8013a26:	f002 fb83 	bl	8016130 <kprintf>
 8013a2a:	f7ff ffc5 	bl	80139b8 <printFreeList>
 8013a2e:	2600      	movs	r6, #0
 8013a30:	4630      	mov	r0, r6
 8013a32:	bd70      	pop	{r4, r5, r6, pc}
 8013a34:	2207      	movs	r2, #7
 8013a36:	491c      	ldr	r1, [pc, #112]	@ (8013aa8 <xsh_memstat+0xa4>)
 8013a38:	6868      	ldr	r0, [r5, #4]
 8013a3a:	f7ff f85b 	bl	8012af4 <strncmp>
 8013a3e:	4606      	mov	r6, r0
 8013a40:	2800      	cmp	r0, #0
 8013a42:	d1e4      	bne.n	8013a0e <xsh_memstat+0xa>
 8013a44:	6829      	ldr	r1, [r5, #0]
 8013a46:	4819      	ldr	r0, [pc, #100]	@ (8013aac <xsh_memstat+0xa8>)
 8013a48:	f7fe fcec 	bl	8012424 <printf>
 8013a4c:	4818      	ldr	r0, [pc, #96]	@ (8013ab0 <xsh_memstat+0xac>)
 8013a4e:	f7fe fce9 	bl	8012424 <printf>
 8013a52:	4818      	ldr	r0, [pc, #96]	@ (8013ab4 <xsh_memstat+0xb0>)
 8013a54:	f7fe fce6 	bl	8012424 <printf>
 8013a58:	4817      	ldr	r0, [pc, #92]	@ (8013ab8 <xsh_memstat+0xb4>)
 8013a5a:	f7fe fce3 	bl	8012424 <printf>
 8013a5e:	4817      	ldr	r0, [pc, #92]	@ (8013abc <xsh_memstat+0xb8>)
 8013a60:	f7fe fce0 	bl	8012424 <printf>
 8013a64:	4816      	ldr	r0, [pc, #88]	@ (8013ac0 <xsh_memstat+0xbc>)
 8013a66:	f7fe fcdd 	bl	8012424 <printf>
 8013a6a:	e7e1      	b.n	8013a30 <xsh_memstat+0x2c>
 8013a6c:	4c15      	ldr	r4, [pc, #84]	@ (8013ac4 <xsh_memstat+0xc0>)
 8013a6e:	4e16      	ldr	r6, [pc, #88]	@ (8013ac8 <xsh_memstat+0xc4>)
 8013a70:	6833      	ldr	r3, [r6, #0]
 8013a72:	eb03 1303 	add.w	r3, r3, r3, lsl #4
 8013a76:	eb04 0383 	add.w	r3, r4, r3, lsl #2
 8013a7a:	682a      	ldr	r2, [r5, #0]
 8013a7c:	4913      	ldr	r1, [pc, #76]	@ (8013acc <xsh_memstat+0xc8>)
 8013a7e:	f9b3 0036 	ldrsh.w	r0, [r3, #54]	@ 0x36
 8013a82:	f7fd fdf1 	bl	8011668 <fprintf>
 8013a86:	6833      	ldr	r3, [r6, #0]
 8013a88:	eb03 1303 	add.w	r3, r3, r3, lsl #4
 8013a8c:	eb04 0483 	add.w	r4, r4, r3, lsl #2
 8013a90:	682a      	ldr	r2, [r5, #0]
 8013a92:	490f      	ldr	r1, [pc, #60]	@ (8013ad0 <xsh_memstat+0xcc>)
 8013a94:	f9b4 0036 	ldrsh.w	r0, [r4, #54]	@ 0x36
 8013a98:	f7fd fde6 	bl	8011668 <fprintf>
 8013a9c:	2601      	movs	r6, #1
 8013a9e:	e7c7      	b.n	8013a30 <xsh_memstat+0x2c>
 8013aa0:	0801ce9c 	.word	0x0801ce9c
 8013aa4:	0801cec8 	.word	0x0801cec8
 8013aa8:	0801cb2c 	.word	0x0801cb2c
 8013aac:	0801ce24 	.word	0x0801ce24
 8013ab0:	0801cb4c 	.word	0x0801cb4c
 8013ab4:	0801ce30 	.word	0x0801ce30
 8013ab8:	0801ce64 	.word	0x0801ce64
 8013abc:	0801cbb0 	.word	0x0801cbb0
 8013ac0:	0801ce74 	.word	0x0801ce74
 8013ac4:	200017bc 	.word	0x200017bc
 8013ac8:	20001c78 	.word	0x20001c78
 8013acc:	0801cc24 	.word	0x0801cc24
 8013ad0:	0801cc3c 	.word	0x0801cc3c

08013ad4 <xsh_mkdir>:
 8013ad4:	b510      	push	{r4, lr}
 8013ad6:	b084      	sub	sp, #16
 8013ad8:	6848      	ldr	r0, [r1, #4]
 8013ada:	f7ff fa21 	bl	8012f20 <full_path>
 8013ade:	b198      	cbz	r0, 8013b08 <xsh_mkdir+0x34>
 8013ae0:	4604      	mov	r4, r0
 8013ae2:	a901      	add	r1, sp, #4
 8013ae4:	f005 fd9c 	bl	8019620 <fl_opendir>
 8013ae8:	b148      	cbz	r0, 8013afe <xsh_mkdir+0x2a>
 8013aea:	a801      	add	r0, sp, #4
 8013aec:	f005 fe2c 	bl	8019748 <fl_closedir>
 8013af0:	4621      	mov	r1, r4
 8013af2:	4807      	ldr	r0, [pc, #28]	@ (8013b10 <xsh_mkdir+0x3c>)
 8013af4:	f7fe fc96 	bl	8012424 <printf>
 8013af8:	2000      	movs	r0, #0
 8013afa:	b004      	add	sp, #16
 8013afc:	bd10      	pop	{r4, pc}
 8013afe:	4620      	mov	r0, r4
 8013b00:	f005 fd74 	bl	80195ec <fl_createdirectory>
 8013b04:	2000      	movs	r0, #0
 8013b06:	e7f8      	b.n	8013afa <xsh_mkdir+0x26>
 8013b08:	f04f 30ff 	mov.w	r0, #4294967295	@ 0xffffffff
 8013b0c:	e7f5      	b.n	8013afa <xsh_mkdir+0x26>
 8013b0e:	bf00      	nop
 8013b10:	0801cef4 	.word	0x0801cef4

08013b14 <xsh_ps>:
 8013b14:	b5f0      	push	{r4, r5, r6, r7, lr}
 8013b16:	b08f      	sub	sp, #60	@ 0x3c
 8013b18:	4606      	mov	r6, r0
 8013b1a:	460f      	mov	r7, r1
 8013b1c:	ac06      	add	r4, sp, #24
 8013b1e:	4d43      	ldr	r5, [pc, #268]	@ (8013c2c <xsh_ps+0x118>)
 8013b20:	cd0f      	ldmia	r5!, {r0, r1, r2, r3}
 8013b22:	c40f      	stmia	r4!, {r0, r1, r2, r3}
 8013b24:	e895 000f 	ldmia.w	r5, {r0, r1, r2, r3}
 8013b28:	e884 000f 	stmia.w	r4, {r0, r1, r2, r3}
 8013b2c:	2e02      	cmp	r6, #2
 8013b2e:	d021      	beq.n	8013b74 <xsh_ps+0x60>
 8013b30:	2e01      	cmp	r6, #1
 8013b32:	dc38      	bgt.n	8013ba6 <xsh_ps+0x92>
 8013b34:	4c3e      	ldr	r4, [pc, #248]	@ (8013c30 <xsh_ps+0x11c>)
 8013b36:	4b3f      	ldr	r3, [pc, #252]	@ (8013c34 <xsh_ps+0x120>)
 8013b38:	9304      	str	r3, [sp, #16]
 8013b3a:	4b3f      	ldr	r3, [pc, #252]	@ (8013c38 <xsh_ps+0x124>)
 8013b3c:	9303      	str	r3, [sp, #12]
 8013b3e:	4b3f      	ldr	r3, [pc, #252]	@ (8013c3c <xsh_ps+0x128>)
 8013b40:	9302      	str	r3, [sp, #8]
 8013b42:	4b3f      	ldr	r3, [pc, #252]	@ (8013c40 <xsh_ps+0x12c>)
 8013b44:	9301      	str	r3, [sp, #4]
 8013b46:	4b3f      	ldr	r3, [pc, #252]	@ (8013c44 <xsh_ps+0x130>)
 8013b48:	9300      	str	r3, [sp, #0]
 8013b4a:	4b3f      	ldr	r3, [pc, #252]	@ (8013c48 <xsh_ps+0x134>)
 8013b4c:	4a3f      	ldr	r2, [pc, #252]	@ (8013c4c <xsh_ps+0x138>)
 8013b4e:	4940      	ldr	r1, [pc, #256]	@ (8013c50 <xsh_ps+0x13c>)
 8013b50:	4620      	mov	r0, r4
 8013b52:	f7fe fc67 	bl	8012424 <printf>
 8013b56:	4b3f      	ldr	r3, [pc, #252]	@ (8013c54 <xsh_ps+0x140>)
 8013b58:	9304      	str	r3, [sp, #16]
 8013b5a:	9303      	str	r3, [sp, #12]
 8013b5c:	9302      	str	r3, [sp, #8]
 8013b5e:	4b3e      	ldr	r3, [pc, #248]	@ (8013c58 <xsh_ps+0x144>)
 8013b60:	9301      	str	r3, [sp, #4]
 8013b62:	9300      	str	r3, [sp, #0]
 8013b64:	4b3d      	ldr	r3, [pc, #244]	@ (8013c5c <xsh_ps+0x148>)
 8013b66:	4a3e      	ldr	r2, [pc, #248]	@ (8013c60 <xsh_ps+0x14c>)
 8013b68:	493e      	ldr	r1, [pc, #248]	@ (8013c64 <xsh_ps+0x150>)
 8013b6a:	4620      	mov	r0, r4
 8013b6c:	f7fe fc5a 	bl	8012424 <printf>
 8013b70:	2400      	movs	r4, #0
 8013b72:	e033      	b.n	8013bdc <xsh_ps+0xc8>
 8013b74:	2207      	movs	r2, #7
 8013b76:	493c      	ldr	r1, [pc, #240]	@ (8013c68 <xsh_ps+0x154>)
 8013b78:	6878      	ldr	r0, [r7, #4]
 8013b7a:	f7fe ffbb 	bl	8012af4 <strncmp>
 8013b7e:	4604      	mov	r4, r0
 8013b80:	2800      	cmp	r0, #0
 8013b82:	d1d5      	bne.n	8013b30 <xsh_ps+0x1c>
 8013b84:	6839      	ldr	r1, [r7, #0]
 8013b86:	4839      	ldr	r0, [pc, #228]	@ (8013c6c <xsh_ps+0x158>)
 8013b88:	f7fe fc4c 	bl	8012424 <printf>
 8013b8c:	4838      	ldr	r0, [pc, #224]	@ (8013c70 <xsh_ps+0x15c>)
 8013b8e:	f7fe fc49 	bl	8012424 <printf>
 8013b92:	4838      	ldr	r0, [pc, #224]	@ (8013c74 <xsh_ps+0x160>)
 8013b94:	f7fe fc46 	bl	8012424 <printf>
 8013b98:	4837      	ldr	r0, [pc, #220]	@ (8013c78 <xsh_ps+0x164>)
 8013b9a:	f7fe fc43 	bl	8012424 <printf>
 8013b9e:	4837      	ldr	r0, [pc, #220]	@ (8013c7c <xsh_ps+0x168>)
 8013ba0:	f7fe fc40 	bl	8012424 <printf>
 8013ba4:	e03f      	b.n	8013c26 <xsh_ps+0x112>
 8013ba6:	4c36      	ldr	r4, [pc, #216]	@ (8013c80 <xsh_ps+0x16c>)
 8013ba8:	4d36      	ldr	r5, [pc, #216]	@ (8013c84 <xsh_ps+0x170>)
 8013baa:	682b      	ldr	r3, [r5, #0]
 8013bac:	eb03 1303 	add.w	r3, r3, r3, lsl #4
 8013bb0:	eb04 0383 	add.w	r3, r4, r3, lsl #2
 8013bb4:	683a      	ldr	r2, [r7, #0]
 8013bb6:	4934      	ldr	r1, [pc, #208]	@ (8013c88 <xsh_ps+0x174>)
 8013bb8:	f9b3 0036 	ldrsh.w	r0, [r3, #54]	@ 0x36
 8013bbc:	f7fd fd54 	bl	8011668 <fprintf>
 8013bc0:	682b      	ldr	r3, [r5, #0]
 8013bc2:	eb03 1303 	add.w	r3, r3, r3, lsl #4
 8013bc6:	eb04 0483 	add.w	r4, r4, r3, lsl #2
 8013bca:	683a      	ldr	r2, [r7, #0]
 8013bcc:	492f      	ldr	r1, [pc, #188]	@ (8013c8c <xsh_ps+0x178>)
 8013bce:	f9b4 0036 	ldrsh.w	r0, [r4, #54]	@ 0x36
 8013bd2:	f7fd fd49 	bl	8011668 <fprintf>
 8013bd6:	2401      	movs	r4, #1
 8013bd8:	e025      	b.n	8013c26 <xsh_ps+0x112>
 8013bda:	3401      	adds	r4, #1
 8013bdc:	2c0e      	cmp	r4, #14
 8013bde:	dc21      	bgt.n	8013c24 <xsh_ps+0x110>
 8013be0:	eb04 1304 	add.w	r3, r4, r4, lsl #4
 8013be4:	4a26      	ldr	r2, [pc, #152]	@ (8013c80 <xsh_ps+0x16c>)
 8013be6:	f832 1023 	ldrh.w	r1, [r2, r3, lsl #2]
 8013bea:	2900      	cmp	r1, #0
 8013bec:	d0f5      	beq.n	8013bda <xsh_ps+0xc6>
 8013bee:	009a      	lsls	r2, r3, #2
 8013bf0:	3210      	adds	r2, #16
 8013bf2:	4823      	ldr	r0, [pc, #140]	@ (8013c80 <xsh_ps+0x16c>)
 8013bf4:	eb00 0383 	add.w	r3, r0, r3, lsl #2
 8013bf8:	f9b3 5002 	ldrsh.w	r5, [r3, #2]
 8013bfc:	ae0e      	add	r6, sp, #56	@ 0x38
 8013bfe:	eb06 0181 	add.w	r1, r6, r1, lsl #2
 8013c02:	68de      	ldr	r6, [r3, #12]
 8013c04:	9604      	str	r6, [sp, #16]
 8013c06:	685e      	ldr	r6, [r3, #4]
 8013c08:	9603      	str	r6, [sp, #12]
 8013c0a:	689e      	ldr	r6, [r3, #8]
 8013c0c:	9602      	str	r6, [sp, #8]
 8013c0e:	6a9b      	ldr	r3, [r3, #40]	@ 0x28
 8013c10:	9301      	str	r3, [sp, #4]
 8013c12:	9500      	str	r5, [sp, #0]
 8013c14:	f851 3c20 	ldr.w	r3, [r1, #-32]
 8013c18:	4402      	add	r2, r0
 8013c1a:	4621      	mov	r1, r4
 8013c1c:	481c      	ldr	r0, [pc, #112]	@ (8013c90 <xsh_ps+0x17c>)
 8013c1e:	f7fe fc01 	bl	8012424 <printf>
 8013c22:	e7da      	b.n	8013bda <xsh_ps+0xc6>
 8013c24:	2400      	movs	r4, #0
 8013c26:	4620      	mov	r0, r4
 8013c28:	b00f      	add	sp, #60	@ 0x3c
 8013c2a:	bdf0      	pop	{r4, r5, r6, r7, pc}
 8013c2c:	0801c5fc 	.word	0x0801c5fc
 8013c30:	0801cf7c 	.word	0x0801cf7c
 8013c34:	0801cfa4 	.word	0x0801cfa4
 8013c38:	0801cfb0 	.word	0x0801cfb0
 8013c3c:	0801cfbc 	.word	0x0801cfbc
 8013c40:	0801cfc8 	.word	0x0801cfc8
 8013c44:	0801cfd0 	.word	0x0801cfd0
 8013c48:	0801cf68 	.word	0x0801cf68
 8013c4c:	0801cf70 	.word	0x0801cf70
 8013c50:	0801cf78 	.word	0x0801cf78
 8013c54:	0801c750 	.word	0x0801c750
 8013c58:	0801cfec 	.word	0x0801cfec
 8013c5c:	0801cfd8 	.word	0x0801cfd8
 8013c60:	0801cfe0 	.word	0x0801cfe0
 8013c64:	0801cff4 	.word	0x0801cff4
 8013c68:	0801cb2c 	.word	0x0801cb2c
 8013c6c:	0801cf04 	.word	0x0801cf04
 8013c70:	0801cb4c 	.word	0x0801cb4c
 8013c74:	0801cf10 	.word	0x0801cf10
 8013c78:	0801cbb0 	.word	0x0801cbb0
 8013c7c:	0801cf40 	.word	0x0801cf40
 8013c80:	200017bc 	.word	0x200017bc
 8013c84:	20001c78 	.word	0x20001c78
 8013c88:	0801cc24 	.word	0x0801cc24
 8013c8c:	0801cc3c 	.word	0x0801cc3c
 8013c90:	0801cff8 	.word	0x0801cff8

08013c94 <xsh_pwd>:
 8013c94:	b508      	push	{r3, lr}
 8013c96:	4804      	ldr	r0, [pc, #16]	@ (8013ca8 <xsh_pwd+0x14>)
 8013c98:	f7ff f942 	bl	8012f20 <full_path>
 8013c9c:	4601      	mov	r1, r0
 8013c9e:	4803      	ldr	r0, [pc, #12]	@ (8013cac <xsh_pwd+0x18>)
 8013ca0:	f7fe fbc0 	bl	8012424 <printf>
 8013ca4:	2000      	movs	r0, #0
 8013ca6:	bd08      	pop	{r3, pc}
 8013ca8:	0801c8dc 	.word	0x0801c8dc
 8013cac:	0801c8f8 	.word	0x0801c8f8

08013cb0 <__NVIC_SystemReset>:
 8013cb0:	f3bf 8f4f 	dsb	sy
 8013cb4:	4905      	ldr	r1, [pc, #20]	@ (8013ccc <__NVIC_SystemReset+0x1c>)
 8013cb6:	68ca      	ldr	r2, [r1, #12]
 8013cb8:	f402 62e0 	and.w	r2, r2, #1792	@ 0x700
 8013cbc:	4b04      	ldr	r3, [pc, #16]	@ (8013cd0 <__NVIC_SystemReset+0x20>)
 8013cbe:	4313      	orrs	r3, r2
 8013cc0:	60cb      	str	r3, [r1, #12]
 8013cc2:	f3bf 8f4f 	dsb	sy
 8013cc6:	bf00      	nop
 8013cc8:	e7fd      	b.n	8013cc6 <__NVIC_SystemReset+0x16>
 8013cca:	bf00      	nop
 8013ccc:	e000ed00 	.word	0xe000ed00
 8013cd0:	05fa0004 	.word	0x05fa0004

08013cd4 <xsh_reboot>:
 8013cd4:	b508      	push	{r3, lr}
 8013cd6:	f7ff ffeb 	bl	8013cb0 <__NVIC_SystemReset>
 8013cda:	bf00      	nop

08013cdc <xsh_rm>:
 8013cdc:	b510      	push	{r4, lr}
 8013cde:	6848      	ldr	r0, [r1, #4]
 8013ce0:	f7ff f91e 	bl	8012f20 <full_path>
 8013ce4:	b1c8      	cbz	r0, 8013d1a <xsh_rm+0x3e>
 8013ce6:	4604      	mov	r4, r0
 8013ce8:	490d      	ldr	r1, [pc, #52]	@ (8013d20 <xsh_rm+0x44>)
 8013cea:	f005 f8db 	bl	8018ea4 <fl_fopen>
 8013cee:	b140      	cbz	r0, 8013d02 <xsh_rm+0x26>
 8013cf0:	f005 f9f4 	bl	80190dc <fl_fclose>
 8013cf4:	4620      	mov	r0, r4
 8013cf6:	f005 fc48 	bl	801958a <fl_remove>
 8013cfa:	2800      	cmp	r0, #0
 8013cfc:	db08      	blt.n	8013d10 <xsh_rm+0x34>
 8013cfe:	2000      	movs	r0, #0
 8013d00:	bd10      	pop	{r4, pc}
 8013d02:	4621      	mov	r1, r4
 8013d04:	4807      	ldr	r0, [pc, #28]	@ (8013d24 <xsh_rm+0x48>)
 8013d06:	f7fe fb8d 	bl	8012424 <printf>
 8013d0a:	f04f 30ff 	mov.w	r0, #4294967295	@ 0xffffffff
 8013d0e:	e7f7      	b.n	8013d00 <xsh_rm+0x24>
 8013d10:	4805      	ldr	r0, [pc, #20]	@ (8013d28 <xsh_rm+0x4c>)
 8013d12:	f7fe fb87 	bl	8012424 <printf>
 8013d16:	2000      	movs	r0, #0
 8013d18:	e7f2      	b.n	8013d00 <xsh_rm+0x24>
 8013d1a:	f04f 30ff 	mov.w	r0, #4294967295	@ 0xffffffff
 8013d1e:	e7ef      	b.n	8013d00 <xsh_rm+0x24>
 8013d20:	0801c9d4 	.word	0x0801c9d4
 8013d24:	0801c6d0 	.word	0x0801c6d0
 8013d28:	0801d060 	.word	0x0801d060

08013d2c <xsh_run>:
 8013d2c:	b570      	push	{r4, r5, r6, lr}
 8013d2e:	b08a      	sub	sp, #40	@ 0x28
 8013d30:	4605      	mov	r5, r0
 8013d32:	460c      	mov	r4, r1
 8013d34:	6848      	ldr	r0, [r1, #4]
 8013d36:	f7ff f8f3 	bl	8012f20 <full_path>
 8013d3a:	b380      	cbz	r0, 8013d9e <xsh_run+0x72>
 8013d3c:	4606      	mov	r6, r0
 8013d3e:	a904      	add	r1, sp, #16
 8013d40:	f7fc ff80 	bl	8010c44 <elf_execve>
 8013d44:	2800      	cmp	r0, #0
 8013d46:	dd22      	ble.n	8013d8e <xsh_run+0x62>
 8013d48:	9402      	str	r4, [sp, #8]
 8013d4a:	9501      	str	r5, [sp, #4]
 8013d4c:	2302      	movs	r3, #2
 8013d4e:	9300      	str	r3, [sp, #0]
 8013d50:	4633      	mov	r3, r6
 8013d52:	2214      	movs	r2, #20
 8013d54:	f44f 6100 	mov.w	r1, #2048	@ 0x800
 8013d58:	f001 f94c 	bl	8014ff4 <create>
 8013d5c:	4604      	mov	r4, r0
 8013d5e:	eb00 1200 	add.w	r2, r0, r0, lsl #4
 8013d62:	4b10      	ldr	r3, [pc, #64]	@ (8013da4 <xsh_run+0x78>)
 8013d64:	eb03 0382 	add.w	r3, r3, r2, lsl #2
 8013d68:	2201      	movs	r2, #1
 8013d6a:	f883 2038 	strb.w	r2, [r3, #56]	@ 0x38
 8013d6e:	9a05      	ldr	r2, [sp, #20]
 8013d70:	63da      	str	r2, [r3, #60]	@ 0x3c
 8013d72:	9a09      	ldr	r2, [sp, #36]	@ 0x24
 8013d74:	641a      	str	r2, [r3, #64]	@ 0x40
 8013d76:	f7ff f8c9 	bl	8012f0c <update_path>
 8013d7a:	4621      	mov	r1, r4
 8013d7c:	480a      	ldr	r0, [pc, #40]	@ (8013da8 <xsh_run+0x7c>)
 8013d7e:	f7fe fb51 	bl	8012424 <printf>
 8013d82:	4620      	mov	r0, r4
 8013d84:	f001 fc68 	bl	8015658 <ready>
 8013d88:	2000      	movs	r0, #0
 8013d8a:	b00a      	add	sp, #40	@ 0x28
 8013d8c:	bd70      	pop	{r4, r5, r6, pc}
 8013d8e:	4632      	mov	r2, r6
 8013d90:	4601      	mov	r1, r0
 8013d92:	4806      	ldr	r0, [pc, #24]	@ (8013dac <xsh_run+0x80>)
 8013d94:	f7fe fb46 	bl	8012424 <printf>
 8013d98:	f04f 30ff 	mov.w	r0, #4294967295	@ 0xffffffff
 8013d9c:	e7f5      	b.n	8013d8a <xsh_run+0x5e>
 8013d9e:	f04f 30ff 	mov.w	r0, #4294967295	@ 0xffffffff
 8013da2:	e7f2      	b.n	8013d8a <xsh_run+0x5e>
 8013da4:	200017bc 	.word	0x200017bc
 8013da8:	0801d070 	.word	0x0801d070
 8013dac:	0801d07c 	.word	0x0801d07c

08013db0 <example_usage>:
 8013db0:	e92d 41f0 	stmdb	sp!, {r4, r5, r6, r7, r8, lr}
 8013db4:	b090      	sub	sp, #64	@ 0x40
 8013db6:	f007 ff45 	bl	801bc44 <Memory_GetFreeSize>
 8013dba:	4601      	mov	r1, r0
 8013dbc:	4c32      	ldr	r4, [pc, #200]	@ (8013e88 <example_usage+0xd8>)
 8013dbe:	4620      	mov	r0, r4
 8013dc0:	f7fe fb30 	bl	8012424 <printf>
 8013dc4:	2020      	movs	r0, #32
 8013dc6:	f007 fed5 	bl	801bb74 <Memory_Allocate>
 8013dca:	4605      	mov	r5, r0
 8013dcc:	f007 ff3a 	bl	801bc44 <Memory_GetFreeSize>
 8013dd0:	4601      	mov	r1, r0
 8013dd2:	4620      	mov	r0, r4
 8013dd4:	f7fe fb26 	bl	8012424 <printf>
 8013dd8:	4e2c      	ldr	r6, [pc, #176]	@ (8013e8c <example_usage+0xdc>)
 8013dda:	4630      	mov	r0, r6
 8013ddc:	f007 feca 	bl	801bb74 <Memory_Allocate>
 8013de0:	4607      	mov	r7, r0
 8013de2:	f007 ff2f 	bl	801bc44 <Memory_GetFreeSize>
 8013de6:	4601      	mov	r1, r0
 8013de8:	4620      	mov	r0, r4
 8013dea:	f7fe fb1b 	bl	8012424 <printf>
 8013dee:	4630      	mov	r0, r6
 8013df0:	f007 fec0 	bl	801bb74 <Memory_Allocate>
 8013df4:	4680      	mov	r8, r0
 8013df6:	f007 ff25 	bl	801bc44 <Memory_GetFreeSize>
 8013dfa:	4601      	mov	r1, r0
 8013dfc:	4620      	mov	r0, r4
 8013dfe:	f7fe fb11 	bl	8012424 <printf>
 8013e02:	4630      	mov	r0, r6
 8013e04:	f007 feb6 	bl	801bb74 <Memory_Allocate>
 8013e08:	4606      	mov	r6, r0
 8013e0a:	f007 ff1b 	bl	801bc44 <Memory_GetFreeSize>
 8013e0e:	4601      	mov	r1, r0
 8013e10:	4620      	mov	r0, r4
 8013e12:	f7fe fb07 	bl	8012424 <printf>
 8013e16:	b105      	cbz	r5, 8013e1a <example_usage+0x6a>
 8013e18:	b92f      	cbnz	r7, 8013e26 <example_usage+0x76>
 8013e1a:	481d      	ldr	r0, [pc, #116]	@ (8013e90 <example_usage+0xe0>)
 8013e1c:	f7fe fb02 	bl	8012424 <printf>
 8013e20:	b010      	add	sp, #64	@ 0x40
 8013e22:	e8bd 81f0 	ldmia.w	sp!, {r4, r5, r6, r7, r8, pc}
 8013e26:	2220      	movs	r2, #32
 8013e28:	21aa      	movs	r1, #170	@ 0xaa
 8013e2a:	4668      	mov	r0, sp
 8013e2c:	f7fe fdfb 	bl	8012a26 <memset>
 8013e30:	2220      	movs	r2, #32
 8013e32:	4669      	mov	r1, sp
 8013e34:	4628      	mov	r0, r5
 8013e36:	f007 ff1d 	bl	801bc74 <Memory_Write>
 8013e3a:	2220      	movs	r2, #32
 8013e3c:	eb0d 0102 	add.w	r1, sp, r2
 8013e40:	4628      	mov	r0, r5
 8013e42:	f007 ff1b 	bl	801bc7c <Memory_Read>
 8013e46:	2400      	movs	r4, #0
 8013e48:	e009      	b.n	8013e5e <example_usage+0xae>
 8013e4a:	f104 0340 	add.w	r3, r4, #64	@ 0x40
 8013e4e:	446b      	add	r3, sp
 8013e50:	f813 2c20 	ldrb.w	r2, [r3, #-32]
 8013e54:	4621      	mov	r1, r4
 8013e56:	480f      	ldr	r0, [pc, #60]	@ (8013e94 <example_usage+0xe4>)
 8013e58:	f7fe fae4 	bl	8012424 <printf>
 8013e5c:	3401      	adds	r4, #1
 8013e5e:	2c1f      	cmp	r4, #31
 8013e60:	d9f3      	bls.n	8013e4a <example_usage+0x9a>
 8013e62:	4628      	mov	r0, r5
 8013e64:	f007 fec2 	bl	801bbec <Memory_Free>
 8013e68:	4638      	mov	r0, r7
 8013e6a:	f007 febf 	bl	801bbec <Memory_Free>
 8013e6e:	4640      	mov	r0, r8
 8013e70:	f007 febc 	bl	801bbec <Memory_Free>
 8013e74:	4630      	mov	r0, r6
 8013e76:	f007 feb9 	bl	801bbec <Memory_Free>
 8013e7a:	f007 fee3 	bl	801bc44 <Memory_GetFreeSize>
 8013e7e:	4601      	mov	r1, r0
 8013e80:	4801      	ldr	r0, [pc, #4]	@ (8013e88 <example_usage+0xd8>)
 8013e82:	f7fe facf 	bl	8012424 <printf>
 8013e86:	e7cb      	b.n	8013e20 <example_usage+0x70>
 8013e88:	0801d0a0 	.word	0x0801d0a0
 8013e8c:	000186a0 	.word	0x000186a0
 8013e90:	0801d0cc 	.word	0x0801d0cc
 8013e94:	0801d0b4 	.word	0x0801d0b4

08013e98 <xsh_test>:
 8013e98:	b508      	push	{r3, lr}
 8013e9a:	f007 fe59 	bl	801bb50 <Memory_Init>
 8013e9e:	f7ff ff87 	bl	8013db0 <example_usage>
 8013ea2:	4806      	ldr	r0, [pc, #24]	@ (8013ebc <xsh_test+0x24>)
 8013ea4:	f7fe fabe 	bl	8012424 <printf>
 8013ea8:	f007 fcfb 	bl	801b8a2 <riscv_emu>
 8013eac:	e001      	b.n	8013eb2 <xsh_test+0x1a>
 8013eae:	f007 fcf8 	bl	801b8a2 <riscv_emu>
 8013eb2:	2801      	cmp	r0, #1
 8013eb4:	d0fb      	beq.n	8013eae <xsh_test+0x16>
 8013eb6:	2000      	movs	r0, #0
 8013eb8:	bd08      	pop	{r3, pc}
 8013eba:	bf00      	nop
 8013ebc:	0801d0f0 	.word	0x0801d0f0

08013ec0 <xsh_touch>:
 8013ec0:	b538      	push	{r3, r4, r5, lr}
 8013ec2:	6848      	ldr	r0, [r1, #4]
 8013ec4:	f7ff f82c 	bl	8012f20 <full_path>
 8013ec8:	b1b8      	cbz	r0, 8013efa <xsh_touch+0x3a>
 8013eca:	4604      	mov	r4, r0
 8013ecc:	490c      	ldr	r1, [pc, #48]	@ (8013f00 <xsh_touch+0x40>)
 8013ece:	f004 ffe9 	bl	8018ea4 <fl_fopen>
 8013ed2:	4605      	mov	r5, r0
 8013ed4:	b938      	cbnz	r0, 8013ee6 <xsh_touch+0x26>
 8013ed6:	490b      	ldr	r1, [pc, #44]	@ (8013f04 <xsh_touch+0x44>)
 8013ed8:	4620      	mov	r0, r4
 8013eda:	f004 ffe3 	bl	8018ea4 <fl_fopen>
 8013ede:	f005 f8fd 	bl	80190dc <fl_fclose>
 8013ee2:	2000      	movs	r0, #0
 8013ee4:	bd38      	pop	{r3, r4, r5, pc}
 8013ee6:	4621      	mov	r1, r4
 8013ee8:	4807      	ldr	r0, [pc, #28]	@ (8013f08 <xsh_touch+0x48>)
 8013eea:	f7fe fa9b 	bl	8012424 <printf>
 8013eee:	4628      	mov	r0, r5
 8013ef0:	f005 f8f4 	bl	80190dc <fl_fclose>
 8013ef4:	f04f 30ff 	mov.w	r0, #4294967295	@ 0xffffffff
 8013ef8:	e7f4      	b.n	8013ee4 <xsh_touch+0x24>
 8013efa:	f04f 30ff 	mov.w	r0, #4294967295	@ 0xffffffff
 8013efe:	e7f1      	b.n	8013ee4 <xsh_touch+0x24>
 8013f00:	0801c9d4 	.word	0x0801c9d4
 8013f04:	0801ca04 	.word	0x0801ca04
 8013f08:	0801d108 	.word	0x0801d108

08013f0c <namlen>:
 8013f0c:	2300      	movs	r3, #0
 8013f0e:	e000      	b.n	8013f12 <namlen+0x6>
 8013f10:	3301      	adds	r3, #1
 8013f12:	428b      	cmp	r3, r1
 8013f14:	da05      	bge.n	8013f22 <namlen+0x16>
 8013f16:	f810 2b01 	ldrb.w	r2, [r0], #1
 8013f1a:	2a00      	cmp	r2, #0
 8013f1c:	d1f8      	bne.n	8013f10 <namlen+0x4>
 8013f1e:	1c58      	adds	r0, r3, #1
 8013f20:	4770      	bx	lr
 8013f22:	f04f 30ff 	mov.w	r0, #4294967295	@ 0xffffffff
 8013f26:	4770      	bx	lr

08013f28 <mount>:
 8013f28:	e92d 41f0 	stmdb	sp!, {r4, r5, r6, r7, r8, lr}
 8013f2c:	4604      	mov	r4, r0
 8013f2e:	460e      	mov	r6, r1
 8013f30:	4617      	mov	r7, r2
 8013f32:	f003 f94b 	bl	80171cc <disable>
 8013f36:	4680      	mov	r8, r0
 8013f38:	2110      	movs	r1, #16
 8013f3a:	4620      	mov	r0, r4
 8013f3c:	f7ff ffe6 	bl	8013f0c <namlen>
 8013f40:	4605      	mov	r5, r0
 8013f42:	2101      	movs	r1, #1
 8013f44:	4630      	mov	r0, r6
 8013f46:	f7ff ffe1 	bl	8013f0c <namlen>
 8013f4a:	f1b5 3fff 	cmp.w	r5, #4294967295	@ 0xffffffff
 8013f4e:	d00a      	beq.n	8013f66 <mount+0x3e>
 8013f50:	f1b0 3fff 	cmp.w	r0, #4294967295	@ 0xffffffff
 8013f54:	d007      	beq.n	8013f66 <mount+0x3e>
 8013f56:	2f04      	cmp	r7, #4
 8013f58:	d805      	bhi.n	8013f66 <mount+0x3e>
 8013f5a:	4b1b      	ldr	r3, [pc, #108]	@ (8013fc8 <mount+0xa0>)
 8013f5c:	6819      	ldr	r1, [r3, #0]
 8013f5e:	2904      	cmp	r1, #4
 8013f60:	dc01      	bgt.n	8013f66 <mount+0x3e>
 8013f62:	2300      	movs	r3, #0
 8013f64:	e012      	b.n	8013f8c <mount+0x64>
 8013f66:	4640      	mov	r0, r8
 8013f68:	f003 f934 	bl	80171d4 <restore>
 8013f6c:	f04f 30ff 	mov.w	r0, #4294967295	@ 0xffffffff
 8013f70:	e8bd 81f0 	ldmia.w	sp!, {r4, r5, r6, r7, r8, pc}
 8013f74:	46a4      	mov	ip, r4
 8013f76:	f81c eb01 	ldrb.w	lr, [ip], #1
 8013f7a:	eb01 0241 	add.w	r2, r1, r1, lsl #1
 8013f7e:	4c13      	ldr	r4, [pc, #76]	@ (8013fcc <mount+0xa4>)
 8013f80:	eb04 04c2 	add.w	r4, r4, r2, lsl #3
 8013f84:	f804 e003 	strb.w	lr, [r4, r3]
 8013f88:	3301      	adds	r3, #1
 8013f8a:	4664      	mov	r4, ip
 8013f8c:	42ab      	cmp	r3, r5
 8013f8e:	dbf1      	blt.n	8013f74 <mount+0x4c>
 8013f90:	2300      	movs	r3, #0
 8013f92:	4283      	cmp	r3, r0
 8013f94:	db0d      	blt.n	8013fb2 <mount+0x8a>
 8013f96:	eb01 0241 	add.w	r2, r1, r1, lsl #1
 8013f9a:	4b0c      	ldr	r3, [pc, #48]	@ (8013fcc <mount+0xa4>)
 8013f9c:	eb03 03c2 	add.w	r3, r3, r2, lsl #3
 8013fa0:	615f      	str	r7, [r3, #20]
 8013fa2:	3101      	adds	r1, #1
 8013fa4:	4b08      	ldr	r3, [pc, #32]	@ (8013fc8 <mount+0xa0>)
 8013fa6:	6019      	str	r1, [r3, #0]
 8013fa8:	4640      	mov	r0, r8
 8013faa:	f003 f913 	bl	80171d4 <restore>
 8013fae:	2001      	movs	r0, #1
 8013fb0:	e7de      	b.n	8013f70 <mount+0x48>
 8013fb2:	f816 5b01 	ldrb.w	r5, [r6], #1
 8013fb6:	eb01 0441 	add.w	r4, r1, r1, lsl #1
 8013fba:	4a04      	ldr	r2, [pc, #16]	@ (8013fcc <mount+0xa4>)
 8013fbc:	eb02 02c4 	add.w	r2, r2, r4, lsl #3
 8013fc0:	441a      	add	r2, r3
 8013fc2:	7415      	strb	r5, [r2, #16]
 8013fc4:	3301      	adds	r3, #1
 8013fc6:	e7e4      	b.n	8013f92 <mount+0x6a>
 8013fc8:	200004a4 	.word	0x200004a4
 8013fcc:	200004a8 	.word	0x200004a8

08013fd0 <naminit>:
 8013fd0:	b530      	push	{r4, r5, lr}
 8013fd2:	b087      	sub	sp, #28
 8013fd4:	4b2d      	ldr	r3, [pc, #180]	@ (801408c <naminit+0xbc>)
 8013fd6:	e893 0003 	ldmia.w	r3, {r0, r1}
 8013fda:	9000      	str	r0, [sp, #0]
 8013fdc:	f8ad 1004 	strh.w	r1, [sp, #4]
 8013fe0:	2500      	movs	r5, #0
 8013fe2:	4b2b      	ldr	r3, [pc, #172]	@ (8014090 <naminit+0xc0>)
 8013fe4:	601d      	str	r5, [r3, #0]
 8013fe6:	e036      	b.n	8014056 <naminit+0x86>
 8013fe8:	3401      	adds	r4, #1
 8013fea:	460b      	mov	r3, r1
 8013fec:	4619      	mov	r1, r3
 8013fee:	f812 0b01 	ldrb.w	r0, [r2], #1
 8013ff2:	f801 0b01 	strb.w	r0, [r1], #1
 8013ff6:	2800      	cmp	r0, #0
 8013ff8:	d1f6      	bne.n	8013fe8 <naminit+0x18>
 8013ffa:	4a26      	ldr	r2, [pc, #152]	@ (8014094 <naminit+0xc4>)
 8013ffc:	214c      	movs	r1, #76	@ 0x4c
 8013ffe:	fb01 2205 	mla	r2, r1, r5, r2
 8014002:	6892      	ldr	r2, [r2, #8]
 8014004:	e002      	b.n	801400c <naminit+0x3c>
 8014006:	f803 1b01 	strb.w	r1, [r3], #1
 801400a:	b161      	cbz	r1, 8014026 <naminit+0x56>
 801400c:	3401      	adds	r4, #1
 801400e:	2c0f      	cmp	r4, #15
 8014010:	dc09      	bgt.n	8014026 <naminit+0x56>
 8014012:	f812 1b01 	ldrb.w	r1, [r2], #1
 8014016:	f1a1 0041 	sub.w	r0, r1, #65	@ 0x41
 801401a:	b2c0      	uxtb	r0, r0
 801401c:	2819      	cmp	r0, #25
 801401e:	d8f2      	bhi.n	8014006 <naminit+0x36>
 8014020:	3120      	adds	r1, #32
 8014022:	b2c9      	uxtb	r1, r1
 8014024:	e7ef      	b.n	8014006 <naminit+0x36>
 8014026:	234c      	movs	r3, #76	@ 0x4c
 8014028:	fb05 f303 	mul.w	r3, r5, r3
 801402c:	4a19      	ldr	r2, [pc, #100]	@ (8014094 <naminit+0xc4>)
 801402e:	58d2      	ldr	r2, [r2, r3]
 8014030:	a902      	add	r1, sp, #8
 8014032:	4819      	ldr	r0, [pc, #100]	@ (8014098 <naminit+0xc8>)
 8014034:	f002 f87c 	bl	8016130 <kprintf>
 8014038:	2c10      	cmp	r4, #16
 801403a:	dc12      	bgt.n	8014062 <naminit+0x92>
 801403c:	234c      	movs	r3, #76	@ 0x4c
 801403e:	fb05 f303 	mul.w	r3, r5, r3
 8014042:	4a14      	ldr	r2, [pc, #80]	@ (8014094 <naminit+0xc4>)
 8014044:	58d2      	ldr	r2, [r2, r3]
 8014046:	4915      	ldr	r1, [pc, #84]	@ (801409c <naminit+0xcc>)
 8014048:	a802      	add	r0, sp, #8
 801404a:	f7ff ff6d 	bl	8013f28 <mount>
 801404e:	f1b0 3fff 	cmp.w	r0, #4294967295	@ 0xffffffff
 8014052:	d00f      	beq.n	8014074 <naminit+0xa4>
 8014054:	3501      	adds	r5, #1
 8014056:	2d04      	cmp	r5, #4
 8014058:	dc15      	bgt.n	8014086 <naminit+0xb6>
 801405a:	2400      	movs	r4, #0
 801405c:	466a      	mov	r2, sp
 801405e:	ab02      	add	r3, sp, #8
 8014060:	e7c4      	b.n	8013fec <naminit+0x1c>
 8014062:	4b0c      	ldr	r3, [pc, #48]	@ (8014094 <naminit+0xc4>)
 8014064:	224c      	movs	r2, #76	@ 0x4c
 8014066:	fb02 3305 	mla	r3, r2, r5, r3
 801406a:	6899      	ldr	r1, [r3, #8]
 801406c:	480c      	ldr	r0, [pc, #48]	@ (80140a0 <naminit+0xd0>)
 801406e:	f002 f85f 	bl	8016130 <kprintf>
 8014072:	e7ef      	b.n	8014054 <naminit+0x84>
 8014074:	4b07      	ldr	r3, [pc, #28]	@ (8014094 <naminit+0xc4>)
 8014076:	224c      	movs	r2, #76	@ 0x4c
 8014078:	fb02 3305 	mla	r3, r2, r5, r3
 801407c:	6899      	ldr	r1, [r3, #8]
 801407e:	4809      	ldr	r0, [pc, #36]	@ (80140a4 <naminit+0xd4>)
 8014080:	f002 f856 	bl	8016130 <kprintf>
 8014084:	e7e6      	b.n	8014054 <naminit+0x84>
 8014086:	2001      	movs	r0, #1
 8014088:	b007      	add	sp, #28
 801408a:	bd30      	pop	{r4, r5, pc}
 801408c:	0801d174 	.word	0x0801d174
 8014090:	200004a4 	.word	0x200004a4
 8014094:	2000008c 	.word	0x2000008c
 8014098:	0801d118 	.word	0x0801d118
 801409c:	0801c8dc 	.word	0x0801c8dc
 80140a0:	0801d128 	.word	0x0801d128
 80140a4:	0801d150 	.word	0x0801d150

080140a8 <namrepl>:
 80140a8:	e92d 43f8 	stmdb	sp!, {r3, r4, r5, r6, r7, r8, r9, lr}
 80140ac:	460d      	mov	r5, r1
 80140ae:	2600      	movs	r6, #0
 80140b0:	4b27      	ldr	r3, [pc, #156]	@ (8014150 <namrepl+0xa8>)
 80140b2:	681b      	ldr	r3, [r3, #0]
 80140b4:	42b3      	cmp	r3, r6
 80140b6:	dd47      	ble.n	8014148 <namrepl+0xa0>
 80140b8:	eb06 0246 	add.w	r2, r6, r6, lsl #1
 80140bc:	4b25      	ldr	r3, [pc, #148]	@ (8014154 <namrepl+0xac>)
 80140be:	eb03 03c2 	add.w	r3, r3, r2, lsl #3
 80140c2:	4604      	mov	r4, r0
 80140c4:	f04f 0800 	mov.w	r8, #0
 80140c8:	781a      	ldrb	r2, [r3, #0]
 80140ca:	b142      	cbz	r2, 80140de <namrepl+0x36>
 80140cc:	f894 c000 	ldrb.w	ip, [r4]
 80140d0:	4594      	cmp	ip, r2
 80140d2:	d104      	bne.n	80140de <namrepl+0x36>
 80140d4:	3301      	adds	r3, #1
 80140d6:	3401      	adds	r4, #1
 80140d8:	f108 0801 	add.w	r8, r8, #1
 80140dc:	e7f4      	b.n	80140c8 <namrepl+0x20>
 80140de:	b10a      	cbz	r2, 80140e4 <namrepl+0x3c>
 80140e0:	3601      	adds	r6, #1
 80140e2:	e7e5      	b.n	80140b0 <namrepl+0x8>
 80140e4:	2110      	movs	r1, #16
 80140e6:	f7ff ff11 	bl	8013f0c <namlen>
 80140ea:	4681      	mov	r9, r0
 80140ec:	eb06 0046 	add.w	r0, r6, r6, lsl #1
 80140f0:	00c0      	lsls	r0, r0, #3
 80140f2:	3010      	adds	r0, #16
 80140f4:	4f17      	ldr	r7, [pc, #92]	@ (8014154 <namrepl+0xac>)
 80140f6:	4407      	add	r7, r0
 80140f8:	2110      	movs	r1, #16
 80140fa:	4638      	mov	r0, r7
 80140fc:	f7ff ff06 	bl	8013f0c <namlen>
 8014100:	1e42      	subs	r2, r0, #1
 8014102:	fa5f f389 	uxtb.w	r3, r9
 8014106:	eba3 0308 	sub.w	r3, r3, r8
 801410a:	18d1      	adds	r1, r2, r3
 801410c:	2910      	cmp	r1, #16
 801410e:	dd09      	ble.n	8014124 <namrepl+0x7c>
 8014110:	f04f 30ff 	mov.w	r0, #4294967295	@ 0xffffffff
 8014114:	e016      	b.n	8014144 <namrepl+0x9c>
 8014116:	4638      	mov	r0, r7
 8014118:	f810 1b01 	ldrb.w	r1, [r0], #1
 801411c:	f805 1b01 	strb.w	r1, [r5], #1
 8014120:	3a01      	subs	r2, #1
 8014122:	4607      	mov	r7, r0
 8014124:	2a00      	cmp	r2, #0
 8014126:	dcf6      	bgt.n	8014116 <namrepl+0x6e>
 8014128:	e004      	b.n	8014134 <namrepl+0x8c>
 801412a:	f814 2b01 	ldrb.w	r2, [r4], #1
 801412e:	f805 2b01 	strb.w	r2, [r5], #1
 8014132:	3b01      	subs	r3, #1
 8014134:	2b00      	cmp	r3, #0
 8014136:	dcf8      	bgt.n	801412a <namrepl+0x82>
 8014138:	eb06 0646 	add.w	r6, r6, r6, lsl #1
 801413c:	4b05      	ldr	r3, [pc, #20]	@ (8014154 <namrepl+0xac>)
 801413e:	eb03 03c6 	add.w	r3, r3, r6, lsl #3
 8014142:	6958      	ldr	r0, [r3, #20]
 8014144:	e8bd 83f8 	ldmia.w	sp!, {r3, r4, r5, r6, r7, r8, r9, pc}
 8014148:	f04f 30ff 	mov.w	r0, #4294967295	@ 0xffffffff
 801414c:	e7fa      	b.n	8014144 <namrepl+0x9c>
 801414e:	bf00      	nop
 8014150:	200004a4 	.word	0x200004a4
 8014154:	200004a8 	.word	0x200004a8

08014158 <namcpy>:
 8014158:	2300      	movs	r3, #0
 801415a:	4293      	cmp	r3, r2
 801415c:	da0f      	bge.n	801417e <namcpy+0x26>
 801415e:	b410      	push	{r4}
 8014160:	f811 4b01 	ldrb.w	r4, [r1], #1
 8014164:	f800 4b01 	strb.w	r4, [r0], #1
 8014168:	b13c      	cbz	r4, 801417a <namcpy+0x22>
 801416a:	3301      	adds	r3, #1
 801416c:	4293      	cmp	r3, r2
 801416e:	dbf7      	blt.n	8014160 <namcpy+0x8>
 8014170:	f04f 30ff 	mov.w	r0, #4294967295	@ 0xffffffff
 8014174:	f85d 4b04 	ldr.w	r4, [sp], #4
 8014178:	4770      	bx	lr
 801417a:	2001      	movs	r0, #1
 801417c:	e7fa      	b.n	8014174 <namcpy+0x1c>
 801417e:	f04f 30ff 	mov.w	r0, #4294967295	@ 0xffffffff
 8014182:	4770      	bx	lr

08014184 <nammap>:
 8014184:	b570      	push	{r4, r5, r6, lr}
 8014186:	b084      	sub	sp, #16
 8014188:	460d      	mov	r5, r1
 801418a:	4616      	mov	r6, r2
 801418c:	2210      	movs	r2, #16
 801418e:	4601      	mov	r1, r0
 8014190:	4668      	mov	r0, sp
 8014192:	f7ff ffe1 	bl	8014158 <namcpy>
 8014196:	f1b0 3fff 	cmp.w	r0, #4294967295	@ 0xffffffff
 801419a:	d013      	beq.n	80141c4 <nammap+0x40>
 801419c:	2400      	movs	r4, #0
 801419e:	4b0a      	ldr	r3, [pc, #40]	@ (80141c8 <nammap+0x44>)
 80141a0:	681b      	ldr	r3, [r3, #0]
 80141a2:	42a3      	cmp	r3, r4
 80141a4:	dd0c      	ble.n	80141c0 <nammap+0x3c>
 80141a6:	4629      	mov	r1, r5
 80141a8:	4668      	mov	r0, sp
 80141aa:	f7ff ff7d 	bl	80140a8 <namrepl>
 80141ae:	42b0      	cmp	r0, r6
 80141b0:	d108      	bne.n	80141c4 <nammap+0x40>
 80141b2:	2210      	movs	r2, #16
 80141b4:	4629      	mov	r1, r5
 80141b6:	4668      	mov	r0, sp
 80141b8:	f7ff ffce 	bl	8014158 <namcpy>
 80141bc:	3401      	adds	r4, #1
 80141be:	e7ee      	b.n	801419e <nammap+0x1a>
 80141c0:	f04f 30ff 	mov.w	r0, #4294967295	@ 0xffffffff
 80141c4:	b004      	add	sp, #16
 80141c6:	bd70      	pop	{r4, r5, r6, pc}
 80141c8:	200004a4 	.word	0x200004a4

080141cc <namopen>:
 80141cc:	b510      	push	{r4, lr}
 80141ce:	b084      	sub	sp, #16
 80141d0:	460b      	mov	r3, r1
 80141d2:	4614      	mov	r4, r2
 80141d4:	6802      	ldr	r2, [r0, #0]
 80141d6:	4669      	mov	r1, sp
 80141d8:	4618      	mov	r0, r3
 80141da:	f7ff ffd3 	bl	8014184 <nammap>
 80141de:	f1b0 3fff 	cmp.w	r0, #4294967295	@ 0xffffffff
 80141e2:	d003      	beq.n	80141ec <namopen+0x20>
 80141e4:	4622      	mov	r2, r4
 80141e6:	4669      	mov	r1, sp
 80141e8:	f001 fcbb 	bl	8015b62 <open>
 80141ec:	b004      	add	sp, #16
 80141ee:	bd10      	pop	{r4, pc}

080141f0 <ttycontrol>:
 80141f0:	b538      	push	{r3, r4, r5, lr}
 80141f2:	6843      	ldr	r3, [r0, #4]
 80141f4:	3903      	subs	r1, #3
 80141f6:	2907      	cmp	r1, #7
 80141f8:	d847      	bhi.n	801428a <ttycontrol+0x9a>
 80141fa:	e8df f001 	tbb	[pc, r1]
 80141fe:	1204      	.short	0x1204
 8014200:	2d46241b 	.word	0x2d46241b
 8014204:	3d35      	.short	0x3d35
 8014206:	4d22      	ldr	r5, [pc, #136]	@ (8014290 <ttycontrol+0xa0>)
 8014208:	229c      	movs	r2, #156	@ 0x9c
 801420a:	fb02 5503 	mla	r5, r2, r3, r5
 801420e:	6aa8      	ldr	r0, [r5, #40]	@ 0x28
 8014210:	f000 ffc7 	bl	80151a2 <wait>
 8014214:	686b      	ldr	r3, [r5, #4]
 8014216:	781c      	ldrb	r4, [r3, #0]
 8014218:	6aa8      	ldr	r0, [r5, #40]	@ 0x28
 801421a:	f002 fc71 	bl	8016b00 <signal>
 801421e:	4620      	mov	r0, r4
 8014220:	bd38      	pop	{r3, r4, r5, pc}
 8014222:	4a1b      	ldr	r2, [pc, #108]	@ (8014290 <ttycontrol+0xa0>)
 8014224:	219c      	movs	r1, #156	@ 0x9c
 8014226:	fb01 2303 	mla	r3, r1, r3, r2
 801422a:	2252      	movs	r2, #82	@ 0x52
 801422c:	f883 2080 	strb.w	r2, [r3, #128]	@ 0x80
 8014230:	2001      	movs	r0, #1
 8014232:	e7f5      	b.n	8014220 <ttycontrol+0x30>
 8014234:	4a16      	ldr	r2, [pc, #88]	@ (8014290 <ttycontrol+0xa0>)
 8014236:	219c      	movs	r1, #156	@ 0x9c
 8014238:	fb01 2303 	mla	r3, r1, r3, r2
 801423c:	2243      	movs	r2, #67	@ 0x43
 801423e:	f883 2080 	strb.w	r2, [r3, #128]	@ 0x80
 8014242:	2001      	movs	r0, #1
 8014244:	e7ec      	b.n	8014220 <ttycontrol+0x30>
 8014246:	4a12      	ldr	r2, [pc, #72]	@ (8014290 <ttycontrol+0xa0>)
 8014248:	219c      	movs	r1, #156	@ 0x9c
 801424a:	fb01 2303 	mla	r3, r1, r3, r2
 801424e:	224b      	movs	r2, #75	@ 0x4b
 8014250:	f883 2080 	strb.w	r2, [r3, #128]	@ 0x80
 8014254:	2001      	movs	r0, #1
 8014256:	e7e3      	b.n	8014220 <ttycontrol+0x30>
 8014258:	4a0d      	ldr	r2, [pc, #52]	@ (8014290 <ttycontrol+0xa0>)
 801425a:	219c      	movs	r1, #156	@ 0x9c
 801425c:	fb01 2303 	mla	r3, r1, r3, r2
 8014260:	6a98      	ldr	r0, [r3, #40]	@ 0x28
 8014262:	f002 fbb5 	bl	80169d0 <semcount>
 8014266:	e7db      	b.n	8014220 <ttycontrol+0x30>
 8014268:	4a09      	ldr	r2, [pc, #36]	@ (8014290 <ttycontrol+0xa0>)
 801426a:	219c      	movs	r1, #156	@ 0x9c
 801426c:	fb01 2303 	mla	r3, r1, r3, r2
 8014270:	2001      	movs	r0, #1
 8014272:	f883 0081 	strb.w	r0, [r3, #129]	@ 0x81
 8014276:	e7d3      	b.n	8014220 <ttycontrol+0x30>
 8014278:	4a05      	ldr	r2, [pc, #20]	@ (8014290 <ttycontrol+0xa0>)
 801427a:	219c      	movs	r1, #156	@ 0x9c
 801427c:	fb01 2303 	mla	r3, r1, r3, r2
 8014280:	2200      	movs	r2, #0
 8014282:	f883 2081 	strb.w	r2, [r3, #129]	@ 0x81
 8014286:	2001      	movs	r0, #1
 8014288:	e7ca      	b.n	8014220 <ttycontrol+0x30>
 801428a:	f04f 30ff 	mov.w	r0, #4294967295	@ 0xffffffff
 801428e:	e7c7      	b.n	8014220 <ttycontrol+0x30>
 8014290:	20000520 	.word	0x20000520

08014294 <ttygetc>:
 8014294:	b570      	push	{r4, r5, r6, lr}
 8014296:	6846      	ldr	r6, [r0, #4]
 8014298:	4d18      	ldr	r5, [pc, #96]	@ (80142fc <ttygetc+0x68>)
 801429a:	249c      	movs	r4, #156	@ 0x9c
 801429c:	fb06 f404 	mul.w	r4, r6, r4
 80142a0:	192b      	adds	r3, r5, r4
 80142a2:	6a98      	ldr	r0, [r3, #40]	@ 0x28
 80142a4:	f000 ff7d 	bl	80151a2 <wait>
 80142a8:	592a      	ldr	r2, [r5, r4]
 80142aa:	1c53      	adds	r3, r2, #1
 80142ac:	512b      	str	r3, [r5, r4]
 80142ae:	7810      	ldrb	r0, [r2, #0]
 80142b0:	3428      	adds	r4, #40	@ 0x28
 80142b2:	442c      	add	r4, r5
 80142b4:	42a3      	cmp	r3, r4
 80142b6:	d306      	bcc.n	80142c6 <ttygetc+0x32>
 80142b8:	239c      	movs	r3, #156	@ 0x9c
 80142ba:	fb06 f303 	mul.w	r3, r6, r3
 80142be:	f103 0208 	add.w	r2, r3, #8
 80142c2:	442a      	add	r2, r5
 80142c4:	50ea      	str	r2, [r5, r3]
 80142c6:	4b0d      	ldr	r3, [pc, #52]	@ (80142fc <ttygetc+0x68>)
 80142c8:	229c      	movs	r2, #156	@ 0x9c
 80142ca:	fb02 3306 	mla	r3, r2, r6, r3
 80142ce:	f893 3080 	ldrb.w	r3, [r3, #128]	@ 0x80
 80142d2:	2b43      	cmp	r3, #67	@ 0x43
 80142d4:	d000      	beq.n	80142d8 <ttygetc+0x44>
 80142d6:	bd70      	pop	{r4, r5, r6, pc}
 80142d8:	4b08      	ldr	r3, [pc, #32]	@ (80142fc <ttygetc+0x68>)
 80142da:	fb02 3306 	mla	r3, r2, r6, r3
 80142de:	f893 3089 	ldrb.w	r3, [r3, #137]	@ 0x89
 80142e2:	2b00      	cmp	r3, #0
 80142e4:	d0f7      	beq.n	80142d6 <ttygetc+0x42>
 80142e6:	4b05      	ldr	r3, [pc, #20]	@ (80142fc <ttygetc+0x68>)
 80142e8:	fb02 3306 	mla	r3, r2, r6, r3
 80142ec:	f893 308a 	ldrb.w	r3, [r3, #138]	@ 0x8a
 80142f0:	4283      	cmp	r3, r0
 80142f2:	d1f0      	bne.n	80142d6 <ttygetc+0x42>
 80142f4:	f06f 0001 	mvn.w	r0, #1
 80142f8:	e7ed      	b.n	80142d6 <ttygetc+0x42>
 80142fa:	bf00      	nop
 80142fc:	20000520 	.word	0x20000520

08014300 <eputc>:
 8014300:	b508      	push	{r3, lr}
 8014302:	f001 ff07 	bl	8016114 <kputc>
 8014306:	bd08      	pop	{r3, pc}

08014308 <erase1>:
 8014308:	b510      	push	{r4, lr}
 801430a:	4604      	mov	r4, r0
 801430c:	6843      	ldr	r3, [r0, #4]
 801430e:	1e5a      	subs	r2, r3, #1
 8014310:	6042      	str	r2, [r0, #4]
 8014312:	f100 0108 	add.w	r1, r0, #8
 8014316:	428a      	cmp	r2, r1
 8014318:	d201      	bcs.n	801431e <erase1+0x16>
 801431a:	331f      	adds	r3, #31
 801431c:	6043      	str	r3, [r0, #4]
 801431e:	6863      	ldr	r3, [r4, #4]
 8014320:	781a      	ldrb	r2, [r3, #0]
 8014322:	f894 3081 	ldrb.w	r3, [r4, #129]	@ 0x81
 8014326:	b16b      	cbz	r3, 8014344 <erase1+0x3c>
 8014328:	2a1f      	cmp	r2, #31
 801432a:	d901      	bls.n	8014330 <erase1+0x28>
 801432c:	2a7f      	cmp	r2, #127	@ 0x7f
 801432e:	d124      	bne.n	801437a <erase1+0x72>
 8014330:	f894 3083 	ldrb.w	r3, [r4, #131]	@ 0x83
 8014334:	b93b      	cbnz	r3, 8014346 <erase1+0x3e>
 8014336:	4621      	mov	r1, r4
 8014338:	2008      	movs	r0, #8
 801433a:	f7ff ffe1 	bl	8014300 <eputc>
 801433e:	f894 3082 	ldrb.w	r3, [r4, #130]	@ 0x82
 8014342:	b98b      	cbnz	r3, 8014368 <erase1+0x60>
 8014344:	bd10      	pop	{r4, pc}
 8014346:	4621      	mov	r1, r4
 8014348:	2008      	movs	r0, #8
 801434a:	f7ff ffd9 	bl	8014300 <eputc>
 801434e:	f894 3082 	ldrb.w	r3, [r4, #130]	@ 0x82
 8014352:	2b00      	cmp	r3, #0
 8014354:	d0ef      	beq.n	8014336 <erase1+0x2e>
 8014356:	4621      	mov	r1, r4
 8014358:	2020      	movs	r0, #32
 801435a:	f7ff ffd1 	bl	8014300 <eputc>
 801435e:	4621      	mov	r1, r4
 8014360:	2008      	movs	r0, #8
 8014362:	f7ff ffcd 	bl	8014300 <eputc>
 8014366:	e7e6      	b.n	8014336 <erase1+0x2e>
 8014368:	4621      	mov	r1, r4
 801436a:	2020      	movs	r0, #32
 801436c:	f7ff ffc8 	bl	8014300 <eputc>
 8014370:	4621      	mov	r1, r4
 8014372:	2008      	movs	r0, #8
 8014374:	f7ff ffc4 	bl	8014300 <eputc>
 8014378:	e7e4      	b.n	8014344 <erase1+0x3c>
 801437a:	4621      	mov	r1, r4
 801437c:	2008      	movs	r0, #8
 801437e:	f7ff ffbf 	bl	8014300 <eputc>
 8014382:	f894 3082 	ldrb.w	r3, [r4, #130]	@ 0x82
 8014386:	2b00      	cmp	r3, #0
 8014388:	d0dc      	beq.n	8014344 <erase1+0x3c>
 801438a:	4621      	mov	r1, r4
 801438c:	2020      	movs	r0, #32
 801438e:	f7ff ffb7 	bl	8014300 <eputc>
 8014392:	4621      	mov	r1, r4
 8014394:	2008      	movs	r0, #8
 8014396:	f7ff ffb3 	bl	8014300 <eputc>
 801439a:	e7d3      	b.n	8014344 <erase1+0x3c>

0801439c <echoch>:
 801439c:	b538      	push	{r3, r4, r5, lr}
 801439e:	4604      	mov	r4, r0
 80143a0:	460d      	mov	r5, r1
 80143a2:	280a      	cmp	r0, #10
 80143a4:	d00d      	beq.n	80143c2 <echoch+0x26>
 80143a6:	280d      	cmp	r0, #13
 80143a8:	d00b      	beq.n	80143c2 <echoch+0x26>
 80143aa:	2c1f      	cmp	r4, #31
 80143ac:	d901      	bls.n	80143b2 <echoch+0x16>
 80143ae:	2c7f      	cmp	r4, #127	@ 0x7f
 80143b0:	d102      	bne.n	80143b8 <echoch+0x1c>
 80143b2:	f895 3083 	ldrb.w	r3, [r5, #131]	@ 0x83
 80143b6:	b98b      	cbnz	r3, 80143dc <echoch+0x40>
 80143b8:	4629      	mov	r1, r5
 80143ba:	4620      	mov	r0, r4
 80143bc:	f7ff ffa0 	bl	8014300 <eputc>
 80143c0:	bd38      	pop	{r3, r4, r5, pc}
 80143c2:	f895 3084 	ldrb.w	r3, [r5, #132]	@ 0x84
 80143c6:	2b00      	cmp	r3, #0
 80143c8:	d0ef      	beq.n	80143aa <echoch+0xe>
 80143ca:	4629      	mov	r1, r5
 80143cc:	200d      	movs	r0, #13
 80143ce:	f7ff ff97 	bl	8014300 <eputc>
 80143d2:	4629      	mov	r1, r5
 80143d4:	200a      	movs	r0, #10
 80143d6:	f7ff ff93 	bl	8014300 <eputc>
 80143da:	e7f1      	b.n	80143c0 <echoch+0x24>
 80143dc:	4629      	mov	r1, r5
 80143de:	205e      	movs	r0, #94	@ 0x5e
 80143e0:	f7ff ff8e 	bl	8014300 <eputc>
 80143e4:	f104 0040 	add.w	r0, r4, #64	@ 0x40
 80143e8:	4629      	mov	r1, r5
 80143ea:	b2c0      	uxtb	r0, r0
 80143ec:	f7ff ff88 	bl	8014300 <eputc>
 80143f0:	e7e6      	b.n	80143c0 <echoch+0x24>

080143f2 <ttyhandle_in>:
 80143f2:	b538      	push	{r3, r4, r5, lr}
 80143f4:	4604      	mov	r4, r0
 80143f6:	460d      	mov	r5, r1
 80143f8:	6a80      	ldr	r0, [r0, #40]	@ 0x28
 80143fa:	f002 fae9 	bl	80169d0 <semcount>
 80143fe:	2800      	cmp	r0, #0
 8014400:	db46      	blt.n	8014490 <ttyhandle_in+0x9e>
 8014402:	f894 3080 	ldrb.w	r3, [r4, #128]	@ 0x80
 8014406:	2b52      	cmp	r3, #82	@ 0x52
 8014408:	d044      	beq.n	8014494 <ttyhandle_in+0xa2>
 801440a:	2d0d      	cmp	r5, #13
 801440c:	d054      	beq.n	80144b8 <ttyhandle_in+0xc6>
 801440e:	2200      	movs	r2, #0
 8014410:	f884 2095 	strb.w	r2, [r4, #149]	@ 0x95
 8014414:	2b4b      	cmp	r3, #75	@ 0x4b
 8014416:	d055      	beq.n	80144c4 <ttyhandle_in+0xd2>
 8014418:	f894 308c 	ldrb.w	r3, [r4, #140]	@ 0x8c
 801441c:	42ab      	cmp	r3, r5
 801441e:	d071      	beq.n	8014504 <ttyhandle_in+0x112>
 8014420:	f894 3087 	ldrb.w	r3, [r4, #135]	@ 0x87
 8014424:	42ab      	cmp	r3, r5
 8014426:	f000 8088 	beq.w	801453a <ttyhandle_in+0x148>
 801442a:	f894 3088 	ldrb.w	r3, [r4, #136]	@ 0x88
 801442e:	42ab      	cmp	r3, r5
 8014430:	f000 8083 	beq.w	801453a <ttyhandle_in+0x148>
 8014434:	2d0a      	cmp	r5, #10
 8014436:	f000 8090 	beq.w	801455a <ttyhandle_in+0x168>
 801443a:	2d0d      	cmp	r5, #13
 801443c:	f000 808d 	beq.w	801455a <ttyhandle_in+0x168>
 8014440:	6aa0      	ldr	r0, [r4, #40]	@ 0x28
 8014442:	f002 fac5 	bl	80169d0 <semcount>
 8014446:	2800      	cmp	r0, #0
 8014448:	f2c0 80a5 	blt.w	8014596 <ttyhandle_in+0x1a4>
 801444c:	f8d4 3090 	ldr.w	r3, [r4, #144]	@ 0x90
 8014450:	4403      	add	r3, r0
 8014452:	2b1e      	cmp	r3, #30
 8014454:	f300 80a1 	bgt.w	801459a <ttyhandle_in+0x1a8>
 8014458:	f894 308a 	ldrb.w	r3, [r4, #138]	@ 0x8a
 801445c:	42ab      	cmp	r3, r5
 801445e:	f040 80a7 	bne.w	80145b0 <ttyhandle_in+0x1be>
 8014462:	f894 3089 	ldrb.w	r3, [r4, #137]	@ 0x89
 8014466:	2b00      	cmp	r3, #0
 8014468:	f000 80a2 	beq.w	80145b0 <ttyhandle_in+0x1be>
 801446c:	f894 3081 	ldrb.w	r3, [r4, #129]	@ 0x81
 8014470:	2b00      	cmp	r3, #0
 8014472:	f040 8098 	bne.w	80145a6 <ttyhandle_in+0x1b4>
 8014476:	f8d4 3090 	ldr.w	r3, [r4, #144]	@ 0x90
 801447a:	2b00      	cmp	r3, #0
 801447c:	f040 8085 	bne.w	801458a <ttyhandle_in+0x198>
 8014480:	6863      	ldr	r3, [r4, #4]
 8014482:	1c5a      	adds	r2, r3, #1
 8014484:	6062      	str	r2, [r4, #4]
 8014486:	701d      	strb	r5, [r3, #0]
 8014488:	6aa0      	ldr	r0, [r4, #40]	@ 0x28
 801448a:	f002 fb39 	bl	8016b00 <signal>
 801448e:	e07c      	b.n	801458a <ttyhandle_in+0x198>
 8014490:	2000      	movs	r0, #0
 8014492:	e7b6      	b.n	8014402 <ttyhandle_in+0x10>
 8014494:	281f      	cmp	r0, #31
 8014496:	dc78      	bgt.n	801458a <ttyhandle_in+0x198>
 8014498:	6863      	ldr	r3, [r4, #4]
 801449a:	1c5a      	adds	r2, r3, #1
 801449c:	6062      	str	r2, [r4, #4]
 801449e:	701d      	strb	r5, [r3, #0]
 80144a0:	6862      	ldr	r2, [r4, #4]
 80144a2:	f104 0328 	add.w	r3, r4, #40	@ 0x28
 80144a6:	429a      	cmp	r2, r3
 80144a8:	d302      	bcc.n	80144b0 <ttyhandle_in+0xbe>
 80144aa:	f104 0308 	add.w	r3, r4, #8
 80144ae:	6063      	str	r3, [r4, #4]
 80144b0:	6aa0      	ldr	r0, [r4, #40]	@ 0x28
 80144b2:	f002 fb25 	bl	8016b00 <signal>
 80144b6:	e068      	b.n	801458a <ttyhandle_in+0x198>
 80144b8:	f894 2085 	ldrb.w	r2, [r4, #133]	@ 0x85
 80144bc:	2a00      	cmp	r2, #0
 80144be:	d0a6      	beq.n	801440e <ttyhandle_in+0x1c>
 80144c0:	250a      	movs	r5, #10
 80144c2:	e7a4      	b.n	801440e <ttyhandle_in+0x1c>
 80144c4:	281f      	cmp	r0, #31
 80144c6:	dc12      	bgt.n	80144ee <ttyhandle_in+0xfc>
 80144c8:	6863      	ldr	r3, [r4, #4]
 80144ca:	1c5a      	adds	r2, r3, #1
 80144cc:	6062      	str	r2, [r4, #4]
 80144ce:	701d      	strb	r5, [r3, #0]
 80144d0:	6862      	ldr	r2, [r4, #4]
 80144d2:	f104 0328 	add.w	r3, r4, #40	@ 0x28
 80144d6:	429a      	cmp	r2, r3
 80144d8:	d302      	bcc.n	80144e0 <ttyhandle_in+0xee>
 80144da:	f104 0308 	add.w	r3, r4, #8
 80144de:	6063      	str	r3, [r4, #4]
 80144e0:	f894 3081 	ldrb.w	r3, [r4, #129]	@ 0x81
 80144e4:	b94b      	cbnz	r3, 80144fa <ttyhandle_in+0x108>
 80144e6:	6aa0      	ldr	r0, [r4, #40]	@ 0x28
 80144e8:	f002 fb0a 	bl	8016b00 <signal>
 80144ec:	e04d      	b.n	801458a <ttyhandle_in+0x198>
 80144ee:	4621      	mov	r1, r4
 80144f0:	f894 0099 	ldrb.w	r0, [r4, #153]	@ 0x99
 80144f4:	f7ff ff04 	bl	8014300 <eputc>
 80144f8:	e047      	b.n	801458a <ttyhandle_in+0x198>
 80144fa:	4621      	mov	r1, r4
 80144fc:	4628      	mov	r0, r5
 80144fe:	f7ff ff4d 	bl	801439c <echoch>
 8014502:	e7f0      	b.n	80144e6 <ttyhandle_in+0xf4>
 8014504:	f894 308b 	ldrb.w	r3, [r4, #139]	@ 0x8b
 8014508:	2b00      	cmp	r3, #0
 801450a:	d089      	beq.n	8014420 <ttyhandle_in+0x2e>
 801450c:	6863      	ldr	r3, [r4, #4]
 801450e:	f8d4 2090 	ldr.w	r2, [r4, #144]	@ 0x90
 8014512:	1a9b      	subs	r3, r3, r2
 8014514:	6063      	str	r3, [r4, #4]
 8014516:	f104 0208 	add.w	r2, r4, #8
 801451a:	4293      	cmp	r3, r2
 801451c:	d201      	bcs.n	8014522 <ttyhandle_in+0x130>
 801451e:	3320      	adds	r3, #32
 8014520:	6063      	str	r3, [r4, #4]
 8014522:	2300      	movs	r3, #0
 8014524:	f8c4 3090 	str.w	r3, [r4, #144]	@ 0x90
 8014528:	4621      	mov	r1, r4
 801452a:	200d      	movs	r0, #13
 801452c:	f7ff fee8 	bl	8014300 <eputc>
 8014530:	4621      	mov	r1, r4
 8014532:	200a      	movs	r0, #10
 8014534:	f7ff fee4 	bl	8014300 <eputc>
 8014538:	e027      	b.n	801458a <ttyhandle_in+0x198>
 801453a:	f894 3086 	ldrb.w	r3, [r4, #134]	@ 0x86
 801453e:	2b00      	cmp	r3, #0
 8014540:	f43f af78 	beq.w	8014434 <ttyhandle_in+0x42>
 8014544:	f8d4 3090 	ldr.w	r3, [r4, #144]	@ 0x90
 8014548:	2b00      	cmp	r3, #0
 801454a:	dd1e      	ble.n	801458a <ttyhandle_in+0x198>
 801454c:	3b01      	subs	r3, #1
 801454e:	f8c4 3090 	str.w	r3, [r4, #144]	@ 0x90
 8014552:	4620      	mov	r0, r4
 8014554:	f7ff fed8 	bl	8014308 <erase1>
 8014558:	e017      	b.n	801458a <ttyhandle_in+0x198>
 801455a:	f894 3081 	ldrb.w	r3, [r4, #129]	@ 0x81
 801455e:	b9ab      	cbnz	r3, 801458c <ttyhandle_in+0x19a>
 8014560:	6863      	ldr	r3, [r4, #4]
 8014562:	1c5a      	adds	r2, r3, #1
 8014564:	6062      	str	r2, [r4, #4]
 8014566:	701d      	strb	r5, [r3, #0]
 8014568:	6862      	ldr	r2, [r4, #4]
 801456a:	f104 0328 	add.w	r3, r4, #40	@ 0x28
 801456e:	429a      	cmp	r2, r3
 8014570:	d302      	bcc.n	8014578 <ttyhandle_in+0x186>
 8014572:	f104 0308 	add.w	r3, r4, #8
 8014576:	6063      	str	r3, [r4, #4]
 8014578:	f8d4 1090 	ldr.w	r1, [r4, #144]	@ 0x90
 801457c:	3101      	adds	r1, #1
 801457e:	6aa0      	ldr	r0, [r4, #40]	@ 0x28
 8014580:	f002 faf2 	bl	8016b68 <signaln>
 8014584:	2300      	movs	r3, #0
 8014586:	f8c4 3090 	str.w	r3, [r4, #144]	@ 0x90
 801458a:	bd38      	pop	{r3, r4, r5, pc}
 801458c:	4621      	mov	r1, r4
 801458e:	4628      	mov	r0, r5
 8014590:	f7ff ff04 	bl	801439c <echoch>
 8014594:	e7e4      	b.n	8014560 <ttyhandle_in+0x16e>
 8014596:	2000      	movs	r0, #0
 8014598:	e758      	b.n	801444c <ttyhandle_in+0x5a>
 801459a:	4621      	mov	r1, r4
 801459c:	f894 0099 	ldrb.w	r0, [r4, #153]	@ 0x99
 80145a0:	f7ff feae 	bl	8014300 <eputc>
 80145a4:	e7f1      	b.n	801458a <ttyhandle_in+0x198>
 80145a6:	4621      	mov	r1, r4
 80145a8:	4628      	mov	r0, r5
 80145aa:	f7ff fef7 	bl	801439c <echoch>
 80145ae:	e762      	b.n	8014476 <ttyhandle_in+0x84>
 80145b0:	f894 3081 	ldrb.w	r3, [r4, #129]	@ 0x81
 80145b4:	b98b      	cbnz	r3, 80145da <ttyhandle_in+0x1e8>
 80145b6:	f8d4 3090 	ldr.w	r3, [r4, #144]	@ 0x90
 80145ba:	3301      	adds	r3, #1
 80145bc:	f8c4 3090 	str.w	r3, [r4, #144]	@ 0x90
 80145c0:	6863      	ldr	r3, [r4, #4]
 80145c2:	1c5a      	adds	r2, r3, #1
 80145c4:	6062      	str	r2, [r4, #4]
 80145c6:	701d      	strb	r5, [r3, #0]
 80145c8:	6862      	ldr	r2, [r4, #4]
 80145ca:	f104 0328 	add.w	r3, r4, #40	@ 0x28
 80145ce:	429a      	cmp	r2, r3
 80145d0:	d3db      	bcc.n	801458a <ttyhandle_in+0x198>
 80145d2:	f104 0308 	add.w	r3, r4, #8
 80145d6:	6063      	str	r3, [r4, #4]
 80145d8:	e7d7      	b.n	801458a <ttyhandle_in+0x198>
 80145da:	4621      	mov	r1, r4
 80145dc:	4628      	mov	r0, r5
 80145de:	f7ff fedd 	bl	801439c <echoch>
 80145e2:	e7e8      	b.n	80145b6 <ttyhandle_in+0x1c4>

080145e4 <ttyhandle_out>:
 80145e4:	b5f8      	push	{r3, r4, r5, r6, r7, lr}
 80145e6:	f890 3095 	ldrb.w	r3, [r0, #149]	@ 0x95
 80145ea:	2b00      	cmp	r3, #0
 80145ec:	d144      	bne.n	8014678 <ttyhandle_out+0x94>
 80145ee:	4604      	mov	r4, r0
 80145f0:	6d82      	ldr	r2, [r0, #88]	@ 0x58
 80145f2:	6dc3      	ldr	r3, [r0, #92]	@ 0x5c
 80145f4:	429a      	cmp	r2, r3
 80145f6:	d016      	beq.n	8014626 <ttyhandle_out+0x42>
 80145f8:	2501      	movs	r5, #1
 80145fa:	2d00      	cmp	r5, #0
 80145fc:	dd19      	ble.n	8014632 <ttyhandle_out+0x4e>
 80145fe:	6da2      	ldr	r2, [r4, #88]	@ 0x58
 8014600:	6de3      	ldr	r3, [r4, #92]	@ 0x5c
 8014602:	429a      	cmp	r2, r3
 8014604:	d015      	beq.n	8014632 <ttyhandle_out+0x4e>
 8014606:	6ae3      	ldr	r3, [r4, #44]	@ 0x2c
 8014608:	1c5a      	adds	r2, r3, #1
 801460a:	62e2      	str	r2, [r4, #44]	@ 0x2c
 801460c:	7818      	ldrb	r0, [r3, #0]
 801460e:	f001 fd81 	bl	8016114 <kputc>
 8014612:	6da2      	ldr	r2, [r4, #88]	@ 0x58
 8014614:	f104 0380 	add.w	r3, r4, #128	@ 0x80
 8014618:	429a      	cmp	r2, r3
 801461a:	d302      	bcc.n	8014622 <ttyhandle_out+0x3e>
 801461c:	f104 0360 	add.w	r3, r4, #96	@ 0x60
 8014620:	65a3      	str	r3, [r4, #88]	@ 0x58
 8014622:	3d01      	subs	r5, #1
 8014624:	e7e9      	b.n	80145fa <ttyhandle_out+0x16>
 8014626:	6d40      	ldr	r0, [r0, #84]	@ 0x54
 8014628:	f002 f9d2 	bl	80169d0 <semcount>
 801462c:	281f      	cmp	r0, #31
 801462e:	dde3      	ble.n	80145f8 <ttyhandle_out+0x14>
 8014630:	e022      	b.n	8014678 <ttyhandle_out+0x94>
 8014632:	6d60      	ldr	r0, [r4, #84]	@ 0x54
 8014634:	f002 f9cc 	bl	80169d0 <semcount>
 8014638:	f1c0 0620 	rsb	r6, r0, #32
 801463c:	2700      	movs	r7, #0
 801463e:	e002      	b.n	8014646 <ttyhandle_out+0x62>
 8014640:	3e01      	subs	r6, #1
 8014642:	3d01      	subs	r5, #1
 8014644:	3701      	adds	r7, #1
 8014646:	2d00      	cmp	r5, #0
 8014648:	dd10      	ble.n	801466c <ttyhandle_out+0x88>
 801464a:	2e00      	cmp	r6, #0
 801464c:	dd0e      	ble.n	801466c <ttyhandle_out+0x88>
 801464e:	6ae3      	ldr	r3, [r4, #44]	@ 0x2c
 8014650:	1c5a      	adds	r2, r3, #1
 8014652:	62e2      	str	r2, [r4, #44]	@ 0x2c
 8014654:	7818      	ldrb	r0, [r3, #0]
 8014656:	f001 fd5d 	bl	8016114 <kputc>
 801465a:	6ae2      	ldr	r2, [r4, #44]	@ 0x2c
 801465c:	f104 0354 	add.w	r3, r4, #84	@ 0x54
 8014660:	429a      	cmp	r2, r3
 8014662:	d3ed      	bcc.n	8014640 <ttyhandle_out+0x5c>
 8014664:	f104 0334 	add.w	r3, r4, #52	@ 0x34
 8014668:	62e3      	str	r3, [r4, #44]	@ 0x2c
 801466a:	e7e9      	b.n	8014640 <ttyhandle_out+0x5c>
 801466c:	2f00      	cmp	r7, #0
 801466e:	dc04      	bgt.n	801467a <ttyhandle_out+0x96>
 8014670:	6da2      	ldr	r2, [r4, #88]	@ 0x58
 8014672:	6de3      	ldr	r3, [r4, #92]	@ 0x5c
 8014674:	429a      	cmp	r2, r3
 8014676:	d005      	beq.n	8014684 <ttyhandle_out+0xa0>
 8014678:	bdf8      	pop	{r3, r4, r5, r6, r7, pc}
 801467a:	4639      	mov	r1, r7
 801467c:	6d60      	ldr	r0, [r4, #84]	@ 0x54
 801467e:	f002 fa73 	bl	8016b68 <signaln>
 8014682:	e7f5      	b.n	8014670 <ttyhandle_out+0x8c>
 8014684:	6d60      	ldr	r0, [r4, #84]	@ 0x54
 8014686:	f002 f9a3 	bl	80169d0 <semcount>
 801468a:	e7f5      	b.n	8014678 <ttyhandle_out+0x94>

0801468c <ttyhandler>:
 801468c:	b508      	push	{r3, lr}
 801468e:	4b07      	ldr	r3, [pc, #28]	@ (80146ac <ttyhandler+0x20>)
 8014690:	685b      	ldr	r3, [r3, #4]
 8014692:	f04f 0c9c 	mov.w	ip, #156	@ 0x9c
 8014696:	4806      	ldr	r0, [pc, #24]	@ (80146b0 <ttyhandler+0x24>)
 8014698:	fb0c 0003 	mla	r0, ip, r3, r0
 801469c:	b112      	cbz	r2, 80146a4 <ttyhandler+0x18>
 801469e:	f7ff ffa1 	bl	80145e4 <ttyhandle_out>
 80146a2:	bd08      	pop	{r3, pc}
 80146a4:	f7ff fea5 	bl	80143f2 <ttyhandle_in>
 80146a8:	e7fb      	b.n	80146a2 <ttyhandler+0x16>
 80146aa:	bf00      	nop
 80146ac:	2000008c 	.word	0x2000008c
 80146b0:	20000520 	.word	0x20000520

080146b4 <ttyinit>:
 80146b4:	b570      	push	{r4, r5, r6, lr}
 80146b6:	6845      	ldr	r5, [r0, #4]
 80146b8:	4e27      	ldr	r6, [pc, #156]	@ (8014758 <ttyinit+0xa4>)
 80146ba:	239c      	movs	r3, #156	@ 0x9c
 80146bc:	fb03 f505 	mul.w	r5, r3, r5
 80146c0:	f105 0308 	add.w	r3, r5, #8
 80146c4:	4433      	add	r3, r6
 80146c6:	1974      	adds	r4, r6, r5
 80146c8:	6063      	str	r3, [r4, #4]
 80146ca:	5173      	str	r3, [r6, r5]
 80146cc:	2000      	movs	r0, #0
 80146ce:	f002 f95f 	bl	8016990 <semcreate>
 80146d2:	62a0      	str	r0, [r4, #40]	@ 0x28
 80146d4:	f105 0330 	add.w	r3, r5, #48	@ 0x30
 80146d8:	4433      	add	r3, r6
 80146da:	3304      	adds	r3, #4
 80146dc:	6323      	str	r3, [r4, #48]	@ 0x30
 80146de:	62e3      	str	r3, [r4, #44]	@ 0x2c
 80146e0:	2020      	movs	r0, #32
 80146e2:	f002 f955 	bl	8016990 <semcreate>
 80146e6:	6560      	str	r0, [r4, #84]	@ 0x54
 80146e8:	f105 0360 	add.w	r3, r5, #96	@ 0x60
 80146ec:	4433      	add	r3, r6
 80146ee:	65e3      	str	r3, [r4, #92]	@ 0x5c
 80146f0:	65a3      	str	r3, [r4, #88]	@ 0x58
 80146f2:	2343      	movs	r3, #67	@ 0x43
 80146f4:	f884 3080 	strb.w	r3, [r4, #128]	@ 0x80
 80146f8:	2001      	movs	r0, #1
 80146fa:	f884 0081 	strb.w	r0, [r4, #129]	@ 0x81
 80146fe:	f884 0082 	strb.w	r0, [r4, #130]	@ 0x82
 8014702:	f884 0083 	strb.w	r0, [r4, #131]	@ 0x83
 8014706:	f884 0084 	strb.w	r0, [r4, #132]	@ 0x84
 801470a:	f884 0085 	strb.w	r0, [r4, #133]	@ 0x85
 801470e:	f884 0086 	strb.w	r0, [r4, #134]	@ 0x86
 8014712:	2308      	movs	r3, #8
 8014714:	f884 3087 	strb.w	r3, [r4, #135]	@ 0x87
 8014718:	237f      	movs	r3, #127	@ 0x7f
 801471a:	f884 3088 	strb.w	r3, [r4, #136]	@ 0x88
 801471e:	f884 0089 	strb.w	r0, [r4, #137]	@ 0x89
 8014722:	2304      	movs	r3, #4
 8014724:	f884 308a 	strb.w	r3, [r4, #138]	@ 0x8a
 8014728:	f884 008b 	strb.w	r0, [r4, #139]	@ 0x8b
 801472c:	2315      	movs	r3, #21
 801472e:	f884 308c 	strb.w	r3, [r4, #140]	@ 0x8c
 8014732:	2300      	movs	r3, #0
 8014734:	f8c4 3090 	str.w	r3, [r4, #144]	@ 0x90
 8014738:	f884 0094 	strb.w	r0, [r4, #148]	@ 0x94
 801473c:	f884 3095 	strb.w	r3, [r4, #149]	@ 0x95
 8014740:	2313      	movs	r3, #19
 8014742:	f884 3096 	strb.w	r3, [r4, #150]	@ 0x96
 8014746:	2311      	movs	r3, #17
 8014748:	f884 3097 	strb.w	r3, [r4, #151]	@ 0x97
 801474c:	f884 0098 	strb.w	r0, [r4, #152]	@ 0x98
 8014750:	2307      	movs	r3, #7
 8014752:	f884 3099 	strb.w	r3, [r4, #153]	@ 0x99
 8014756:	bd70      	pop	{r4, r5, r6, pc}
 8014758:	20000520 	.word	0x20000520

0801475c <ttykickout>:
 801475c:	b508      	push	{r3, lr}
 801475e:	f002 fd35 	bl	80171cc <disable>
 8014762:	2201      	movs	r2, #1
 8014764:	2158      	movs	r1, #88	@ 0x58
 8014766:	4610      	mov	r0, r2
 8014768:	f7ff ff90 	bl	801468c <ttyhandler>
 801476c:	f002 fd36 	bl	80171dc <enable>
 8014770:	bd08      	pop	{r3, pc}
	...

08014774 <ttyputc>:
 8014774:	e92d 41f0 	stmdb	sp!, {r4, r5, r6, r7, r8, lr}
 8014778:	460e      	mov	r6, r1
 801477a:	6847      	ldr	r7, [r0, #4]
 801477c:	290a      	cmp	r1, #10
 801477e:	d020      	beq.n	80147c2 <ttyputc+0x4e>
 8014780:	f8df 8058 	ldr.w	r8, [pc, #88]	@ 80147dc <ttyputc+0x68>
 8014784:	249c      	movs	r4, #156	@ 0x9c
 8014786:	fb07 f404 	mul.w	r4, r7, r4
 801478a:	eb08 0504 	add.w	r5, r8, r4
 801478e:	6d68      	ldr	r0, [r5, #84]	@ 0x54
 8014790:	f000 fd07 	bl	80151a2 <wait>
 8014794:	6b2b      	ldr	r3, [r5, #48]	@ 0x30
 8014796:	1c5a      	adds	r2, r3, #1
 8014798:	632a      	str	r2, [r5, #48]	@ 0x30
 801479a:	701e      	strb	r6, [r3, #0]
 801479c:	6b2b      	ldr	r3, [r5, #48]	@ 0x30
 801479e:	3450      	adds	r4, #80	@ 0x50
 80147a0:	4444      	add	r4, r8
 80147a2:	3404      	adds	r4, #4
 80147a4:	42a3      	cmp	r3, r4
 80147a6:	d307      	bcc.n	80147b8 <ttyputc+0x44>
 80147a8:	239c      	movs	r3, #156	@ 0x9c
 80147aa:	fb03 f707 	mul.w	r7, r3, r7
 80147ae:	f107 0330 	add.w	r3, r7, #48	@ 0x30
 80147b2:	4443      	add	r3, r8
 80147b4:	3304      	adds	r3, #4
 80147b6:	632b      	str	r3, [r5, #48]	@ 0x30
 80147b8:	f7ff ffd0 	bl	801475c <ttykickout>
 80147bc:	2001      	movs	r0, #1
 80147be:	e8bd 81f0 	ldmia.w	sp!, {r4, r5, r6, r7, r8, pc}
 80147c2:	4b06      	ldr	r3, [pc, #24]	@ (80147dc <ttyputc+0x68>)
 80147c4:	229c      	movs	r2, #156	@ 0x9c
 80147c6:	fb02 3307 	mla	r3, r2, r7, r3
 80147ca:	f893 3098 	ldrb.w	r3, [r3, #152]	@ 0x98
 80147ce:	2b00      	cmp	r3, #0
 80147d0:	d0d6      	beq.n	8014780 <ttyputc+0xc>
 80147d2:	210d      	movs	r1, #13
 80147d4:	f7ff ffce 	bl	8014774 <ttyputc>
 80147d8:	e7d2      	b.n	8014780 <ttyputc+0xc>
 80147da:	bf00      	nop
 80147dc:	20000520 	.word	0x20000520

080147e0 <ttyread>:
 80147e0:	b5f8      	push	{r3, r4, r5, r6, r7, lr}
 80147e2:	1e16      	subs	r6, r2, #0
 80147e4:	db3e      	blt.n	8014864 <ttyread+0x84>
 80147e6:	4607      	mov	r7, r0
 80147e8:	460c      	mov	r4, r1
 80147ea:	6842      	ldr	r2, [r0, #4]
 80147ec:	4b1f      	ldr	r3, [pc, #124]	@ (801486c <ttyread+0x8c>)
 80147ee:	219c      	movs	r1, #156	@ 0x9c
 80147f0:	fb01 3302 	mla	r3, r1, r2, r3
 80147f4:	f893 3080 	ldrb.w	r3, [r3, #128]	@ 0x80
 80147f8:	2b43      	cmp	r3, #67	@ 0x43
 80147fa:	d019      	beq.n	8014830 <ttyread+0x50>
 80147fc:	b10e      	cbz	r6, 8014802 <ttyread+0x22>
 80147fe:	2500      	movs	r5, #0
 8014800:	e012      	b.n	8014828 <ttyread+0x48>
 8014802:	4b1a      	ldr	r3, [pc, #104]	@ (801486c <ttyread+0x8c>)
 8014804:	fb01 3302 	mla	r3, r1, r2, r3
 8014808:	6a98      	ldr	r0, [r3, #40]	@ 0x28
 801480a:	f002 f8e1 	bl	80169d0 <semcount>
 801480e:	4606      	mov	r6, r0
 8014810:	2800      	cmp	r0, #0
 8014812:	d1f4      	bne.n	80147fe <ttyread+0x1e>
 8014814:	4605      	mov	r5, r0
 8014816:	e009      	b.n	801482c <ttyread+0x4c>
 8014818:	4638      	mov	r0, r7
 801481a:	f7ff fd3b 	bl	8014294 <ttygetc>
 801481e:	4621      	mov	r1, r4
 8014820:	f801 0b01 	strb.w	r0, [r1], #1
 8014824:	3501      	adds	r5, #1
 8014826:	460c      	mov	r4, r1
 8014828:	42ae      	cmp	r6, r5
 801482a:	dcf5      	bgt.n	8014818 <ttyread+0x38>
 801482c:	4628      	mov	r0, r5
 801482e:	bdf8      	pop	{r3, r4, r5, r6, r7, pc}
 8014830:	f7ff fd30 	bl	8014294 <ttygetc>
 8014834:	4605      	mov	r5, r0
 8014836:	f110 0f02 	cmn.w	r0, #2
 801483a:	d0f7      	beq.n	801482c <ttyread+0x4c>
 801483c:	b2c3      	uxtb	r3, r0
 801483e:	f804 3b01 	strb.w	r3, [r4], #1
 8014842:	2501      	movs	r5, #1
 8014844:	42b5      	cmp	r5, r6
 8014846:	daf1      	bge.n	801482c <ttyread+0x4c>
 8014848:	2b0a      	cmp	r3, #10
 801484a:	d0ef      	beq.n	801482c <ttyread+0x4c>
 801484c:	2b0d      	cmp	r3, #13
 801484e:	d0ed      	beq.n	801482c <ttyread+0x4c>
 8014850:	4638      	mov	r0, r7
 8014852:	f7ff fd1f 	bl	8014294 <ttygetc>
 8014856:	b2c3      	uxtb	r3, r0
 8014858:	4621      	mov	r1, r4
 801485a:	f801 3b01 	strb.w	r3, [r1], #1
 801485e:	3501      	adds	r5, #1
 8014860:	460c      	mov	r4, r1
 8014862:	e7ef      	b.n	8014844 <ttyread+0x64>
 8014864:	f04f 35ff 	mov.w	r5, #4294967295	@ 0xffffffff
 8014868:	e7e0      	b.n	801482c <ttyread+0x4c>
 801486a:	bf00      	nop
 801486c:	20000520 	.word	0x20000520

08014870 <ttywrite>:
 8014870:	b570      	push	{r4, r5, r6, lr}
 8014872:	1e15      	subs	r5, r2, #0
 8014874:	db0e      	blt.n	8014894 <ttywrite+0x24>
 8014876:	4606      	mov	r6, r0
 8014878:	460c      	mov	r4, r1
 801487a:	b93d      	cbnz	r5, 801488c <ttywrite+0x1c>
 801487c:	2001      	movs	r0, #1
 801487e:	e008      	b.n	8014892 <ttywrite+0x22>
 8014880:	f814 1b01 	ldrb.w	r1, [r4], #1
 8014884:	4630      	mov	r0, r6
 8014886:	f7ff ff75 	bl	8014774 <ttyputc>
 801488a:	3d01      	subs	r5, #1
 801488c:	2d00      	cmp	r5, #0
 801488e:	dcf7      	bgt.n	8014880 <ttywrite+0x10>
 8014890:	2001      	movs	r0, #1
 8014892:	bd70      	pop	{r4, r5, r6, pc}
 8014894:	f04f 30ff 	mov.w	r0, #4294967295	@ 0xffffffff
 8014898:	e7fb      	b.n	8014892 <ttywrite+0x22>
	...

0801489c <initLED>:
 801489c:	b508      	push	{r3, lr}
 801489e:	f44f 7264 	mov.w	r2, #912	@ 0x390
 80148a2:	2108      	movs	r1, #8
 80148a4:	4802      	ldr	r0, [pc, #8]	@ (80148b0 <initLED+0x14>)
 80148a6:	f002 fcbc 	bl	8017222 <hw_cfg_pin>
 80148aa:	2001      	movs	r0, #1
 80148ac:	bd08      	pop	{r3, pc}
 80148ae:	bf00      	nop
 80148b0:	40020000 	.word	0x40020000

080148b4 <setLED>:
 80148b4:	b508      	push	{r3, lr}
 80148b6:	460a      	mov	r2, r1
 80148b8:	2108      	movs	r1, #8
 80148ba:	4802      	ldr	r0, [pc, #8]	@ (80148c4 <setLED+0x10>)
 80148bc:	f002 fcfa 	bl	80172b4 <hw_set_pin>
 80148c0:	2001      	movs	r0, #1
 80148c2:	bd08      	pop	{r3, pc}
 80148c4:	40020000 	.word	0x40020000

080148c8 <toggleLED>:
 80148c8:	b508      	push	{r3, lr}
 80148ca:	2108      	movs	r1, #8
 80148cc:	4802      	ldr	r0, [pc, #8]	@ (80148d8 <toggleLED+0x10>)
 80148ce:	f002 fcff 	bl	80172d0 <hw_toggle_pin>
 80148d2:	2001      	movs	r0, #1
 80148d4:	bd08      	pop	{r3, pc}
 80148d6:	bf00      	nop
 80148d8:	40020000 	.word	0x40020000

080148dc <cache_write>:
 80148dc:	e92d 4ff0 	stmdb	sp!, {r4, r5, r6, r7, r8, r9, sl, fp, lr}
 80148e0:	b083      	sub	sp, #12
 80148e2:	4605      	mov	r5, r0
 80148e4:	9101      	str	r1, [sp, #4]
 80148e6:	4690      	mov	r8, r2
 80148e8:	b672      	cpsid	i
 80148ea:	f040 023f 	orr.w	r2, r0, #63	@ 0x3f
 80148ee:	eb00 0308 	add.w	r3, r0, r8
 80148f2:	3b01      	subs	r3, #1
 80148f4:	f043 033f 	orr.w	r3, r3, #63	@ 0x3f
 80148f8:	429a      	cmp	r2, r3
 80148fa:	d10b      	bne.n	8014914 <cache_write+0x38>
 80148fc:	f3c5 1984 	ubfx	r9, r5, #6, #5
 8014900:	4a49      	ldr	r2, [pc, #292]	@ (8014a28 <cache_write+0x14c>)
 8014902:	6813      	ldr	r3, [r2, #0]
 8014904:	6851      	ldr	r1, [r2, #4]
 8014906:	3301      	adds	r3, #1
 8014908:	f141 0100 	adc.w	r1, r1, #0
 801490c:	6013      	str	r3, [r2, #0]
 801490e:	6051      	str	r1, [r2, #4]
 8014910:	2400      	movs	r4, #0
 8014912:	e035      	b.n	8014980 <cache_write+0xa4>
 8014914:	4642      	mov	r2, r8
 8014916:	4601      	mov	r1, r0
 8014918:	4844      	ldr	r0, [pc, #272]	@ (8014a2c <cache_write+0x150>)
 801491a:	f7fd fd83 	bl	8012424 <printf>
 801491e:	e7ed      	b.n	80148fc <cache_write+0x20>
 8014920:	4a41      	ldr	r2, [pc, #260]	@ (8014a28 <cache_write+0x14c>)
 8014922:	f8d2 3108 	ldr.w	r3, [r2, #264]	@ 0x108
 8014926:	f8d2 110c 	ldr.w	r1, [r2, #268]	@ 0x10c
 801492a:	3301      	adds	r3, #1
 801492c:	f141 0100 	adc.w	r1, r1, #0
 8014930:	f8c2 3108 	str.w	r3, [r2, #264]	@ 0x108
 8014934:	f8c2 110c 	str.w	r1, [r2, #268]	@ 0x10c
 8014938:	46a3      	mov	fp, r4
 801493a:	4a3b      	ldr	r2, [pc, #236]	@ (8014a28 <cache_write+0x14c>)
 801493c:	eb02 02c9 	add.w	r2, r2, r9, lsl #3
 8014940:	68d3      	ldr	r3, [r2, #12]
 8014942:	f023 0304 	bic.w	r3, r3, #4
 8014946:	60d3      	str	r3, [r2, #12]
 8014948:	ea43 038b 	orr.w	r3, r3, fp, lsl #2
 801494c:	60d3      	str	r3, [r2, #12]
 801494e:	f005 003f 	and.w	r0, r5, #63	@ 0x3f
 8014952:	4642      	mov	r2, r8
 8014954:	9901      	ldr	r1, [sp, #4]
 8014956:	4438      	add	r0, r7
 8014958:	f7fe f86c 	bl	8012a34 <memcpy>
 801495c:	6833      	ldr	r3, [r6, #0]
 801495e:	f043 0302 	orr.w	r3, r3, #2
 8014962:	6033      	str	r3, [r6, #0]
 8014964:	b662      	cpsie	i
 8014966:	b003      	add	sp, #12
 8014968:	e8bd 8ff0 	ldmia.w	sp!, {r4, r5, r6, r7, r8, r9, sl, fp, pc}
 801496c:	2240      	movs	r2, #64	@ 0x40
 801496e:	4639      	mov	r1, r7
 8014970:	f020 003f 	bic.w	r0, r0, #63	@ 0x3f
 8014974:	f007 fb9b 	bl	801c0ae <sramwrite>
 8014978:	e030      	b.n	80149dc <cache_write+0x100>
 801497a:	2c01      	cmp	r4, #1
 801497c:	d040      	beq.n	8014a00 <cache_write+0x124>
 801497e:	3401      	adds	r4, #1
 8014980:	2c01      	cmp	r4, #1
 8014982:	dcda      	bgt.n	801493a <cache_write+0x5e>
 8014984:	4b28      	ldr	r3, [pc, #160]	@ (8014a28 <cache_write+0x14c>)
 8014986:	f103 0608 	add.w	r6, r3, #8
 801498a:	eb04 0249 	add.w	r2, r4, r9, lsl #1
 801498e:	eb06 0682 	add.w	r6, r6, r2, lsl #2
 8014992:	4f27      	ldr	r7, [pc, #156]	@ (8014a30 <cache_write+0x154>)
 8014994:	eb07 1782 	add.w	r7, r7, r2, lsl #6
 8014998:	eb03 0382 	add.w	r3, r3, r2, lsl #2
 801499c:	689b      	ldr	r3, [r3, #8]
 801499e:	f013 0f01 	tst.w	r3, #1
 80149a2:	d0ea      	beq.n	801497a <cache_write+0x9e>
 80149a4:	ea83 0205 	eor.w	r2, r3, r5
 80149a8:	f5b2 6f00 	cmp.w	r2, #2048	@ 0x800
 80149ac:	d3b8      	bcc.n	8014920 <cache_write+0x44>
 80149ae:	2c01      	cmp	r4, #1
 80149b0:	d1e5      	bne.n	801497e <cache_write+0xa2>
 80149b2:	089b      	lsrs	r3, r3, #2
 80149b4:	f083 0301 	eor.w	r3, r3, #1
 80149b8:	f003 0b01 	and.w	fp, r3, #1
 80149bc:	4b1a      	ldr	r3, [pc, #104]	@ (8014a28 <cache_write+0x14c>)
 80149be:	f103 0608 	add.w	r6, r3, #8
 80149c2:	eb0b 0249 	add.w	r2, fp, r9, lsl #1
 80149c6:	eb06 0682 	add.w	r6, r6, r2, lsl #2
 80149ca:	4f19      	ldr	r7, [pc, #100]	@ (8014a30 <cache_write+0x154>)
 80149cc:	eb07 1782 	add.w	r7, r7, r2, lsl #6
 80149d0:	eb03 0382 	add.w	r3, r3, r2, lsl #2
 80149d4:	6898      	ldr	r0, [r3, #8]
 80149d6:	f010 0f02 	tst.w	r0, #2
 80149da:	d1c7      	bne.n	801496c <cache_write+0x90>
 80149dc:	f025 0a3f 	bic.w	sl, r5, #63	@ 0x3f
 80149e0:	2240      	movs	r2, #64	@ 0x40
 80149e2:	4639      	mov	r1, r7
 80149e4:	4650      	mov	r0, sl
 80149e6:	f007 fb8b 	bl	801c100 <sramread>
 80149ea:	eb0b 0349 	add.w	r3, fp, r9, lsl #1
 80149ee:	4a0e      	ldr	r2, [pc, #56]	@ (8014a28 <cache_write+0x14c>)
 80149f0:	eb02 0283 	add.w	r2, r2, r3, lsl #2
 80149f4:	f8c2 a008 	str.w	sl, [r2, #8]
 80149f8:	f04a 0301 	orr.w	r3, sl, #1
 80149fc:	6093      	str	r3, [r2, #8]
 80149fe:	e7be      	b.n	801497e <cache_write+0xa2>
 8014a00:	f025 0a3f 	bic.w	sl, r5, #63	@ 0x3f
 8014a04:	2240      	movs	r2, #64	@ 0x40
 8014a06:	4639      	mov	r1, r7
 8014a08:	4650      	mov	r0, sl
 8014a0a:	f007 fb79 	bl	801c100 <sramread>
 8014a0e:	eb04 0349 	add.w	r3, r4, r9, lsl #1
 8014a12:	4a05      	ldr	r2, [pc, #20]	@ (8014a28 <cache_write+0x14c>)
 8014a14:	eb02 0283 	add.w	r2, r2, r3, lsl #2
 8014a18:	f8c2 a008 	str.w	sl, [r2, #8]
 8014a1c:	f04a 0301 	orr.w	r3, sl, #1
 8014a20:	6093      	str	r3, [r2, #8]
 8014a22:	46a3      	mov	fp, r4
 8014a24:	e7ab      	b.n	801497e <cache_write+0xa2>
 8014a26:	bf00      	nop
 8014a28:	200005c0 	.word	0x200005c0
 8014a2c:	0801d17c 	.word	0x0801d17c
 8014a30:	200006d0 	.word	0x200006d0

08014a34 <cache_read>:
 8014a34:	e92d 4ff8 	stmdb	sp!, {r3, r4, r5, r6, r7, r8, r9, sl, fp, lr}
 8014a38:	4605      	mov	r5, r0
 8014a3a:	4688      	mov	r8, r1
 8014a3c:	4616      	mov	r6, r2
 8014a3e:	b672      	cpsid	i
 8014a40:	f040 023f 	orr.w	r2, r0, #63	@ 0x3f
 8014a44:	1983      	adds	r3, r0, r6
 8014a46:	3b01      	subs	r3, #1
 8014a48:	f043 033f 	orr.w	r3, r3, #63	@ 0x3f
 8014a4c:	429a      	cmp	r2, r3
 8014a4e:	d10b      	bne.n	8014a68 <cache_read+0x34>
 8014a50:	f3c5 1784 	ubfx	r7, r5, #6, #5
 8014a54:	4a42      	ldr	r2, [pc, #264]	@ (8014b60 <cache_read+0x12c>)
 8014a56:	6813      	ldr	r3, [r2, #0]
 8014a58:	6851      	ldr	r1, [r2, #4]
 8014a5a:	3301      	adds	r3, #1
 8014a5c:	f141 0100 	adc.w	r1, r1, #0
 8014a60:	6013      	str	r3, [r2, #0]
 8014a62:	6051      	str	r1, [r2, #4]
 8014a64:	2400      	movs	r4, #0
 8014a66:	e030      	b.n	8014aca <cache_read+0x96>
 8014a68:	4632      	mov	r2, r6
 8014a6a:	4601      	mov	r1, r0
 8014a6c:	483d      	ldr	r0, [pc, #244]	@ (8014b64 <cache_read+0x130>)
 8014a6e:	f7fd fcd9 	bl	8012424 <printf>
 8014a72:	e7ed      	b.n	8014a50 <cache_read+0x1c>
 8014a74:	4a3a      	ldr	r2, [pc, #232]	@ (8014b60 <cache_read+0x12c>)
 8014a76:	f8d2 3108 	ldr.w	r3, [r2, #264]	@ 0x108
 8014a7a:	f8d2 110c 	ldr.w	r1, [r2, #268]	@ 0x10c
 8014a7e:	3301      	adds	r3, #1
 8014a80:	f141 0100 	adc.w	r1, r1, #0
 8014a84:	f8c2 3108 	str.w	r3, [r2, #264]	@ 0x108
 8014a88:	f8c2 110c 	str.w	r1, [r2, #268]	@ 0x10c
 8014a8c:	46a1      	mov	r9, r4
 8014a8e:	4a34      	ldr	r2, [pc, #208]	@ (8014b60 <cache_read+0x12c>)
 8014a90:	eb02 02c7 	add.w	r2, r2, r7, lsl #3
 8014a94:	68d3      	ldr	r3, [r2, #12]
 8014a96:	f023 0304 	bic.w	r3, r3, #4
 8014a9a:	60d3      	str	r3, [r2, #12]
 8014a9c:	ea43 0389 	orr.w	r3, r3, r9, lsl #2
 8014aa0:	60d3      	str	r3, [r2, #12]
 8014aa2:	f005 013f 	and.w	r1, r5, #63	@ 0x3f
 8014aa6:	4632      	mov	r2, r6
 8014aa8:	4451      	add	r1, sl
 8014aaa:	4640      	mov	r0, r8
 8014aac:	f7fd ffc2 	bl	8012a34 <memcpy>
 8014ab0:	b662      	cpsie	i
 8014ab2:	e8bd 8ff8 	ldmia.w	sp!, {r3, r4, r5, r6, r7, r8, r9, sl, fp, pc}
 8014ab6:	2240      	movs	r2, #64	@ 0x40
 8014ab8:	4651      	mov	r1, sl
 8014aba:	f020 003f 	bic.w	r0, r0, #63	@ 0x3f
 8014abe:	f007 faf6 	bl	801c0ae <sramwrite>
 8014ac2:	e028      	b.n	8014b16 <cache_read+0xe2>
 8014ac4:	2c01      	cmp	r4, #1
 8014ac6:	d038      	beq.n	8014b3a <cache_read+0x106>
 8014ac8:	3401      	adds	r4, #1
 8014aca:	2c01      	cmp	r4, #1
 8014acc:	dcdf      	bgt.n	8014a8e <cache_read+0x5a>
 8014ace:	eb04 0347 	add.w	r3, r4, r7, lsl #1
 8014ad2:	4a25      	ldr	r2, [pc, #148]	@ (8014b68 <cache_read+0x134>)
 8014ad4:	eb02 1a83 	add.w	sl, r2, r3, lsl #6
 8014ad8:	4a21      	ldr	r2, [pc, #132]	@ (8014b60 <cache_read+0x12c>)
 8014ada:	eb02 0383 	add.w	r3, r2, r3, lsl #2
 8014ade:	689b      	ldr	r3, [r3, #8]
 8014ae0:	f013 0f01 	tst.w	r3, #1
 8014ae4:	d0ee      	beq.n	8014ac4 <cache_read+0x90>
 8014ae6:	ea83 0205 	eor.w	r2, r3, r5
 8014aea:	f5b2 6f00 	cmp.w	r2, #2048	@ 0x800
 8014aee:	d3c1      	bcc.n	8014a74 <cache_read+0x40>
 8014af0:	2c01      	cmp	r4, #1
 8014af2:	d1e9      	bne.n	8014ac8 <cache_read+0x94>
 8014af4:	089b      	lsrs	r3, r3, #2
 8014af6:	f083 0301 	eor.w	r3, r3, #1
 8014afa:	f003 0901 	and.w	r9, r3, #1
 8014afe:	eb09 0247 	add.w	r2, r9, r7, lsl #1
 8014b02:	4b19      	ldr	r3, [pc, #100]	@ (8014b68 <cache_read+0x134>)
 8014b04:	eb03 1a82 	add.w	sl, r3, r2, lsl #6
 8014b08:	4b15      	ldr	r3, [pc, #84]	@ (8014b60 <cache_read+0x12c>)
 8014b0a:	eb03 0382 	add.w	r3, r3, r2, lsl #2
 8014b0e:	6898      	ldr	r0, [r3, #8]
 8014b10:	f010 0f02 	tst.w	r0, #2
 8014b14:	d1cf      	bne.n	8014ab6 <cache_read+0x82>
 8014b16:	f025 0b3f 	bic.w	fp, r5, #63	@ 0x3f
 8014b1a:	2240      	movs	r2, #64	@ 0x40
 8014b1c:	4651      	mov	r1, sl
 8014b1e:	4658      	mov	r0, fp
 8014b20:	f007 faee 	bl	801c100 <sramread>
 8014b24:	eb09 0347 	add.w	r3, r9, r7, lsl #1
 8014b28:	4a0d      	ldr	r2, [pc, #52]	@ (8014b60 <cache_read+0x12c>)
 8014b2a:	eb02 0283 	add.w	r2, r2, r3, lsl #2
 8014b2e:	f8c2 b008 	str.w	fp, [r2, #8]
 8014b32:	f04b 0301 	orr.w	r3, fp, #1
 8014b36:	6093      	str	r3, [r2, #8]
 8014b38:	e7c6      	b.n	8014ac8 <cache_read+0x94>
 8014b3a:	f025 093f 	bic.w	r9, r5, #63	@ 0x3f
 8014b3e:	2240      	movs	r2, #64	@ 0x40
 8014b40:	4651      	mov	r1, sl
 8014b42:	4648      	mov	r0, r9
 8014b44:	f007 fadc 	bl	801c100 <sramread>
 8014b48:	eb04 0347 	add.w	r3, r4, r7, lsl #1
 8014b4c:	4a04      	ldr	r2, [pc, #16]	@ (8014b60 <cache_read+0x12c>)
 8014b4e:	eb02 0283 	add.w	r2, r2, r3, lsl #2
 8014b52:	f8c2 9008 	str.w	r9, [r2, #8]
 8014b56:	f049 0301 	orr.w	r3, r9, #1
 8014b5a:	6093      	str	r3, [r2, #8]
 8014b5c:	46a1      	mov	r9, r4
 8014b5e:	e7b3      	b.n	8014ac8 <cache_read+0x94>
 8014b60:	200005c0 	.word	0x200005c0
 8014b64:	0801d1a4 	.word	0x0801d1a4
 8014b68:	200006d0 	.word	0x200006d0

08014b6c <cache_get_stat>:
 8014b6c:	4b04      	ldr	r3, [pc, #16]	@ (8014b80 <cache_get_stat+0x14>)
 8014b6e:	ed93 7b42 	vldr	d7, [r3, #264]	@ 0x108
 8014b72:	ed80 7b00 	vstr	d7, [r0]
 8014b76:	e9d3 2300 	ldrd	r2, r3, [r3]
 8014b7a:	e9c1 2300 	strd	r2, r3, [r1]
 8014b7e:	4770      	bx	lr
 8014b80:	200005c0 	.word	0x200005c0

08014b84 <flashControl>:
 8014b84:	b929      	cbnz	r1, 8014b92 <flashControl+0xe>
 8014b86:	b508      	push	{r3, lr}
 8014b88:	4b03      	ldr	r3, [pc, #12]	@ (8014b98 <flashControl+0x14>)
 8014b8a:	68db      	ldr	r3, [r3, #12]
 8014b8c:	4798      	blx	r3
 8014b8e:	6800      	ldr	r0, [r0, #0]
 8014b90:	bd08      	pop	{r3, pc}
 8014b92:	2001      	movs	r0, #1
 8014b94:	4770      	bx	lr
 8014b96:	bf00      	nop
 8014b98:	0801c688 	.word	0x0801c688

08014b9c <flashRead>:
 8014b9c:	b510      	push	{r4, lr}
 8014b9e:	4608      	mov	r0, r1
 8014ba0:	4611      	mov	r1, r2
 8014ba2:	4a02      	ldr	r2, [pc, #8]	@ (8014bac <flashRead+0x10>)
 8014ba4:	6854      	ldr	r4, [r2, #4]
 8014ba6:	461a      	mov	r2, r3
 8014ba8:	47a0      	blx	r4
 8014baa:	bd10      	pop	{r4, pc}
 8014bac:	0801c688 	.word	0x0801c688

08014bb0 <flashWrite>:
 8014bb0:	b510      	push	{r4, lr}
 8014bb2:	4608      	mov	r0, r1
 8014bb4:	4611      	mov	r1, r2
 8014bb6:	4a02      	ldr	r2, [pc, #8]	@ (8014bc0 <flashWrite+0x10>)
 8014bb8:	6894      	ldr	r4, [r2, #8]
 8014bba:	461a      	mov	r2, r3
 8014bbc:	47a0      	blx	r4
 8014bbe:	bd10      	pop	{r4, pc}
 8014bc0:	0801c688 	.word	0x0801c688

08014bc4 <initFlash>:
 8014bc4:	b508      	push	{r3, lr}
 8014bc6:	f003 f885 	bl	8017cd4 <hal_23lc1024_spi_init>
 8014bca:	4b02      	ldr	r3, [pc, #8]	@ (8014bd4 <initFlash+0x10>)
 8014bcc:	681b      	ldr	r3, [r3, #0]
 8014bce:	4798      	blx	r3
 8014bd0:	2001      	movs	r0, #1
 8014bd2:	bd08      	pop	{r3, pc}
 8014bd4:	0801c688 	.word	0x0801c688

08014bd8 <SetSysClock>:
 8014bd8:	4a1e      	ldr	r2, [pc, #120]	@ (8014c54 <SetSysClock+0x7c>)
 8014bda:	6813      	ldr	r3, [r2, #0]
 8014bdc:	f443 3380 	orr.w	r3, r3, #65536	@ 0x10000
 8014be0:	6013      	str	r3, [r2, #0]
 8014be2:	4b1c      	ldr	r3, [pc, #112]	@ (8014c54 <SetSysClock+0x7c>)
 8014be4:	681b      	ldr	r3, [r3, #0]
 8014be6:	f413 3f00 	tst.w	r3, #131072	@ 0x20000
 8014bea:	d0fa      	beq.n	8014be2 <SetSysClock+0xa>
 8014bec:	4b19      	ldr	r3, [pc, #100]	@ (8014c54 <SetSysClock+0x7c>)
 8014bee:	6c1a      	ldr	r2, [r3, #64]	@ 0x40
 8014bf0:	f042 5280 	orr.w	r2, r2, #268435456	@ 0x10000000
 8014bf4:	641a      	str	r2, [r3, #64]	@ 0x40
 8014bf6:	4918      	ldr	r1, [pc, #96]	@ (8014c58 <SetSysClock+0x80>)
 8014bf8:	680a      	ldr	r2, [r1, #0]
 8014bfa:	f442 4280 	orr.w	r2, r2, #16384	@ 0x4000
 8014bfe:	600a      	str	r2, [r1, #0]
 8014c00:	689a      	ldr	r2, [r3, #8]
 8014c02:	609a      	str	r2, [r3, #8]
 8014c04:	689a      	ldr	r2, [r3, #8]
 8014c06:	f442 4200 	orr.w	r2, r2, #32768	@ 0x8000
 8014c0a:	609a      	str	r2, [r3, #8]
 8014c0c:	689a      	ldr	r2, [r3, #8]
 8014c0e:	f442 52a0 	orr.w	r2, r2, #5120	@ 0x1400
 8014c12:	609a      	str	r2, [r3, #8]
 8014c14:	4a11      	ldr	r2, [pc, #68]	@ (8014c5c <SetSysClock+0x84>)
 8014c16:	605a      	str	r2, [r3, #4]
 8014c18:	681a      	ldr	r2, [r3, #0]
 8014c1a:	f042 7280 	orr.w	r2, r2, #16777216	@ 0x1000000
 8014c1e:	601a      	str	r2, [r3, #0]
 8014c20:	4b0c      	ldr	r3, [pc, #48]	@ (8014c54 <SetSysClock+0x7c>)
 8014c22:	681b      	ldr	r3, [r3, #0]
 8014c24:	f013 7f00 	tst.w	r3, #33554432	@ 0x2000000
 8014c28:	d0fa      	beq.n	8014c20 <SetSysClock+0x48>
 8014c2a:	4b0d      	ldr	r3, [pc, #52]	@ (8014c60 <SetSysClock+0x88>)
 8014c2c:	f240 7205 	movw	r2, #1797	@ 0x705
 8014c30:	601a      	str	r2, [r3, #0]
 8014c32:	f5a3 6380 	sub.w	r3, r3, #1024	@ 0x400
 8014c36:	689a      	ldr	r2, [r3, #8]
 8014c38:	f022 0203 	bic.w	r2, r2, #3
 8014c3c:	609a      	str	r2, [r3, #8]
 8014c3e:	689a      	ldr	r2, [r3, #8]
 8014c40:	f042 0202 	orr.w	r2, r2, #2
 8014c44:	609a      	str	r2, [r3, #8]
 8014c46:	4b03      	ldr	r3, [pc, #12]	@ (8014c54 <SetSysClock+0x7c>)
 8014c48:	689b      	ldr	r3, [r3, #8]
 8014c4a:	f003 030c 	and.w	r3, r3, #12
 8014c4e:	2b08      	cmp	r3, #8
 8014c50:	d1f9      	bne.n	8014c46 <SetSysClock+0x6e>
 8014c52:	4770      	bx	lr
 8014c54:	40023800 	.word	0x40023800
 8014c58:	40007000 	.word	0x40007000
 8014c5c:	07405408 	.word	0x07405408
 8014c60:	40023c00 	.word	0x40023c00

08014c64 <DWTInit>:
 8014c64:	4a07      	ldr	r2, [pc, #28]	@ (8014c84 <DWTInit+0x20>)
 8014c66:	f8d2 30fc 	ldr.w	r3, [r2, #252]	@ 0xfc
 8014c6a:	f043 7380 	orr.w	r3, r3, #16777216	@ 0x1000000
 8014c6e:	f8c2 30fc 	str.w	r3, [r2, #252]	@ 0xfc
 8014c72:	4b05      	ldr	r3, [pc, #20]	@ (8014c88 <DWTInit+0x24>)
 8014c74:	2200      	movs	r2, #0
 8014c76:	605a      	str	r2, [r3, #4]
 8014c78:	681a      	ldr	r2, [r3, #0]
 8014c7a:	f042 0201 	orr.w	r2, r2, #1
 8014c7e:	601a      	str	r2, [r3, #0]
 8014c80:	4770      	bx	lr
 8014c82:	bf00      	nop
 8014c84:	e000ed00 	.word	0xe000ed00
 8014c88:	e0001000 	.word	0xe0001000

08014c8c <init_systick>:
 8014c8c:	f04f 23e0 	mov.w	r3, #3758153728	@ 0xe000e000
 8014c90:	2100      	movs	r1, #0
 8014c92:	6119      	str	r1, [r3, #16]
 8014c94:	691a      	ldr	r2, [r3, #16]
 8014c96:	f042 0204 	orr.w	r2, r2, #4
 8014c9a:	611a      	str	r2, [r3, #16]
 8014c9c:	691a      	ldr	r2, [r3, #16]
 8014c9e:	f042 0202 	orr.w	r2, r2, #2
 8014ca2:	611a      	str	r2, [r3, #16]
 8014ca4:	3801      	subs	r0, #1
 8014ca6:	6158      	str	r0, [r3, #20]
 8014ca8:	6199      	str	r1, [r3, #24]
 8014caa:	691a      	ldr	r2, [r3, #16]
 8014cac:	f042 0201 	orr.w	r2, r2, #1
 8014cb0:	611a      	str	r2, [r3, #16]
 8014cb2:	4770      	bx	lr

08014cb4 <SystemCoreClockUpdate>:
 8014cb4:	4b22      	ldr	r3, [pc, #136]	@ (8014d40 <SystemCoreClockUpdate+0x8c>)
 8014cb6:	689b      	ldr	r3, [r3, #8]
 8014cb8:	f003 030c 	and.w	r3, r3, #12
 8014cbc:	2b04      	cmp	r3, #4
 8014cbe:	d014      	beq.n	8014cea <SystemCoreClockUpdate+0x36>
 8014cc0:	2b08      	cmp	r3, #8
 8014cc2:	d016      	beq.n	8014cf2 <SystemCoreClockUpdate+0x3e>
 8014cc4:	b11b      	cbz	r3, 8014cce <SystemCoreClockUpdate+0x1a>
 8014cc6:	4b1f      	ldr	r3, [pc, #124]	@ (8014d44 <SystemCoreClockUpdate+0x90>)
 8014cc8:	4a1f      	ldr	r2, [pc, #124]	@ (8014d48 <SystemCoreClockUpdate+0x94>)
 8014cca:	601a      	str	r2, [r3, #0]
 8014ccc:	e002      	b.n	8014cd4 <SystemCoreClockUpdate+0x20>
 8014cce:	4b1d      	ldr	r3, [pc, #116]	@ (8014d44 <SystemCoreClockUpdate+0x90>)
 8014cd0:	4a1d      	ldr	r2, [pc, #116]	@ (8014d48 <SystemCoreClockUpdate+0x94>)
 8014cd2:	601a      	str	r2, [r3, #0]
 8014cd4:	4b1a      	ldr	r3, [pc, #104]	@ (8014d40 <SystemCoreClockUpdate+0x8c>)
 8014cd6:	689b      	ldr	r3, [r3, #8]
 8014cd8:	f3c3 1303 	ubfx	r3, r3, #4, #4
 8014cdc:	4a1b      	ldr	r2, [pc, #108]	@ (8014d4c <SystemCoreClockUpdate+0x98>)
 8014cde:	5cd1      	ldrb	r1, [r2, r3]
 8014ce0:	4a18      	ldr	r2, [pc, #96]	@ (8014d44 <SystemCoreClockUpdate+0x90>)
 8014ce2:	6813      	ldr	r3, [r2, #0]
 8014ce4:	40cb      	lsrs	r3, r1
 8014ce6:	6013      	str	r3, [r2, #0]
 8014ce8:	4770      	bx	lr
 8014cea:	4b16      	ldr	r3, [pc, #88]	@ (8014d44 <SystemCoreClockUpdate+0x90>)
 8014cec:	4a18      	ldr	r2, [pc, #96]	@ (8014d50 <SystemCoreClockUpdate+0x9c>)
 8014cee:	601a      	str	r2, [r3, #0]
 8014cf0:	e7f0      	b.n	8014cd4 <SystemCoreClockUpdate+0x20>
 8014cf2:	4b13      	ldr	r3, [pc, #76]	@ (8014d40 <SystemCoreClockUpdate+0x8c>)
 8014cf4:	6859      	ldr	r1, [r3, #4]
 8014cf6:	685a      	ldr	r2, [r3, #4]
 8014cf8:	f002 023f 	and.w	r2, r2, #63	@ 0x3f
 8014cfc:	f411 0f80 	tst.w	r1, #4194304	@ 0x400000
 8014d00:	d013      	beq.n	8014d2a <SystemCoreClockUpdate+0x76>
 8014d02:	4b13      	ldr	r3, [pc, #76]	@ (8014d50 <SystemCoreClockUpdate+0x9c>)
 8014d04:	fbb3 f3f2 	udiv	r3, r3, r2
 8014d08:	4a0d      	ldr	r2, [pc, #52]	@ (8014d40 <SystemCoreClockUpdate+0x8c>)
 8014d0a:	6852      	ldr	r2, [r2, #4]
 8014d0c:	f3c2 1288 	ubfx	r2, r2, #6, #9
 8014d10:	fb02 f303 	mul.w	r3, r2, r3
 8014d14:	4a0a      	ldr	r2, [pc, #40]	@ (8014d40 <SystemCoreClockUpdate+0x8c>)
 8014d16:	6852      	ldr	r2, [r2, #4]
 8014d18:	f3c2 4201 	ubfx	r2, r2, #16, #2
 8014d1c:	3201      	adds	r2, #1
 8014d1e:	0052      	lsls	r2, r2, #1
 8014d20:	fbb3 f3f2 	udiv	r3, r3, r2
 8014d24:	4a07      	ldr	r2, [pc, #28]	@ (8014d44 <SystemCoreClockUpdate+0x90>)
 8014d26:	6013      	str	r3, [r2, #0]
 8014d28:	e7d4      	b.n	8014cd4 <SystemCoreClockUpdate+0x20>
 8014d2a:	4b07      	ldr	r3, [pc, #28]	@ (8014d48 <SystemCoreClockUpdate+0x94>)
 8014d2c:	fbb3 f3f2 	udiv	r3, r3, r2
 8014d30:	4a03      	ldr	r2, [pc, #12]	@ (8014d40 <SystemCoreClockUpdate+0x8c>)
 8014d32:	6852      	ldr	r2, [r2, #4]
 8014d34:	f3c2 1288 	ubfx	r2, r2, #6, #9
 8014d38:	fb02 f303 	mul.w	r3, r2, r3
 8014d3c:	e7ea      	b.n	8014d14 <SystemCoreClockUpdate+0x60>
 8014d3e:	bf00      	nop
 8014d40:	40023800 	.word	0x40023800
 8014d44:	20000088 	.word	0x20000088
 8014d48:	00f42400 	.word	0x00f42400
 8014d4c:	0801c61c 	.word	0x0801c61c
 8014d50:	017d7840 	.word	0x017d7840

08014d54 <set_sysclk_to_168>:
 8014d54:	4a1f      	ldr	r2, [pc, #124]	@ (8014dd4 <set_sysclk_to_168+0x80>)
 8014d56:	6813      	ldr	r3, [r2, #0]
 8014d58:	f443 3380 	orr.w	r3, r3, #65536	@ 0x10000
 8014d5c:	6013      	str	r3, [r2, #0]
 8014d5e:	4b1d      	ldr	r3, [pc, #116]	@ (8014dd4 <set_sysclk_to_168+0x80>)
 8014d60:	681b      	ldr	r3, [r3, #0]
 8014d62:	f413 3f00 	tst.w	r3, #131072	@ 0x20000
 8014d66:	d0fa      	beq.n	8014d5e <set_sysclk_to_168+0xa>
 8014d68:	4b1a      	ldr	r3, [pc, #104]	@ (8014dd4 <set_sysclk_to_168+0x80>)
 8014d6a:	6c1a      	ldr	r2, [r3, #64]	@ 0x40
 8014d6c:	f042 5280 	orr.w	r2, r2, #268435456	@ 0x10000000
 8014d70:	641a      	str	r2, [r3, #64]	@ 0x40
 8014d72:	4919      	ldr	r1, [pc, #100]	@ (8014dd8 <set_sysclk_to_168+0x84>)
 8014d74:	680a      	ldr	r2, [r1, #0]
 8014d76:	f442 4280 	orr.w	r2, r2, #16384	@ 0x4000
 8014d7a:	600a      	str	r2, [r1, #0]
 8014d7c:	689a      	ldr	r2, [r3, #8]
 8014d7e:	609a      	str	r2, [r3, #8]
 8014d80:	689a      	ldr	r2, [r3, #8]
 8014d82:	f442 52a0 	orr.w	r2, r2, #5120	@ 0x1400
 8014d86:	609a      	str	r2, [r3, #8]
 8014d88:	689a      	ldr	r2, [r3, #8]
 8014d8a:	f442 4200 	orr.w	r2, r2, #32768	@ 0x8000
 8014d8e:	609a      	str	r2, [r3, #8]
 8014d90:	4a12      	ldr	r2, [pc, #72]	@ (8014ddc <set_sysclk_to_168+0x88>)
 8014d92:	605a      	str	r2, [r3, #4]
 8014d94:	681a      	ldr	r2, [r3, #0]
 8014d96:	f042 7280 	orr.w	r2, r2, #16777216	@ 0x1000000
 8014d9a:	601a      	str	r2, [r3, #0]
 8014d9c:	4b0d      	ldr	r3, [pc, #52]	@ (8014dd4 <set_sysclk_to_168+0x80>)
 8014d9e:	681b      	ldr	r3, [r3, #0]
 8014da0:	f013 7f00 	tst.w	r3, #33554432	@ 0x2000000
 8014da4:	d0fa      	beq.n	8014d9c <set_sysclk_to_168+0x48>
 8014da6:	4b0e      	ldr	r3, [pc, #56]	@ (8014de0 <set_sysclk_to_168+0x8c>)
 8014da8:	f240 7205 	movw	r2, #1797	@ 0x705
 8014dac:	601a      	str	r2, [r3, #0]
 8014dae:	f5a3 6380 	sub.w	r3, r3, #1024	@ 0x400
 8014db2:	689a      	ldr	r2, [r3, #8]
 8014db4:	f022 0203 	bic.w	r2, r2, #3
 8014db8:	609a      	str	r2, [r3, #8]
 8014dba:	689a      	ldr	r2, [r3, #8]
 8014dbc:	f042 0202 	orr.w	r2, r2, #2
 8014dc0:	609a      	str	r2, [r3, #8]
 8014dc2:	4b04      	ldr	r3, [pc, #16]	@ (8014dd4 <set_sysclk_to_168+0x80>)
 8014dc4:	689b      	ldr	r3, [r3, #8]
 8014dc6:	f013 0f08 	tst.w	r3, #8
 8014dca:	d0fa      	beq.n	8014dc2 <set_sysclk_to_168+0x6e>
 8014dcc:	4b05      	ldr	r3, [pc, #20]	@ (8014de4 <set_sysclk_to_168+0x90>)
 8014dce:	4a06      	ldr	r2, [pc, #24]	@ (8014de8 <set_sysclk_to_168+0x94>)
 8014dd0:	601a      	str	r2, [r3, #0]
 8014dd2:	4770      	bx	lr
 8014dd4:	40023800 	.word	0x40023800
 8014dd8:	40007000 	.word	0x40007000
 8014ddc:	07405408 	.word	0x07405408
 8014de0:	40023c00 	.word	0x40023c00
 8014de4:	20000088 	.word	0x20000088
 8014de8:	09896800 	.word	0x09896800

08014dec <Reset_Handler>:
 8014dec:	b508      	push	{r3, lr}
 8014dee:	4a1f      	ldr	r2, [pc, #124]	@ (8014e6c <Reset_Handler+0x80>)
 8014df0:	f8d2 3088 	ldr.w	r3, [r2, #136]	@ 0x88
 8014df4:	f443 0370 	orr.w	r3, r3, #15728640	@ 0xf00000
 8014df8:	f8c2 3088 	str.w	r3, [r2, #136]	@ 0x88
 8014dfc:	f002 f9e6 	bl	80171cc <disable>
 8014e00:	4b1b      	ldr	r3, [pc, #108]	@ (8014e70 <Reset_Handler+0x84>)
 8014e02:	4a1c      	ldr	r2, [pc, #112]	@ (8014e74 <Reset_Handler+0x88>)
 8014e04:	e003      	b.n	8014e0e <Reset_Handler+0x22>
 8014e06:	f852 1b04 	ldr.w	r1, [r2], #4
 8014e0a:	f843 1b04 	str.w	r1, [r3], #4
 8014e0e:	491a      	ldr	r1, [pc, #104]	@ (8014e78 <Reset_Handler+0x8c>)
 8014e10:	428b      	cmp	r3, r1
 8014e12:	d3f8      	bcc.n	8014e06 <Reset_Handler+0x1a>
 8014e14:	4b19      	ldr	r3, [pc, #100]	@ (8014e7c <Reset_Handler+0x90>)
 8014e16:	e002      	b.n	8014e1e <Reset_Handler+0x32>
 8014e18:	2200      	movs	r2, #0
 8014e1a:	f843 2b04 	str.w	r2, [r3], #4
 8014e1e:	4a18      	ldr	r2, [pc, #96]	@ (8014e80 <Reset_Handler+0x94>)
 8014e20:	4293      	cmp	r3, r2
 8014e22:	d3f9      	bcc.n	8014e18 <Reset_Handler+0x2c>
 8014e24:	4b17      	ldr	r3, [pc, #92]	@ (8014e84 <Reset_Handler+0x98>)
 8014e26:	6b1a      	ldr	r2, [r3, #48]	@ 0x30
 8014e28:	f042 0201 	orr.w	r2, r2, #1
 8014e2c:	631a      	str	r2, [r3, #48]	@ 0x30
 8014e2e:	6b1a      	ldr	r2, [r3, #48]	@ 0x30
 8014e30:	f042 0202 	orr.w	r2, r2, #2
 8014e34:	631a      	str	r2, [r3, #48]	@ 0x30
 8014e36:	6b1a      	ldr	r2, [r3, #48]	@ 0x30
 8014e38:	f042 0204 	orr.w	r2, r2, #4
 8014e3c:	631a      	str	r2, [r3, #48]	@ 0x30
 8014e3e:	4a12      	ldr	r2, [pc, #72]	@ (8014e88 <Reset_Handler+0x9c>)
 8014e40:	4b0a      	ldr	r3, [pc, #40]	@ (8014e6c <Reset_Handler+0x80>)
 8014e42:	609a      	str	r2, [r3, #8]
 8014e44:	f7ff fec8 	bl	8014bd8 <SetSysClock>
 8014e48:	f7ff ff34 	bl	8014cb4 <SystemCoreClockUpdate>
 8014e4c:	f7ff ff82 	bl	8014d54 <set_sysclk_to_168>
 8014e50:	4b0e      	ldr	r3, [pc, #56]	@ (8014e8c <Reset_Handler+0xa0>)
 8014e52:	6818      	ldr	r0, [r3, #0]
 8014e54:	4b0e      	ldr	r3, [pc, #56]	@ (8014e90 <Reset_Handler+0xa4>)
 8014e56:	fba3 3000 	umull	r3, r0, r3, r0
 8014e5a:	0980      	lsrs	r0, r0, #6
 8014e5c:	f7ff ff16 	bl	8014c8c <init_systick>
 8014e60:	f7ff ff00 	bl	8014c64 <DWTInit>
 8014e64:	f001 f84a 	bl	8015efc <nulluser>
 8014e68:	bf00      	nop
 8014e6a:	e7fd      	b.n	8014e68 <Reset_Handler+0x7c>
 8014e6c:	e000ed00 	.word	0xe000ed00
 8014e70:	20000000 	.word	0x20000000
 8014e74:	0801d604 	.word	0x0801d604
 8014e78:	20000398 	.word	0x20000398
 8014e7c:	20000398 	.word	0x20000398
 8014e80:	20003bc8 	.word	0x20003bc8
 8014e84:	40023800 	.word	0x40023800
 8014e88:	08010000 	.word	0x08010000
 8014e8c:	20000088 	.word	0x20000088
 8014e90:	10624dd3 	.word	0x10624dd3

08014e94 <TIM2_IRQHandler>:
 8014e94:	b508      	push	{r3, lr}
 8014e96:	f04f 4280 	mov.w	r2, #1073741824	@ 0x40000000
 8014e9a:	6913      	ldr	r3, [r2, #16]
 8014e9c:	f023 0301 	bic.w	r3, r3, #1
 8014ea0:	6113      	str	r3, [r2, #16]
 8014ea2:	4a1c      	ldr	r2, [pc, #112]	@ (8014f14 <TIM2_IRQHandler+0x80>)
 8014ea4:	6813      	ldr	r3, [r2, #0]
 8014ea6:	3301      	adds	r3, #1
 8014ea8:	6013      	str	r3, [r2, #0]
 8014eaa:	491b      	ldr	r1, [pc, #108]	@ (8014f18 <TIM2_IRQHandler+0x84>)
 8014eac:	680a      	ldr	r2, [r1, #0]
 8014eae:	3201      	adds	r2, #1
 8014eb0:	600a      	str	r2, [r1, #0]
 8014eb2:	f5b3 7f7a 	cmp.w	r3, #1000	@ 0x3e8
 8014eb6:	d306      	bcc.n	8014ec6 <TIM2_IRQHandler+0x32>
 8014eb8:	4a18      	ldr	r2, [pc, #96]	@ (8014f1c <TIM2_IRQHandler+0x88>)
 8014eba:	6813      	ldr	r3, [r2, #0]
 8014ebc:	3301      	adds	r3, #1
 8014ebe:	6013      	str	r3, [r2, #0]
 8014ec0:	4b14      	ldr	r3, [pc, #80]	@ (8014f14 <TIM2_IRQHandler+0x80>)
 8014ec2:	2200      	movs	r2, #0
 8014ec4:	601a      	str	r2, [r3, #0]
 8014ec6:	4b16      	ldr	r3, [pc, #88]	@ (8014f20 <TIM2_IRQHandler+0x8c>)
 8014ec8:	681b      	ldr	r3, [r3, #0]
 8014eca:	b1f3      	cbz	r3, 8014f0a <TIM2_IRQHandler+0x76>
 8014ecc:	4b15      	ldr	r3, [pc, #84]	@ (8014f24 <TIM2_IRQHandler+0x90>)
 8014ece:	f9b3 2000 	ldrsh.w	r2, [r3]
 8014ed2:	4b15      	ldr	r3, [pc, #84]	@ (8014f28 <TIM2_IRQHandler+0x94>)
 8014ed4:	eb03 03c2 	add.w	r3, r3, r2, lsl #3
 8014ed8:	f9b3 3004 	ldrsh.w	r3, [r3, #4]
 8014edc:	2b0e      	cmp	r3, #14
 8014ede:	dc06      	bgt.n	8014eee <TIM2_IRQHandler+0x5a>
 8014ee0:	4911      	ldr	r1, [pc, #68]	@ (8014f28 <TIM2_IRQHandler+0x94>)
 8014ee2:	f851 2033 	ldr.w	r2, [r1, r3, lsl #3]
 8014ee6:	3a01      	subs	r2, #1
 8014ee8:	f841 2033 	str.w	r2, [r1, r3, lsl #3]
 8014eec:	b172      	cbz	r2, 8014f0c <TIM2_IRQHandler+0x78>
 8014eee:	4a0f      	ldr	r2, [pc, #60]	@ (8014f2c <TIM2_IRQHandler+0x98>)
 8014ef0:	6813      	ldr	r3, [r2, #0]
 8014ef2:	3b01      	subs	r3, #1
 8014ef4:	6013      	str	r3, [r2, #0]
 8014ef6:	b943      	cbnz	r3, 8014f0a <TIM2_IRQHandler+0x76>
 8014ef8:	4613      	mov	r3, r2
 8014efa:	220a      	movs	r2, #10
 8014efc:	601a      	str	r2, [r3, #0]
 8014efe:	f04f 23e0 	mov.w	r3, #3758153728	@ 0xe000e000
 8014f02:	f04f 5280 	mov.w	r2, #268435456	@ 0x10000000
 8014f06:	f8c3 2d04 	str.w	r2, [r3, #3332]	@ 0xd04
 8014f0a:	bd08      	pop	{r3, pc}
 8014f0c:	f000 fbd0 	bl	80156b0 <wakeup>
 8014f10:	e7ed      	b.n	8014eee <TIM2_IRQHandler+0x5a>
 8014f12:	bf00      	nop
 8014f14:	200016e0 	.word	0x200016e0
 8014f18:	20001c74 	.word	0x20001c74
 8014f1c:	200016dc 	.word	0x200016dc
 8014f20:	200016d0 	.word	0x200016d0
 8014f24:	200016d4 	.word	0x200016d4
 8014f28:	20001ca0 	.word	0x20001ca0
 8014f2c:	200016d8 	.word	0x200016d8

08014f30 <clkinit>:
 8014f30:	b508      	push	{r3, lr}
 8014f32:	f001 fce1 	bl	80168f8 <newqueue>
 8014f36:	4b12      	ldr	r3, [pc, #72]	@ (8014f80 <clkinit+0x50>)
 8014f38:	8018      	strh	r0, [r3, #0]
 8014f3a:	220a      	movs	r2, #10
 8014f3c:	605a      	str	r2, [r3, #4]
 8014f3e:	2200      	movs	r2, #0
 8014f40:	609a      	str	r2, [r3, #8]
 8014f42:	60da      	str	r2, [r3, #12]
 8014f44:	4a0f      	ldr	r2, [pc, #60]	@ (8014f84 <clkinit+0x54>)
 8014f46:	6c13      	ldr	r3, [r2, #64]	@ 0x40
 8014f48:	f043 0301 	orr.w	r3, r3, #1
 8014f4c:	6413      	str	r3, [r2, #64]	@ 0x40
 8014f4e:	f04f 4380 	mov.w	r3, #1073741824	@ 0x40000000
 8014f52:	681a      	ldr	r2, [r3, #0]
 8014f54:	f042 0204 	orr.w	r2, r2, #4
 8014f58:	601a      	str	r2, [r3, #0]
 8014f5a:	2207      	movs	r2, #7
 8014f5c:	629a      	str	r2, [r3, #40]	@ 0x28
 8014f5e:	f44f 6200 	mov.w	r2, #2048	@ 0x800
 8014f62:	62da      	str	r2, [r3, #44]	@ 0x2c
 8014f64:	68da      	ldr	r2, [r3, #12]
 8014f66:	f042 0201 	orr.w	r2, r2, #1
 8014f6a:	60da      	str	r2, [r3, #12]
 8014f6c:	4b06      	ldr	r3, [pc, #24]	@ (8014f88 <clkinit+0x58>)
 8014f6e:	f04f 5280 	mov.w	r2, #268435456	@ 0x10000000
 8014f72:	f8c3 2080 	str.w	r2, [r3, #128]	@ 0x80
 8014f76:	f3bf 8f4f 	dsb	sy
 8014f7a:	f3bf 8f6f 	isb	sy
 8014f7e:	bd08      	pop	{r3, pc}
 8014f80:	200016d4 	.word	0x200016d4
 8014f84:	40023800 	.word	0x40023800
 8014f88:	e000e100 	.word	0xe000e100

08014f8c <newpid>:
 8014f8c:	2100      	movs	r1, #0
 8014f8e:	290e      	cmp	r1, #14
 8014f90:	d821      	bhi.n	8014fd6 <newpid+0x4a>
 8014f92:	b410      	push	{r4}
 8014f94:	4c11      	ldr	r4, [pc, #68]	@ (8014fdc <newpid+0x50>)
 8014f96:	6822      	ldr	r2, [r4, #0]
 8014f98:	4b11      	ldr	r3, [pc, #68]	@ (8014fe0 <newpid+0x54>)
 8014f9a:	fb83 0302 	smull	r0, r3, r3, r2
 8014f9e:	4413      	add	r3, r2
 8014fa0:	17d0      	asrs	r0, r2, #31
 8014fa2:	ebc0 00e3 	rsb	r0, r0, r3, asr #3
 8014fa6:	ebc0 1000 	rsb	r0, r0, r0, lsl #4
 8014faa:	1a10      	subs	r0, r2, r0
 8014fac:	6020      	str	r0, [r4, #0]
 8014fae:	eb00 1200 	add.w	r2, r0, r0, lsl #4
 8014fb2:	0093      	lsls	r3, r2, #2
 8014fb4:	4a0b      	ldr	r2, [pc, #44]	@ (8014fe4 <newpid+0x58>)
 8014fb6:	5ad3      	ldrh	r3, [r2, r3]
 8014fb8:	b153      	cbz	r3, 8014fd0 <newpid+0x44>
 8014fba:	3001      	adds	r0, #1
 8014fbc:	4b07      	ldr	r3, [pc, #28]	@ (8014fdc <newpid+0x50>)
 8014fbe:	6018      	str	r0, [r3, #0]
 8014fc0:	3101      	adds	r1, #1
 8014fc2:	290e      	cmp	r1, #14
 8014fc4:	d9e6      	bls.n	8014f94 <newpid+0x8>
 8014fc6:	f04f 30ff 	mov.w	r0, #4294967295	@ 0xffffffff
 8014fca:	f85d 4b04 	ldr.w	r4, [sp], #4
 8014fce:	4770      	bx	lr
 8014fd0:	1c43      	adds	r3, r0, #1
 8014fd2:	6023      	str	r3, [r4, #0]
 8014fd4:	e7f9      	b.n	8014fca <newpid+0x3e>
 8014fd6:	f04f 30ff 	mov.w	r0, #4294967295	@ 0xffffffff
 8014fda:	4770      	bx	lr
 8014fdc:	200016e4 	.word	0x200016e4
 8014fe0:	88888889 	.word	0x88888889
 8014fe4:	200017bc 	.word	0x200017bc

08014fe8 <getpid>:
 8014fe8:	4b01      	ldr	r3, [pc, #4]	@ (8014ff0 <getpid+0x8>)
 8014fea:	6818      	ldr	r0, [r3, #0]
 8014fec:	4770      	bx	lr
 8014fee:	bf00      	nop
 8014ff0:	20001c78 	.word	0x20001c78

08014ff4 <create>:
 8014ff4:	e92d 47f0 	stmdb	sp!, {r4, r5, r6, r7, r8, r9, sl, lr}
 8014ff8:	4680      	mov	r8, r0
 8014ffa:	460c      	mov	r4, r1
 8014ffc:	4691      	mov	r9, r2
 8014ffe:	461e      	mov	r6, r3
 8015000:	f002 f8e4 	bl	80171cc <disable>
 8015004:	4607      	mov	r7, r0
 8015006:	f5b4 7fc8 	cmp.w	r4, #400	@ 0x190
 801500a:	d201      	bcs.n	8015010 <create+0x1c>
 801500c:	f44f 74c8 	mov.w	r4, #400	@ 0x190
 8015010:	3403      	adds	r4, #3
 8015012:	f024 0a03 	bic.w	sl, r4, #3
 8015016:	4650      	mov	r0, sl
 8015018:	f001 fa2c 	bl	8016474 <getstkcc>
 801501c:	4605      	mov	r5, r0
 801501e:	f1b0 3fff 	cmp.w	r0, #4294967295	@ 0xffffffff
 8015022:	d020      	beq.n	8015066 <create+0x72>
 8015024:	f7ff ffb2 	bl	8014f8c <newpid>
 8015028:	4604      	mov	r4, r0
 801502a:	f1b0 3fff 	cmp.w	r0, #4294967295	@ 0xffffffff
 801502e:	d01a      	beq.n	8015066 <create+0x72>
 8015030:	f1b9 0f00 	cmp.w	r9, #0
 8015034:	dd17      	ble.n	8015066 <create+0x72>
 8015036:	4a32      	ldr	r2, [pc, #200]	@ (8015100 <create+0x10c>)
 8015038:	6813      	ldr	r3, [r2, #0]
 801503a:	3301      	adds	r3, #1
 801503c:	6013      	str	r3, [r2, #0]
 801503e:	4931      	ldr	r1, [pc, #196]	@ (8015104 <create+0x110>)
 8015040:	eb00 1000 	add.w	r0, r0, r0, lsl #4
 8015044:	eb01 0280 	add.w	r2, r1, r0, lsl #2
 8015048:	2300      	movs	r3, #0
 801504a:	f882 3038 	strb.w	r3, [r2, #56]	@ 0x38
 801504e:	f04f 0c05 	mov.w	ip, #5
 8015052:	f821 c020 	strh.w	ip, [r1, r0, lsl #2]
 8015056:	f8a2 9002 	strh.w	r9, [r2, #2]
 801505a:	6095      	str	r5, [r2, #8]
 801505c:	f8c2 a00c 	str.w	sl, [r2, #12]
 8015060:	f882 3023 	strb.w	r3, [r2, #35]	@ 0x23
 8015064:	e006      	b.n	8015074 <create+0x80>
 8015066:	4638      	mov	r0, r7
 8015068:	f002 f8b4 	bl	80171d4 <restore>
 801506c:	f04f 34ff 	mov.w	r4, #4294967295	@ 0xffffffff
 8015070:	e042      	b.n	80150f8 <create+0x104>
 8015072:	3301      	adds	r3, #1
 8015074:	2b12      	cmp	r3, #18
 8015076:	dc09      	bgt.n	801508c <create+0x98>
 8015078:	5cf0      	ldrb	r0, [r6, r3]
 801507a:	eb04 1104 	add.w	r1, r4, r4, lsl #4
 801507e:	4a21      	ldr	r2, [pc, #132]	@ (8015104 <create+0x110>)
 8015080:	eb02 0281 	add.w	r2, r2, r1, lsl #2
 8015084:	441a      	add	r2, r3
 8015086:	7410      	strb	r0, [r2, #16]
 8015088:	2800      	cmp	r0, #0
 801508a:	d1f2      	bne.n	8015072 <create+0x7e>
 801508c:	eb04 1304 	add.w	r3, r4, r4, lsl #4
 8015090:	4e1c      	ldr	r6, [pc, #112]	@ (8015104 <create+0x110>)
 8015092:	eb06 0683 	add.w	r6, r6, r3, lsl #2
 8015096:	f04f 33ff 	mov.w	r3, #4294967295	@ 0xffffffff
 801509a:	6273      	str	r3, [r6, #36]	@ 0x24
 801509c:	f7ff ffa4 	bl	8014fe8 <getpid>
 80150a0:	62b0      	str	r0, [r6, #40]	@ 0x28
 80150a2:	2200      	movs	r2, #0
 80150a4:	f886 2030 	strb.w	r2, [r6, #48]	@ 0x30
 80150a8:	8672      	strh	r2, [r6, #50]	@ 0x32
 80150aa:	86b2      	strh	r2, [r6, #52]	@ 0x34
 80150ac:	86f2      	strh	r2, [r6, #54]	@ 0x36
 80150ae:	f1a5 001c 	sub.w	r0, r5, #28
 80150b2:	3d3c      	subs	r5, #60	@ 0x3c
 80150b4:	ab09      	add	r3, sp, #36	@ 0x24
 80150b6:	e004      	b.n	80150c2 <create+0xce>
 80150b8:	f853 1b04 	ldr.w	r1, [r3], #4
 80150bc:	f840 1022 	str.w	r1, [r0, r2, lsl #2]
 80150c0:	3201      	adds	r2, #1
 80150c2:	9908      	ldr	r1, [sp, #32]
 80150c4:	428a      	cmp	r2, r1
 80150c6:	d3f7      	bcc.n	80150b8 <create+0xc4>
 80150c8:	4b0f      	ldr	r3, [pc, #60]	@ (8015108 <create+0x114>)
 80150ca:	6143      	str	r3, [r0, #20]
 80150cc:	f8c0 8018 	str.w	r8, [r0, #24]
 80150d0:	f04f 7380 	mov.w	r3, #16777216	@ 0x1000000
 80150d4:	61c3      	str	r3, [r0, #28]
 80150d6:	2300      	movs	r3, #0
 80150d8:	e003      	b.n	80150e2 <create+0xee>
 80150da:	2200      	movs	r2, #0
 80150dc:	f845 2023 	str.w	r2, [r5, r3, lsl #2]
 80150e0:	3301      	adds	r3, #1
 80150e2:	2b07      	cmp	r3, #7
 80150e4:	ddf9      	ble.n	80150da <create+0xe6>
 80150e6:	eb04 1204 	add.w	r2, r4, r4, lsl #4
 80150ea:	4b06      	ldr	r3, [pc, #24]	@ (8015104 <create+0x110>)
 80150ec:	eb03 0382 	add.w	r3, r3, r2, lsl #2
 80150f0:	605d      	str	r5, [r3, #4]
 80150f2:	4638      	mov	r0, r7
 80150f4:	f002 f86e 	bl	80171d4 <restore>
 80150f8:	4620      	mov	r0, r4
 80150fa:	e8bd 87f0 	ldmia.w	sp!, {r4, r5, r6, r7, r8, r9, sl, pc}
 80150fe:	bf00      	nop
 8015100:	200017b8 	.word	0x200017b8
 8015104:	200017bc 	.word	0x200017bc
 8015108:	080153e9 	.word	0x080153e9

0801510c <chprio>:
 801510c:	b570      	push	{r4, r5, r6, lr}
 801510e:	4604      	mov	r4, r0
 8015110:	460d      	mov	r5, r1
 8015112:	f002 f85b 	bl	80171cc <disable>
 8015116:	2c0e      	cmp	r4, #14
 8015118:	d811      	bhi.n	801513e <chprio+0x32>
 801511a:	eb04 1304 	add.w	r3, r4, r4, lsl #4
 801511e:	4a0a      	ldr	r2, [pc, #40]	@ (8015148 <chprio+0x3c>)
 8015120:	f832 3023 	ldrh.w	r3, [r2, r3, lsl #2]
 8015124:	b15b      	cbz	r3, 801513e <chprio+0x32>
 8015126:	4b08      	ldr	r3, [pc, #32]	@ (8015148 <chprio+0x3c>)
 8015128:	eb04 1204 	add.w	r2, r4, r4, lsl #4
 801512c:	eb03 0282 	add.w	r2, r3, r2, lsl #2
 8015130:	f9b2 6002 	ldrsh.w	r6, [r2, #2]
 8015134:	8055      	strh	r5, [r2, #2]
 8015136:	f002 f84d 	bl	80171d4 <restore>
 801513a:	4630      	mov	r0, r6
 801513c:	bd70      	pop	{r4, r5, r6, pc}
 801513e:	f002 f849 	bl	80171d4 <restore>
 8015142:	f04f 36ff 	mov.w	r6, #4294967295	@ 0xffffffff
 8015146:	e7f8      	b.n	801513a <chprio+0x2e>
 8015148:	200017bc 	.word	0x200017bc

0801514c <getprio>:
 801514c:	b510      	push	{r4, lr}
 801514e:	4604      	mov	r4, r0
 8015150:	f002 f83c 	bl	80171cc <disable>
 8015154:	2c0e      	cmp	r4, #14
 8015156:	d810      	bhi.n	801517a <getprio+0x2e>
 8015158:	eb04 1304 	add.w	r3, r4, r4, lsl #4
 801515c:	4a09      	ldr	r2, [pc, #36]	@ (8015184 <getprio+0x38>)
 801515e:	f832 3023 	ldrh.w	r3, [r2, r3, lsl #2]
 8015162:	b153      	cbz	r3, 801517a <getprio+0x2e>
 8015164:	eb04 1404 	add.w	r4, r4, r4, lsl #4
 8015168:	4b06      	ldr	r3, [pc, #24]	@ (8015184 <getprio+0x38>)
 801516a:	eb03 0384 	add.w	r3, r3, r4, lsl #2
 801516e:	f9b3 4002 	ldrsh.w	r4, [r3, #2]
 8015172:	f002 f82f 	bl	80171d4 <restore>
 8015176:	4620      	mov	r0, r4
 8015178:	bd10      	pop	{r4, pc}
 801517a:	f002 f82b 	bl	80171d4 <restore>
 801517e:	f04f 30ff 	mov.w	r0, #4294967295	@ 0xffffffff
 8015182:	e7f9      	b.n	8015178 <getprio+0x2c>
 8015184:	200017bc 	.word	0x200017bc

08015188 <yield>:
 8015188:	b508      	push	{r3, lr}
 801518a:	f002 f81f 	bl	80171cc <disable>
 801518e:	f04f 23e0 	mov.w	r3, #3758153728	@ 0xe000e000
 8015192:	f04f 5280 	mov.w	r2, #268435456	@ 0x10000000
 8015196:	f8c3 2d04 	str.w	r2, [r3, #3332]	@ 0xd04
 801519a:	f002 f81b 	bl	80171d4 <restore>
 801519e:	2001      	movs	r0, #1
 80151a0:	bd08      	pop	{r3, pc}

080151a2 <wait>:
 80151a2:	b538      	push	{r3, r4, r5, lr}
 80151a4:	4604      	mov	r4, r0
 80151a6:	f002 f811 	bl	80171cc <disable>
 80151aa:	4605      	mov	r5, r0
 80151ac:	2c0e      	cmp	r4, #14
 80151ae:	d814      	bhi.n	80151da <wait+0x38>
 80151b0:	eb04 0344 	add.w	r3, r4, r4, lsl #1
 80151b4:	4a1c      	ldr	r2, [pc, #112]	@ (8015228 <wait+0x86>)
 80151b6:	f812 3023 	ldrb.w	r3, [r2, r3, lsl #2]
 80151ba:	b19b      	cbz	r3, 80151e4 <wait+0x42>
 80151bc:	eb04 0344 	add.w	r3, r4, r4, lsl #1
 80151c0:	4a19      	ldr	r2, [pc, #100]	@ (8015228 <wait+0x86>)
 80151c2:	eb02 0283 	add.w	r2, r2, r3, lsl #2
 80151c6:	6853      	ldr	r3, [r2, #4]
 80151c8:	3b01      	subs	r3, #1
 80151ca:	6053      	str	r3, [r2, #4]
 80151cc:	2b00      	cmp	r3, #0
 80151ce:	db0e      	blt.n	80151ee <wait+0x4c>
 80151d0:	4628      	mov	r0, r5
 80151d2:	f001 ffff 	bl	80171d4 <restore>
 80151d6:	2001      	movs	r0, #1
 80151d8:	bd38      	pop	{r3, r4, r5, pc}
 80151da:	f001 fffb 	bl	80171d4 <restore>
 80151de:	f04f 30ff 	mov.w	r0, #4294967295	@ 0xffffffff
 80151e2:	e7f9      	b.n	80151d8 <wait+0x36>
 80151e4:	f001 fff6 	bl	80171d4 <restore>
 80151e8:	f04f 30ff 	mov.w	r0, #4294967295	@ 0xffffffff
 80151ec:	e7f4      	b.n	80151d8 <wait+0x36>
 80151ee:	4b0f      	ldr	r3, [pc, #60]	@ (801522c <wait+0x8a>)
 80151f0:	6818      	ldr	r0, [r3, #0]
 80151f2:	4b0f      	ldr	r3, [pc, #60]	@ (8015230 <wait+0x8e>)
 80151f4:	eb00 1200 	add.w	r2, r0, r0, lsl #4
 80151f8:	eb03 0182 	add.w	r1, r3, r2, lsl #2
 80151fc:	f04f 0c06 	mov.w	ip, #6
 8015200:	f823 c022 	strh.w	ip, [r3, r2, lsl #2]
 8015204:	624c      	str	r4, [r1, #36]	@ 0x24
 8015206:	eb04 0444 	add.w	r4, r4, r4, lsl #1
 801520a:	4b07      	ldr	r3, [pc, #28]	@ (8015228 <wait+0x86>)
 801520c:	eb03 0384 	add.w	r3, r3, r4, lsl #2
 8015210:	f9b3 1008 	ldrsh.w	r1, [r3, #8]
 8015214:	f001 fa58 	bl	80166c8 <enqueue>
 8015218:	f04f 23e0 	mov.w	r3, #3758153728	@ 0xe000e000
 801521c:	f04f 5280 	mov.w	r2, #268435456	@ 0x10000000
 8015220:	f8c3 2d04 	str.w	r2, [r3, #3332]	@ 0xd04
 8015224:	e7d4      	b.n	80151d0 <wait+0x2e>
 8015226:	bf00      	nop
 8015228:	20001bb8 	.word	0x20001bb8
 801522c:	20001c78 	.word	0x20001c78
 8015230:	200017bc 	.word	0x200017bc

08015234 <unsleep>:
 8015234:	b538      	push	{r3, r4, r5, lr}
 8015236:	4604      	mov	r4, r0
 8015238:	f001 ffc8 	bl	80171cc <disable>
 801523c:	4605      	mov	r5, r0
 801523e:	2c0e      	cmp	r4, #14
 8015240:	d820      	bhi.n	8015284 <unsleep+0x50>
 8015242:	eb04 1304 	add.w	r3, r4, r4, lsl #4
 8015246:	4a15      	ldr	r2, [pc, #84]	@ (801529c <unsleep+0x68>)
 8015248:	f832 3023 	ldrh.w	r3, [r2, r3, lsl #2]
 801524c:	b1d3      	cbz	r3, 8015284 <unsleep+0x50>
 801524e:	2b04      	cmp	r3, #4
 8015250:	d001      	beq.n	8015256 <unsleep+0x22>
 8015252:	2b07      	cmp	r3, #7
 8015254:	d11c      	bne.n	8015290 <unsleep+0x5c>
 8015256:	4b12      	ldr	r3, [pc, #72]	@ (80152a0 <unsleep+0x6c>)
 8015258:	eb03 03c4 	add.w	r3, r3, r4, lsl #3
 801525c:	f9b3 3004 	ldrsh.w	r3, [r3, #4]
 8015260:	2b0e      	cmp	r3, #14
 8015262:	dc07      	bgt.n	8015274 <unsleep+0x40>
 8015264:	4a0e      	ldr	r2, [pc, #56]	@ (80152a0 <unsleep+0x6c>)
 8015266:	f852 1033 	ldr.w	r1, [r2, r3, lsl #3]
 801526a:	f852 0034 	ldr.w	r0, [r2, r4, lsl #3]
 801526e:	4401      	add	r1, r0
 8015270:	f842 1033 	str.w	r1, [r2, r3, lsl #3]
 8015274:	4620      	mov	r0, r4
 8015276:	f001 fa57 	bl	8016728 <getitem>
 801527a:	4628      	mov	r0, r5
 801527c:	f001 ffaa 	bl	80171d4 <restore>
 8015280:	2001      	movs	r0, #1
 8015282:	e004      	b.n	801528e <unsleep+0x5a>
 8015284:	4628      	mov	r0, r5
 8015286:	f001 ffa5 	bl	80171d4 <restore>
 801528a:	f04f 30ff 	mov.w	r0, #4294967295	@ 0xffffffff
 801528e:	bd38      	pop	{r3, r4, r5, pc}
 8015290:	f001 ffa0 	bl	80171d4 <restore>
 8015294:	f04f 30ff 	mov.w	r0, #4294967295	@ 0xffffffff
 8015298:	e7f9      	b.n	801528e <unsleep+0x5a>
 801529a:	bf00      	nop
 801529c:	200017bc 	.word	0x200017bc
 80152a0:	20001ca0 	.word	0x20001ca0

080152a4 <kill>:
 80152a4:	b570      	push	{r4, r5, r6, lr}
 80152a6:	4604      	mov	r4, r0
 80152a8:	f001 ff90 	bl	80171cc <disable>
 80152ac:	4606      	mov	r6, r0
 80152ae:	2c0e      	cmp	r4, #14
 80152b0:	d817      	bhi.n	80152e2 <kill+0x3e>
 80152b2:	eb04 1304 	add.w	r3, r4, r4, lsl #4
 80152b6:	4a48      	ldr	r2, [pc, #288]	@ (80153d8 <kill+0x134>)
 80152b8:	f832 3023 	ldrh.w	r3, [r2, r3, lsl #2]
 80152bc:	b18b      	cbz	r3, 80152e2 <kill+0x3e>
 80152be:	b184      	cbz	r4, 80152e2 <kill+0x3e>
 80152c0:	4a46      	ldr	r2, [pc, #280]	@ (80153dc <kill+0x138>)
 80152c2:	6813      	ldr	r3, [r2, #0]
 80152c4:	3b01      	subs	r3, #1
 80152c6:	6013      	str	r3, [r2, #0]
 80152c8:	2b01      	cmp	r3, #1
 80152ca:	dd10      	ble.n	80152ee <kill+0x4a>
 80152cc:	eb04 1204 	add.w	r2, r4, r4, lsl #4
 80152d0:	4b41      	ldr	r3, [pc, #260]	@ (80153d8 <kill+0x134>)
 80152d2:	eb03 0382 	add.w	r3, r3, r2, lsl #2
 80152d6:	4621      	mov	r1, r4
 80152d8:	6a98      	ldr	r0, [r3, #40]	@ 0x28
 80152da:	f001 f9a5 	bl	8016628 <send>
 80152de:	2500      	movs	r5, #0
 80152e0:	e015      	b.n	801530e <kill+0x6a>
 80152e2:	4630      	mov	r0, r6
 80152e4:	f001 ff76 	bl	80171d4 <restore>
 80152e8:	f04f 30ff 	mov.w	r0, #4294967295	@ 0xffffffff
 80152ec:	bd70      	pop	{r4, r5, r6, pc}
 80152ee:	f001 ff63 	bl	80171b8 <xdone>
 80152f2:	e7eb      	b.n	80152cc <kill+0x28>
 80152f4:	eb04 1304 	add.w	r3, r4, r4, lsl #4
 80152f8:	eb05 0343 	add.w	r3, r5, r3, lsl #1
 80152fc:	3318      	adds	r3, #24
 80152fe:	4a36      	ldr	r2, [pc, #216]	@ (80153d8 <kill+0x134>)
 8015300:	eb02 0343 	add.w	r3, r2, r3, lsl #1
 8015304:	f9b3 0002 	ldrsh.w	r0, [r3, #2]
 8015308:	f000 fbf2 	bl	8015af0 <close>
 801530c:	3501      	adds	r5, #1
 801530e:	2d02      	cmp	r5, #2
 8015310:	ddf0      	ble.n	80152f4 <kill+0x50>
 8015312:	eb04 1304 	add.w	r3, r4, r4, lsl #4
 8015316:	4d30      	ldr	r5, [pc, #192]	@ (80153d8 <kill+0x134>)
 8015318:	eb05 0583 	add.w	r5, r5, r3, lsl #2
 801531c:	68a8      	ldr	r0, [r5, #8]
 801531e:	68e9      	ldr	r1, [r5, #12]
 8015320:	3107      	adds	r1, #7
 8015322:	f021 0107 	bic.w	r1, r1, #7
 8015326:	1a40      	subs	r0, r0, r1
 8015328:	3004      	adds	r0, #4
 801532a:	f001 f815 	bl	8016358 <freememcc>
 801532e:	f895 3038 	ldrb.w	r3, [r5, #56]	@ 0x38
 8015332:	2b01      	cmp	r3, #1
 8015334:	d00d      	beq.n	8015352 <kill+0xae>
 8015336:	eb04 1304 	add.w	r3, r4, r4, lsl #4
 801533a:	4a27      	ldr	r2, [pc, #156]	@ (80153d8 <kill+0x134>)
 801533c:	f832 3023 	ldrh.w	r3, [r2, r3, lsl #2]
 8015340:	3b01      	subs	r3, #1
 8015342:	2b06      	cmp	r3, #6
 8015344:	d83d      	bhi.n	80153c2 <kill+0x11e>
 8015346:	e8df f003 	tbb	[pc, r3]
 801534a:	3911      	.short	0x3911
 801534c:	273c1d3c 	.word	0x273c1d3c
 8015350:	1d          	.byte	0x1d
 8015351:	00          	.byte	0x00
 8015352:	eb04 1304 	add.w	r3, r4, r4, lsl #4
 8015356:	4d20      	ldr	r5, [pc, #128]	@ (80153d8 <kill+0x134>)
 8015358:	eb05 0583 	add.w	r5, r5, r3, lsl #2
 801535c:	6be8      	ldr	r0, [r5, #60]	@ 0x3c
 801535e:	f7fc f9d7 	bl	8011710 <free>
 8015362:	6be9      	ldr	r1, [r5, #60]	@ 0x3c
 8015364:	481e      	ldr	r0, [pc, #120]	@ (80153e0 <kill+0x13c>)
 8015366:	f000 fee3 	bl	8016130 <kprintf>
 801536a:	e7e4      	b.n	8015336 <kill+0x92>
 801536c:	eb04 1304 	add.w	r3, r4, r4, lsl #4
 8015370:	009b      	lsls	r3, r3, #2
 8015372:	4a19      	ldr	r2, [pc, #100]	@ (80153d8 <kill+0x134>)
 8015374:	2100      	movs	r1, #0
 8015376:	52d1      	strh	r1, [r2, r3]
 8015378:	f04f 23e0 	mov.w	r3, #3758153728	@ 0xe000e000
 801537c:	f04f 5280 	mov.w	r2, #268435456	@ 0x10000000
 8015380:	f8c3 2d04 	str.w	r2, [r3, #3332]	@ 0xd04
 8015384:	4620      	mov	r0, r4
 8015386:	f7ff ff55 	bl	8015234 <unsleep>
 801538a:	eb04 1404 	add.w	r4, r4, r4, lsl #4
 801538e:	00a4      	lsls	r4, r4, #2
 8015390:	4b11      	ldr	r3, [pc, #68]	@ (80153d8 <kill+0x134>)
 8015392:	2200      	movs	r2, #0
 8015394:	531a      	strh	r2, [r3, r4]
 8015396:	e01a      	b.n	80153ce <kill+0x12a>
 8015398:	eb04 1204 	add.w	r2, r4, r4, lsl #4
 801539c:	4b0e      	ldr	r3, [pc, #56]	@ (80153d8 <kill+0x134>)
 801539e:	eb03 0382 	add.w	r3, r3, r2, lsl #2
 80153a2:	6a5b      	ldr	r3, [r3, #36]	@ 0x24
 80153a4:	4a0f      	ldr	r2, [pc, #60]	@ (80153e4 <kill+0x140>)
 80153a6:	eb03 0143 	add.w	r1, r3, r3, lsl #1
 80153aa:	eb02 0181 	add.w	r1, r2, r1, lsl #2
 80153ae:	6849      	ldr	r1, [r1, #4]
 80153b0:	eb03 0343 	add.w	r3, r3, r3, lsl #1
 80153b4:	eb02 0283 	add.w	r2, r2, r3, lsl #2
 80153b8:	3101      	adds	r1, #1
 80153ba:	6051      	str	r1, [r2, #4]
 80153bc:	4620      	mov	r0, r4
 80153be:	f001 f9b3 	bl	8016728 <getitem>
 80153c2:	eb04 1404 	add.w	r4, r4, r4, lsl #4
 80153c6:	00a4      	lsls	r4, r4, #2
 80153c8:	4b03      	ldr	r3, [pc, #12]	@ (80153d8 <kill+0x134>)
 80153ca:	2200      	movs	r2, #0
 80153cc:	531a      	strh	r2, [r3, r4]
 80153ce:	4630      	mov	r0, r6
 80153d0:	f001 ff00 	bl	80171d4 <restore>
 80153d4:	2001      	movs	r0, #1
 80153d6:	e789      	b.n	80152ec <kill+0x48>
 80153d8:	200017bc 	.word	0x200017bc
 80153dc:	200017b8 	.word	0x200017b8
 80153e0:	0801d1f4 	.word	0x0801d1f4
 80153e4:	20001bb8 	.word	0x20001bb8

080153e8 <userret>:
 80153e8:	b508      	push	{r3, lr}
 80153ea:	f7ff fdfd 	bl	8014fe8 <getpid>
 80153ee:	f7ff ff59 	bl	80152a4 <kill>
 80153f2:	bd08      	pop	{r3, pc}

080153f4 <suspend>:
 80153f4:	b538      	push	{r3, r4, r5, lr}
 80153f6:	4604      	mov	r4, r0
 80153f8:	f001 fee8 	bl	80171cc <disable>
 80153fc:	4605      	mov	r5, r0
 80153fe:	2c0e      	cmp	r4, #14
 8015400:	d824      	bhi.n	801544c <suspend+0x58>
 8015402:	eb04 1304 	add.w	r3, r4, r4, lsl #4
 8015406:	4a1c      	ldr	r2, [pc, #112]	@ (8015478 <suspend+0x84>)
 8015408:	f832 3023 	ldrh.w	r3, [r2, r3, lsl #2]
 801540c:	b1f3      	cbz	r3, 801544c <suspend+0x58>
 801540e:	b1ec      	cbz	r4, 801544c <suspend+0x58>
 8015410:	1e5a      	subs	r2, r3, #1
 8015412:	b292      	uxth	r2, r2
 8015414:	2a01      	cmp	r2, #1
 8015416:	d81f      	bhi.n	8015458 <suspend+0x64>
 8015418:	2b02      	cmp	r3, #2
 801541a:	d022      	beq.n	8015462 <suspend+0x6e>
 801541c:	eb04 1304 	add.w	r3, r4, r4, lsl #4
 8015420:	4a15      	ldr	r2, [pc, #84]	@ (8015478 <suspend+0x84>)
 8015422:	2105      	movs	r1, #5
 8015424:	f822 1023 	strh.w	r1, [r2, r3, lsl #2]
 8015428:	f04f 23e0 	mov.w	r3, #3758153728	@ 0xe000e000
 801542c:	f04f 5280 	mov.w	r2, #268435456	@ 0x10000000
 8015430:	f8c3 2d04 	str.w	r2, [r3, #3332]	@ 0xd04
 8015434:	eb04 1404 	add.w	r4, r4, r4, lsl #4
 8015438:	4b0f      	ldr	r3, [pc, #60]	@ (8015478 <suspend+0x84>)
 801543a:	eb03 0384 	add.w	r3, r3, r4, lsl #2
 801543e:	f9b3 4002 	ldrsh.w	r4, [r3, #2]
 8015442:	4628      	mov	r0, r5
 8015444:	f001 fec6 	bl	80171d4 <restore>
 8015448:	4620      	mov	r0, r4
 801544a:	bd38      	pop	{r3, r4, r5, pc}
 801544c:	4628      	mov	r0, r5
 801544e:	f001 fec1 	bl	80171d4 <restore>
 8015452:	f04f 30ff 	mov.w	r0, #4294967295	@ 0xffffffff
 8015456:	e7f8      	b.n	801544a <suspend+0x56>
 8015458:	f001 febc 	bl	80171d4 <restore>
 801545c:	f04f 30ff 	mov.w	r0, #4294967295	@ 0xffffffff
 8015460:	e7f3      	b.n	801544a <suspend+0x56>
 8015462:	4620      	mov	r0, r4
 8015464:	f001 f960 	bl	8016728 <getitem>
 8015468:	eb04 1304 	add.w	r3, r4, r4, lsl #4
 801546c:	4a02      	ldr	r2, [pc, #8]	@ (8015478 <suspend+0x84>)
 801546e:	2105      	movs	r1, #5
 8015470:	f822 1023 	strh.w	r1, [r2, r3, lsl #2]
 8015474:	e7de      	b.n	8015434 <suspend+0x40>
 8015476:	bf00      	nop
 8015478:	200017bc 	.word	0x200017bc

0801547c <sleepms>:
 801547c:	b538      	push	{r3, r4, r5, lr}
 801547e:	1e04      	subs	r4, r0, #0
 8015480:	db2b      	blt.n	80154da <sleepms+0x5e>
 8015482:	b314      	cbz	r4, 80154ca <sleepms+0x4e>
 8015484:	f001 fea2 	bl	80171cc <disable>
 8015488:	4605      	mov	r5, r0
 801548a:	4622      	mov	r2, r4
 801548c:	4b14      	ldr	r3, [pc, #80]	@ (80154e0 <sleepms+0x64>)
 801548e:	f9b3 1000 	ldrsh.w	r1, [r3]
 8015492:	4b14      	ldr	r3, [pc, #80]	@ (80154e4 <sleepms+0x68>)
 8015494:	6818      	ldr	r0, [r3, #0]
 8015496:	f001 f9df 	bl	8016858 <insertd>
 801549a:	4604      	mov	r4, r0
 801549c:	f1b0 3fff 	cmp.w	r0, #4294967295	@ 0xffffffff
 80154a0:	d017      	beq.n	80154d2 <sleepms+0x56>
 80154a2:	4b10      	ldr	r3, [pc, #64]	@ (80154e4 <sleepms+0x68>)
 80154a4:	681b      	ldr	r3, [r3, #0]
 80154a6:	eb03 1303 	add.w	r3, r3, r3, lsl #4
 80154aa:	4a0f      	ldr	r2, [pc, #60]	@ (80154e8 <sleepms+0x6c>)
 80154ac:	2104      	movs	r1, #4
 80154ae:	f822 1023 	strh.w	r1, [r2, r3, lsl #2]
 80154b2:	f04f 23e0 	mov.w	r3, #3758153728	@ 0xe000e000
 80154b6:	f04f 5280 	mov.w	r2, #268435456	@ 0x10000000
 80154ba:	f8c3 2d04 	str.w	r2, [r3, #3332]	@ 0xd04
 80154be:	4628      	mov	r0, r5
 80154c0:	f001 fe88 	bl	80171d4 <restore>
 80154c4:	2401      	movs	r4, #1
 80154c6:	4620      	mov	r0, r4
 80154c8:	bd38      	pop	{r3, r4, r5, pc}
 80154ca:	f7ff fe5d 	bl	8015188 <yield>
 80154ce:	2401      	movs	r4, #1
 80154d0:	e7f9      	b.n	80154c6 <sleepms+0x4a>
 80154d2:	4628      	mov	r0, r5
 80154d4:	f001 fe7e 	bl	80171d4 <restore>
 80154d8:	e7f5      	b.n	80154c6 <sleepms+0x4a>
 80154da:	f04f 34ff 	mov.w	r4, #4294967295	@ 0xffffffff
 80154de:	e7f2      	b.n	80154c6 <sleepms+0x4a>
 80154e0:	200016d4 	.word	0x200016d4
 80154e4:	20001c78 	.word	0x20001c78
 80154e8:	200017bc 	.word	0x200017bc

080154ec <sleep>:
 80154ec:	b508      	push	{r3, lr}
 80154ee:	4b07      	ldr	r3, [pc, #28]	@ (801550c <sleep+0x20>)
 80154f0:	4298      	cmp	r0, r3
 80154f2:	d902      	bls.n	80154fa <sleep+0xe>
 80154f4:	f04f 30ff 	mov.w	r0, #4294967295	@ 0xffffffff
 80154f8:	bd08      	pop	{r3, pc}
 80154fa:	f44f 737a 	mov.w	r3, #1000	@ 0x3e8
 80154fe:	fb03 f000 	mul.w	r0, r3, r0
 8015502:	f7ff ffbb 	bl	801547c <sleepms>
 8015506:	2001      	movs	r0, #1
 8015508:	e7f6      	b.n	80154f8 <sleep+0xc>
 801550a:	bf00      	nop
 801550c:	0020c49b 	.word	0x0020c49b

08015510 <PendSV_Handler>:
 8015510:	f3ef 8009 	mrs	r0, PSP
 8015514:	e920 0ff0 	stmdb	r0!, {r4, r5, r6, r7, r8, r9, sl, fp}
 8015518:	4605      	mov	r5, r0
 801551a:	4b34      	ldr	r3, [pc, #208]	@ (80155ec <PendSV_Handler+0xdc>)
 801551c:	685b      	ldr	r3, [r3, #4]
 801551e:	2b00      	cmp	r3, #0
 8015520:	dd0b      	ble.n	801553a <PendSV_Handler+0x2a>
 8015522:	4b32      	ldr	r3, [pc, #200]	@ (80155ec <PendSV_Handler+0xdc>)
 8015524:	2201      	movs	r2, #1
 8015526:	721a      	strb	r2, [r3, #8]
 8015528:	4628      	mov	r0, r5
 801552a:	e8b0 0ff0 	ldmia.w	r0!, {r4, r5, r6, r7, r8, r9, sl, fp}
 801552e:	f380 8809 	msr	PSP, r0
 8015532:	f06f 0002 	mvn.w	r0, #2
 8015536:	4686      	mov	lr, r0
 8015538:	4770      	bx	lr
 801553a:	4b2d      	ldr	r3, [pc, #180]	@ (80155f0 <PendSV_Handler+0xe0>)
 801553c:	681c      	ldr	r4, [r3, #0]
 801553e:	eb04 1204 	add.w	r2, r4, r4, lsl #4
 8015542:	4b2c      	ldr	r3, [pc, #176]	@ (80155f4 <PendSV_Handler+0xe4>)
 8015544:	f833 3022 	ldrh.w	r3, [r3, r2, lsl #2]
 8015548:	2b01      	cmp	r3, #1
 801554a:	d022      	beq.n	8015592 <PendSV_Handler+0x82>
 801554c:	4b27      	ldr	r3, [pc, #156]	@ (80155ec <PendSV_Handler+0xdc>)
 801554e:	f9b3 000c 	ldrsh.w	r0, [r3, #12]
 8015552:	f001 f90b 	bl	801676c <dequeue>
 8015556:	4b26      	ldr	r3, [pc, #152]	@ (80155f0 <PendSV_Handler+0xe0>)
 8015558:	6018      	str	r0, [r3, #0]
 801555a:	4b26      	ldr	r3, [pc, #152]	@ (80155f4 <PendSV_Handler+0xe4>)
 801555c:	eb00 1200 	add.w	r2, r0, r0, lsl #4
 8015560:	2101      	movs	r1, #1
 8015562:	f823 1022 	strh.w	r1, [r3, r2, lsl #2]
 8015566:	4a24      	ldr	r2, [pc, #144]	@ (80155f8 <PendSV_Handler+0xe8>)
 8015568:	210a      	movs	r1, #10
 801556a:	6011      	str	r1, [r2, #0]
 801556c:	eb04 1404 	add.w	r4, r4, r4, lsl #4
 8015570:	eb03 0484 	add.w	r4, r3, r4, lsl #2
 8015574:	6065      	str	r5, [r4, #4]
 8015576:	eb00 1000 	add.w	r0, r0, r0, lsl #4
 801557a:	eb03 0380 	add.w	r3, r3, r0, lsl #2
 801557e:	685b      	ldr	r3, [r3, #4]
 8015580:	4618      	mov	r0, r3
 8015582:	e8b0 0ff0 	ldmia.w	r0!, {r4, r5, r6, r7, r8, r9, sl, fp}
 8015586:	f380 8809 	msr	PSP, r0
 801558a:	f06f 0002 	mvn.w	r0, #2
 801558e:	4686      	mov	lr, r0
 8015590:	4770      	bx	lr
 8015592:	4b18      	ldr	r3, [pc, #96]	@ (80155f4 <PendSV_Handler+0xe4>)
 8015594:	eb03 0382 	add.w	r3, r3, r2, lsl #2
 8015598:	f9b3 1002 	ldrsh.w	r1, [r3, #2]
 801559c:	4a17      	ldr	r2, [pc, #92]	@ (80155fc <PendSV_Handler+0xec>)
 801559e:	4b13      	ldr	r3, [pc, #76]	@ (80155ec <PendSV_Handler+0xdc>)
 80155a0:	f9b3 300c 	ldrsh.w	r3, [r3, #12]
 80155a4:	eb02 03c3 	add.w	r3, r2, r3, lsl #3
 80155a8:	f9b3 3004 	ldrsh.w	r3, [r3, #4]
 80155ac:	f852 3033 	ldr.w	r3, [r2, r3, lsl #3]
 80155b0:	4299      	cmp	r1, r3
 80155b2:	dd08      	ble.n	80155c6 <PendSV_Handler+0xb6>
 80155b4:	4628      	mov	r0, r5
 80155b6:	e8b0 0ff0 	ldmia.w	r0!, {r4, r5, r6, r7, r8, r9, sl, fp}
 80155ba:	f380 8809 	msr	PSP, r0
 80155be:	f06f 0002 	mvn.w	r0, #2
 80155c2:	4686      	mov	lr, r0
 80155c4:	4770      	bx	lr
 80155c6:	4b0b      	ldr	r3, [pc, #44]	@ (80155f4 <PendSV_Handler+0xe4>)
 80155c8:	eb04 1204 	add.w	r2, r4, r4, lsl #4
 80155cc:	eb03 0182 	add.w	r1, r3, r2, lsl #2
 80155d0:	2002      	movs	r0, #2
 80155d2:	f823 0022 	strh.w	r0, [r3, r2, lsl #2]
 80155d6:	f9b1 2002 	ldrsh.w	r2, [r1, #2]
 80155da:	4b04      	ldr	r3, [pc, #16]	@ (80155ec <PendSV_Handler+0xdc>)
 80155dc:	f9b3 100c 	ldrsh.w	r1, [r3, #12]
 80155e0:	4b03      	ldr	r3, [pc, #12]	@ (80155f0 <PendSV_Handler+0xe0>)
 80155e2:	6818      	ldr	r0, [r3, #0]
 80155e4:	f001 f8f8 	bl	80167d8 <insert>
 80155e8:	e7b0      	b.n	801554c <PendSV_Handler+0x3c>
 80155ea:	bf00      	nop
 80155ec:	200016e4 	.word	0x200016e4
 80155f0:	20001c78 	.word	0x20001c78
 80155f4:	200017bc 	.word	0x200017bc
 80155f8:	200016d8 	.word	0x200016d8
 80155fc:	20001ca0 	.word	0x20001ca0

08015600 <resched_cntl>:
 8015600:	2801      	cmp	r0, #1
 8015602:	d004      	beq.n	801560e <resched_cntl+0xe>
 8015604:	2802      	cmp	r0, #2
 8015606:	d00b      	beq.n	8015620 <resched_cntl+0x20>
 8015608:	f04f 30ff 	mov.w	r0, #4294967295	@ 0xffffffff
 801560c:	4770      	bx	lr
 801560e:	4a11      	ldr	r2, [pc, #68]	@ (8015654 <resched_cntl+0x54>)
 8015610:	6853      	ldr	r3, [r2, #4]
 8015612:	1c59      	adds	r1, r3, #1
 8015614:	6051      	str	r1, [r2, #4]
 8015616:	b9db      	cbnz	r3, 8015650 <resched_cntl+0x50>
 8015618:	4613      	mov	r3, r2
 801561a:	2200      	movs	r2, #0
 801561c:	721a      	strb	r2, [r3, #8]
 801561e:	4770      	bx	lr
 8015620:	4b0c      	ldr	r3, [pc, #48]	@ (8015654 <resched_cntl+0x54>)
 8015622:	685b      	ldr	r3, [r3, #4]
 8015624:	2b00      	cmp	r3, #0
 8015626:	dd0d      	ble.n	8015644 <resched_cntl+0x44>
 8015628:	3b01      	subs	r3, #1
 801562a:	4a0a      	ldr	r2, [pc, #40]	@ (8015654 <resched_cntl+0x54>)
 801562c:	6053      	str	r3, [r2, #4]
 801562e:	b963      	cbnz	r3, 801564a <resched_cntl+0x4a>
 8015630:	7a13      	ldrb	r3, [r2, #8]
 8015632:	b163      	cbz	r3, 801564e <resched_cntl+0x4e>
 8015634:	f04f 23e0 	mov.w	r3, #3758153728	@ 0xe000e000
 8015638:	f04f 5280 	mov.w	r2, #268435456	@ 0x10000000
 801563c:	f8c3 2d04 	str.w	r2, [r3, #3332]	@ 0xd04
 8015640:	2001      	movs	r0, #1
 8015642:	4770      	bx	lr
 8015644:	f04f 30ff 	mov.w	r0, #4294967295	@ 0xffffffff
 8015648:	4770      	bx	lr
 801564a:	2001      	movs	r0, #1
 801564c:	4770      	bx	lr
 801564e:	2001      	movs	r0, #1
 8015650:	4770      	bx	lr
 8015652:	bf00      	nop
 8015654:	200016e4 	.word	0x200016e4

08015658 <ready>:
 8015658:	280e      	cmp	r0, #14
 801565a:	d821      	bhi.n	80156a0 <ready+0x48>
 801565c:	b508      	push	{r3, lr}
 801565e:	eb00 1300 	add.w	r3, r0, r0, lsl #4
 8015662:	4a11      	ldr	r2, [pc, #68]	@ (80156a8 <ready+0x50>)
 8015664:	f832 3023 	ldrh.w	r3, [r2, r3, lsl #2]
 8015668:	b913      	cbnz	r3, 8015670 <ready+0x18>
 801566a:	f04f 30ff 	mov.w	r0, #4294967295	@ 0xffffffff
 801566e:	bd08      	pop	{r3, pc}
 8015670:	4613      	mov	r3, r2
 8015672:	eb00 1200 	add.w	r2, r0, r0, lsl #4
 8015676:	eb03 0182 	add.w	r1, r3, r2, lsl #2
 801567a:	f04f 0c02 	mov.w	ip, #2
 801567e:	f823 c022 	strh.w	ip, [r3, r2, lsl #2]
 8015682:	f9b1 2002 	ldrsh.w	r2, [r1, #2]
 8015686:	4b09      	ldr	r3, [pc, #36]	@ (80156ac <ready+0x54>)
 8015688:	f9b3 100c 	ldrsh.w	r1, [r3, #12]
 801568c:	f001 f8a4 	bl	80167d8 <insert>
 8015690:	f04f 23e0 	mov.w	r3, #3758153728	@ 0xe000e000
 8015694:	f04f 5280 	mov.w	r2, #268435456	@ 0x10000000
 8015698:	f8c3 2d04 	str.w	r2, [r3, #3332]	@ 0xd04
 801569c:	2001      	movs	r0, #1
 801569e:	e7e6      	b.n	801566e <ready+0x16>
 80156a0:	f04f 30ff 	mov.w	r0, #4294967295	@ 0xffffffff
 80156a4:	4770      	bx	lr
 80156a6:	bf00      	nop
 80156a8:	200017bc 	.word	0x200017bc
 80156ac:	200016e4 	.word	0x200016e4

080156b0 <wakeup>:
 80156b0:	b508      	push	{r3, lr}
 80156b2:	2001      	movs	r0, #1
 80156b4:	f7ff ffa4 	bl	8015600 <resched_cntl>
 80156b8:	e003      	b.n	80156c2 <wakeup+0x12>
 80156ba:	f001 f857 	bl	801676c <dequeue>
 80156be:	f7ff ffcb 	bl	8015658 <ready>
 80156c2:	4b09      	ldr	r3, [pc, #36]	@ (80156e8 <wakeup+0x38>)
 80156c4:	f9b3 0000 	ldrsh.w	r0, [r3]
 80156c8:	4b08      	ldr	r3, [pc, #32]	@ (80156ec <wakeup+0x3c>)
 80156ca:	eb03 03c0 	add.w	r3, r3, r0, lsl #3
 80156ce:	f9b3 3004 	ldrsh.w	r3, [r3, #4]
 80156d2:	2b0e      	cmp	r3, #14
 80156d4:	dc04      	bgt.n	80156e0 <wakeup+0x30>
 80156d6:	4a05      	ldr	r2, [pc, #20]	@ (80156ec <wakeup+0x3c>)
 80156d8:	f852 3033 	ldr.w	r3, [r2, r3, lsl #3]
 80156dc:	2b00      	cmp	r3, #0
 80156de:	ddec      	ble.n	80156ba <wakeup+0xa>
 80156e0:	2002      	movs	r0, #2
 80156e2:	f7ff ff8d 	bl	8015600 <resched_cntl>
 80156e6:	bd08      	pop	{r3, pc}
 80156e8:	200016d4 	.word	0x200016d4
 80156ec:	20001ca0 	.word	0x20001ca0

080156f0 <resume>:
 80156f0:	b510      	push	{r4, lr}
 80156f2:	280e      	cmp	r0, #14
 80156f4:	d812      	bhi.n	801571c <resume+0x2c>
 80156f6:	eb00 1300 	add.w	r3, r0, r0, lsl #4
 80156fa:	4a0d      	ldr	r2, [pc, #52]	@ (8015730 <resume+0x40>)
 80156fc:	f832 3023 	ldrh.w	r3, [r2, r3, lsl #2]
 8015700:	b17b      	cbz	r3, 8015722 <resume+0x32>
 8015702:	2b05      	cmp	r3, #5
 8015704:	d110      	bne.n	8015728 <resume+0x38>
 8015706:	eb00 1200 	add.w	r2, r0, r0, lsl #4
 801570a:	4b09      	ldr	r3, [pc, #36]	@ (8015730 <resume+0x40>)
 801570c:	eb03 0382 	add.w	r3, r3, r2, lsl #2
 8015710:	f9b3 4002 	ldrsh.w	r4, [r3, #2]
 8015714:	f7ff ffa0 	bl	8015658 <ready>
 8015718:	4620      	mov	r0, r4
 801571a:	bd10      	pop	{r4, pc}
 801571c:	f04f 34ff 	mov.w	r4, #4294967295	@ 0xffffffff
 8015720:	e7fa      	b.n	8015718 <resume+0x28>
 8015722:	f04f 34ff 	mov.w	r4, #4294967295	@ 0xffffffff
 8015726:	e7f7      	b.n	8015718 <resume+0x28>
 8015728:	f04f 34ff 	mov.w	r4, #4294967295	@ 0xffffffff
 801572c:	e7f4      	b.n	8015718 <resume+0x28>
 801572e:	bf00      	nop
 8015730:	200017bc 	.word	0x200017bc

08015734 <exit>:
 8015734:	b508      	push	{r3, lr}
 8015736:	f7ff fc57 	bl	8014fe8 <getpid>
 801573a:	f7ff fdb3 	bl	80152a4 <kill>
 801573e:	bd08      	pop	{r3, pc}

08015740 <hexdump_print>:
 8015740:	b508      	push	{r3, lr}
 8015742:	2901      	cmp	r1, #1
 8015744:	d002      	beq.n	801574c <hexdump_print+0xc>
 8015746:	2902      	cmp	r1, #2
 8015748:	d00b      	beq.n	8015762 <hexdump_print+0x22>
 801574a:	bd08      	pop	{r3, pc}
 801574c:	f1a0 0320 	sub.w	r3, r0, #32
 8015750:	b2db      	uxtb	r3, r3
 8015752:	2b5e      	cmp	r3, #94	@ 0x5e
 8015754:	d900      	bls.n	8015758 <hexdump_print+0x18>
 8015756:	202e      	movs	r0, #46	@ 0x2e
 8015758:	4601      	mov	r1, r0
 801575a:	4804      	ldr	r0, [pc, #16]	@ (801576c <hexdump_print+0x2c>)
 801575c:	f7fc fe62 	bl	8012424 <printf>
 8015760:	e7f3      	b.n	801574a <hexdump_print+0xa>
 8015762:	4601      	mov	r1, r0
 8015764:	4802      	ldr	r0, [pc, #8]	@ (8015770 <hexdump_print+0x30>)
 8015766:	f7fc fe5d 	bl	8012424 <printf>
 801576a:	e7ee      	b.n	801574a <hexdump_print+0xa>
 801576c:	0801d204 	.word	0x0801d204
 8015770:	0801d208 	.word	0x0801d208

08015774 <hexdump>:
 8015774:	e92d 43f8 	stmdb	sp!, {r3, r4, r5, r6, r7, r8, r9, lr}
 8015778:	4607      	mov	r7, r0
 801577a:	4688      	mov	r8, r1
 801577c:	4691      	mov	r9, r2
 801577e:	2500      	movs	r5, #0
 8015780:	e019      	b.n	80157b6 <hexdump+0x42>
 8015782:	1963      	adds	r3, r4, r5
 8015784:	2102      	movs	r1, #2
 8015786:	5cf8      	ldrb	r0, [r7, r3]
 8015788:	f7ff ffda 	bl	8015740 <hexdump_print>
 801578c:	3401      	adds	r4, #1
 801578e:	42b4      	cmp	r4, r6
 8015790:	d208      	bcs.n	80157a4 <hexdump+0x30>
 8015792:	2c0f      	cmp	r4, #15
 8015794:	d806      	bhi.n	80157a4 <hexdump+0x30>
 8015796:	f014 0f07 	tst.w	r4, #7
 801579a:	d1f2      	bne.n	8015782 <hexdump+0xe>
 801579c:	481f      	ldr	r0, [pc, #124]	@ (801581c <hexdump+0xa8>)
 801579e:	f7fc fe41 	bl	8012424 <printf>
 80157a2:	e7ee      	b.n	8015782 <hexdump+0xe>
 80157a4:	2e0f      	cmp	r6, #15
 80157a6:	d922      	bls.n	80157ee <hexdump+0x7a>
 80157a8:	f1b9 0f00 	cmp.w	r9, #0
 80157ac:	d121      	bne.n	80157f2 <hexdump+0x7e>
 80157ae:	481c      	ldr	r0, [pc, #112]	@ (8015820 <hexdump+0xac>)
 80157b0:	f7fc fe38 	bl	8012424 <printf>
 80157b4:	3510      	adds	r5, #16
 80157b6:	4545      	cmp	r5, r8
 80157b8:	d22e      	bcs.n	8015818 <hexdump+0xa4>
 80157ba:	4629      	mov	r1, r5
 80157bc:	4819      	ldr	r0, [pc, #100]	@ (8015824 <hexdump+0xb0>)
 80157be:	f7fc fe31 	bl	8012424 <printf>
 80157c2:	eba8 0605 	sub.w	r6, r8, r5
 80157c6:	2400      	movs	r4, #0
 80157c8:	e7e1      	b.n	801578e <hexdump+0x1a>
 80157ca:	4817      	ldr	r0, [pc, #92]	@ (8015828 <hexdump+0xb4>)
 80157cc:	f7fc fe2a 	bl	8012424 <printf>
 80157d0:	3401      	adds	r4, #1
 80157d2:	eba5 0308 	sub.w	r3, r5, r8
 80157d6:	3310      	adds	r3, #16
 80157d8:	42a3      	cmp	r3, r4
 80157da:	d9e5      	bls.n	80157a8 <hexdump+0x34>
 80157dc:	2c00      	cmp	r4, #0
 80157de:	d0f4      	beq.n	80157ca <hexdump+0x56>
 80157e0:	f014 0f07 	tst.w	r4, #7
 80157e4:	d1f1      	bne.n	80157ca <hexdump+0x56>
 80157e6:	480d      	ldr	r0, [pc, #52]	@ (801581c <hexdump+0xa8>)
 80157e8:	f7fc fe1c 	bl	8012424 <printf>
 80157ec:	e7ed      	b.n	80157ca <hexdump+0x56>
 80157ee:	2400      	movs	r4, #0
 80157f0:	e7ef      	b.n	80157d2 <hexdump+0x5e>
 80157f2:	480e      	ldr	r0, [pc, #56]	@ (801582c <hexdump+0xb8>)
 80157f4:	f7fc fe16 	bl	8012424 <printf>
 80157f8:	2400      	movs	r4, #0
 80157fa:	e005      	b.n	8015808 <hexdump+0x94>
 80157fc:	1963      	adds	r3, r4, r5
 80157fe:	2101      	movs	r1, #1
 8015800:	5cf8      	ldrb	r0, [r7, r3]
 8015802:	f7ff ff9d 	bl	8015740 <hexdump_print>
 8015806:	3401      	adds	r4, #1
 8015808:	42b4      	cmp	r4, r6
 801580a:	d201      	bcs.n	8015810 <hexdump+0x9c>
 801580c:	2c0f      	cmp	r4, #15
 801580e:	d9f5      	bls.n	80157fc <hexdump+0x88>
 8015810:	4807      	ldr	r0, [pc, #28]	@ (8015830 <hexdump+0xbc>)
 8015812:	f7fc fe07 	bl	8012424 <printf>
 8015816:	e7ca      	b.n	80157ae <hexdump+0x3a>
 8015818:	e8bd 83f8 	ldmia.w	sp!, {r3, r4, r5, r6, r7, r8, r9, pc}
 801581c:	0801d024 	.word	0x0801d024
 8015820:	0801cf0c 	.word	0x0801cf0c
 8015824:	0801d210 	.word	0x0801d210
 8015828:	0801c7b8 	.word	0x0801c7b8
 801582c:	0801d218 	.word	0x0801d218
 8015830:	0801d21c 	.word	0x0801d21c

08015834 <hexdump2>:
 8015834:	e92d 47f0 	stmdb	sp!, {r4, r5, r6, r7, r8, r9, sl, lr}
 8015838:	4607      	mov	r7, r0
 801583a:	4688      	mov	r8, r1
 801583c:	4692      	mov	sl, r2
 801583e:	4699      	mov	r9, r3
 8015840:	2500      	movs	r5, #0
 8015842:	e01b      	b.n	801587c <hexdump2+0x48>
 8015844:	eb04 0c05 	add.w	ip, r4, r5
 8015848:	2102      	movs	r1, #2
 801584a:	f817 000c 	ldrb.w	r0, [r7, ip]
 801584e:	f7ff ff77 	bl	8015740 <hexdump_print>
 8015852:	3401      	adds	r4, #1
 8015854:	42b4      	cmp	r4, r6
 8015856:	d208      	bcs.n	801586a <hexdump2+0x36>
 8015858:	2c0f      	cmp	r4, #15
 801585a:	d806      	bhi.n	801586a <hexdump2+0x36>
 801585c:	f014 0f07 	tst.w	r4, #7
 8015860:	d1f0      	bne.n	8015844 <hexdump2+0x10>
 8015862:	4820      	ldr	r0, [pc, #128]	@ (80158e4 <hexdump2+0xb0>)
 8015864:	f7fc fdde 	bl	8012424 <printf>
 8015868:	e7ec      	b.n	8015844 <hexdump2+0x10>
 801586a:	2e0f      	cmp	r6, #15
 801586c:	d923      	bls.n	80158b6 <hexdump2+0x82>
 801586e:	f1b9 0f00 	cmp.w	r9, #0
 8015872:	d122      	bne.n	80158ba <hexdump2+0x86>
 8015874:	481c      	ldr	r0, [pc, #112]	@ (80158e8 <hexdump2+0xb4>)
 8015876:	f7fc fdd5 	bl	8012424 <printf>
 801587a:	3510      	adds	r5, #16
 801587c:	4545      	cmp	r5, r8
 801587e:	d22f      	bcs.n	80158e0 <hexdump2+0xac>
 8015880:	eb05 010a 	add.w	r1, r5, sl
 8015884:	4819      	ldr	r0, [pc, #100]	@ (80158ec <hexdump2+0xb8>)
 8015886:	f7fc fdcd 	bl	8012424 <printf>
 801588a:	eba8 0605 	sub.w	r6, r8, r5
 801588e:	2400      	movs	r4, #0
 8015890:	e7e0      	b.n	8015854 <hexdump2+0x20>
 8015892:	4817      	ldr	r0, [pc, #92]	@ (80158f0 <hexdump2+0xbc>)
 8015894:	f7fc fdc6 	bl	8012424 <printf>
 8015898:	3401      	adds	r4, #1
 801589a:	eba5 0308 	sub.w	r3, r5, r8
 801589e:	3310      	adds	r3, #16
 80158a0:	42a3      	cmp	r3, r4
 80158a2:	d9e4      	bls.n	801586e <hexdump2+0x3a>
 80158a4:	2c00      	cmp	r4, #0
 80158a6:	d0f4      	beq.n	8015892 <hexdump2+0x5e>
 80158a8:	f014 0f07 	tst.w	r4, #7
 80158ac:	d1f1      	bne.n	8015892 <hexdump2+0x5e>
 80158ae:	480d      	ldr	r0, [pc, #52]	@ (80158e4 <hexdump2+0xb0>)
 80158b0:	f7fc fdb8 	bl	8012424 <printf>
 80158b4:	e7ed      	b.n	8015892 <hexdump2+0x5e>
 80158b6:	2400      	movs	r4, #0
 80158b8:	e7ef      	b.n	801589a <hexdump2+0x66>
 80158ba:	480e      	ldr	r0, [pc, #56]	@ (80158f4 <hexdump2+0xc0>)
 80158bc:	f7fc fdb2 	bl	8012424 <printf>
 80158c0:	2400      	movs	r4, #0
 80158c2:	e005      	b.n	80158d0 <hexdump2+0x9c>
 80158c4:	1963      	adds	r3, r4, r5
 80158c6:	2101      	movs	r1, #1
 80158c8:	5cf8      	ldrb	r0, [r7, r3]
 80158ca:	f7ff ff39 	bl	8015740 <hexdump_print>
 80158ce:	3401      	adds	r4, #1
 80158d0:	42b4      	cmp	r4, r6
 80158d2:	d201      	bcs.n	80158d8 <hexdump2+0xa4>
 80158d4:	2c0f      	cmp	r4, #15
 80158d6:	d9f5      	bls.n	80158c4 <hexdump2+0x90>
 80158d8:	4807      	ldr	r0, [pc, #28]	@ (80158f8 <hexdump2+0xc4>)
 80158da:	f7fc fda3 	bl	8012424 <printf>
 80158de:	e7c9      	b.n	8015874 <hexdump2+0x40>
 80158e0:	e8bd 87f0 	ldmia.w	sp!, {r4, r5, r6, r7, r8, r9, sl, pc}
 80158e4:	0801d024 	.word	0x0801d024
 80158e8:	0801cf0c 	.word	0x0801cf0c
 80158ec:	0801d210 	.word	0x0801d210
 80158f0:	0801c7b8 	.word	0x0801c7b8
 80158f4:	0801d218 	.word	0x0801d218
 80158f8:	0801d21c 	.word	0x0801d21c

080158fc <hexDump2>:
 80158fc:	e92d 41f0 	stmdb	sp!, {r4, r5, r6, r7, r8, lr}
 8015900:	b086      	sub	sp, #24
 8015902:	4607      	mov	r7, r0
 8015904:	460d      	mov	r5, r1
 8015906:	4616      	mov	r6, r2
 8015908:	2400      	movs	r4, #0
 801590a:	e02b      	b.n	8015964 <hexDump2+0x68>
 801590c:	eb08 0107 	add.w	r1, r8, r7
 8015910:	4828      	ldr	r0, [pc, #160]	@ (80159b4 <hexDump2+0xb8>)
 8015912:	f7fc fd87 	bl	8012424 <printf>
 8015916:	f815 1008 	ldrb.w	r1, [r5, r8]
 801591a:	4827      	ldr	r0, [pc, #156]	@ (80159b8 <hexDump2+0xbc>)
 801591c:	f7fc fd82 	bl	8012424 <printf>
 8015920:	f815 2008 	ldrb.w	r2, [r5, r8]
 8015924:	f1a2 0320 	sub.w	r3, r2, #32
 8015928:	b2db      	uxtb	r3, r3
 801592a:	2b5e      	cmp	r3, #94	@ 0x5e
 801592c:	d927      	bls.n	801597e <hexDump2+0x82>
 801592e:	4262      	negs	r2, r4
 8015930:	f004 030f 	and.w	r3, r4, #15
 8015934:	f002 020f 	and.w	r2, r2, #15
 8015938:	bf58      	it	pl
 801593a:	4253      	negpl	r3, r2
 801593c:	3318      	adds	r3, #24
 801593e:	446b      	add	r3, sp
 8015940:	222e      	movs	r2, #46	@ 0x2e
 8015942:	f803 2c14 	strb.w	r2, [r3, #-20]
 8015946:	f1d4 0c00 	rsbs	ip, r4, #0
 801594a:	f004 030f 	and.w	r3, r4, #15
 801594e:	f00c 0c0f 	and.w	ip, ip, #15
 8015952:	bf58      	it	pl
 8015954:	f1cc 0300 	rsbpl	r3, ip, #0
 8015958:	3319      	adds	r3, #25
 801595a:	446b      	add	r3, sp
 801595c:	2200      	movs	r2, #0
 801595e:	f803 2c14 	strb.w	r2, [r3, #-20]
 8015962:	3401      	adds	r4, #1
 8015964:	42b4      	cmp	r4, r6
 8015966:	da1a      	bge.n	801599e <hexDump2+0xa2>
 8015968:	46a0      	mov	r8, r4
 801596a:	f014 0f0f 	tst.w	r4, #15
 801596e:	d1d2      	bne.n	8015916 <hexDump2+0x1a>
 8015970:	2c00      	cmp	r4, #0
 8015972:	d0cb      	beq.n	801590c <hexDump2+0x10>
 8015974:	a901      	add	r1, sp, #4
 8015976:	4811      	ldr	r0, [pc, #68]	@ (80159bc <hexDump2+0xc0>)
 8015978:	f7fc fd54 	bl	8012424 <printf>
 801597c:	e7c6      	b.n	801590c <hexDump2+0x10>
 801597e:	4261      	negs	r1, r4
 8015980:	f004 030f 	and.w	r3, r4, #15
 8015984:	f001 010f 	and.w	r1, r1, #15
 8015988:	bf58      	it	pl
 801598a:	424b      	negpl	r3, r1
 801598c:	3318      	adds	r3, #24
 801598e:	446b      	add	r3, sp
 8015990:	f803 2c14 	strb.w	r2, [r3, #-20]
 8015994:	e7d7      	b.n	8015946 <hexDump2+0x4a>
 8015996:	480a      	ldr	r0, [pc, #40]	@ (80159c0 <hexDump2+0xc4>)
 8015998:	f7fc fd44 	bl	8012424 <printf>
 801599c:	3401      	adds	r4, #1
 801599e:	f014 0f0f 	tst.w	r4, #15
 80159a2:	d1f8      	bne.n	8015996 <hexDump2+0x9a>
 80159a4:	a901      	add	r1, sp, #4
 80159a6:	4805      	ldr	r0, [pc, #20]	@ (80159bc <hexDump2+0xc0>)
 80159a8:	f7fc fd3c 	bl	8012424 <printf>
 80159ac:	b006      	add	sp, #24
 80159ae:	e8bd 81f0 	ldmia.w	sp!, {r4, r5, r6, r7, r8, pc}
 80159b2:	bf00      	nop
 80159b4:	0801d228 	.word	0x0801d228
 80159b8:	0801d230 	.word	0x0801d230
 80159bc:	0801d220 	.word	0x0801d220
 80159c0:	0801c7b8 	.word	0x0801c7b8

080159c4 <readSector>:
 80159c4:	e92d 43d0 	stmdb	sp!, {r4, r6, r7, r8, r9, lr}
 80159c8:	4604      	mov	r4, r0
 80159ca:	460f      	mov	r7, r1
 80159cc:	4690      	mov	r8, r2
 80159ce:	4699      	mov	r9, r3
 80159d0:	f001 fbfc 	bl	80171cc <disable>
 80159d4:	4606      	mov	r6, r0
 80159d6:	2c04      	cmp	r4, #4
 80159d8:	d80f      	bhi.n	80159fa <readSector+0x36>
 80159da:	234c      	movs	r3, #76	@ 0x4c
 80159dc:	4809      	ldr	r0, [pc, #36]	@ (8015a04 <readSector+0x40>)
 80159de:	fb03 0004 	mla	r0, r3, r4, r0
 80159e2:	6c44      	ldr	r4, [r0, #68]	@ 0x44
 80159e4:	464b      	mov	r3, r9
 80159e6:	4642      	mov	r2, r8
 80159e8:	4639      	mov	r1, r7
 80159ea:	47a0      	blx	r4
 80159ec:	4604      	mov	r4, r0
 80159ee:	4630      	mov	r0, r6
 80159f0:	f001 fbf0 	bl	80171d4 <restore>
 80159f4:	4620      	mov	r0, r4
 80159f6:	e8bd 83d0 	ldmia.w	sp!, {r4, r6, r7, r8, r9, pc}
 80159fa:	f001 fbeb 	bl	80171d4 <restore>
 80159fe:	f04f 34ff 	mov.w	r4, #4294967295	@ 0xffffffff
 8015a02:	e7f7      	b.n	80159f4 <readSector+0x30>
 8015a04:	2000008c 	.word	0x2000008c

08015a08 <writeSector>:
 8015a08:	e92d 43d0 	stmdb	sp!, {r4, r6, r7, r8, r9, lr}
 8015a0c:	4604      	mov	r4, r0
 8015a0e:	460f      	mov	r7, r1
 8015a10:	4690      	mov	r8, r2
 8015a12:	4699      	mov	r9, r3
 8015a14:	f001 fbda 	bl	80171cc <disable>
 8015a18:	4606      	mov	r6, r0
 8015a1a:	2c04      	cmp	r4, #4
 8015a1c:	d80f      	bhi.n	8015a3e <writeSector+0x36>
 8015a1e:	234c      	movs	r3, #76	@ 0x4c
 8015a20:	4809      	ldr	r0, [pc, #36]	@ (8015a48 <writeSector+0x40>)
 8015a22:	fb03 0004 	mla	r0, r3, r4, r0
 8015a26:	6c84      	ldr	r4, [r0, #72]	@ 0x48
 8015a28:	464b      	mov	r3, r9
 8015a2a:	4642      	mov	r2, r8
 8015a2c:	4639      	mov	r1, r7
 8015a2e:	47a0      	blx	r4
 8015a30:	4604      	mov	r4, r0
 8015a32:	4630      	mov	r0, r6
 8015a34:	f001 fbce 	bl	80171d4 <restore>
 8015a38:	4620      	mov	r0, r4
 8015a3a:	e8bd 83d0 	ldmia.w	sp!, {r4, r6, r7, r8, r9, pc}
 8015a3e:	f001 fbc9 	bl	80171d4 <restore>
 8015a42:	f04f 34ff 	mov.w	r4, #4294967295	@ 0xffffffff
 8015a46:	e7f7      	b.n	8015a38 <writeSector+0x30>
 8015a48:	2000008c 	.word	0x2000008c

08015a4c <set>:
 8015a4c:	b570      	push	{r4, r5, r6, lr}
 8015a4e:	4604      	mov	r4, r0
 8015a50:	460d      	mov	r5, r1
 8015a52:	f001 fbbb 	bl	80171cc <disable>
 8015a56:	4606      	mov	r6, r0
 8015a58:	2c04      	cmp	r4, #4
 8015a5a:	d80e      	bhi.n	8015a7a <set+0x2e>
 8015a5c:	224c      	movs	r2, #76	@ 0x4c
 8015a5e:	4809      	ldr	r0, [pc, #36]	@ (8015a84 <set+0x38>)
 8015a60:	fb02 0004 	mla	r0, r2, r4, r0
 8015a64:	6bc3      	ldr	r3, [r0, #60]	@ 0x3c
 8015a66:	1e29      	subs	r1, r5, #0
 8015a68:	bf18      	it	ne
 8015a6a:	2101      	movne	r1, #1
 8015a6c:	4798      	blx	r3
 8015a6e:	4604      	mov	r4, r0
 8015a70:	4630      	mov	r0, r6
 8015a72:	f001 fbaf 	bl	80171d4 <restore>
 8015a76:	4620      	mov	r0, r4
 8015a78:	bd70      	pop	{r4, r5, r6, pc}
 8015a7a:	f001 fbab 	bl	80171d4 <restore>
 8015a7e:	f04f 34ff 	mov.w	r4, #4294967295	@ 0xffffffff
 8015a82:	e7f8      	b.n	8015a76 <set+0x2a>
 8015a84:	2000008c 	.word	0x2000008c

08015a88 <toggle>:
 8015a88:	b538      	push	{r3, r4, r5, lr}
 8015a8a:	4604      	mov	r4, r0
 8015a8c:	f001 fb9e 	bl	80171cc <disable>
 8015a90:	4605      	mov	r5, r0
 8015a92:	2c04      	cmp	r4, #4
 8015a94:	d80b      	bhi.n	8015aae <toggle+0x26>
 8015a96:	224c      	movs	r2, #76	@ 0x4c
 8015a98:	4807      	ldr	r0, [pc, #28]	@ (8015ab8 <toggle+0x30>)
 8015a9a:	fb02 0004 	mla	r0, r2, r4, r0
 8015a9e:	6c03      	ldr	r3, [r0, #64]	@ 0x40
 8015aa0:	4798      	blx	r3
 8015aa2:	4604      	mov	r4, r0
 8015aa4:	4628      	mov	r0, r5
 8015aa6:	f001 fb95 	bl	80171d4 <restore>
 8015aaa:	4620      	mov	r0, r4
 8015aac:	bd38      	pop	{r3, r4, r5, pc}
 8015aae:	f001 fb91 	bl	80171d4 <restore>
 8015ab2:	f04f 34ff 	mov.w	r4, #4294967295	@ 0xffffffff
 8015ab6:	e7f8      	b.n	8015aaa <toggle+0x22>
 8015ab8:	2000008c 	.word	0x2000008c

08015abc <init>:
 8015abc:	b538      	push	{r3, r4, r5, lr}
 8015abe:	4604      	mov	r4, r0
 8015ac0:	f001 fb84 	bl	80171cc <disable>
 8015ac4:	4605      	mov	r5, r0
 8015ac6:	2c04      	cmp	r4, #4
 8015ac8:	d80b      	bhi.n	8015ae2 <init+0x26>
 8015aca:	224c      	movs	r2, #76	@ 0x4c
 8015acc:	4807      	ldr	r0, [pc, #28]	@ (8015aec <init+0x30>)
 8015ace:	fb02 0004 	mla	r0, r2, r4, r0
 8015ad2:	68c3      	ldr	r3, [r0, #12]
 8015ad4:	4798      	blx	r3
 8015ad6:	4604      	mov	r4, r0
 8015ad8:	4628      	mov	r0, r5
 8015ada:	f001 fb7b 	bl	80171d4 <restore>
 8015ade:	4620      	mov	r0, r4
 8015ae0:	bd38      	pop	{r3, r4, r5, pc}
 8015ae2:	f001 fb77 	bl	80171d4 <restore>
 8015ae6:	f04f 34ff 	mov.w	r4, #4294967295	@ 0xffffffff
 8015aea:	e7f8      	b.n	8015ade <init+0x22>
 8015aec:	2000008c 	.word	0x2000008c

08015af0 <close>:
 8015af0:	b538      	push	{r3, r4, r5, lr}
 8015af2:	4604      	mov	r4, r0
 8015af4:	f001 fb6a 	bl	80171cc <disable>
 8015af8:	4605      	mov	r5, r0
 8015afa:	2c04      	cmp	r4, #4
 8015afc:	d80b      	bhi.n	8015b16 <close+0x26>
 8015afe:	224c      	movs	r2, #76	@ 0x4c
 8015b00:	4807      	ldr	r0, [pc, #28]	@ (8015b20 <close+0x30>)
 8015b02:	fb02 0004 	mla	r0, r2, r4, r0
 8015b06:	6943      	ldr	r3, [r0, #20]
 8015b08:	4798      	blx	r3
 8015b0a:	4604      	mov	r4, r0
 8015b0c:	4628      	mov	r0, r5
 8015b0e:	f001 fb61 	bl	80171d4 <restore>
 8015b12:	4620      	mov	r0, r4
 8015b14:	bd38      	pop	{r3, r4, r5, pc}
 8015b16:	f001 fb5d 	bl	80171d4 <restore>
 8015b1a:	f04f 34ff 	mov.w	r4, #4294967295	@ 0xffffffff
 8015b1e:	e7f8      	b.n	8015b12 <close+0x22>
 8015b20:	2000008c 	.word	0x2000008c

08015b24 <getc>:
 8015b24:	b538      	push	{r3, r4, r5, lr}
 8015b26:	4604      	mov	r4, r0
 8015b28:	f001 fb50 	bl	80171cc <disable>
 8015b2c:	4605      	mov	r5, r0
 8015b2e:	2c04      	cmp	r4, #4
 8015b30:	d80b      	bhi.n	8015b4a <getc+0x26>
 8015b32:	224c      	movs	r2, #76	@ 0x4c
 8015b34:	4807      	ldr	r0, [pc, #28]	@ (8015b54 <getc+0x30>)
 8015b36:	fb02 0004 	mla	r0, r2, r4, r0
 8015b3a:	6a43      	ldr	r3, [r0, #36]	@ 0x24
 8015b3c:	4798      	blx	r3
 8015b3e:	4604      	mov	r4, r0
 8015b40:	4628      	mov	r0, r5
 8015b42:	f001 fb47 	bl	80171d4 <restore>
 8015b46:	4620      	mov	r0, r4
 8015b48:	bd38      	pop	{r3, r4, r5, pc}
 8015b4a:	f001 fb43 	bl	80171d4 <restore>
 8015b4e:	f04f 34ff 	mov.w	r4, #4294967295	@ 0xffffffff
 8015b52:	e7f8      	b.n	8015b46 <getc+0x22>
 8015b54:	2000008c 	.word	0x2000008c

08015b58 <ioerr>:
 8015b58:	f04f 30ff 	mov.w	r0, #4294967295	@ 0xffffffff
 8015b5c:	4770      	bx	lr

08015b5e <ionull>:
 8015b5e:	2001      	movs	r0, #1
 8015b60:	4770      	bx	lr

08015b62 <open>:
 8015b62:	b5f8      	push	{r3, r4, r5, r6, r7, lr}
 8015b64:	4604      	mov	r4, r0
 8015b66:	460f      	mov	r7, r1
 8015b68:	4615      	mov	r5, r2
 8015b6a:	f001 fb2f 	bl	80171cc <disable>
 8015b6e:	4606      	mov	r6, r0
 8015b70:	2c04      	cmp	r4, #4
 8015b72:	d80d      	bhi.n	8015b90 <open+0x2e>
 8015b74:	224c      	movs	r2, #76	@ 0x4c
 8015b76:	4809      	ldr	r0, [pc, #36]	@ (8015b9c <open+0x3a>)
 8015b78:	fb02 0004 	mla	r0, r2, r4, r0
 8015b7c:	6903      	ldr	r3, [r0, #16]
 8015b7e:	462a      	mov	r2, r5
 8015b80:	4639      	mov	r1, r7
 8015b82:	4798      	blx	r3
 8015b84:	4604      	mov	r4, r0
 8015b86:	4630      	mov	r0, r6
 8015b88:	f001 fb24 	bl	80171d4 <restore>
 8015b8c:	4620      	mov	r0, r4
 8015b8e:	bdf8      	pop	{r3, r4, r5, r6, r7, pc}
 8015b90:	f001 fb20 	bl	80171d4 <restore>
 8015b94:	f04f 34ff 	mov.w	r4, #4294967295	@ 0xffffffff
 8015b98:	e7f8      	b.n	8015b8c <open+0x2a>
 8015b9a:	bf00      	nop
 8015b9c:	2000008c 	.word	0x2000008c

08015ba0 <putc>:
 8015ba0:	b570      	push	{r4, r5, r6, lr}
 8015ba2:	4604      	mov	r4, r0
 8015ba4:	460d      	mov	r5, r1
 8015ba6:	f001 fb11 	bl	80171cc <disable>
 8015baa:	4606      	mov	r6, r0
 8015bac:	2c04      	cmp	r4, #4
 8015bae:	d80c      	bhi.n	8015bca <putc+0x2a>
 8015bb0:	224c      	movs	r2, #76	@ 0x4c
 8015bb2:	4808      	ldr	r0, [pc, #32]	@ (8015bd4 <putc+0x34>)
 8015bb4:	fb02 0004 	mla	r0, r2, r4, r0
 8015bb8:	6a83      	ldr	r3, [r0, #40]	@ 0x28
 8015bba:	4629      	mov	r1, r5
 8015bbc:	4798      	blx	r3
 8015bbe:	4604      	mov	r4, r0
 8015bc0:	4630      	mov	r0, r6
 8015bc2:	f001 fb07 	bl	80171d4 <restore>
 8015bc6:	4620      	mov	r0, r4
 8015bc8:	bd70      	pop	{r4, r5, r6, pc}
 8015bca:	f001 fb03 	bl	80171d4 <restore>
 8015bce:	f04f 34ff 	mov.w	r4, #4294967295	@ 0xffffffff
 8015bd2:	e7f8      	b.n	8015bc6 <putc+0x26>
 8015bd4:	2000008c 	.word	0x2000008c

08015bd8 <read>:
 8015bd8:	b5f8      	push	{r3, r4, r5, r6, r7, lr}
 8015bda:	4604      	mov	r4, r0
 8015bdc:	460f      	mov	r7, r1
 8015bde:	4615      	mov	r5, r2
 8015be0:	f001 faf4 	bl	80171cc <disable>
 8015be4:	4606      	mov	r6, r0
 8015be6:	2c04      	cmp	r4, #4
 8015be8:	d80d      	bhi.n	8015c06 <read+0x2e>
 8015bea:	224c      	movs	r2, #76	@ 0x4c
 8015bec:	4808      	ldr	r0, [pc, #32]	@ (8015c10 <read+0x38>)
 8015bee:	fb02 0004 	mla	r0, r2, r4, r0
 8015bf2:	6983      	ldr	r3, [r0, #24]
 8015bf4:	462a      	mov	r2, r5
 8015bf6:	4639      	mov	r1, r7
 8015bf8:	4798      	blx	r3
 8015bfa:	4604      	mov	r4, r0
 8015bfc:	4630      	mov	r0, r6
 8015bfe:	f001 fae9 	bl	80171d4 <restore>
 8015c02:	4620      	mov	r0, r4
 8015c04:	bdf8      	pop	{r3, r4, r5, r6, r7, pc}
 8015c06:	f001 fae5 	bl	80171d4 <restore>
 8015c0a:	f04f 34ff 	mov.w	r4, #4294967295	@ 0xffffffff
 8015c0e:	e7f8      	b.n	8015c02 <read+0x2a>
 8015c10:	2000008c 	.word	0x2000008c

08015c14 <write>:
 8015c14:	b5f8      	push	{r3, r4, r5, r6, r7, lr}
 8015c16:	4604      	mov	r4, r0
 8015c18:	460f      	mov	r7, r1
 8015c1a:	4615      	mov	r5, r2
 8015c1c:	f001 fad6 	bl	80171cc <disable>
 8015c20:	4606      	mov	r6, r0
 8015c22:	2c04      	cmp	r4, #4
 8015c24:	d80d      	bhi.n	8015c42 <write+0x2e>
 8015c26:	224c      	movs	r2, #76	@ 0x4c
 8015c28:	4808      	ldr	r0, [pc, #32]	@ (8015c4c <write+0x38>)
 8015c2a:	fb02 0004 	mla	r0, r2, r4, r0
 8015c2e:	69c3      	ldr	r3, [r0, #28]
 8015c30:	462a      	mov	r2, r5
 8015c32:	4639      	mov	r1, r7
 8015c34:	4798      	blx	r3
 8015c36:	4604      	mov	r4, r0
 8015c38:	4630      	mov	r0, r6
 8015c3a:	f001 facb 	bl	80171d4 <restore>
 8015c3e:	4620      	mov	r0, r4
 8015c40:	bdf8      	pop	{r3, r4, r5, r6, r7, pc}
 8015c42:	f001 fac7 	bl	80171d4 <restore>
 8015c46:	f04f 34ff 	mov.w	r4, #4294967295	@ 0xffffffff
 8015c4a:	e7f8      	b.n	8015c3e <write+0x2a>
 8015c4c:	2000008c 	.word	0x2000008c

08015c50 <seek>:
 8015c50:	b570      	push	{r4, r5, r6, lr}
 8015c52:	4604      	mov	r4, r0
 8015c54:	460d      	mov	r5, r1
 8015c56:	f001 fab9 	bl	80171cc <disable>
 8015c5a:	4606      	mov	r6, r0
 8015c5c:	2c04      	cmp	r4, #4
 8015c5e:	d80c      	bhi.n	8015c7a <seek+0x2a>
 8015c60:	224c      	movs	r2, #76	@ 0x4c
 8015c62:	4808      	ldr	r0, [pc, #32]	@ (8015c84 <seek+0x34>)
 8015c64:	fb02 0004 	mla	r0, r2, r4, r0
 8015c68:	6a03      	ldr	r3, [r0, #32]
 8015c6a:	4629      	mov	r1, r5
 8015c6c:	4798      	blx	r3
 8015c6e:	4604      	mov	r4, r0
 8015c70:	4630      	mov	r0, r6
 8015c72:	f001 faaf 	bl	80171d4 <restore>
 8015c76:	4620      	mov	r0, r4
 8015c78:	bd70      	pop	{r4, r5, r6, pc}
 8015c7a:	f001 faab 	bl	80171d4 <restore>
 8015c7e:	f04f 34ff 	mov.w	r4, #4294967295	@ 0xffffffff
 8015c82:	e7f8      	b.n	8015c76 <seek+0x26>
 8015c84:	2000008c 	.word	0x2000008c

08015c88 <control>:
 8015c88:	e92d 43d0 	stmdb	sp!, {r4, r6, r7, r8, r9, lr}
 8015c8c:	4604      	mov	r4, r0
 8015c8e:	460f      	mov	r7, r1
 8015c90:	4690      	mov	r8, r2
 8015c92:	4699      	mov	r9, r3
 8015c94:	f001 fa9a 	bl	80171cc <disable>
 8015c98:	4606      	mov	r6, r0
 8015c9a:	2c04      	cmp	r4, #4
 8015c9c:	d80f      	bhi.n	8015cbe <control+0x36>
 8015c9e:	234c      	movs	r3, #76	@ 0x4c
 8015ca0:	4809      	ldr	r0, [pc, #36]	@ (8015cc8 <control+0x40>)
 8015ca2:	fb03 0004 	mla	r0, r3, r4, r0
 8015ca6:	6ac4      	ldr	r4, [r0, #44]	@ 0x2c
 8015ca8:	464b      	mov	r3, r9
 8015caa:	4642      	mov	r2, r8
 8015cac:	4639      	mov	r1, r7
 8015cae:	47a0      	blx	r4
 8015cb0:	4604      	mov	r4, r0
 8015cb2:	4630      	mov	r0, r6
 8015cb4:	f001 fa8e 	bl	80171d4 <restore>
 8015cb8:	4620      	mov	r0, r4
 8015cba:	e8bd 83d0 	ldmia.w	sp!, {r4, r6, r7, r8, r9, pc}
 8015cbe:	f001 fa89 	bl	80171d4 <restore>
 8015cc2:	f04f 34ff 	mov.w	r4, #4294967295	@ 0xffffffff
 8015cc6:	e7f7      	b.n	8015cb8 <control+0x30>
 8015cc8:	2000008c 	.word	0x2000008c

08015ccc <getdev>:
 8015ccc:	b570      	push	{r4, r5, r6, lr}
 8015cce:	4605      	mov	r5, r0
 8015cd0:	f001 fa7c 	bl	80171cc <disable>
 8015cd4:	4606      	mov	r6, r0
 8015cd6:	2400      	movs	r4, #0
 8015cd8:	2c04      	cmp	r4, #4
 8015cda:	dc0f      	bgt.n	8015cfc <getdev+0x30>
 8015cdc:	4b0b      	ldr	r3, [pc, #44]	@ (8015d0c <getdev+0x40>)
 8015cde:	224c      	movs	r2, #76	@ 0x4c
 8015ce0:	fb02 3304 	mla	r3, r2, r4, r3
 8015ce4:	2210      	movs	r2, #16
 8015ce6:	6899      	ldr	r1, [r3, #8]
 8015ce8:	4628      	mov	r0, r5
 8015cea:	f7fc ff03 	bl	8012af4 <strncmp>
 8015cee:	b908      	cbnz	r0, 8015cf4 <getdev+0x28>
 8015cf0:	3401      	adds	r4, #1
 8015cf2:	e7f1      	b.n	8015cd8 <getdev+0xc>
 8015cf4:	4630      	mov	r0, r6
 8015cf6:	f001 fa6d 	bl	80171d4 <restore>
 8015cfa:	e004      	b.n	8015d06 <getdev+0x3a>
 8015cfc:	4630      	mov	r0, r6
 8015cfe:	f001 fa69 	bl	80171d4 <restore>
 8015d02:	f04f 34ff 	mov.w	r4, #4294967295	@ 0xffffffff
 8015d06:	4620      	mov	r0, r4
 8015d08:	bd70      	pop	{r4, r5, r6, pc}
 8015d0a:	bf00      	nop
 8015d0c:	2000008c 	.word	0x2000008c

08015d10 <blink2>:
 8015d10:	b570      	push	{r4, r5, r6, lr}
 8015d12:	4605      	mov	r5, r0
 8015d14:	460e      	mov	r6, r1
 8015d16:	2400      	movs	r4, #0
 8015d18:	e005      	b.n	8015d26 <blink2+0x16>
 8015d1a:	f856 1024 	ldr.w	r1, [r6, r4, lsl #2]
 8015d1e:	4805      	ldr	r0, [pc, #20]	@ (8015d34 <blink2+0x24>)
 8015d20:	f7fc fb80 	bl	8012424 <printf>
 8015d24:	3401      	adds	r4, #1
 8015d26:	42ac      	cmp	r4, r5
 8015d28:	dbf7      	blt.n	8015d1a <blink2+0xa>
 8015d2a:	4803      	ldr	r0, [pc, #12]	@ (8015d38 <blink2+0x28>)
 8015d2c:	f7fc fb7a 	bl	8012424 <printf>
 8015d30:	2001      	movs	r0, #1
 8015d32:	bd70      	pop	{r4, r5, r6, pc}
 8015d34:	0801c8f8 	.word	0x0801c8f8
 8015d38:	0801d238 	.word	0x0801d238

08015d3c <initFat32>:
 8015d3c:	b508      	push	{r3, lr}
 8015d3e:	f002 f831 	bl	8017da4 <sd_init>
 8015d42:	f003 f84d 	bl	8018de0 <fl_init>
 8015d46:	4906      	ldr	r1, [pc, #24]	@ (8015d60 <initFat32+0x24>)
 8015d48:	4806      	ldr	r0, [pc, #24]	@ (8015d64 <initFat32+0x28>)
 8015d4a:	f003 f871 	bl	8018e30 <fl_attach_media>
 8015d4e:	b908      	cbnz	r0, 8015d54 <initFat32+0x18>
 8015d50:	2001      	movs	r0, #1
 8015d52:	bd08      	pop	{r3, pc}
 8015d54:	4804      	ldr	r0, [pc, #16]	@ (8015d68 <initFat32+0x2c>)
 8015d56:	f7fc fb65 	bl	8012424 <printf>
 8015d5a:	f04f 30ff 	mov.w	r0, #4294967295	@ 0xffffffff
 8015d5e:	e7f8      	b.n	8015d52 <initFat32+0x16>
 8015d60:	08017dd1 	.word	0x08017dd1
 8015d64:	08017db9 	.word	0x08017db9
 8015d68:	0801d240 	.word	0x0801d240

08015d6c <start_process>:
 8015d6c:	b510      	push	{r4, lr}
 8015d6e:	b082      	sub	sp, #8
 8015d70:	2300      	movs	r3, #0
 8015d72:	9300      	str	r3, [sp, #0]
 8015d74:	4b11      	ldr	r3, [pc, #68]	@ (8015dbc <start_process+0x50>)
 8015d76:	2232      	movs	r2, #50	@ 0x32
 8015d78:	f44f 6180 	mov.w	r1, #1024	@ 0x400
 8015d7c:	4810      	ldr	r0, [pc, #64]	@ (8015dc0 <start_process+0x54>)
 8015d7e:	f7ff f939 	bl	8014ff4 <create>
 8015d82:	4604      	mov	r4, r0
 8015d84:	f000 fbe2 	bl	801654c <recvclr>
 8015d88:	4620      	mov	r0, r4
 8015d8a:	f7ff fcb1 	bl	80156f0 <resume>
 8015d8e:	f000 fbb5 	bl	80164fc <receive>
 8015d92:	e001      	b.n	8015d98 <start_process+0x2c>
 8015d94:	f000 fbb2 	bl	80164fc <receive>
 8015d98:	42a0      	cmp	r0, r4
 8015d9a:	d1fb      	bne.n	8015d94 <start_process+0x28>
 8015d9c:	2400      	movs	r4, #0
 8015d9e:	9401      	str	r4, [sp, #4]
 8015da0:	2301      	movs	r3, #1
 8015da2:	9300      	str	r3, [sp, #0]
 8015da4:	4b07      	ldr	r3, [pc, #28]	@ (8015dc4 <start_process+0x58>)
 8015da6:	2234      	movs	r2, #52	@ 0x34
 8015da8:	f44f 6180 	mov.w	r1, #1024	@ 0x400
 8015dac:	4806      	ldr	r0, [pc, #24]	@ (8015dc8 <start_process+0x5c>)
 8015dae:	f7ff f921 	bl	8014ff4 <create>
 8015db2:	f7ff fc51 	bl	8015658 <ready>
 8015db6:	4620      	mov	r0, r4
 8015db8:	b002      	add	sp, #8
 8015dba:	bd10      	pop	{r4, pc}
 8015dbc:	0801d264 	.word	0x0801d264
 8015dc0:	08015d3d 	.word	0x08015d3d
 8015dc4:	0801d26c 	.word	0x0801d26c
 8015dc8:	08012fb1 	.word	0x08012fb1

08015dcc <nullprocess>:
 8015dcc:	b500      	push	{lr}
 8015dce:	b083      	sub	sp, #12
 8015dd0:	480b      	ldr	r0, [pc, #44]	@ (8015e00 <nullprocess+0x34>)
 8015dd2:	f001 f810 	bl	8016df6 <syscall_init>
 8015dd6:	2300      	movs	r3, #0
 8015dd8:	9301      	str	r3, [sp, #4]
 8015dda:	2301      	movs	r3, #1
 8015ddc:	9300      	str	r3, [sp, #0]
 8015dde:	4b09      	ldr	r3, [pc, #36]	@ (8015e04 <nullprocess+0x38>)
 8015de0:	2232      	movs	r2, #50	@ 0x32
 8015de2:	f44f 5180 	mov.w	r1, #4096	@ 0x1000
 8015de6:	4808      	ldr	r0, [pc, #32]	@ (8015e08 <nullprocess+0x3c>)
 8015de8:	f7ff f904 	bl	8014ff4 <create>
 8015dec:	f7ff fc80 	bl	80156f0 <resume>
 8015df0:	4a03      	ldr	r2, [pc, #12]	@ (8015e00 <nullprocess+0x34>)
 8015df2:	f8d2 30c0 	ldr.w	r3, [r2, #192]	@ 0xc0
 8015df6:	3301      	adds	r3, #1
 8015df8:	f8c2 30c0 	str.w	r3, [r2, #192]	@ 0xc0
 8015dfc:	e7f8      	b.n	8015df0 <nullprocess+0x24>
 8015dfe:	bf00      	nop
 8015e00:	200016f4 	.word	0x200016f4
 8015e04:	0801d26c 	.word	0x0801d26c
 8015e08:	08015d6d 	.word	0x08015d6d

08015e0c <sysinit>:
 8015e0c:	b538      	push	{r3, r4, r5, lr}
 8015e0e:	2400      	movs	r4, #0
 8015e10:	e003      	b.n	8015e1a <sysinit+0xe>
 8015e12:	481f      	ldr	r0, [pc, #124]	@ (8015e90 <sysinit+0x84>)
 8015e14:	f000 f98c 	bl	8016130 <kprintf>
 8015e18:	3401      	adds	r4, #1
 8015e1a:	2c09      	cmp	r4, #9
 8015e1c:	ddf9      	ble.n	8015e12 <sysinit+0x6>
 8015e1e:	2200      	movs	r2, #0
 8015e20:	4b1c      	ldr	r3, [pc, #112]	@ (8015e94 <sysinit+0x88>)
 8015e22:	f8c3 20c4 	str.w	r2, [r3, #196]	@ 0xc4
 8015e26:	4b1c      	ldr	r3, [pc, #112]	@ (8015e98 <sysinit+0x8c>)
 8015e28:	601a      	str	r2, [r3, #0]
 8015e2a:	e00e      	b.n	8015e4a <sysinit+0x3e>
 8015e2c:	eb02 1102 	add.w	r1, r2, r2, lsl #4
 8015e30:	4b18      	ldr	r3, [pc, #96]	@ (8015e94 <sysinit+0x88>)
 8015e32:	eb03 0381 	add.w	r3, r3, r1, lsl #2
 8015e36:	2100      	movs	r1, #0
 8015e38:	f8a3 10c8 	strh.w	r1, [r3, #200]	@ 0xc8
 8015e3c:	f883 10d8 	strb.w	r1, [r3, #216]	@ 0xd8
 8015e40:	f8c3 10d0 	str.w	r1, [r3, #208]	@ 0xd0
 8015e44:	f8a3 10ca 	strh.w	r1, [r3, #202]	@ 0xca
 8015e48:	3201      	adds	r2, #1
 8015e4a:	2a0e      	cmp	r2, #14
 8015e4c:	ddee      	ble.n	8015e2c <sysinit+0x20>
 8015e4e:	2500      	movs	r5, #0
 8015e50:	e00e      	b.n	8015e70 <sysinit+0x64>
 8015e52:	eb05 0345 	add.w	r3, r5, r5, lsl #1
 8015e56:	4c0f      	ldr	r4, [pc, #60]	@ (8015e94 <sysinit+0x88>)
 8015e58:	eb04 0483 	add.w	r4, r4, r3, lsl #2
 8015e5c:	2300      	movs	r3, #0
 8015e5e:	f884 34c4 	strb.w	r3, [r4, #1220]	@ 0x4c4
 8015e62:	f8c4 34c8 	str.w	r3, [r4, #1224]	@ 0x4c8
 8015e66:	f000 fd47 	bl	80168f8 <newqueue>
 8015e6a:	f8a4 04cc 	strh.w	r0, [r4, #1228]	@ 0x4cc
 8015e6e:	3501      	adds	r5, #1
 8015e70:	2d0e      	cmp	r5, #14
 8015e72:	ddee      	ble.n	8015e52 <sysinit+0x46>
 8015e74:	f000 fd40 	bl	80168f8 <newqueue>
 8015e78:	4b08      	ldr	r3, [pc, #32]	@ (8015e9c <sysinit+0x90>)
 8015e7a:	8018      	strh	r0, [r3, #0]
 8015e7c:	2400      	movs	r4, #0
 8015e7e:	e003      	b.n	8015e88 <sysinit+0x7c>
 8015e80:	4620      	mov	r0, r4
 8015e82:	f7ff fe1b 	bl	8015abc <init>
 8015e86:	3401      	adds	r4, #1
 8015e88:	2c04      	cmp	r4, #4
 8015e8a:	ddf9      	ble.n	8015e80 <sysinit+0x74>
 8015e8c:	bd38      	pop	{r3, r4, r5, pc}
 8015e8e:	bf00      	nop
 8015e90:	0801cf0c 	.word	0x0801cf0c
 8015e94:	200016f4 	.word	0x200016f4
 8015e98:	200016e8 	.word	0x200016e8
 8015e9c:	200016f0 	.word	0x200016f0

08015ea0 <blink1>:
 8015ea0:	b500      	push	{lr}
 8015ea2:	b085      	sub	sp, #20
 8015ea4:	480e      	ldr	r0, [pc, #56]	@ (8015ee0 <blink1+0x40>)
 8015ea6:	f7fc fabd 	bl	8012424 <printf>
 8015eaa:	4b0e      	ldr	r3, [pc, #56]	@ (8015ee4 <blink1+0x44>)
 8015eac:	9303      	str	r3, [sp, #12]
 8015eae:	4b0e      	ldr	r3, [pc, #56]	@ (8015ee8 <blink1+0x48>)
 8015eb0:	9302      	str	r3, [sp, #8]
 8015eb2:	4b0e      	ldr	r3, [pc, #56]	@ (8015eec <blink1+0x4c>)
 8015eb4:	9301      	str	r3, [sp, #4]
 8015eb6:	2303      	movs	r3, #3
 8015eb8:	9300      	str	r3, [sp, #0]
 8015eba:	4b0d      	ldr	r3, [pc, #52]	@ (8015ef0 <blink1+0x50>)
 8015ebc:	223c      	movs	r2, #60	@ 0x3c
 8015ebe:	f44f 6100 	mov.w	r1, #2048	@ 0x800
 8015ec2:	480c      	ldr	r0, [pc, #48]	@ (8015ef4 <blink1+0x54>)
 8015ec4:	f7ff f896 	bl	8014ff4 <create>
 8015ec8:	f7ff fc12 	bl	80156f0 <resume>
 8015ecc:	f000 fb16 	bl	80164fc <receive>
 8015ed0:	4809      	ldr	r0, [pc, #36]	@ (8015ef8 <blink1+0x58>)
 8015ed2:	f7fc faa7 	bl	8012424 <printf>
 8015ed6:	2003      	movs	r0, #3
 8015ed8:	f7ff fb08 	bl	80154ec <sleep>
 8015edc:	e7fb      	b.n	8015ed6 <blink1+0x36>
 8015ede:	bf00      	nop
 8015ee0:	0801d274 	.word	0x0801d274
 8015ee4:	0801d284 	.word	0x0801d284
 8015ee8:	0801d28c 	.word	0x0801d28c
 8015eec:	0801d298 	.word	0x0801d298
 8015ef0:	0801d27c 	.word	0x0801d27c
 8015ef4:	08015d11 	.word	0x08015d11
 8015ef8:	0801d2a0 	.word	0x0801d2a0

08015efc <nulluser>:
 8015efc:	b5f0      	push	{r4, r5, r6, r7, lr}
 8015efe:	b083      	sub	sp, #12
 8015f00:	4c4e      	ldr	r4, [pc, #312]	@ (801603c <nulluser+0x140>)
 8015f02:	f44f 7264 	mov.w	r2, #912	@ 0x390
 8015f06:	2108      	movs	r1, #8
 8015f08:	4620      	mov	r0, r4
 8015f0a:	f001 f98a 	bl	8017222 <hw_cfg_pin>
 8015f0e:	f44f 7270 	mov.w	r2, #960	@ 0x3c0
 8015f12:	2100      	movs	r1, #0
 8015f14:	4620      	mov	r0, r4
 8015f16:	f001 f984 	bl	8017222 <hw_cfg_pin>
 8015f1a:	f000 f91b 	bl	8016154 <meminit>
 8015f1e:	f000 fa03 	bl	8016328 <meminitcc>
 8015f22:	f000 fbcd 	bl	80166c0 <platinit>
 8015f26:	f001 f959 	bl	80171dc <enable>
 8015f2a:	e006      	b.n	8015f3a <nulluser+0x3e>
 8015f2c:	2108      	movs	r1, #8
 8015f2e:	4843      	ldr	r0, [pc, #268]	@ (801603c <nulluser+0x140>)
 8015f30:	f001 f9ce 	bl	80172d0 <hw_toggle_pin>
 8015f34:	2032      	movs	r0, #50	@ 0x32
 8015f36:	f000 f8c7 	bl	80160c8 <delay>
 8015f3a:	2100      	movs	r1, #0
 8015f3c:	483f      	ldr	r0, [pc, #252]	@ (801603c <nulluser+0x140>)
 8015f3e:	f001 f9d2 	bl	80172e6 <hw_get_pin>
 8015f42:	b138      	cbz	r0, 8015f54 <nulluser+0x58>
 8015f44:	f001 f90e 	bl	8017164 <uart_available>
 8015f48:	2800      	cmp	r0, #0
 8015f4a:	d0ef      	beq.n	8015f2c <nulluser+0x30>
 8015f4c:	4b3c      	ldr	r3, [pc, #240]	@ (8016040 <nulluser+0x144>)
 8015f4e:	685b      	ldr	r3, [r3, #4]
 8015f50:	2b2e      	cmp	r3, #46	@ 0x2e
 8015f52:	d9eb      	bls.n	8015f2c <nulluser+0x30>
 8015f54:	f7ff ff5a 	bl	8015e0c <sysinit>
 8015f58:	4b3a      	ldr	r3, [pc, #232]	@ (8016044 <nulluser+0x148>)
 8015f5a:	f8d3 3578 	ldr.w	r3, [r3, #1400]	@ 0x578
 8015f5e:	2400      	movs	r4, #0
 8015f60:	e002      	b.n	8015f68 <nulluser+0x6c>
 8015f62:	685a      	ldr	r2, [r3, #4]
 8015f64:	4414      	add	r4, r2
 8015f66:	681b      	ldr	r3, [r3, #0]
 8015f68:	2b00      	cmp	r3, #0
 8015f6a:	d1fa      	bne.n	8015f62 <nulluser+0x66>
 8015f6c:	4621      	mov	r1, r4
 8015f6e:	2000      	movs	r0, #0
 8015f70:	f7fb fbf5 	bl	801175e <calloc>
 8015f74:	f7fb fbcc 	bl	8011710 <free>
 8015f78:	4a33      	ldr	r2, [pc, #204]	@ (8016048 <nulluser+0x14c>)
 8015f7a:	4934      	ldr	r1, [pc, #208]	@ (801604c <nulluser+0x150>)
 8015f7c:	4834      	ldr	r0, [pc, #208]	@ (8016050 <nulluser+0x154>)
 8015f7e:	f000 f8d7 	bl	8016130 <kprintf>
 8015f82:	4621      	mov	r1, r4
 8015f84:	4833      	ldr	r0, [pc, #204]	@ (8016054 <nulluser+0x158>)
 8015f86:	f000 f8d3 	bl	8016130 <kprintf>
 8015f8a:	4b2e      	ldr	r3, [pc, #184]	@ (8016044 <nulluser+0x148>)
 8015f8c:	f8d3 4578 	ldr.w	r4, [r3, #1400]	@ 0x578
 8015f90:	e007      	b.n	8015fa2 <nulluser+0xa6>
 8015f92:	6862      	ldr	r2, [r4, #4]
 8015f94:	4422      	add	r2, r4
 8015f96:	3a01      	subs	r2, #1
 8015f98:	4621      	mov	r1, r4
 8015f9a:	482f      	ldr	r0, [pc, #188]	@ (8016058 <nulluser+0x15c>)
 8015f9c:	f000 f8c8 	bl	8016130 <kprintf>
 8015fa0:	6824      	ldr	r4, [r4, #0]
 8015fa2:	2c00      	cmp	r4, #0
 8015fa4:	d1f5      	bne.n	8015f92 <nulluser+0x96>
 8015fa6:	4d2d      	ldr	r5, [pc, #180]	@ (801605c <nulluser+0x160>)
 8015fa8:	4c2d      	ldr	r4, [pc, #180]	@ (8016060 <nulluser+0x164>)
 8015faa:	1b29      	subs	r1, r5, r4
 8015fac:	482d      	ldr	r0, [pc, #180]	@ (8016064 <nulluser+0x168>)
 8015fae:	f000 f8bf 	bl	8016130 <kprintf>
 8015fb2:	1e6a      	subs	r2, r5, #1
 8015fb4:	4621      	mov	r1, r4
 8015fb6:	4828      	ldr	r0, [pc, #160]	@ (8016058 <nulluser+0x15c>)
 8015fb8:	f000 f8ba 	bl	8016130 <kprintf>
 8015fbc:	4d2a      	ldr	r5, [pc, #168]	@ (8016068 <nulluser+0x16c>)
 8015fbe:	4c2b      	ldr	r4, [pc, #172]	@ (801606c <nulluser+0x170>)
 8015fc0:	1b29      	subs	r1, r5, r4
 8015fc2:	482b      	ldr	r0, [pc, #172]	@ (8016070 <nulluser+0x174>)
 8015fc4:	f000 f8b4 	bl	8016130 <kprintf>
 8015fc8:	1e6a      	subs	r2, r5, #1
 8015fca:	4621      	mov	r1, r4
 8015fcc:	4829      	ldr	r0, [pc, #164]	@ (8016074 <nulluser+0x178>)
 8015fce:	f000 f8af 	bl	8016130 <kprintf>
 8015fd2:	2300      	movs	r3, #0
 8015fd4:	9301      	str	r3, [sp, #4]
 8015fd6:	9300      	str	r3, [sp, #0]
 8015fd8:	4b27      	ldr	r3, [pc, #156]	@ (8016078 <nulluser+0x17c>)
 8015fda:	220a      	movs	r2, #10
 8015fdc:	f44f 7100 	mov.w	r1, #512	@ 0x200
 8015fe0:	4826      	ldr	r0, [pc, #152]	@ (801607c <nulluser+0x180>)
 8015fe2:	f7ff f807 	bl	8014ff4 <create>
 8015fe6:	4604      	mov	r4, r0
 8015fe8:	4d16      	ldr	r5, [pc, #88]	@ (8016044 <nulluser+0x148>)
 8015fea:	0106      	lsls	r6, r0, #4
 8015fec:	eb00 1300 	add.w	r3, r0, r0, lsl #4
 8015ff0:	eb05 0383 	add.w	r3, r5, r3, lsl #2
 8015ff4:	2701      	movs	r7, #1
 8015ff6:	f8a3 70c8 	strh.w	r7, [r3, #200]	@ 0xc8
 8015ffa:	f7fe ff99 	bl	8014f30 <clkinit>
 8015ffe:	f04f 4280 	mov.w	r2, #1073741824	@ 0x40000000
 8016002:	6813      	ldr	r3, [r2, #0]
 8016004:	433b      	orrs	r3, r7
 8016006:	6013      	str	r3, [r2, #0]
 8016008:	4b1d      	ldr	r3, [pc, #116]	@ (8016080 <nulluser+0x184>)
 801600a:	601f      	str	r7, [r3, #0]
 801600c:	4b1d      	ldr	r3, [pc, #116]	@ (8016084 <nulluser+0x188>)
 801600e:	f04f 5280 	mov.w	r2, #268435456	@ 0x10000000
 8016012:	601a      	str	r2, [r3, #0]
 8016014:	4426      	add	r6, r4
 8016016:	eb05 0586 	add.w	r5, r5, r6, lsl #2
 801601a:	f8d5 30cc 	ldr.w	r3, [r5, #204]	@ 0xcc
 801601e:	4618      	mov	r0, r3
 8016020:	f380 8809 	msr	PSP, r0
 8016024:	e8b0 0ff0 	ldmia.w	r0!, {r4, r5, r6, r7, r8, r9, sl, fp}
 8016028:	f380 8809 	msr	PSP, r0
 801602c:	f04f 0002 	mov.w	r0, #2
 8016030:	f380 8814 	msr	CONTROL, r0
 8016034:	f3bf 8f6f 	isb	sy
 8016038:	f7ff fec8 	bl	8015dcc <nullprocess>
 801603c:	40020000 	.word	0x40020000
 8016040:	40011000 	.word	0x40011000
 8016044:	200016f4 	.word	0x200016f4
 8016048:	0801d2bc 	.word	0x0801d2bc
 801604c:	0801d2c8 	.word	0x0801d2c8
 8016050:	0801d2d4 	.word	0x0801d2d4
 8016054:	0801d2e8 	.word	0x0801d2e8
 8016058:	0801d310 	.word	0x0801d310
 801605c:	0801d5fc 	.word	0x0801d5fc
 8016060:	08010000 	.word	0x08010000
 8016064:	0801d330 	.word	0x0801d330
 8016068:	20003bc8 	.word	0x20003bc8
 801606c:	20000000 	.word	0x20000000
 8016070:	0801d34c 	.word	0x0801d34c
 8016074:	0801d364 	.word	0x0801d364
 8016078:	0801d384 	.word	0x0801d384
 801607c:	08015dcd 	.word	0x08015dcd
 8016080:	200016d0 	.word	0x200016d0
 8016084:	e000e100 	.word	0xe000e100

08016088 <stop>:
 8016088:	b508      	push	{r3, lr}
 801608a:	4601      	mov	r1, r0
 801608c:	4803      	ldr	r0, [pc, #12]	@ (801609c <stop+0x14>)
 801608e:	f000 f84f 	bl	8016130 <kprintf>
 8016092:	4803      	ldr	r0, [pc, #12]	@ (80160a0 <stop+0x18>)
 8016094:	f000 f84c 	bl	8016130 <kprintf>
 8016098:	e7fe      	b.n	8016098 <stop+0x10>
 801609a:	bf00      	nop
 801609c:	0801c8f8 	.word	0x0801c8f8
 80160a0:	0801d394 	.word	0x0801d394

080160a4 <cycleCount>:
 80160a4:	4b01      	ldr	r3, [pc, #4]	@ (80160ac <cycleCount+0x8>)
 80160a6:	e9d3 0100 	ldrd	r0, r1, [r3]
 80160aa:	4770      	bx	lr
 80160ac:	20001c88 	.word	0x20001c88

080160b0 <SysTick_Handler>:
 80160b0:	4a04      	ldr	r2, [pc, #16]	@ (80160c4 <SysTick_Handler+0x14>)
 80160b2:	6813      	ldr	r3, [r2, #0]
 80160b4:	6851      	ldr	r1, [r2, #4]
 80160b6:	3301      	adds	r3, #1
 80160b8:	f141 0100 	adc.w	r1, r1, #0
 80160bc:	6013      	str	r3, [r2, #0]
 80160be:	6051      	str	r1, [r2, #4]
 80160c0:	4770      	bx	lr
 80160c2:	bf00      	nop
 80160c4:	20001c88 	.word	0x20001c88

080160c8 <delay>:
 80160c8:	b538      	push	{r3, r4, r5, lr}
 80160ca:	4604      	mov	r4, r0
 80160cc:	f7ff ffea 	bl	80160a4 <cycleCount>
 80160d0:	1824      	adds	r4, r4, r0
 80160d2:	f141 0500 	adc.w	r5, r1, #0
 80160d6:	e000      	b.n	80160da <delay+0x12>
 80160d8:	bf00      	nop
 80160da:	f7ff ffe3 	bl	80160a4 <cycleCount>
 80160de:	42a0      	cmp	r0, r4
 80160e0:	41a9      	sbcs	r1, r5
 80160e2:	d3f9      	bcc.n	80160d8 <delay+0x10>
 80160e4:	bd38      	pop	{r3, r4, r5, pc}

080160e6 <delay_us>:
 80160e6:	4b08      	ldr	r3, [pc, #32]	@ (8016108 <delay_us+0x22>)
 80160e8:	685a      	ldr	r2, [r3, #4]
 80160ea:	4b08      	ldr	r3, [pc, #32]	@ (801610c <delay_us+0x26>)
 80160ec:	681b      	ldr	r3, [r3, #0]
 80160ee:	4908      	ldr	r1, [pc, #32]	@ (8016110 <delay_us+0x2a>)
 80160f0:	fba1 1303 	umull	r1, r3, r1, r3
 80160f4:	0c9b      	lsrs	r3, r3, #18
 80160f6:	fb03 f000 	mul.w	r0, r3, r0
 80160fa:	4b03      	ldr	r3, [pc, #12]	@ (8016108 <delay_us+0x22>)
 80160fc:	685b      	ldr	r3, [r3, #4]
 80160fe:	1a9b      	subs	r3, r3, r2
 8016100:	4283      	cmp	r3, r0
 8016102:	d3fa      	bcc.n	80160fa <delay_us+0x14>
 8016104:	4770      	bx	lr
 8016106:	bf00      	nop
 8016108:	e0001000 	.word	0xe0001000
 801610c:	20000088 	.word	0x20000088
 8016110:	431bde83 	.word	0x431bde83

08016114 <kputc>:
 8016114:	b538      	push	{r3, r4, r5, lr}
 8016116:	4605      	mov	r5, r0
 8016118:	f001 f858 	bl	80171cc <disable>
 801611c:	4604      	mov	r4, r0
 801611e:	4628      	mov	r0, r5
 8016120:	f001 f816 	bl	8017150 <putcharuart>
 8016124:	4620      	mov	r0, r4
 8016126:	f001 f855 	bl	80171d4 <restore>
 801612a:	2001      	movs	r0, #1
 801612c:	bd38      	pop	{r3, r4, r5, pc}

0801612e <kgetc>:
 801612e:	4770      	bx	lr

08016130 <kprintf>:
 8016130:	b40f      	push	{r0, r1, r2, r3}
 8016132:	b500      	push	{lr}
 8016134:	b083      	sub	sp, #12
 8016136:	a904      	add	r1, sp, #16
 8016138:	f851 0b04 	ldr.w	r0, [r1], #4
 801613c:	9101      	str	r1, [sp, #4]
 801613e:	4a04      	ldr	r2, [pc, #16]	@ (8016150 <kprintf+0x20>)
 8016140:	f7fa f946 	bl	80103d0 <_doprnt>
 8016144:	2001      	movs	r0, #1
 8016146:	b003      	add	sp, #12
 8016148:	f85d eb04 	ldr.w	lr, [sp], #4
 801614c:	b004      	add	sp, #16
 801614e:	4770      	bx	lr
 8016150:	08016115 	.word	0x08016115

08016154 <meminit>:
 8016154:	4a07      	ldr	r2, [pc, #28]	@ (8016174 <meminit+0x20>)
 8016156:	4b08      	ldr	r3, [pc, #32]	@ (8016178 <meminit+0x24>)
 8016158:	6013      	str	r3, [r2, #0]
 801615a:	4908      	ldr	r1, [pc, #32]	@ (801617c <meminit+0x28>)
 801615c:	6051      	str	r1, [r2, #4]
 801615e:	4908      	ldr	r1, [pc, #32]	@ (8016180 <meminit+0x2c>)
 8016160:	600b      	str	r3, [r1, #0]
 8016162:	2200      	movs	r2, #0
 8016164:	601a      	str	r2, [r3, #0]
 8016166:	f1c3 5200 	rsb	r2, r3, #536870912	@ 0x20000000
 801616a:	f502 32fa 	add.w	r2, r2, #128000	@ 0x1f400
 801616e:	605a      	str	r2, [r3, #4]
 8016170:	604a      	str	r2, [r1, #4]
 8016172:	4770      	bx	lr
 8016174:	20001c90 	.word	0x20001c90
 8016178:	20003bc8 	.word	0x20003bc8
 801617c:	2001f400 	.word	0x2001f400
 8016180:	20001c6c 	.word	0x20001c6c

08016184 <freemem>:
 8016184:	b5f8      	push	{r3, r4, r5, r6, r7, lr}
 8016186:	4604      	mov	r4, r0
 8016188:	460d      	mov	r5, r1
 801618a:	f001 f81f 	bl	80171cc <disable>
 801618e:	b175      	cbz	r5, 80161ae <freemem+0x2a>
 8016190:	46a4      	mov	ip, r4
 8016192:	4b25      	ldr	r3, [pc, #148]	@ (8016228 <freemem+0xa4>)
 8016194:	681b      	ldr	r3, [r3, #0]
 8016196:	429c      	cmp	r4, r3
 8016198:	d309      	bcc.n	80161ae <freemem+0x2a>
 801619a:	4b23      	ldr	r3, [pc, #140]	@ (8016228 <freemem+0xa4>)
 801619c:	685b      	ldr	r3, [r3, #4]
 801619e:	429c      	cmp	r4, r3
 80161a0:	d805      	bhi.n	80161ae <freemem+0x2a>
 80161a2:	3507      	adds	r5, #7
 80161a4:	f025 0507 	bic.w	r5, r5, #7
 80161a8:	4a20      	ldr	r2, [pc, #128]	@ (801622c <freemem+0xa8>)
 80161aa:	6813      	ldr	r3, [r2, #0]
 80161ac:	e006      	b.n	80161bc <freemem+0x38>
 80161ae:	f001 f811 	bl	80171d4 <restore>
 80161b2:	f04f 30ff 	mov.w	r0, #4294967295	@ 0xffffffff
 80161b6:	bdf8      	pop	{r3, r4, r5, r6, r7, pc}
 80161b8:	461a      	mov	r2, r3
 80161ba:	681b      	ldr	r3, [r3, #0]
 80161bc:	b10b      	cbz	r3, 80161c2 <freemem+0x3e>
 80161be:	42a3      	cmp	r3, r4
 80161c0:	d3fa      	bcc.n	80161b8 <freemem+0x34>
 80161c2:	491a      	ldr	r1, [pc, #104]	@ (801622c <freemem+0xa8>)
 80161c4:	428a      	cmp	r2, r1
 80161c6:	d01c      	beq.n	8016202 <freemem+0x7e>
 80161c8:	6851      	ldr	r1, [r2, #4]
 80161ca:	4411      	add	r1, r2
 80161cc:	4e17      	ldr	r6, [pc, #92]	@ (801622c <freemem+0xa8>)
 80161ce:	42b2      	cmp	r2, r6
 80161d0:	d001      	beq.n	80161d6 <freemem+0x52>
 80161d2:	458c      	cmp	ip, r1
 80161d4:	d317      	bcc.n	8016206 <freemem+0x82>
 80161d6:	b11b      	cbz	r3, 80161e0 <freemem+0x5c>
 80161d8:	eb0c 0605 	add.w	r6, ip, r5
 80161dc:	429e      	cmp	r6, r3
 80161de:	d812      	bhi.n	8016206 <freemem+0x82>
 80161e0:	4f12      	ldr	r7, [pc, #72]	@ (801622c <freemem+0xa8>)
 80161e2:	687e      	ldr	r6, [r7, #4]
 80161e4:	442e      	add	r6, r5
 80161e6:	607e      	str	r6, [r7, #4]
 80161e8:	458c      	cmp	ip, r1
 80161ea:	d011      	beq.n	8016210 <freemem+0x8c>
 80161ec:	6023      	str	r3, [r4, #0]
 80161ee:	6065      	str	r5, [r4, #4]
 80161f0:	6014      	str	r4, [r2, #0]
 80161f2:	6862      	ldr	r2, [r4, #4]
 80161f4:	1911      	adds	r1, r2, r4
 80161f6:	4299      	cmp	r1, r3
 80161f8:	d00f      	beq.n	801621a <freemem+0x96>
 80161fa:	f000 ffeb 	bl	80171d4 <restore>
 80161fe:	2001      	movs	r0, #1
 8016200:	e7d9      	b.n	80161b6 <freemem+0x32>
 8016202:	2100      	movs	r1, #0
 8016204:	e7e2      	b.n	80161cc <freemem+0x48>
 8016206:	f000 ffe5 	bl	80171d4 <restore>
 801620a:	f04f 30ff 	mov.w	r0, #4294967295	@ 0xffffffff
 801620e:	e7d2      	b.n	80161b6 <freemem+0x32>
 8016210:	6851      	ldr	r1, [r2, #4]
 8016212:	4429      	add	r1, r5
 8016214:	6051      	str	r1, [r2, #4]
 8016216:	4614      	mov	r4, r2
 8016218:	e7eb      	b.n	80161f2 <freemem+0x6e>
 801621a:	6859      	ldr	r1, [r3, #4]
 801621c:	440a      	add	r2, r1
 801621e:	6062      	str	r2, [r4, #4]
 8016220:	681b      	ldr	r3, [r3, #0]
 8016222:	6023      	str	r3, [r4, #0]
 8016224:	e7e9      	b.n	80161fa <freemem+0x76>
 8016226:	bf00      	nop
 8016228:	20001c90 	.word	0x20001c90
 801622c:	20001c6c 	.word	0x20001c6c

08016230 <getmem>:
 8016230:	b538      	push	{r3, r4, r5, lr}
 8016232:	4604      	mov	r4, r0
 8016234:	f000 ffca 	bl	80171cc <disable>
 8016238:	b16c      	cbz	r4, 8016256 <getmem+0x26>
 801623a:	1de3      	adds	r3, r4, #7
 801623c:	f023 0307 	bic.w	r3, r3, #7
 8016240:	4916      	ldr	r1, [pc, #88]	@ (801629c <getmem+0x6c>)
 8016242:	680c      	ldr	r4, [r1, #0]
 8016244:	b31c      	cbz	r4, 801628e <getmem+0x5e>
 8016246:	6862      	ldr	r2, [r4, #4]
 8016248:	429a      	cmp	r2, r3
 801624a:	d009      	beq.n	8016260 <getmem+0x30>
 801624c:	429a      	cmp	r2, r3
 801624e:	d810      	bhi.n	8016272 <getmem+0x42>
 8016250:	4621      	mov	r1, r4
 8016252:	6824      	ldr	r4, [r4, #0]
 8016254:	e7f6      	b.n	8016244 <getmem+0x14>
 8016256:	f000 ffbd 	bl	80171d4 <restore>
 801625a:	f04f 34ff 	mov.w	r4, #4294967295	@ 0xffffffff
 801625e:	e01a      	b.n	8016296 <getmem+0x66>
 8016260:	6822      	ldr	r2, [r4, #0]
 8016262:	600a      	str	r2, [r1, #0]
 8016264:	490d      	ldr	r1, [pc, #52]	@ (801629c <getmem+0x6c>)
 8016266:	684a      	ldr	r2, [r1, #4]
 8016268:	1ad2      	subs	r2, r2, r3
 801626a:	604a      	str	r2, [r1, #4]
 801626c:	f000 ffb2 	bl	80171d4 <restore>
 8016270:	e011      	b.n	8016296 <getmem+0x66>
 8016272:	18e5      	adds	r5, r4, r3
 8016274:	600d      	str	r5, [r1, #0]
 8016276:	6822      	ldr	r2, [r4, #0]
 8016278:	50e2      	str	r2, [r4, r3]
 801627a:	6862      	ldr	r2, [r4, #4]
 801627c:	1ad2      	subs	r2, r2, r3
 801627e:	606a      	str	r2, [r5, #4]
 8016280:	4906      	ldr	r1, [pc, #24]	@ (801629c <getmem+0x6c>)
 8016282:	684a      	ldr	r2, [r1, #4]
 8016284:	1ad2      	subs	r2, r2, r3
 8016286:	604a      	str	r2, [r1, #4]
 8016288:	f000 ffa4 	bl	80171d4 <restore>
 801628c:	e003      	b.n	8016296 <getmem+0x66>
 801628e:	f000 ffa1 	bl	80171d4 <restore>
 8016292:	f04f 34ff 	mov.w	r4, #4294967295	@ 0xffffffff
 8016296:	4620      	mov	r0, r4
 8016298:	bd38      	pop	{r3, r4, r5, pc}
 801629a:	bf00      	nop
 801629c:	20001c6c 	.word	0x20001c6c

080162a0 <getstk>:
 80162a0:	b538      	push	{r3, r4, r5, lr}
 80162a2:	4604      	mov	r4, r0
 80162a4:	f000 ff92 	bl	80171cc <disable>
 80162a8:	b144      	cbz	r4, 80162bc <getstk+0x1c>
 80162aa:	3407      	adds	r4, #7
 80162ac:	f024 0407 	bic.w	r4, r4, #7
 80162b0:	4916      	ldr	r1, [pc, #88]	@ (801630c <getstk+0x6c>)
 80162b2:	680b      	ldr	r3, [r1, #0]
 80162b4:	f04f 0c00 	mov.w	ip, #0
 80162b8:	4665      	mov	r5, ip
 80162ba:	e006      	b.n	80162ca <getstk+0x2a>
 80162bc:	f000 ff8a 	bl	80171d4 <restore>
 80162c0:	f04f 30ff 	mov.w	r0, #4294967295	@ 0xffffffff
 80162c4:	e017      	b.n	80162f6 <getstk+0x56>
 80162c6:	4619      	mov	r1, r3
 80162c8:	681b      	ldr	r3, [r3, #0]
 80162ca:	b12b      	cbz	r3, 80162d8 <getstk+0x38>
 80162cc:	685a      	ldr	r2, [r3, #4]
 80162ce:	42a2      	cmp	r2, r4
 80162d0:	d3f9      	bcc.n	80162c6 <getstk+0x26>
 80162d2:	468c      	mov	ip, r1
 80162d4:	461d      	mov	r5, r3
 80162d6:	e7f6      	b.n	80162c6 <getstk+0x26>
 80162d8:	b175      	cbz	r5, 80162f8 <getstk+0x58>
 80162da:	686b      	ldr	r3, [r5, #4]
 80162dc:	42a3      	cmp	r3, r4
 80162de:	d010      	beq.n	8016302 <getstk+0x62>
 80162e0:	1b1b      	subs	r3, r3, r4
 80162e2:	606b      	str	r3, [r5, #4]
 80162e4:	441d      	add	r5, r3
 80162e6:	4a09      	ldr	r2, [pc, #36]	@ (801630c <getstk+0x6c>)
 80162e8:	6853      	ldr	r3, [r2, #4]
 80162ea:	1b1b      	subs	r3, r3, r4
 80162ec:	6053      	str	r3, [r2, #4]
 80162ee:	f000 ff71 	bl	80171d4 <restore>
 80162f2:	1928      	adds	r0, r5, r4
 80162f4:	3804      	subs	r0, #4
 80162f6:	bd38      	pop	{r3, r4, r5, pc}
 80162f8:	f000 ff6c 	bl	80171d4 <restore>
 80162fc:	f04f 30ff 	mov.w	r0, #4294967295	@ 0xffffffff
 8016300:	e7f9      	b.n	80162f6 <getstk+0x56>
 8016302:	682b      	ldr	r3, [r5, #0]
 8016304:	f8cc 3000 	str.w	r3, [ip]
 8016308:	e7ed      	b.n	80162e6 <getstk+0x46>
 801630a:	bf00      	nop
 801630c:	20001c6c 	.word	0x20001c6c

08016310 <heap_free>:
 8016310:	4b04      	ldr	r3, [pc, #16]	@ (8016324 <heap_free+0x14>)
 8016312:	681b      	ldr	r3, [r3, #0]
 8016314:	2000      	movs	r0, #0
 8016316:	e002      	b.n	801631e <heap_free+0xe>
 8016318:	685a      	ldr	r2, [r3, #4]
 801631a:	4410      	add	r0, r2
 801631c:	681b      	ldr	r3, [r3, #0]
 801631e:	2b00      	cmp	r3, #0
 8016320:	d1fa      	bne.n	8016318 <heap_free+0x8>
 8016322:	4770      	bx	lr
 8016324:	20001c6c 	.word	0x20001c6c

08016328 <meminitcc>:
 8016328:	b410      	push	{r4}
 801632a:	4908      	ldr	r1, [pc, #32]	@ (801634c <meminitcc+0x24>)
 801632c:	f04f 5280 	mov.w	r2, #268435456	@ 0x10000000
 8016330:	600a      	str	r2, [r1, #0]
 8016332:	4b07      	ldr	r3, [pc, #28]	@ (8016350 <meminitcc+0x28>)
 8016334:	604b      	str	r3, [r1, #4]
 8016336:	4807      	ldr	r0, [pc, #28]	@ (8016354 <meminitcc+0x2c>)
 8016338:	6002      	str	r2, [r0, #0]
 801633a:	2400      	movs	r4, #0
 801633c:	6014      	str	r4, [r2, #0]
 801633e:	6809      	ldr	r1, [r1, #0]
 8016340:	1a5b      	subs	r3, r3, r1
 8016342:	6053      	str	r3, [r2, #4]
 8016344:	6043      	str	r3, [r0, #4]
 8016346:	f85d 4b04 	ldr.w	r4, [sp], #4
 801634a:	4770      	bx	lr
 801634c:	20001c98 	.word	0x20001c98
 8016350:	1000f000 	.word	0x1000f000
 8016354:	20001c7c 	.word	0x20001c7c

08016358 <freememcc>:
 8016358:	b5f8      	push	{r3, r4, r5, r6, r7, lr}
 801635a:	4604      	mov	r4, r0
 801635c:	460d      	mov	r5, r1
 801635e:	f000 ff35 	bl	80171cc <disable>
 8016362:	b175      	cbz	r5, 8016382 <freememcc+0x2a>
 8016364:	46a4      	mov	ip, r4
 8016366:	4b25      	ldr	r3, [pc, #148]	@ (80163fc <freememcc+0xa4>)
 8016368:	681b      	ldr	r3, [r3, #0]
 801636a:	429c      	cmp	r4, r3
 801636c:	d309      	bcc.n	8016382 <freememcc+0x2a>
 801636e:	4b23      	ldr	r3, [pc, #140]	@ (80163fc <freememcc+0xa4>)
 8016370:	685b      	ldr	r3, [r3, #4]
 8016372:	429c      	cmp	r4, r3
 8016374:	d805      	bhi.n	8016382 <freememcc+0x2a>
 8016376:	3507      	adds	r5, #7
 8016378:	f025 0507 	bic.w	r5, r5, #7
 801637c:	4a20      	ldr	r2, [pc, #128]	@ (8016400 <freememcc+0xa8>)
 801637e:	6813      	ldr	r3, [r2, #0]
 8016380:	e006      	b.n	8016390 <freememcc+0x38>
 8016382:	f000 ff27 	bl	80171d4 <restore>
 8016386:	f04f 30ff 	mov.w	r0, #4294967295	@ 0xffffffff
 801638a:	bdf8      	pop	{r3, r4, r5, r6, r7, pc}
 801638c:	461a      	mov	r2, r3
 801638e:	681b      	ldr	r3, [r3, #0]
 8016390:	b10b      	cbz	r3, 8016396 <freememcc+0x3e>
 8016392:	42a3      	cmp	r3, r4
 8016394:	d3fa      	bcc.n	801638c <freememcc+0x34>
 8016396:	491a      	ldr	r1, [pc, #104]	@ (8016400 <freememcc+0xa8>)
 8016398:	428a      	cmp	r2, r1
 801639a:	d01c      	beq.n	80163d6 <freememcc+0x7e>
 801639c:	6851      	ldr	r1, [r2, #4]
 801639e:	4411      	add	r1, r2
 80163a0:	4e17      	ldr	r6, [pc, #92]	@ (8016400 <freememcc+0xa8>)
 80163a2:	42b2      	cmp	r2, r6
 80163a4:	d001      	beq.n	80163aa <freememcc+0x52>
 80163a6:	458c      	cmp	ip, r1
 80163a8:	d317      	bcc.n	80163da <freememcc+0x82>
 80163aa:	b11b      	cbz	r3, 80163b4 <freememcc+0x5c>
 80163ac:	eb0c 0605 	add.w	r6, ip, r5
 80163b0:	429e      	cmp	r6, r3
 80163b2:	d812      	bhi.n	80163da <freememcc+0x82>
 80163b4:	4f12      	ldr	r7, [pc, #72]	@ (8016400 <freememcc+0xa8>)
 80163b6:	687e      	ldr	r6, [r7, #4]
 80163b8:	442e      	add	r6, r5
 80163ba:	607e      	str	r6, [r7, #4]
 80163bc:	458c      	cmp	ip, r1
 80163be:	d011      	beq.n	80163e4 <freememcc+0x8c>
 80163c0:	6023      	str	r3, [r4, #0]
 80163c2:	6065      	str	r5, [r4, #4]
 80163c4:	6014      	str	r4, [r2, #0]
 80163c6:	6862      	ldr	r2, [r4, #4]
 80163c8:	1911      	adds	r1, r2, r4
 80163ca:	4299      	cmp	r1, r3
 80163cc:	d00f      	beq.n	80163ee <freememcc+0x96>
 80163ce:	f000 ff01 	bl	80171d4 <restore>
 80163d2:	2001      	movs	r0, #1
 80163d4:	e7d9      	b.n	801638a <freememcc+0x32>
 80163d6:	2100      	movs	r1, #0
 80163d8:	e7e2      	b.n	80163a0 <freememcc+0x48>
 80163da:	f000 fefb 	bl	80171d4 <restore>
 80163de:	f04f 30ff 	mov.w	r0, #4294967295	@ 0xffffffff
 80163e2:	e7d2      	b.n	801638a <freememcc+0x32>
 80163e4:	6851      	ldr	r1, [r2, #4]
 80163e6:	4429      	add	r1, r5
 80163e8:	6051      	str	r1, [r2, #4]
 80163ea:	4614      	mov	r4, r2
 80163ec:	e7eb      	b.n	80163c6 <freememcc+0x6e>
 80163ee:	6859      	ldr	r1, [r3, #4]
 80163f0:	440a      	add	r2, r1
 80163f2:	6062      	str	r2, [r4, #4]
 80163f4:	681b      	ldr	r3, [r3, #0]
 80163f6:	6023      	str	r3, [r4, #0]
 80163f8:	e7e9      	b.n	80163ce <freememcc+0x76>
 80163fa:	bf00      	nop
 80163fc:	20001c98 	.word	0x20001c98
 8016400:	20001c7c 	.word	0x20001c7c

08016404 <getmemcc>:
 8016404:	b538      	push	{r3, r4, r5, lr}
 8016406:	4604      	mov	r4, r0
 8016408:	f000 fee0 	bl	80171cc <disable>
 801640c:	b16c      	cbz	r4, 801642a <getmemcc+0x26>
 801640e:	1de3      	adds	r3, r4, #7
 8016410:	f023 0307 	bic.w	r3, r3, #7
 8016414:	4916      	ldr	r1, [pc, #88]	@ (8016470 <getmemcc+0x6c>)
 8016416:	680c      	ldr	r4, [r1, #0]
 8016418:	b31c      	cbz	r4, 8016462 <getmemcc+0x5e>
 801641a:	6862      	ldr	r2, [r4, #4]
 801641c:	429a      	cmp	r2, r3
 801641e:	d009      	beq.n	8016434 <getmemcc+0x30>
 8016420:	429a      	cmp	r2, r3
 8016422:	d810      	bhi.n	8016446 <getmemcc+0x42>
 8016424:	4621      	mov	r1, r4
 8016426:	6824      	ldr	r4, [r4, #0]
 8016428:	e7f6      	b.n	8016418 <getmemcc+0x14>
 801642a:	f000 fed3 	bl	80171d4 <restore>
 801642e:	f04f 34ff 	mov.w	r4, #4294967295	@ 0xffffffff
 8016432:	e01a      	b.n	801646a <getmemcc+0x66>
 8016434:	6822      	ldr	r2, [r4, #0]
 8016436:	600a      	str	r2, [r1, #0]
 8016438:	490d      	ldr	r1, [pc, #52]	@ (8016470 <getmemcc+0x6c>)
 801643a:	684a      	ldr	r2, [r1, #4]
 801643c:	1ad2      	subs	r2, r2, r3
 801643e:	604a      	str	r2, [r1, #4]
 8016440:	f000 fec8 	bl	80171d4 <restore>
 8016444:	e011      	b.n	801646a <getmemcc+0x66>
 8016446:	18e5      	adds	r5, r4, r3
 8016448:	600d      	str	r5, [r1, #0]
 801644a:	6822      	ldr	r2, [r4, #0]
 801644c:	50e2      	str	r2, [r4, r3]
 801644e:	6862      	ldr	r2, [r4, #4]
 8016450:	1ad2      	subs	r2, r2, r3
 8016452:	606a      	str	r2, [r5, #4]
 8016454:	4906      	ldr	r1, [pc, #24]	@ (8016470 <getmemcc+0x6c>)
 8016456:	684a      	ldr	r2, [r1, #4]
 8016458:	1ad2      	subs	r2, r2, r3
 801645a:	604a      	str	r2, [r1, #4]
 801645c:	f000 feba 	bl	80171d4 <restore>
 8016460:	e003      	b.n	801646a <getmemcc+0x66>
 8016462:	f000 feb7 	bl	80171d4 <restore>
 8016466:	f04f 34ff 	mov.w	r4, #4294967295	@ 0xffffffff
 801646a:	4620      	mov	r0, r4
 801646c:	bd38      	pop	{r3, r4, r5, pc}
 801646e:	bf00      	nop
 8016470:	20001c7c 	.word	0x20001c7c

08016474 <getstkcc>:
 8016474:	b538      	push	{r3, r4, r5, lr}
 8016476:	4604      	mov	r4, r0
 8016478:	f000 fea8 	bl	80171cc <disable>
 801647c:	b144      	cbz	r4, 8016490 <getstkcc+0x1c>
 801647e:	3407      	adds	r4, #7
 8016480:	f024 0407 	bic.w	r4, r4, #7
 8016484:	4916      	ldr	r1, [pc, #88]	@ (80164e0 <getstkcc+0x6c>)
 8016486:	680b      	ldr	r3, [r1, #0]
 8016488:	f04f 0c00 	mov.w	ip, #0
 801648c:	4665      	mov	r5, ip
 801648e:	e006      	b.n	801649e <getstkcc+0x2a>
 8016490:	f000 fea0 	bl	80171d4 <restore>
 8016494:	f04f 30ff 	mov.w	r0, #4294967295	@ 0xffffffff
 8016498:	e017      	b.n	80164ca <getstkcc+0x56>
 801649a:	4619      	mov	r1, r3
 801649c:	681b      	ldr	r3, [r3, #0]
 801649e:	b12b      	cbz	r3, 80164ac <getstkcc+0x38>
 80164a0:	685a      	ldr	r2, [r3, #4]
 80164a2:	42a2      	cmp	r2, r4
 80164a4:	d3f9      	bcc.n	801649a <getstkcc+0x26>
 80164a6:	468c      	mov	ip, r1
 80164a8:	461d      	mov	r5, r3
 80164aa:	e7f6      	b.n	801649a <getstkcc+0x26>
 80164ac:	b175      	cbz	r5, 80164cc <getstkcc+0x58>
 80164ae:	686b      	ldr	r3, [r5, #4]
 80164b0:	42a3      	cmp	r3, r4
 80164b2:	d010      	beq.n	80164d6 <getstkcc+0x62>
 80164b4:	1b1b      	subs	r3, r3, r4
 80164b6:	606b      	str	r3, [r5, #4]
 80164b8:	441d      	add	r5, r3
 80164ba:	4a09      	ldr	r2, [pc, #36]	@ (80164e0 <getstkcc+0x6c>)
 80164bc:	6853      	ldr	r3, [r2, #4]
 80164be:	1b1b      	subs	r3, r3, r4
 80164c0:	6053      	str	r3, [r2, #4]
 80164c2:	f000 fe87 	bl	80171d4 <restore>
 80164c6:	1928      	adds	r0, r5, r4
 80164c8:	3804      	subs	r0, #4
 80164ca:	bd38      	pop	{r3, r4, r5, pc}
 80164cc:	f000 fe82 	bl	80171d4 <restore>
 80164d0:	f04f 30ff 	mov.w	r0, #4294967295	@ 0xffffffff
 80164d4:	e7f9      	b.n	80164ca <getstkcc+0x56>
 80164d6:	682b      	ldr	r3, [r5, #0]
 80164d8:	f8cc 3000 	str.w	r3, [ip]
 80164dc:	e7ed      	b.n	80164ba <getstkcc+0x46>
 80164de:	bf00      	nop
 80164e0:	20001c7c 	.word	0x20001c7c

080164e4 <heap_freecc>:
 80164e4:	4b04      	ldr	r3, [pc, #16]	@ (80164f8 <heap_freecc+0x14>)
 80164e6:	681b      	ldr	r3, [r3, #0]
 80164e8:	2000      	movs	r0, #0
 80164ea:	e002      	b.n	80164f2 <heap_freecc+0xe>
 80164ec:	685a      	ldr	r2, [r3, #4]
 80164ee:	4410      	add	r0, r2
 80164f0:	681b      	ldr	r3, [r3, #0]
 80164f2:	2b00      	cmp	r3, #0
 80164f4:	d1fa      	bne.n	80164ec <heap_freecc+0x8>
 80164f6:	4770      	bx	lr
 80164f8:	20001c7c 	.word	0x20001c7c

080164fc <receive>:
 80164fc:	4b11      	ldr	r3, [pc, #68]	@ (8016544 <receive+0x48>)
 80164fe:	681b      	ldr	r3, [r3, #0]
 8016500:	eb03 1203 	add.w	r2, r3, r3, lsl #4
 8016504:	0091      	lsls	r1, r2, #2
 8016506:	4a10      	ldr	r2, [pc, #64]	@ (8016548 <receive+0x4c>)
 8016508:	440a      	add	r2, r1
 801650a:	f892 2030 	ldrb.w	r2, [r2, #48]	@ 0x30
 801650e:	b95a      	cbnz	r2, 8016528 <receive+0x2c>
 8016510:	eb03 1103 	add.w	r1, r3, r3, lsl #4
 8016514:	008a      	lsls	r2, r1, #2
 8016516:	490c      	ldr	r1, [pc, #48]	@ (8016548 <receive+0x4c>)
 8016518:	2003      	movs	r0, #3
 801651a:	5288      	strh	r0, [r1, r2]
 801651c:	f04f 22e0 	mov.w	r2, #3758153728	@ 0xe000e000
 8016520:	f04f 5180 	mov.w	r1, #268435456	@ 0x10000000
 8016524:	f8c2 1d04 	str.w	r1, [r2, #3332]	@ 0xd04
 8016528:	4a07      	ldr	r2, [pc, #28]	@ (8016548 <receive+0x4c>)
 801652a:	eb03 1003 	add.w	r0, r3, r3, lsl #4
 801652e:	0081      	lsls	r1, r0, #2
 8016530:	4411      	add	r1, r2
 8016532:	6ac8      	ldr	r0, [r1, #44]	@ 0x2c
 8016534:	eb03 1303 	add.w	r3, r3, r3, lsl #4
 8016538:	0099      	lsls	r1, r3, #2
 801653a:	440a      	add	r2, r1
 801653c:	2300      	movs	r3, #0
 801653e:	f882 3030 	strb.w	r3, [r2, #48]	@ 0x30
 8016542:	4770      	bx	lr
 8016544:	20001c78 	.word	0x20001c78
 8016548:	200017bc 	.word	0x200017bc

0801654c <recvclr>:
 801654c:	b510      	push	{r4, lr}
 801654e:	f000 fe3d 	bl	80171cc <disable>
 8016552:	4b0c      	ldr	r3, [pc, #48]	@ (8016584 <recvclr+0x38>)
 8016554:	681b      	ldr	r3, [r3, #0]
 8016556:	eb03 1103 	add.w	r1, r3, r3, lsl #4
 801655a:	4a0b      	ldr	r2, [pc, #44]	@ (8016588 <recvclr+0x3c>)
 801655c:	eb02 0281 	add.w	r2, r2, r1, lsl #2
 8016560:	f892 2030 	ldrb.w	r2, [r2, #48]	@ 0x30
 8016564:	2a01      	cmp	r2, #1
 8016566:	d004      	beq.n	8016572 <recvclr+0x26>
 8016568:	2401      	movs	r4, #1
 801656a:	f000 fe33 	bl	80171d4 <restore>
 801656e:	4620      	mov	r0, r4
 8016570:	bd10      	pop	{r4, pc}
 8016572:	4a05      	ldr	r2, [pc, #20]	@ (8016588 <recvclr+0x3c>)
 8016574:	eb02 0181 	add.w	r1, r2, r1, lsl #2
 8016578:	6acc      	ldr	r4, [r1, #44]	@ 0x2c
 801657a:	2300      	movs	r3, #0
 801657c:	f881 3030 	strb.w	r3, [r1, #48]	@ 0x30
 8016580:	e7f3      	b.n	801656a <recvclr+0x1e>
 8016582:	bf00      	nop
 8016584:	20001c78 	.word	0x20001c78
 8016588:	200017bc 	.word	0x200017bc

0801658c <recvtime>:
 801658c:	b570      	push	{r4, r5, r6, lr}
 801658e:	1e05      	subs	r5, r0, #0
 8016590:	db41      	blt.n	8016616 <recvtime+0x8a>
 8016592:	f000 fe1b 	bl	80171cc <disable>
 8016596:	4606      	mov	r6, r0
 8016598:	4b20      	ldr	r3, [pc, #128]	@ (801661c <recvtime+0x90>)
 801659a:	681c      	ldr	r4, [r3, #0]
 801659c:	eb04 1204 	add.w	r2, r4, r4, lsl #4
 80165a0:	4b1f      	ldr	r3, [pc, #124]	@ (8016620 <recvtime+0x94>)
 80165a2:	eb03 0382 	add.w	r3, r3, r2, lsl #2
 80165a6:	f893 3030 	ldrb.w	r3, [r3, #48]	@ 0x30
 80165aa:	b1a3      	cbz	r3, 80165d6 <recvtime+0x4a>
 80165ac:	eb04 1204 	add.w	r2, r4, r4, lsl #4
 80165b0:	4b1b      	ldr	r3, [pc, #108]	@ (8016620 <recvtime+0x94>)
 80165b2:	eb03 0382 	add.w	r3, r3, r2, lsl #2
 80165b6:	f893 3030 	ldrb.w	r3, [r3, #48]	@ 0x30
 80165ba:	b34b      	cbz	r3, 8016610 <recvtime+0x84>
 80165bc:	4b18      	ldr	r3, [pc, #96]	@ (8016620 <recvtime+0x94>)
 80165be:	eb03 0282 	add.w	r2, r3, r2, lsl #2
 80165c2:	6ad5      	ldr	r5, [r2, #44]	@ 0x2c
 80165c4:	4613      	mov	r3, r2
 80165c6:	2200      	movs	r2, #0
 80165c8:	f883 2030 	strb.w	r2, [r3, #48]	@ 0x30
 80165cc:	4630      	mov	r0, r6
 80165ce:	f000 fe01 	bl	80171d4 <restore>
 80165d2:	4628      	mov	r0, r5
 80165d4:	bd70      	pop	{r4, r5, r6, pc}
 80165d6:	462a      	mov	r2, r5
 80165d8:	4b12      	ldr	r3, [pc, #72]	@ (8016624 <recvtime+0x98>)
 80165da:	f9b3 1000 	ldrsh.w	r1, [r3]
 80165de:	4620      	mov	r0, r4
 80165e0:	f000 f93a 	bl	8016858 <insertd>
 80165e4:	f1b0 3fff 	cmp.w	r0, #4294967295	@ 0xffffffff
 80165e8:	d00c      	beq.n	8016604 <recvtime+0x78>
 80165ea:	eb04 1304 	add.w	r3, r4, r4, lsl #4
 80165ee:	4a0c      	ldr	r2, [pc, #48]	@ (8016620 <recvtime+0x94>)
 80165f0:	2107      	movs	r1, #7
 80165f2:	f822 1023 	strh.w	r1, [r2, r3, lsl #2]
 80165f6:	f04f 23e0 	mov.w	r3, #3758153728	@ 0xe000e000
 80165fa:	f04f 5280 	mov.w	r2, #268435456	@ 0x10000000
 80165fe:	f8c3 2d04 	str.w	r2, [r3, #3332]	@ 0xd04
 8016602:	e7d3      	b.n	80165ac <recvtime+0x20>
 8016604:	4630      	mov	r0, r6
 8016606:	f000 fde5 	bl	80171d4 <restore>
 801660a:	f04f 35ff 	mov.w	r5, #4294967295	@ 0xffffffff
 801660e:	e7e0      	b.n	80165d2 <recvtime+0x46>
 8016610:	f06f 0502 	mvn.w	r5, #2
 8016614:	e7da      	b.n	80165cc <recvtime+0x40>
 8016616:	f04f 35ff 	mov.w	r5, #4294967295	@ 0xffffffff
 801661a:	e7da      	b.n	80165d2 <recvtime+0x46>
 801661c:	20001c78 	.word	0x20001c78
 8016620:	200017bc 	.word	0x200017bc
 8016624:	200016d4 	.word	0x200016d4

08016628 <send>:
 8016628:	b570      	push	{r4, r5, r6, lr}
 801662a:	4604      	mov	r4, r0
 801662c:	460e      	mov	r6, r1
 801662e:	f000 fdcd 	bl	80171cc <disable>
 8016632:	4605      	mov	r5, r0
 8016634:	2c0e      	cmp	r4, #14
 8016636:	d81f      	bhi.n	8016678 <send+0x50>
 8016638:	eb04 1304 	add.w	r3, r4, r4, lsl #4
 801663c:	4a19      	ldr	r2, [pc, #100]	@ (80166a4 <send+0x7c>)
 801663e:	f832 3023 	ldrh.w	r3, [r2, r3, lsl #2]
 8016642:	b1cb      	cbz	r3, 8016678 <send+0x50>
 8016644:	eb04 1104 	add.w	r1, r4, r4, lsl #4
 8016648:	4a16      	ldr	r2, [pc, #88]	@ (80166a4 <send+0x7c>)
 801664a:	eb02 0281 	add.w	r2, r2, r1, lsl #2
 801664e:	f892 2030 	ldrb.w	r2, [r2, #48]	@ 0x30
 8016652:	b9ba      	cbnz	r2, 8016684 <send+0x5c>
 8016654:	eb04 1104 	add.w	r1, r4, r4, lsl #4
 8016658:	4a12      	ldr	r2, [pc, #72]	@ (80166a4 <send+0x7c>)
 801665a:	eb02 0281 	add.w	r2, r2, r1, lsl #2
 801665e:	62d6      	str	r6, [r2, #44]	@ 0x2c
 8016660:	2101      	movs	r1, #1
 8016662:	f882 1030 	strb.w	r1, [r2, #48]	@ 0x30
 8016666:	2b03      	cmp	r3, #3
 8016668:	d011      	beq.n	801668e <send+0x66>
 801666a:	2b07      	cmp	r3, #7
 801666c:	d013      	beq.n	8016696 <send+0x6e>
 801666e:	4628      	mov	r0, r5
 8016670:	f000 fdb0 	bl	80171d4 <restore>
 8016674:	2001      	movs	r0, #1
 8016676:	e004      	b.n	8016682 <send+0x5a>
 8016678:	4628      	mov	r0, r5
 801667a:	f000 fdab 	bl	80171d4 <restore>
 801667e:	f04f 30ff 	mov.w	r0, #4294967295	@ 0xffffffff
 8016682:	bd70      	pop	{r4, r5, r6, pc}
 8016684:	f000 fda6 	bl	80171d4 <restore>
 8016688:	f04f 30ff 	mov.w	r0, #4294967295	@ 0xffffffff
 801668c:	e7f9      	b.n	8016682 <send+0x5a>
 801668e:	4620      	mov	r0, r4
 8016690:	f7fe ffe2 	bl	8015658 <ready>
 8016694:	e7eb      	b.n	801666e <send+0x46>
 8016696:	4620      	mov	r0, r4
 8016698:	f7fe fdcc 	bl	8015234 <unsleep>
 801669c:	4620      	mov	r0, r4
 801669e:	f7fe ffdb 	bl	8015658 <ready>
 80166a2:	e7e4      	b.n	801666e <send+0x46>
 80166a4:	200017bc 	.word	0x200017bc

080166a8 <panic>:
 80166a8:	b508      	push	{r3, lr}
 80166aa:	4604      	mov	r4, r0
 80166ac:	f000 fd8e 	bl	80171cc <disable>
 80166b0:	4621      	mov	r1, r4
 80166b2:	4802      	ldr	r0, [pc, #8]	@ (80166bc <panic+0x14>)
 80166b4:	f7ff fd3c 	bl	8016130 <kprintf>
 80166b8:	e7fe      	b.n	80166b8 <panic+0x10>
 80166ba:	bf00      	nop
 80166bc:	0801d3ac 	.word	0x0801d3ac

080166c0 <platinit>:
 80166c0:	b508      	push	{r3, lr}
 80166c2:	f000 fd15 	bl	80170f0 <uartinit>
 80166c6:	bd08      	pop	{r3, pc}

080166c8 <enqueue>:
 80166c8:	b289      	uxth	r1, r1
 80166ca:	f1a1 030f 	sub.w	r3, r1, #15
 80166ce:	b29b      	uxth	r3, r3
 80166d0:	2b20      	cmp	r3, #32
 80166d2:	d81c      	bhi.n	801670e <enqueue+0x46>
 80166d4:	280e      	cmp	r0, #14
 80166d6:	d81d      	bhi.n	8016714 <enqueue+0x4c>
 80166d8:	eb00 1300 	add.w	r3, r0, r0, lsl #4
 80166dc:	4a10      	ldr	r2, [pc, #64]	@ (8016720 <enqueue+0x58>)
 80166de:	f832 3023 	ldrh.w	r3, [r2, r3, lsl #2]
 80166e2:	b1d3      	cbz	r3, 801671a <enqueue+0x52>
 80166e4:	b500      	push	{lr}
 80166e6:	3101      	adds	r1, #1
 80166e8:	b209      	sxth	r1, r1
 80166ea:	4b0e      	ldr	r3, [pc, #56]	@ (8016724 <enqueue+0x5c>)
 80166ec:	eb03 02c1 	add.w	r2, r3, r1, lsl #3
 80166f0:	f9b2 c006 	ldrsh.w	ip, [r2, #6]
 80166f4:	eb03 0ec0 	add.w	lr, r3, r0, lsl #3
 80166f8:	f8ae 1004 	strh.w	r1, [lr, #4]
 80166fc:	f8ae c006 	strh.w	ip, [lr, #6]
 8016700:	b201      	sxth	r1, r0
 8016702:	eb03 03cc 	add.w	r3, r3, ip, lsl #3
 8016706:	8099      	strh	r1, [r3, #4]
 8016708:	80d1      	strh	r1, [r2, #6]
 801670a:	f85d fb04 	ldr.w	pc, [sp], #4
 801670e:	f04f 30ff 	mov.w	r0, #4294967295	@ 0xffffffff
 8016712:	4770      	bx	lr
 8016714:	f04f 30ff 	mov.w	r0, #4294967295	@ 0xffffffff
 8016718:	4770      	bx	lr
 801671a:	f04f 30ff 	mov.w	r0, #4294967295	@ 0xffffffff
 801671e:	4770      	bx	lr
 8016720:	200017bc 	.word	0x200017bc
 8016724:	20001ca0 	.word	0x20001ca0

08016728 <getitem>:
 8016728:	4b07      	ldr	r3, [pc, #28]	@ (8016748 <getitem+0x20>)
 801672a:	eb03 02c0 	add.w	r2, r3, r0, lsl #3
 801672e:	f9b2 1004 	ldrsh.w	r1, [r2, #4]
 8016732:	f9b2 2006 	ldrsh.w	r2, [r2, #6]
 8016736:	eb03 0cc2 	add.w	ip, r3, r2, lsl #3
 801673a:	f8ac 1004 	strh.w	r1, [ip, #4]
 801673e:	eb03 03c1 	add.w	r3, r3, r1, lsl #3
 8016742:	80da      	strh	r2, [r3, #6]
 8016744:	4770      	bx	lr
 8016746:	bf00      	nop
 8016748:	20001ca0 	.word	0x20001ca0

0801674c <getfirst>:
 801674c:	b508      	push	{r3, lr}
 801674e:	4b06      	ldr	r3, [pc, #24]	@ (8016768 <getfirst+0x1c>)
 8016750:	eb03 03c0 	add.w	r3, r3, r0, lsl #3
 8016754:	f9b3 0004 	ldrsh.w	r0, [r3, #4]
 8016758:	280e      	cmp	r0, #14
 801675a:	dc02      	bgt.n	8016762 <getfirst+0x16>
 801675c:	f7ff ffe4 	bl	8016728 <getitem>
 8016760:	bd08      	pop	{r3, pc}
 8016762:	f04f 30ff 	mov.w	r0, #4294967295	@ 0xffffffff
 8016766:	e7fb      	b.n	8016760 <getfirst+0x14>
 8016768:	20001ca0 	.word	0x20001ca0

0801676c <dequeue>:
 801676c:	b508      	push	{r3, lr}
 801676e:	f1a0 030f 	sub.w	r3, r0, #15
 8016772:	b29b      	uxth	r3, r3
 8016774:	2b20      	cmp	r3, #32
 8016776:	d810      	bhi.n	801679a <dequeue+0x2e>
 8016778:	4b0b      	ldr	r3, [pc, #44]	@ (80167a8 <dequeue+0x3c>)
 801677a:	eb03 03c0 	add.w	r3, r3, r0, lsl #3
 801677e:	f9b3 3004 	ldrsh.w	r3, [r3, #4]
 8016782:	2b0e      	cmp	r3, #14
 8016784:	dc0c      	bgt.n	80167a0 <dequeue+0x34>
 8016786:	f7ff ffe1 	bl	801674c <getfirst>
 801678a:	4b07      	ldr	r3, [pc, #28]	@ (80167a8 <dequeue+0x3c>)
 801678c:	eb03 03c0 	add.w	r3, r3, r0, lsl #3
 8016790:	f64f 72ff 	movw	r2, #65535	@ 0xffff
 8016794:	80da      	strh	r2, [r3, #6]
 8016796:	809a      	strh	r2, [r3, #4]
 8016798:	bd08      	pop	{r3, pc}
 801679a:	f04f 30ff 	mov.w	r0, #4294967295	@ 0xffffffff
 801679e:	e7fb      	b.n	8016798 <dequeue+0x2c>
 80167a0:	f04f 30ff 	mov.w	r0, #4294967295	@ 0xffffffff
 80167a4:	e7f8      	b.n	8016798 <dequeue+0x2c>
 80167a6:	bf00      	nop
 80167a8:	20001ca0 	.word	0x20001ca0

080167ac <getlast>:
 80167ac:	b508      	push	{r3, lr}
 80167ae:	4b09      	ldr	r3, [pc, #36]	@ (80167d4 <getlast+0x28>)
 80167b0:	eb03 03c0 	add.w	r3, r3, r0, lsl #3
 80167b4:	f9b3 3004 	ldrsh.w	r3, [r3, #4]
 80167b8:	2b0e      	cmp	r3, #14
 80167ba:	dc08      	bgt.n	80167ce <getlast+0x22>
 80167bc:	3001      	adds	r0, #1
 80167be:	4b05      	ldr	r3, [pc, #20]	@ (80167d4 <getlast+0x28>)
 80167c0:	eb03 03c0 	add.w	r3, r3, r0, lsl #3
 80167c4:	f9b3 0006 	ldrsh.w	r0, [r3, #6]
 80167c8:	f7ff ffae 	bl	8016728 <getitem>
 80167cc:	bd08      	pop	{r3, pc}
 80167ce:	f04f 30ff 	mov.w	r0, #4294967295	@ 0xffffffff
 80167d2:	e7fb      	b.n	80167cc <getlast+0x20>
 80167d4:	20001ca0 	.word	0x20001ca0

080167d8 <insert>:
 80167d8:	f1a1 030f 	sub.w	r3, r1, #15
 80167dc:	b29b      	uxth	r3, r3
 80167de:	2b20      	cmp	r3, #32
 80167e0:	d82c      	bhi.n	801683c <insert+0x64>
 80167e2:	280e      	cmp	r0, #14
 80167e4:	d82d      	bhi.n	8016842 <insert+0x6a>
 80167e6:	b510      	push	{r4, lr}
 80167e8:	eb00 1300 	add.w	r3, r0, r0, lsl #4
 80167ec:	4c18      	ldr	r4, [pc, #96]	@ (8016850 <insert+0x78>)
 80167ee:	f834 3023 	ldrh.w	r3, [r4, r3, lsl #2]
 80167f2:	b34b      	cbz	r3, 8016848 <insert+0x70>
 80167f4:	4b17      	ldr	r3, [pc, #92]	@ (8016854 <insert+0x7c>)
 80167f6:	eb03 03c1 	add.w	r3, r3, r1, lsl #3
 80167fa:	f9b3 1004 	ldrsh.w	r1, [r3, #4]
 80167fe:	e004      	b.n	801680a <insert+0x32>
 8016800:	4b14      	ldr	r3, [pc, #80]	@ (8016854 <insert+0x7c>)
 8016802:	eb03 03c1 	add.w	r3, r3, r1, lsl #3
 8016806:	f9b3 1004 	ldrsh.w	r1, [r3, #4]
 801680a:	4b12      	ldr	r3, [pc, #72]	@ (8016854 <insert+0x7c>)
 801680c:	f853 3031 	ldr.w	r3, [r3, r1, lsl #3]
 8016810:	4293      	cmp	r3, r2
 8016812:	daf5      	bge.n	8016800 <insert+0x28>
 8016814:	4b0f      	ldr	r3, [pc, #60]	@ (8016854 <insert+0x7c>)
 8016816:	eb03 04c1 	add.w	r4, r3, r1, lsl #3
 801681a:	f9b4 c006 	ldrsh.w	ip, [r4, #6]
 801681e:	eb03 0ec0 	add.w	lr, r3, r0, lsl #3
 8016822:	f8ae 1004 	strh.w	r1, [lr, #4]
 8016826:	f8ae c006 	strh.w	ip, [lr, #6]
 801682a:	f843 2030 	str.w	r2, [r3, r0, lsl #3]
 801682e:	b200      	sxth	r0, r0
 8016830:	eb03 03cc 	add.w	r3, r3, ip, lsl #3
 8016834:	8098      	strh	r0, [r3, #4]
 8016836:	80e0      	strh	r0, [r4, #6]
 8016838:	2001      	movs	r0, #1
 801683a:	bd10      	pop	{r4, pc}
 801683c:	f04f 30ff 	mov.w	r0, #4294967295	@ 0xffffffff
 8016840:	4770      	bx	lr
 8016842:	f04f 30ff 	mov.w	r0, #4294967295	@ 0xffffffff
 8016846:	4770      	bx	lr
 8016848:	f04f 30ff 	mov.w	r0, #4294967295	@ 0xffffffff
 801684c:	e7f5      	b.n	801683a <insert+0x62>
 801684e:	bf00      	nop
 8016850:	200017bc 	.word	0x200017bc
 8016854:	20001ca0 	.word	0x20001ca0

08016858 <insertd>:
 8016858:	f1a1 030f 	sub.w	r3, r1, #15
 801685c:	b29b      	uxth	r3, r3
 801685e:	2b20      	cmp	r3, #32
 8016860:	d83a      	bhi.n	80168d8 <insertd+0x80>
 8016862:	280e      	cmp	r0, #14
 8016864:	d83b      	bhi.n	80168de <insertd+0x86>
 8016866:	b510      	push	{r4, lr}
 8016868:	eb00 1300 	add.w	r3, r0, r0, lsl #4
 801686c:	4c20      	ldr	r4, [pc, #128]	@ (80168f0 <insertd+0x98>)
 801686e:	f834 3023 	ldrh.w	r3, [r4, r3, lsl #2]
 8016872:	2b00      	cmp	r3, #0
 8016874:	d036      	beq.n	80168e4 <insertd+0x8c>
 8016876:	4b1f      	ldr	r3, [pc, #124]	@ (80168f4 <insertd+0x9c>)
 8016878:	eb03 03c1 	add.w	r3, r3, r1, lsl #3
 801687c:	f9b3 3004 	ldrsh.w	r3, [r3, #4]
 8016880:	468e      	mov	lr, r1
 8016882:	e006      	b.n	8016892 <insertd+0x3a>
 8016884:	1b12      	subs	r2, r2, r4
 8016886:	4c1b      	ldr	r4, [pc, #108]	@ (80168f4 <insertd+0x9c>)
 8016888:	eb04 0cc3 	add.w	ip, r4, r3, lsl #3
 801688c:	469e      	mov	lr, r3
 801688e:	f9bc 3004 	ldrsh.w	r3, [ip, #4]
 8016892:	f101 0c01 	add.w	ip, r1, #1
 8016896:	459c      	cmp	ip, r3
 8016898:	d004      	beq.n	80168a4 <insertd+0x4c>
 801689a:	4c16      	ldr	r4, [pc, #88]	@ (80168f4 <insertd+0x9c>)
 801689c:	f854 4033 	ldr.w	r4, [r4, r3, lsl #3]
 80168a0:	4294      	cmp	r4, r2
 80168a2:	ddef      	ble.n	8016884 <insertd+0x2c>
 80168a4:	4913      	ldr	r1, [pc, #76]	@ (80168f4 <insertd+0x9c>)
 80168a6:	eb01 04c0 	add.w	r4, r1, r0, lsl #3
 80168aa:	80a3      	strh	r3, [r4, #4]
 80168ac:	f8a4 e006 	strh.w	lr, [r4, #6]
 80168b0:	f841 2030 	str.w	r2, [r1, r0, lsl #3]
 80168b4:	b200      	sxth	r0, r0
 80168b6:	eb01 0ece 	add.w	lr, r1, lr, lsl #3
 80168ba:	f8ae 0004 	strh.w	r0, [lr, #4]
 80168be:	eb01 01c3 	add.w	r1, r1, r3, lsl #3
 80168c2:	80c8      	strh	r0, [r1, #6]
 80168c4:	459c      	cmp	ip, r3
 80168c6:	d010      	beq.n	80168ea <insertd+0x92>
 80168c8:	480a      	ldr	r0, [pc, #40]	@ (80168f4 <insertd+0x9c>)
 80168ca:	f850 1033 	ldr.w	r1, [r0, r3, lsl #3]
 80168ce:	1a89      	subs	r1, r1, r2
 80168d0:	f840 1033 	str.w	r1, [r0, r3, lsl #3]
 80168d4:	2001      	movs	r0, #1
 80168d6:	bd10      	pop	{r4, pc}
 80168d8:	f04f 30ff 	mov.w	r0, #4294967295	@ 0xffffffff
 80168dc:	4770      	bx	lr
 80168de:	f04f 30ff 	mov.w	r0, #4294967295	@ 0xffffffff
 80168e2:	4770      	bx	lr
 80168e4:	f04f 30ff 	mov.w	r0, #4294967295	@ 0xffffffff
 80168e8:	e7f5      	b.n	80168d6 <insertd+0x7e>
 80168ea:	2001      	movs	r0, #1
 80168ec:	e7f3      	b.n	80168d6 <insertd+0x7e>
 80168ee:	bf00      	nop
 80168f0:	200017bc 	.word	0x200017bc
 80168f4:	20001ca0 	.word	0x20001ca0

080168f8 <newqueue>:
 80168f8:	4b11      	ldr	r3, [pc, #68]	@ (8016940 <newqueue+0x48>)
 80168fa:	f9b3 0000 	ldrsh.w	r0, [r3]
 80168fe:	2830      	cmp	r0, #48	@ 0x30
 8016900:	dc1b      	bgt.n	801693a <newqueue+0x42>
 8016902:	b283      	uxth	r3, r0
 8016904:	1c99      	adds	r1, r3, #2
 8016906:	4a0e      	ldr	r2, [pc, #56]	@ (8016940 <newqueue+0x48>)
 8016908:	8011      	strh	r1, [r2, #0]
 801690a:	1c5a      	adds	r2, r3, #1
 801690c:	4b0d      	ldr	r3, [pc, #52]	@ (8016944 <newqueue+0x4c>)
 801690e:	eb03 01c0 	add.w	r1, r3, r0, lsl #3
 8016912:	808a      	strh	r2, [r1, #4]
 8016914:	f64f 7cff 	movw	ip, #65535	@ 0xffff
 8016918:	f8a1 c006 	strh.w	ip, [r1, #6]
 801691c:	f06f 4200 	mvn.w	r2, #2147483648	@ 0x80000000
 8016920:	f843 2030 	str.w	r2, [r3, r0, lsl #3]
 8016924:	1c42      	adds	r2, r0, #1
 8016926:	eb03 01c2 	add.w	r1, r3, r2, lsl #3
 801692a:	f8a1 c004 	strh.w	ip, [r1, #4]
 801692e:	80c8      	strh	r0, [r1, #6]
 8016930:	f04f 4100 	mov.w	r1, #2147483648	@ 0x80000000
 8016934:	f843 1032 	str.w	r1, [r3, r2, lsl #3]
 8016938:	4770      	bx	lr
 801693a:	f04f 30ff 	mov.w	r0, #4294967295	@ 0xffffffff
 801693e:	4770      	bx	lr
 8016940:	20000208 	.word	0x20000208
 8016944:	20001ca0 	.word	0x20001ca0

08016948 <newsem>:
 8016948:	2300      	movs	r3, #0
 801694a:	e006      	b.n	801695a <newsem+0x12>
 801694c:	eb00 0140 	add.w	r1, r0, r0, lsl #1
 8016950:	008a      	lsls	r2, r1, #2
 8016952:	490d      	ldr	r1, [pc, #52]	@ (8016988 <newsem+0x40>)
 8016954:	5c8a      	ldrb	r2, [r1, r2]
 8016956:	b162      	cbz	r2, 8016972 <newsem+0x2a>
 8016958:	3301      	adds	r3, #1
 801695a:	2b0e      	cmp	r3, #14
 801695c:	dc10      	bgt.n	8016980 <newsem+0x38>
 801695e:	490b      	ldr	r1, [pc, #44]	@ (801698c <newsem+0x44>)
 8016960:	6808      	ldr	r0, [r1, #0]
 8016962:	1c42      	adds	r2, r0, #1
 8016964:	600a      	str	r2, [r1, #0]
 8016966:	2a0e      	cmp	r2, #14
 8016968:	ddf0      	ble.n	801694c <newsem+0x4>
 801696a:	460a      	mov	r2, r1
 801696c:	2100      	movs	r1, #0
 801696e:	6011      	str	r1, [r2, #0]
 8016970:	e7ec      	b.n	801694c <newsem+0x4>
 8016972:	eb00 0240 	add.w	r2, r0, r0, lsl #1
 8016976:	0093      	lsls	r3, r2, #2
 8016978:	460a      	mov	r2, r1
 801697a:	2101      	movs	r1, #1
 801697c:	54d1      	strb	r1, [r2, r3]
 801697e:	4770      	bx	lr
 8016980:	f04f 30ff 	mov.w	r0, #4294967295	@ 0xffffffff
 8016984:	4770      	bx	lr
 8016986:	bf00      	nop
 8016988:	20001bb8 	.word	0x20001bb8
 801698c:	20001e28 	.word	0x20001e28

08016990 <semcreate>:
 8016990:	b570      	push	{r4, r5, r6, lr}
 8016992:	4605      	mov	r5, r0
 8016994:	f000 fc1a 	bl	80171cc <disable>
 8016998:	4606      	mov	r6, r0
 801699a:	2d00      	cmp	r5, #0
 801699c:	db10      	blt.n	80169c0 <semcreate+0x30>
 801699e:	f7ff ffd3 	bl	8016948 <newsem>
 80169a2:	4604      	mov	r4, r0
 80169a4:	f1b0 3fff 	cmp.w	r0, #4294967295	@ 0xffffffff
 80169a8:	d00a      	beq.n	80169c0 <semcreate+0x30>
 80169aa:	eb00 0240 	add.w	r2, r0, r0, lsl #1
 80169ae:	4b07      	ldr	r3, [pc, #28]	@ (80169cc <semcreate+0x3c>)
 80169b0:	eb03 0382 	add.w	r3, r3, r2, lsl #2
 80169b4:	605d      	str	r5, [r3, #4]
 80169b6:	4630      	mov	r0, r6
 80169b8:	f000 fc0c 	bl	80171d4 <restore>
 80169bc:	4620      	mov	r0, r4
 80169be:	bd70      	pop	{r4, r5, r6, pc}
 80169c0:	4630      	mov	r0, r6
 80169c2:	f000 fc07 	bl	80171d4 <restore>
 80169c6:	f04f 34ff 	mov.w	r4, #4294967295	@ 0xffffffff
 80169ca:	e7f7      	b.n	80169bc <semcreate+0x2c>
 80169cc:	20001bb8 	.word	0x20001bb8

080169d0 <semcount>:
 80169d0:	b510      	push	{r4, lr}
 80169d2:	4604      	mov	r4, r0
 80169d4:	f000 fbfa 	bl	80171cc <disable>
 80169d8:	2c0e      	cmp	r4, #14
 80169da:	d80f      	bhi.n	80169fc <semcount+0x2c>
 80169dc:	eb04 0344 	add.w	r3, r4, r4, lsl #1
 80169e0:	4a09      	ldr	r2, [pc, #36]	@ (8016a08 <semcount+0x38>)
 80169e2:	f812 3023 	ldrb.w	r3, [r2, r3, lsl #2]
 80169e6:	b14b      	cbz	r3, 80169fc <semcount+0x2c>
 80169e8:	eb04 0444 	add.w	r4, r4, r4, lsl #1
 80169ec:	4b06      	ldr	r3, [pc, #24]	@ (8016a08 <semcount+0x38>)
 80169ee:	eb03 0384 	add.w	r3, r3, r4, lsl #2
 80169f2:	685c      	ldr	r4, [r3, #4]
 80169f4:	f000 fbee 	bl	80171d4 <restore>
 80169f8:	4620      	mov	r0, r4
 80169fa:	bd10      	pop	{r4, pc}
 80169fc:	f000 fbea 	bl	80171d4 <restore>
 8016a00:	f04f 34ff 	mov.w	r4, #4294967295	@ 0xffffffff
 8016a04:	e7f8      	b.n	80169f8 <semcount+0x28>
 8016a06:	bf00      	nop
 8016a08:	20001bb8 	.word	0x20001bb8

08016a0c <semdelete>:
 8016a0c:	b538      	push	{r3, r4, r5, lr}
 8016a0e:	4604      	mov	r4, r0
 8016a10:	f000 fbdc 	bl	80171cc <disable>
 8016a14:	4605      	mov	r5, r0
 8016a16:	2c0e      	cmp	r4, #14
 8016a18:	d80f      	bhi.n	8016a3a <semdelete+0x2e>
 8016a1a:	eb04 0344 	add.w	r3, r4, r4, lsl #1
 8016a1e:	4a1a      	ldr	r2, [pc, #104]	@ (8016a88 <semdelete+0x7c>)
 8016a20:	f812 3023 	ldrb.w	r3, [r2, r3, lsl #2]
 8016a24:	b173      	cbz	r3, 8016a44 <semdelete+0x38>
 8016a26:	eb04 0344 	add.w	r3, r4, r4, lsl #1
 8016a2a:	009b      	lsls	r3, r3, #2
 8016a2c:	4a16      	ldr	r2, [pc, #88]	@ (8016a88 <semdelete+0x7c>)
 8016a2e:	2100      	movs	r1, #0
 8016a30:	54d1      	strb	r1, [r2, r3]
 8016a32:	2001      	movs	r0, #1
 8016a34:	f7fe fde4 	bl	8015600 <resched_cntl>
 8016a38:	e014      	b.n	8016a64 <semdelete+0x58>
 8016a3a:	f000 fbcb 	bl	80171d4 <restore>
 8016a3e:	f04f 30ff 	mov.w	r0, #4294967295	@ 0xffffffff
 8016a42:	e020      	b.n	8016a86 <semdelete+0x7a>
 8016a44:	f000 fbc6 	bl	80171d4 <restore>
 8016a48:	f04f 30ff 	mov.w	r0, #4294967295	@ 0xffffffff
 8016a4c:	e01b      	b.n	8016a86 <semdelete+0x7a>
 8016a4e:	eb04 0244 	add.w	r2, r4, r4, lsl #1
 8016a52:	4b0d      	ldr	r3, [pc, #52]	@ (8016a88 <semdelete+0x7c>)
 8016a54:	eb03 0382 	add.w	r3, r3, r2, lsl #2
 8016a58:	f9b3 0008 	ldrsh.w	r0, [r3, #8]
 8016a5c:	f7ff fe76 	bl	801674c <getfirst>
 8016a60:	f7fe fdfa 	bl	8015658 <ready>
 8016a64:	eb04 0244 	add.w	r2, r4, r4, lsl #1
 8016a68:	4b07      	ldr	r3, [pc, #28]	@ (8016a88 <semdelete+0x7c>)
 8016a6a:	eb03 0382 	add.w	r3, r3, r2, lsl #2
 8016a6e:	685a      	ldr	r2, [r3, #4]
 8016a70:	1c51      	adds	r1, r2, #1
 8016a72:	6059      	str	r1, [r3, #4]
 8016a74:	2a00      	cmp	r2, #0
 8016a76:	dbea      	blt.n	8016a4e <semdelete+0x42>
 8016a78:	2002      	movs	r0, #2
 8016a7a:	f7fe fdc1 	bl	8015600 <resched_cntl>
 8016a7e:	4628      	mov	r0, r5
 8016a80:	f000 fba8 	bl	80171d4 <restore>
 8016a84:	2001      	movs	r0, #1
 8016a86:	bd38      	pop	{r3, r4, r5, pc}
 8016a88:	20001bb8 	.word	0x20001bb8

08016a8c <semreset>:
 8016a8c:	b5f8      	push	{r3, r4, r5, r6, r7, lr}
 8016a8e:	4604      	mov	r4, r0
 8016a90:	460d      	mov	r5, r1
 8016a92:	f000 fb9b 	bl	80171cc <disable>
 8016a96:	4606      	mov	r6, r0
 8016a98:	2d00      	cmp	r5, #0
 8016a9a:	db07      	blt.n	8016aac <semreset+0x20>
 8016a9c:	2c0e      	cmp	r4, #14
 8016a9e:	d805      	bhi.n	8016aac <semreset+0x20>
 8016aa0:	eb04 0344 	add.w	r3, r4, r4, lsl #1
 8016aa4:	4a15      	ldr	r2, [pc, #84]	@ (8016afc <semreset+0x70>)
 8016aa6:	f812 3023 	ldrb.w	r3, [r2, r3, lsl #2]
 8016aaa:	b92b      	cbnz	r3, 8016ab8 <semreset+0x2c>
 8016aac:	4630      	mov	r0, r6
 8016aae:	f000 fb91 	bl	80171d4 <restore>
 8016ab2:	f04f 30ff 	mov.w	r0, #4294967295	@ 0xffffffff
 8016ab6:	bdf8      	pop	{r3, r4, r5, r6, r7, pc}
 8016ab8:	eb04 0244 	add.w	r2, r4, r4, lsl #1
 8016abc:	4b0f      	ldr	r3, [pc, #60]	@ (8016afc <semreset+0x70>)
 8016abe:	eb03 0382 	add.w	r3, r3, r2, lsl #2
 8016ac2:	f9b3 7008 	ldrsh.w	r7, [r3, #8]
 8016ac6:	2001      	movs	r0, #1
 8016ac8:	f7fe fd9a 	bl	8015600 <resched_cntl>
 8016acc:	e001      	b.n	8016ad2 <semreset+0x46>
 8016ace:	f7fe fdc3 	bl	8015658 <ready>
 8016ad2:	4638      	mov	r0, r7
 8016ad4:	f7ff fe3a 	bl	801674c <getfirst>
 8016ad8:	f1b0 3fff 	cmp.w	r0, #4294967295	@ 0xffffffff
 8016adc:	d1f7      	bne.n	8016ace <semreset+0x42>
 8016ade:	eb04 0444 	add.w	r4, r4, r4, lsl #1
 8016ae2:	4b06      	ldr	r3, [pc, #24]	@ (8016afc <semreset+0x70>)
 8016ae4:	eb03 0384 	add.w	r3, r3, r4, lsl #2
 8016ae8:	605d      	str	r5, [r3, #4]
 8016aea:	2002      	movs	r0, #2
 8016aec:	f7fe fd88 	bl	8015600 <resched_cntl>
 8016af0:	4630      	mov	r0, r6
 8016af2:	f000 fb6f 	bl	80171d4 <restore>
 8016af6:	2001      	movs	r0, #1
 8016af8:	e7dd      	b.n	8016ab6 <semreset+0x2a>
 8016afa:	bf00      	nop
 8016afc:	20001bb8 	.word	0x20001bb8

08016b00 <signal>:
 8016b00:	b538      	push	{r3, r4, r5, lr}
 8016b02:	4604      	mov	r4, r0
 8016b04:	f000 fb62 	bl	80171cc <disable>
 8016b08:	4605      	mov	r5, r0
 8016b0a:	2c0e      	cmp	r4, #14
 8016b0c:	d814      	bhi.n	8016b38 <signal+0x38>
 8016b0e:	eb04 0344 	add.w	r3, r4, r4, lsl #1
 8016b12:	4a14      	ldr	r2, [pc, #80]	@ (8016b64 <signal+0x64>)
 8016b14:	f812 3023 	ldrb.w	r3, [r2, r3, lsl #2]
 8016b18:	b19b      	cbz	r3, 8016b42 <signal+0x42>
 8016b1a:	eb04 0244 	add.w	r2, r4, r4, lsl #1
 8016b1e:	4b11      	ldr	r3, [pc, #68]	@ (8016b64 <signal+0x64>)
 8016b20:	eb03 0382 	add.w	r3, r3, r2, lsl #2
 8016b24:	685a      	ldr	r2, [r3, #4]
 8016b26:	1c51      	adds	r1, r2, #1
 8016b28:	6059      	str	r1, [r3, #4]
 8016b2a:	2a00      	cmp	r2, #0
 8016b2c:	db0e      	blt.n	8016b4c <signal+0x4c>
 8016b2e:	4628      	mov	r0, r5
 8016b30:	f000 fb50 	bl	80171d4 <restore>
 8016b34:	2001      	movs	r0, #1
 8016b36:	bd38      	pop	{r3, r4, r5, pc}
 8016b38:	f000 fb4c 	bl	80171d4 <restore>
 8016b3c:	f04f 30ff 	mov.w	r0, #4294967295	@ 0xffffffff
 8016b40:	e7f9      	b.n	8016b36 <signal+0x36>
 8016b42:	f000 fb47 	bl	80171d4 <restore>
 8016b46:	f04f 30ff 	mov.w	r0, #4294967295	@ 0xffffffff
 8016b4a:	e7f4      	b.n	8016b36 <signal+0x36>
 8016b4c:	eb04 0444 	add.w	r4, r4, r4, lsl #1
 8016b50:	4b04      	ldr	r3, [pc, #16]	@ (8016b64 <signal+0x64>)
 8016b52:	eb03 0384 	add.w	r3, r3, r4, lsl #2
 8016b56:	f9b3 0008 	ldrsh.w	r0, [r3, #8]
 8016b5a:	f7ff fe07 	bl	801676c <dequeue>
 8016b5e:	f7fe fd7b 	bl	8015658 <ready>
 8016b62:	e7e4      	b.n	8016b2e <signal+0x2e>
 8016b64:	20001bb8 	.word	0x20001bb8

08016b68 <signaln>:
 8016b68:	b570      	push	{r4, r5, r6, lr}
 8016b6a:	4605      	mov	r5, r0
 8016b6c:	460c      	mov	r4, r1
 8016b6e:	f000 fb2d 	bl	80171cc <disable>
 8016b72:	4606      	mov	r6, r0
 8016b74:	2d0e      	cmp	r5, #14
 8016b76:	d80b      	bhi.n	8016b90 <signaln+0x28>
 8016b78:	2c00      	cmp	r4, #0
 8016b7a:	db09      	blt.n	8016b90 <signaln+0x28>
 8016b7c:	eb05 0345 	add.w	r3, r5, r5, lsl #1
 8016b80:	4a19      	ldr	r2, [pc, #100]	@ (8016be8 <signaln+0x80>)
 8016b82:	f812 3023 	ldrb.w	r3, [r2, r3, lsl #2]
 8016b86:	b14b      	cbz	r3, 8016b9c <signaln+0x34>
 8016b88:	2001      	movs	r0, #1
 8016b8a:	f7fe fd39 	bl	8015600 <resched_cntl>
 8016b8e:	e00b      	b.n	8016ba8 <signaln+0x40>
 8016b90:	4630      	mov	r0, r6
 8016b92:	f000 fb1f 	bl	80171d4 <restore>
 8016b96:	f04f 30ff 	mov.w	r0, #4294967295	@ 0xffffffff
 8016b9a:	bd70      	pop	{r4, r5, r6, pc}
 8016b9c:	f000 fb1a 	bl	80171d4 <restore>
 8016ba0:	f04f 30ff 	mov.w	r0, #4294967295	@ 0xffffffff
 8016ba4:	e7f9      	b.n	8016b9a <signaln+0x32>
 8016ba6:	3c01      	subs	r4, #1
 8016ba8:	2c00      	cmp	r4, #0
 8016baa:	dd15      	ble.n	8016bd8 <signaln+0x70>
 8016bac:	eb05 0245 	add.w	r2, r5, r5, lsl #1
 8016bb0:	4b0d      	ldr	r3, [pc, #52]	@ (8016be8 <signaln+0x80>)
 8016bb2:	eb03 0382 	add.w	r3, r3, r2, lsl #2
 8016bb6:	685a      	ldr	r2, [r3, #4]
 8016bb8:	1c51      	adds	r1, r2, #1
 8016bba:	6059      	str	r1, [r3, #4]
 8016bbc:	2a00      	cmp	r2, #0
 8016bbe:	daf2      	bge.n	8016ba6 <signaln+0x3e>
 8016bc0:	eb05 0245 	add.w	r2, r5, r5, lsl #1
 8016bc4:	4b08      	ldr	r3, [pc, #32]	@ (8016be8 <signaln+0x80>)
 8016bc6:	eb03 0382 	add.w	r3, r3, r2, lsl #2
 8016bca:	f9b3 0008 	ldrsh.w	r0, [r3, #8]
 8016bce:	f7ff fdcd 	bl	801676c <dequeue>
 8016bd2:	f7fe fd41 	bl	8015658 <ready>
 8016bd6:	e7e6      	b.n	8016ba6 <signaln+0x3e>
 8016bd8:	2002      	movs	r0, #2
 8016bda:	f7fe fd11 	bl	8015600 <resched_cntl>
 8016bde:	4630      	mov	r0, r6
 8016be0:	f000 faf8 	bl	80171d4 <restore>
 8016be4:	2001      	movs	r0, #1
 8016be6:	e7d8      	b.n	8016b9a <signaln+0x32>
 8016be8:	20001bb8 	.word	0x20001bb8

08016bec <sys_rewindDir>:
 8016bec:	2000      	movs	r0, #0
 8016bee:	4770      	bx	lr

08016bf0 <sys_tellDir>:
 8016bf0:	2000      	movs	r0, #0
 8016bf2:	4770      	bx	lr

08016bf4 <sys_seekDir>:
 8016bf4:	2000      	movs	r0, #0
 8016bf6:	4770      	bx	lr

08016bf8 <sys_open>:
 8016bf8:	b508      	push	{r3, lr}
 8016bfa:	460a      	mov	r2, r1
 8016bfc:	4601      	mov	r1, r0
 8016bfe:	201c      	movs	r0, #28
 8016c00:	f000 faf0 	bl	80171e4 <__syscall>
 8016c04:	bd08      	pop	{r3, pc}

08016c06 <sys_exist>:
 8016c06:	b508      	push	{r3, lr}
 8016c08:	4601      	mov	r1, r0
 8016c0a:	2018      	movs	r0, #24
 8016c0c:	f000 faea 	bl	80171e4 <__syscall>
 8016c10:	bd08      	pop	{r3, pc}

08016c12 <sys_write>:
 8016c12:	b508      	push	{r3, lr}
 8016c14:	4613      	mov	r3, r2
 8016c16:	460a      	mov	r2, r1
 8016c18:	4601      	mov	r1, r0
 8016c1a:	201f      	movs	r0, #31
 8016c1c:	f000 fae2 	bl	80171e4 <__syscall>
 8016c20:	bd08      	pop	{r3, pc}

08016c22 <sys_read>:
 8016c22:	b508      	push	{r3, lr}
 8016c24:	4613      	mov	r3, r2
 8016c26:	460a      	mov	r2, r1
 8016c28:	4601      	mov	r1, r0
 8016c2a:	201e      	movs	r0, #30
 8016c2c:	f000 fada 	bl	80171e4 <__syscall>
 8016c30:	bd08      	pop	{r3, pc}

08016c32 <sys_close>:
 8016c32:	b508      	push	{r3, lr}
 8016c34:	4601      	mov	r1, r0
 8016c36:	2020      	movs	r0, #32
 8016c38:	f000 fad4 	bl	80171e4 <__syscall>
 8016c3c:	bd08      	pop	{r3, pc}

08016c3e <sys_seek>:
 8016c3e:	b508      	push	{r3, lr}
 8016c40:	4613      	mov	r3, r2
 8016c42:	460a      	mov	r2, r1
 8016c44:	4601      	mov	r1, r0
 8016c46:	201d      	movs	r0, #29
 8016c48:	f000 facc 	bl	80171e4 <__syscall>
 8016c4c:	bd08      	pop	{r3, pc}

08016c4e <sys_tell>:
 8016c4e:	b508      	push	{r3, lr}
 8016c50:	4601      	mov	r1, r0
 8016c52:	2021      	movs	r0, #33	@ 0x21
 8016c54:	f000 fac6 	bl	80171e4 <__syscall>
 8016c58:	bd08      	pop	{r3, pc}

08016c5a <sys_rewind>:
 8016c5a:	b508      	push	{r3, lr}
 8016c5c:	4601      	mov	r1, r0
 8016c5e:	2022      	movs	r0, #34	@ 0x22
 8016c60:	f000 fac0 	bl	80171e4 <__syscall>
 8016c64:	bd08      	pop	{r3, pc}

08016c66 <sys_truncate>:
 8016c66:	b508      	push	{r3, lr}
 8016c68:	460a      	mov	r2, r1
 8016c6a:	4601      	mov	r1, r0
 8016c6c:	2023      	movs	r0, #35	@ 0x23
 8016c6e:	f000 fab9 	bl	80171e4 <__syscall>
 8016c72:	bd08      	pop	{r3, pc}

08016c74 <sys_size>:
 8016c74:	b508      	push	{r3, lr}
 8016c76:	4601      	mov	r1, r0
 8016c78:	2024      	movs	r0, #36	@ 0x24
 8016c7a:	f000 fab3 	bl	80171e4 <__syscall>
 8016c7e:	bd08      	pop	{r3, pc}

08016c80 <sys_available>:
 8016c80:	b508      	push	{r3, lr}
 8016c82:	4601      	mov	r1, r0
 8016c84:	2025      	movs	r0, #37	@ 0x25
 8016c86:	f000 faad 	bl	80171e4 <__syscall>
 8016c8a:	bd08      	pop	{r3, pc}

08016c8c <sys_mkdir>:
 8016c8c:	b508      	push	{r3, lr}
 8016c8e:	4601      	mov	r1, r0
 8016c90:	2026      	movs	r0, #38	@ 0x26
 8016c92:	f000 faa7 	bl	80171e4 <__syscall>
 8016c96:	bd08      	pop	{r3, pc}

08016c98 <sys_openDir>:
 8016c98:	b508      	push	{r3, lr}
 8016c9a:	4601      	mov	r1, r0
 8016c9c:	2028      	movs	r0, #40	@ 0x28
 8016c9e:	f000 faa1 	bl	80171e4 <__syscall>
 8016ca2:	bd08      	pop	{r3, pc}

08016ca4 <sys_closeDir>:
 8016ca4:	b508      	push	{r3, lr}
 8016ca6:	4601      	mov	r1, r0
 8016ca8:	2030      	movs	r0, #48	@ 0x30
 8016caa:	f000 fa9b 	bl	80171e4 <__syscall>
 8016cae:	bd08      	pop	{r3, pc}

08016cb0 <sys_readDir>:
 8016cb0:	b508      	push	{r3, lr}
 8016cb2:	460a      	mov	r2, r1
 8016cb4:	4601      	mov	r1, r0
 8016cb6:	2029      	movs	r0, #41	@ 0x29
 8016cb8:	f000 fa94 	bl	80171e4 <__syscall>
 8016cbc:	bd08      	pop	{r3, pc}

08016cbe <sys_format>:
 8016cbe:	b508      	push	{r3, lr}
 8016cc0:	460a      	mov	r2, r1
 8016cc2:	4601      	mov	r1, r0
 8016cc4:	202c      	movs	r0, #44	@ 0x2c
 8016cc6:	f000 fa8d 	bl	80171e4 <__syscall>
 8016cca:	bd08      	pop	{r3, pc}

08016ccc <sys_mount>:
 8016ccc:	b508      	push	{r3, lr}
 8016cce:	460a      	mov	r2, r1
 8016cd0:	4601      	mov	r1, r0
 8016cd2:	202d      	movs	r0, #45	@ 0x2d
 8016cd4:	f000 fa86 	bl	80171e4 <__syscall>
 8016cd8:	bd08      	pop	{r3, pc}

08016cda <sys_unmount>:
 8016cda:	b508      	push	{r3, lr}
 8016cdc:	4601      	mov	r1, r0
 8016cde:	202e      	movs	r0, #46	@ 0x2e
 8016ce0:	f000 fa80 	bl	80171e4 <__syscall>
 8016ce4:	bd08      	pop	{r3, pc}

08016ce6 <sys_remove>:
 8016ce6:	b508      	push	{r3, lr}
 8016ce8:	4601      	mov	r1, r0
 8016cea:	202a      	movs	r0, #42	@ 0x2a
 8016cec:	f000 fa7a 	bl	80171e4 <__syscall>
 8016cf0:	bd08      	pop	{r3, pc}

08016cf2 <sys_rename>:
 8016cf2:	b508      	push	{r3, lr}
 8016cf4:	460a      	mov	r2, r1
 8016cf6:	4601      	mov	r1, r0
 8016cf8:	202b      	movs	r0, #43	@ 0x2b
 8016cfa:	f000 fa73 	bl	80171e4 <__syscall>
 8016cfe:	bd08      	pop	{r3, pc}

08016d00 <sys_free>:
 8016d00:	b508      	push	{r3, lr}
 8016d02:	202f      	movs	r0, #47	@ 0x2f
 8016d04:	f000 fa6e 	bl	80171e4 <__syscall>
 8016d08:	bd08      	pop	{r3, pc}

08016d0a <sys_sleep>:
 8016d0a:	b508      	push	{r3, lr}
 8016d0c:	4601      	mov	r1, r0
 8016d0e:	200c      	movs	r0, #12
 8016d10:	f000 fa68 	bl	80171e4 <__syscall>
 8016d14:	bd08      	pop	{r3, pc}

08016d16 <sys_kill>:
 8016d16:	b508      	push	{r3, lr}
 8016d18:	4601      	mov	r1, r0
 8016d1a:	200a      	movs	r0, #10
 8016d1c:	f000 fa62 	bl	80171e4 <__syscall>
 8016d20:	bd08      	pop	{r3, pc}

08016d22 <sys_getpid>:
 8016d22:	b508      	push	{r3, lr}
 8016d24:	2017      	movs	r0, #23
 8016d26:	f000 fa5d 	bl	80171e4 <__syscall>
 8016d2a:	bd08      	pop	{r3, pc}

08016d2c <sys_yield>:
 8016d2c:	b508      	push	{r3, lr}
 8016d2e:	203d      	movs	r0, #61	@ 0x3d
 8016d30:	f000 fa58 	bl	80171e4 <__syscall>
 8016d34:	bd08      	pop	{r3, pc}

08016d36 <sys_ready>:
 8016d36:	b508      	push	{r3, lr}
 8016d38:	4601      	mov	r1, r0
 8016d3a:	200b      	movs	r0, #11
 8016d3c:	f000 fa52 	bl	80171e4 <__syscall>
 8016d40:	bd08      	pop	{r3, pc}

08016d42 <sys_full_path>:
 8016d42:	b508      	push	{r3, lr}
 8016d44:	4601      	mov	r1, r0
 8016d46:	203e      	movs	r0, #62	@ 0x3e
 8016d48:	f000 fa4c 	bl	80171e4 <__syscall>
 8016d4c:	bd08      	pop	{r3, pc}

08016d4e <sys_update_path>:
 8016d4e:	b508      	push	{r3, lr}
 8016d50:	203f      	movs	r0, #63	@ 0x3f
 8016d52:	f000 fa47 	bl	80171e4 <__syscall>
 8016d56:	bd08      	pop	{r3, pc}

08016d58 <sys_malloc>:
 8016d58:	b508      	push	{r3, lr}
 8016d5a:	4601      	mov	r1, r0
 8016d5c:	200e      	movs	r0, #14
 8016d5e:	f000 fa41 	bl	80171e4 <__syscall>
 8016d62:	bd08      	pop	{r3, pc}

08016d64 <sys_mfree>:
 8016d64:	b508      	push	{r3, lr}
 8016d66:	4601      	mov	r1, r0
 8016d68:	200d      	movs	r0, #13
 8016d6a:	f000 fa3b 	bl	80171e4 <__syscall>
 8016d6e:	bd08      	pop	{r3, pc}

08016d70 <sys_putc>:
 8016d70:	b508      	push	{r3, lr}
 8016d72:	460a      	mov	r2, r1
 8016d74:	4601      	mov	r1, r0
 8016d76:	2001      	movs	r0, #1
 8016d78:	f000 fa34 	bl	80171e4 <__syscall>
 8016d7c:	bd08      	pop	{r3, pc}

08016d7e <sys_puts>:
 8016d7e:	b508      	push	{r3, lr}
 8016d80:	4613      	mov	r3, r2
 8016d82:	460a      	mov	r2, r1
 8016d84:	4601      	mov	r1, r0
 8016d86:	2002      	movs	r0, #2
 8016d88:	f000 fa2c 	bl	80171e4 <__syscall>
 8016d8c:	bd08      	pop	{r3, pc}

08016d8e <sys_struct_task>:
 8016d8e:	b508      	push	{r3, lr}
 8016d90:	4601      	mov	r1, r0
 8016d92:	203a      	movs	r0, #58	@ 0x3a
 8016d94:	f000 fa26 	bl	80171e4 <__syscall>
 8016d98:	bd08      	pop	{r3, pc}

08016d9a <sys_get_path>:
 8016d9a:	b508      	push	{r3, lr}
 8016d9c:	2040      	movs	r0, #64	@ 0x40
 8016d9e:	f000 fa21 	bl	80171e4 <__syscall>
 8016da2:	bd08      	pop	{r3, pc}

08016da4 <sys_cd>:
 8016da4:	b508      	push	{r3, lr}
 8016da6:	4601      	mov	r1, r0
 8016da8:	2041      	movs	r0, #65	@ 0x41
 8016daa:	f000 fa1b 	bl	80171e4 <__syscall>
 8016dae:	bd08      	pop	{r3, pc}

08016db0 <sys_elf_execve>:
 8016db0:	b508      	push	{r3, lr}
 8016db2:	460a      	mov	r2, r1
 8016db4:	4601      	mov	r1, r0
 8016db6:	203b      	movs	r0, #59	@ 0x3b
 8016db8:	f000 fa14 	bl	80171e4 <__syscall>
 8016dbc:	bd08      	pop	{r3, pc}

08016dbe <sys_create>:
 8016dbe:	b508      	push	{r3, lr}
 8016dc0:	460a      	mov	r2, r1
 8016dc2:	4601      	mov	r1, r0
 8016dc4:	2009      	movs	r0, #9
 8016dc6:	f000 fa0d 	bl	80171e4 <__syscall>
 8016dca:	bd08      	pop	{r3, pc}

08016dcc <sys_js0n>:
 8016dcc:	b508      	push	{r3, lr}
 8016dce:	4601      	mov	r1, r0
 8016dd0:	2042      	movs	r0, #66	@ 0x42
 8016dd2:	f000 fa07 	bl	80171e4 <__syscall>
 8016dd6:	bd08      	pop	{r3, pc}

08016dd8 <sys_free_heap>:
 8016dd8:	b508      	push	{r3, lr}
 8016dda:	2016      	movs	r0, #22
 8016ddc:	f000 fa02 	bl	80171e4 <__syscall>
 8016de0:	bd08      	pop	{r3, pc}

08016de2 <len_fifo_usb>:
 8016de2:	b508      	push	{r3, lr}
 8016de4:	2043      	movs	r0, #67	@ 0x43
 8016de6:	f000 f9fd 	bl	80171e4 <__syscall>
 8016dea:	bd08      	pop	{r3, pc}

08016dec <fifo_usb>:
 8016dec:	b508      	push	{r3, lr}
 8016dee:	2004      	movs	r0, #4
 8016df0:	f000 f9f8 	bl	80171e4 <__syscall>
 8016df4:	bd08      	pop	{r3, pc}

08016df6 <syscall_init>:
 8016df6:	4b38      	ldr	r3, [pc, #224]	@ (8016ed8 <syscall_init+0xe2>)
 8016df8:	6018      	str	r0, [r3, #0]
 8016dfa:	4a38      	ldr	r2, [pc, #224]	@ (8016edc <syscall_init+0xe6>)
 8016dfc:	6602      	str	r2, [r0, #96]	@ 0x60
 8016dfe:	4a38      	ldr	r2, [pc, #224]	@ (8016ee0 <syscall_init+0xea>)
 8016e00:	6002      	str	r2, [r0, #0]
 8016e02:	681b      	ldr	r3, [r3, #0]
 8016e04:	4a37      	ldr	r2, [pc, #220]	@ (8016ee4 <syscall_init+0xee>)
 8016e06:	605a      	str	r2, [r3, #4]
 8016e08:	4a37      	ldr	r2, [pc, #220]	@ (8016ee8 <syscall_init+0xf2>)
 8016e0a:	609a      	str	r2, [r3, #8]
 8016e0c:	4a37      	ldr	r2, [pc, #220]	@ (8016eec <syscall_init+0xf6>)
 8016e0e:	60da      	str	r2, [r3, #12]
 8016e10:	4a37      	ldr	r2, [pc, #220]	@ (8016ef0 <syscall_init+0xfa>)
 8016e12:	611a      	str	r2, [r3, #16]
 8016e14:	4a37      	ldr	r2, [pc, #220]	@ (8016ef4 <syscall_init+0xfe>)
 8016e16:	615a      	str	r2, [r3, #20]
 8016e18:	4a37      	ldr	r2, [pc, #220]	@ (8016ef8 <syscall_init+0x102>)
 8016e1a:	619a      	str	r2, [r3, #24]
 8016e1c:	4a37      	ldr	r2, [pc, #220]	@ (8016efc <syscall_init+0x106>)
 8016e1e:	61da      	str	r2, [r3, #28]
 8016e20:	4a37      	ldr	r2, [pc, #220]	@ (8016f00 <syscall_init+0x10a>)
 8016e22:	621a      	str	r2, [r3, #32]
 8016e24:	4a37      	ldr	r2, [pc, #220]	@ (8016f04 <syscall_init+0x10e>)
 8016e26:	625a      	str	r2, [r3, #36]	@ 0x24
 8016e28:	4a37      	ldr	r2, [pc, #220]	@ (8016f08 <syscall_init+0x112>)
 8016e2a:	629a      	str	r2, [r3, #40]	@ 0x28
 8016e2c:	4a37      	ldr	r2, [pc, #220]	@ (8016f0c <syscall_init+0x116>)
 8016e2e:	62da      	str	r2, [r3, #44]	@ 0x2c
 8016e30:	4a37      	ldr	r2, [pc, #220]	@ (8016f10 <syscall_init+0x11a>)
 8016e32:	631a      	str	r2, [r3, #48]	@ 0x30
 8016e34:	4a37      	ldr	r2, [pc, #220]	@ (8016f14 <syscall_init+0x11e>)
 8016e36:	635a      	str	r2, [r3, #52]	@ 0x34
 8016e38:	4a37      	ldr	r2, [pc, #220]	@ (8016f18 <syscall_init+0x122>)
 8016e3a:	639a      	str	r2, [r3, #56]	@ 0x38
 8016e3c:	4a37      	ldr	r2, [pc, #220]	@ (8016f1c <syscall_init+0x126>)
 8016e3e:	63da      	str	r2, [r3, #60]	@ 0x3c
 8016e40:	4a37      	ldr	r2, [pc, #220]	@ (8016f20 <syscall_init+0x12a>)
 8016e42:	641a      	str	r2, [r3, #64]	@ 0x40
 8016e44:	4a37      	ldr	r2, [pc, #220]	@ (8016f24 <syscall_init+0x12e>)
 8016e46:	645a      	str	r2, [r3, #68]	@ 0x44
 8016e48:	4a37      	ldr	r2, [pc, #220]	@ (8016f28 <syscall_init+0x132>)
 8016e4a:	649a      	str	r2, [r3, #72]	@ 0x48
 8016e4c:	4a37      	ldr	r2, [pc, #220]	@ (8016f2c <syscall_init+0x136>)
 8016e4e:	64da      	str	r2, [r3, #76]	@ 0x4c
 8016e50:	4a37      	ldr	r2, [pc, #220]	@ (8016f30 <syscall_init+0x13a>)
 8016e52:	651a      	str	r2, [r3, #80]	@ 0x50
 8016e54:	4a37      	ldr	r2, [pc, #220]	@ (8016f34 <syscall_init+0x13e>)
 8016e56:	655a      	str	r2, [r3, #84]	@ 0x54
 8016e58:	4a37      	ldr	r2, [pc, #220]	@ (8016f38 <syscall_init+0x142>)
 8016e5a:	659a      	str	r2, [r3, #88]	@ 0x58
 8016e5c:	4a37      	ldr	r2, [pc, #220]	@ (8016f3c <syscall_init+0x146>)
 8016e5e:	665a      	str	r2, [r3, #100]	@ 0x64
 8016e60:	4a37      	ldr	r2, [pc, #220]	@ (8016f40 <syscall_init+0x14a>)
 8016e62:	669a      	str	r2, [r3, #104]	@ 0x68
 8016e64:	4a37      	ldr	r2, [pc, #220]	@ (8016f44 <syscall_init+0x14e>)
 8016e66:	66da      	str	r2, [r3, #108]	@ 0x6c
 8016e68:	4a37      	ldr	r2, [pc, #220]	@ (8016f48 <syscall_init+0x152>)
 8016e6a:	671a      	str	r2, [r3, #112]	@ 0x70
 8016e6c:	4a37      	ldr	r2, [pc, #220]	@ (8016f4c <syscall_init+0x156>)
 8016e6e:	675a      	str	r2, [r3, #116]	@ 0x74
 8016e70:	2000      	movs	r0, #0
 8016e72:	6798      	str	r0, [r3, #120]	@ 0x78
 8016e74:	4a36      	ldr	r2, [pc, #216]	@ (8016f50 <syscall_init+0x15a>)
 8016e76:	67da      	str	r2, [r3, #124]	@ 0x7c
 8016e78:	4a36      	ldr	r2, [pc, #216]	@ (8016f54 <syscall_init+0x15e>)
 8016e7a:	f8c3 2080 	str.w	r2, [r3, #128]	@ 0x80
 8016e7e:	f8c3 0084 	str.w	r0, [r3, #132]	@ 0x84
 8016e82:	f8c3 0088 	str.w	r0, [r3, #136]	@ 0x88
 8016e86:	4a34      	ldr	r2, [pc, #208]	@ (8016f58 <syscall_init+0x162>)
 8016e88:	f8c3 208c 	str.w	r2, [r3, #140]	@ 0x8c
 8016e8c:	4a33      	ldr	r2, [pc, #204]	@ (8016f5c <syscall_init+0x166>)
 8016e8e:	f8c3 2090 	str.w	r2, [r3, #144]	@ 0x90
 8016e92:	4a33      	ldr	r2, [pc, #204]	@ (8016f60 <syscall_init+0x16a>)
 8016e94:	f8c3 2094 	str.w	r2, [r3, #148]	@ 0x94
 8016e98:	4a32      	ldr	r2, [pc, #200]	@ (8016f64 <syscall_init+0x16e>)
 8016e9a:	f8c3 2098 	str.w	r2, [r3, #152]	@ 0x98
 8016e9e:	4a32      	ldr	r2, [pc, #200]	@ (8016f68 <syscall_init+0x172>)
 8016ea0:	f8c3 209c 	str.w	r2, [r3, #156]	@ 0x9c
 8016ea4:	4a31      	ldr	r2, [pc, #196]	@ (8016f6c <syscall_init+0x176>)
 8016ea6:	f8c3 20a0 	str.w	r2, [r3, #160]	@ 0xa0
 8016eaa:	4a31      	ldr	r2, [pc, #196]	@ (8016f70 <syscall_init+0x17a>)
 8016eac:	f8c3 20a4 	str.w	r2, [r3, #164]	@ 0xa4
 8016eb0:	4a30      	ldr	r2, [pc, #192]	@ (8016f74 <syscall_init+0x17e>)
 8016eb2:	f8c3 20ac 	str.w	r2, [r3, #172]	@ 0xac
 8016eb6:	4a30      	ldr	r2, [pc, #192]	@ (8016f78 <syscall_init+0x182>)
 8016eb8:	f8c3 20b0 	str.w	r2, [r3, #176]	@ 0xb0
 8016ebc:	4a2f      	ldr	r2, [pc, #188]	@ (8016f7c <syscall_init+0x186>)
 8016ebe:	f8c3 20b4 	str.w	r2, [r3, #180]	@ 0xb4
 8016ec2:	4a2f      	ldr	r2, [pc, #188]	@ (8016f80 <syscall_init+0x18a>)
 8016ec4:	f8c3 20a8 	str.w	r2, [r3, #168]	@ 0xa8
 8016ec8:	4a2e      	ldr	r2, [pc, #184]	@ (8016f84 <syscall_init+0x18e>)
 8016eca:	f8c3 20b8 	str.w	r2, [r3, #184]	@ 0xb8
 8016ece:	4a2e      	ldr	r2, [pc, #184]	@ (8016f88 <syscall_init+0x192>)
 8016ed0:	f8c3 20bc 	str.w	r2, [r3, #188]	@ 0xbc
 8016ed4:	4770      	bx	lr
 8016ed6:	bf00      	nop
 8016ed8:	20001e2c 	.word	0x20001e2c
 8016edc:	08016c07 	.word	0x08016c07
 8016ee0:	08016bf9 	.word	0x08016bf9
 8016ee4:	08016c13 	.word	0x08016c13
 8016ee8:	08016c23 	.word	0x08016c23
 8016eec:	08016c33 	.word	0x08016c33
 8016ef0:	08016c3f 	.word	0x08016c3f
 8016ef4:	08016c4f 	.word	0x08016c4f
 8016ef8:	08016c5b 	.word	0x08016c5b
 8016efc:	08016c67 	.word	0x08016c67
 8016f00:	08016c75 	.word	0x08016c75
 8016f04:	08016c81 	.word	0x08016c81
 8016f08:	08016c8d 	.word	0x08016c8d
 8016f0c:	08016c99 	.word	0x08016c99
 8016f10:	08016ca5 	.word	0x08016ca5
 8016f14:	08016cb1 	.word	0x08016cb1
 8016f18:	08016bed 	.word	0x08016bed
 8016f1c:	08016bf1 	.word	0x08016bf1
 8016f20:	08016bf5 	.word	0x08016bf5
 8016f24:	08016cbf 	.word	0x08016cbf
 8016f28:	08016ccd 	.word	0x08016ccd
 8016f2c:	08016cdb 	.word	0x08016cdb
 8016f30:	08016ce7 	.word	0x08016ce7
 8016f34:	08016cf3 	.word	0x08016cf3
 8016f38:	08016d01 	.word	0x08016d01
 8016f3c:	08016d0b 	.word	0x08016d0b
 8016f40:	08016d17 	.word	0x08016d17
 8016f44:	08016d23 	.word	0x08016d23
 8016f48:	08016d2d 	.word	0x08016d2d
 8016f4c:	08016d37 	.word	0x08016d37
 8016f50:	08016d71 	.word	0x08016d71
 8016f54:	08016d7f 	.word	0x08016d7f
 8016f58:	08016d43 	.word	0x08016d43
 8016f5c:	08016d4f 	.word	0x08016d4f
 8016f60:	08016d59 	.word	0x08016d59
 8016f64:	08016d65 	.word	0x08016d65
 8016f68:	08016d8f 	.word	0x08016d8f
 8016f6c:	08016d9b 	.word	0x08016d9b
 8016f70:	08016da5 	.word	0x08016da5
 8016f74:	08016db1 	.word	0x08016db1
 8016f78:	08016dbf 	.word	0x08016dbf
 8016f7c:	08016dcd 	.word	0x08016dcd
 8016f80:	08016dd9 	.word	0x08016dd9
 8016f84:	08016de3 	.word	0x08016de3
 8016f88:	08016ded 	.word	0x08016ded

08016f8c <svccall_handler>:
 8016f8c:	b508      	push	{r3, lr}
 8016f8e:	b672      	cpsid	i
 8016f90:	6801      	ldr	r1, [r0, #0]
 8016f92:	2943      	cmp	r1, #67	@ 0x43
 8016f94:	d805      	bhi.n	8016fa2 <svccall_handler+0x16>
 8016f96:	4b05      	ldr	r3, [pc, #20]	@ (8016fac <svccall_handler+0x20>)
 8016f98:	f853 3021 	ldr.w	r3, [r3, r1, lsl #2]
 8016f9c:	4798      	blx	r3
 8016f9e:	b662      	cpsie	i
 8016fa0:	bd08      	pop	{r3, pc}
 8016fa2:	4803      	ldr	r0, [pc, #12]	@ (8016fb0 <svccall_handler+0x24>)
 8016fa4:	f7ff f8c4 	bl	8016130 <kprintf>
 8016fa8:	e7f9      	b.n	8016f9e <svccall_handler+0x12>
 8016faa:	bf00      	nop
 8016fac:	2000020c 	.word	0x2000020c
 8016fb0:	0801d3bc 	.word	0x0801d3bc

08016fb4 <SVC_XINU_NULLPROCESS>:
 8016fb4:	4770      	bx	lr

08016fb6 <SVC_XINU_PUTC>:
 8016fb6:	b510      	push	{r4, lr}
 8016fb8:	4604      	mov	r4, r0
 8016fba:	7a01      	ldrb	r1, [r0, #8]
 8016fbc:	6840      	ldr	r0, [r0, #4]
 8016fbe:	f7fe fdef 	bl	8015ba0 <putc>
 8016fc2:	4620      	mov	r0, r4
 8016fc4:	bd10      	pop	{r4, pc}

08016fc6 <SVC_XINU_PUTS>:
 8016fc6:	b510      	push	{r4, lr}
 8016fc8:	4604      	mov	r4, r0
 8016fca:	68c2      	ldr	r2, [r0, #12]
 8016fcc:	6881      	ldr	r1, [r0, #8]
 8016fce:	6840      	ldr	r0, [r0, #4]
 8016fd0:	f7fe fe20 	bl	8015c14 <write>
 8016fd4:	4620      	mov	r0, r4
 8016fd6:	bd10      	pop	{r4, pc}

08016fd8 <SVC_XINU_GETC>:
 8016fd8:	4770      	bx	lr

08016fda <SVC_XINU_GETS>:
 8016fda:	4770      	bx	lr

08016fdc <SVC_XINU_CLOSE>:
 8016fdc:	4770      	bx	lr

08016fde <SVC_XINU_OPEN>:
 8016fde:	4770      	bx	lr

08016fe0 <SVC_XINU_READ>:
 8016fe0:	4770      	bx	lr

08016fe2 <SVC_XINU_WRITE>:
 8016fe2:	4770      	bx	lr

08016fe4 <SVC_XINU_CREATE>:
 8016fe4:	4770      	bx	lr

08016fe6 <SVC_XINU_KILL>:
 8016fe6:	4770      	bx	lr

08016fe8 <SVC_XINU_READY>:
 8016fe8:	4770      	bx	lr

08016fea <SVC_XINU_SLEEP>:
 8016fea:	b510      	push	{r4, lr}
 8016fec:	4604      	mov	r4, r0
 8016fee:	6840      	ldr	r0, [r0, #4]
 8016ff0:	f7fe fa44 	bl	801547c <sleepms>
 8016ff4:	4620      	mov	r0, r4
 8016ff6:	bd10      	pop	{r4, pc}

08016ff8 <SVC_XINU_FREE>:
 8016ff8:	b510      	push	{r4, lr}
 8016ffa:	4604      	mov	r4, r0
 8016ffc:	6840      	ldr	r0, [r0, #4]
 8016ffe:	f7fa fb87 	bl	8011710 <free>
 8017002:	4620      	mov	r0, r4
 8017004:	bd10      	pop	{r4, pc}

08017006 <SVC_XINU_MALLOC>:
 8017006:	b510      	push	{r4, lr}
 8017008:	4604      	mov	r4, r0
 801700a:	6840      	ldr	r0, [r0, #4]
 801700c:	f7fa fb6e 	bl	80116ec <malloc>
 8017010:	6020      	str	r0, [r4, #0]
 8017012:	4620      	mov	r0, r4
 8017014:	bd10      	pop	{r4, pc}

08017016 <SVC_XINU_GETDEV>:
 8017016:	4770      	bx	lr

08017018 <SVC_XINU_SEMA_INIT>:
 8017018:	4770      	bx	lr

0801701a <SVC_XINU_SEMA_SIGNAL>:
 801701a:	4770      	bx	lr

0801701c <SVC_XINU_SEMA_WAIT>:
 801701c:	4770      	bx	lr

0801701e <SVC_XINU_PIN_MODE>:
 801701e:	b510      	push	{r4, lr}
 8017020:	4604      	mov	r4, r0
 8017022:	8982      	ldrh	r2, [r0, #12]
 8017024:	7a01      	ldrb	r1, [r0, #8]
 8017026:	6840      	ldr	r0, [r0, #4]
 8017028:	f000 f8fb 	bl	8017222 <hw_cfg_pin>
 801702c:	4620      	mov	r0, r4
 801702e:	bd10      	pop	{r4, pc}

08017030 <SVC_XINU_PIN_SET>:
 8017030:	b510      	push	{r4, lr}
 8017032:	4604      	mov	r4, r0
 8017034:	7b02      	ldrb	r2, [r0, #12]
 8017036:	7a01      	ldrb	r1, [r0, #8]
 8017038:	6840      	ldr	r0, [r0, #4]
 801703a:	f000 f93b 	bl	80172b4 <hw_set_pin>
 801703e:	4620      	mov	r0, r4
 8017040:	bd10      	pop	{r4, pc}

08017042 <SVC_XINU_PIN_GET>:
 8017042:	b510      	push	{r4, lr}
 8017044:	4604      	mov	r4, r0
 8017046:	7a01      	ldrb	r1, [r0, #8]
 8017048:	6840      	ldr	r0, [r0, #4]
 801704a:	f000 f94c 	bl	80172e6 <hw_get_pin>
 801704e:	6020      	str	r0, [r4, #0]
 8017050:	4620      	mov	r0, r4
 8017052:	bd10      	pop	{r4, pc}

08017054 <SVC_XINU_FREE_HEAP>:
 8017054:	b510      	push	{r4, lr}
 8017056:	4604      	mov	r4, r0
 8017058:	f7ff f95a 	bl	8016310 <heap_free>
 801705c:	6020      	str	r0, [r4, #0]
 801705e:	4620      	mov	r0, r4
 8017060:	bd10      	pop	{r4, pc}

08017062 <SVC_XINU_GETPID>:
 8017062:	4770      	bx	lr

08017064 <SVC_XINU_EXIST>:
 8017064:	4770      	bx	lr

08017066 <SVC_XINU_FS_INIT>:
 8017066:	4770      	bx	lr

08017068 <SVC_XINU_ATTACH_MEDIA>:
 8017068:	4770      	bx	lr

0801706a <SVC_XINU_ATTACH_LOCKS>:
 801706a:	4770      	bx	lr

0801706c <SVC_XINU_FOPEN>:
 801706c:	4770      	bx	lr

0801706e <SVC_XINU_FSEEK>:
 801706e:	4770      	bx	lr

08017070 <SVC_XINU_FREAD>:
 8017070:	4770      	bx	lr

08017072 <SVC_XINU_FWRITE>:
 8017072:	4770      	bx	lr

08017074 <SVC_XINU_FCLOSE>:
 8017074:	4770      	bx	lr

08017076 <SVC_XINU_FTELL>:
 8017076:	4770      	bx	lr

08017078 <SVC_XINU_FREWIN>:
 8017078:	4770      	bx	lr

0801707a <SVC_XINU_TRUNCATE>:
 801707a:	4770      	bx	lr

0801707c <SVC_XINU_SIZE>:
 801707c:	4770      	bx	lr

0801707e <SVC_XINU_AVAILABLE>:
 801707e:	4770      	bx	lr

08017080 <SVC_XINU_MKDIR>:
 8017080:	4770      	bx	lr

08017082 <SVC_XINU_FEOF>:
 8017082:	4770      	bx	lr

08017084 <SVC_XINU_OPENDIR>:
 8017084:	4770      	bx	lr

08017086 <SVC_XINU_READDIR>:
 8017086:	4770      	bx	lr

08017088 <SVC_XINU_REMOVE>:
 8017088:	4770      	bx	lr

0801708a <SVC_XINU_RENAME>:
 801708a:	4770      	bx	lr

0801708c <SVC_XINU_FORMAT>:
 801708c:	4770      	bx	lr

0801708e <SVC_XINU_MOUNT>:
 801708e:	4770      	bx	lr

08017090 <SVC_XINU_UNMOUNT>:
 8017090:	4770      	bx	lr

08017092 <SVC_XINU_DISK_FREE>:
 8017092:	4770      	bx	lr

08017094 <SVC_XINU_CLOSEDIR>:
 8017094:	4770      	bx	lr

08017096 <SVC_XINU_CREATEDIRECTORY>:
 8017096:	4770      	bx	lr

08017098 <SVC_XINU_IS_DIR>:
 8017098:	4770      	bx	lr

0801709a <SVC_XINU_FFLUSH>:
 801709a:	4770      	bx	lr

0801709c <SVC_XINU_FGETC>:
 801709c:	4770      	bx	lr

0801709e <SVC_XINU_FGETCS>:
 801709e:	4770      	bx	lr

080170a0 <SVC_XINU_FPUTC>:
 80170a0:	4770      	bx	lr

080170a2 <SVC_XINU_FPUTCS>:
 80170a2:	4770      	bx	lr

080170a4 <SVC_XINU_FGETPOS>:
 80170a4:	4770      	bx	lr

080170a6 <SVC_XINU_NUM_TASK>:
 80170a6:	4770      	bx	lr

080170a8 <SVC_XINU_STRUCT_TASK>:
 80170a8:	4770      	bx	lr

080170aa <SVC_XINU_LOAD_ELF>:
 80170aa:	b510      	push	{r4, lr}
 80170ac:	4604      	mov	r4, r0
 80170ae:	6881      	ldr	r1, [r0, #8]
 80170b0:	6840      	ldr	r0, [r0, #4]
 80170b2:	f7f9 fdc7 	bl	8010c44 <elf_execve>
 80170b6:	6020      	str	r0, [r4, #0]
 80170b8:	4620      	mov	r0, r4
 80170ba:	bd10      	pop	{r4, pc}

080170bc <SVC_XINU_HEAP_FREE>:
 80170bc:	4770      	bx	lr

080170be <SVC_XINU_YIELD>:
 80170be:	4770      	bx	lr

080170c0 <SVC_XINU_GLOBAL_PATH>:
 80170c0:	4770      	bx	lr

080170c2 <SVC_XINU_UPDATE_PATH>:
 80170c2:	4770      	bx	lr

080170c4 <SVC_XINU_GET_PATH>:
 80170c4:	4770      	bx	lr

080170c6 <SVC_XINU_CD>:
 80170c6:	4770      	bx	lr

080170c8 <SVC_XINU_JSON>:
 80170c8:	4770      	bx	lr

080170ca <SVC_XINU_GET_LEN>:
 80170ca:	4770      	bx	lr

080170cc <USART1_IRQHandler>:
 80170cc:	b510      	push	{r4, lr}
 80170ce:	f000 f87d 	bl	80171cc <disable>
 80170d2:	4604      	mov	r4, r0
 80170d4:	4b05      	ldr	r3, [pc, #20]	@ (80170ec <USART1_IRQHandler+0x20>)
 80170d6:	6859      	ldr	r1, [r3, #4]
 80170d8:	2200      	movs	r2, #0
 80170da:	b2c9      	uxtb	r1, r1
 80170dc:	2001      	movs	r0, #1
 80170de:	f7fd fad5 	bl	801468c <ttyhandler>
 80170e2:	4620      	mov	r0, r4
 80170e4:	f000 f876 	bl	80171d4 <restore>
 80170e8:	bd10      	pop	{r4, pc}
 80170ea:	bf00      	nop
 80170ec:	40011000 	.word	0x40011000

080170f0 <uartinit>:
 80170f0:	b510      	push	{r4, lr}
 80170f2:	4a13      	ldr	r2, [pc, #76]	@ (8017140 <uartinit+0x50>)
 80170f4:	6c53      	ldr	r3, [r2, #68]	@ 0x44
 80170f6:	f043 0310 	orr.w	r3, r3, #16
 80170fa:	6453      	str	r3, [r2, #68]	@ 0x44
 80170fc:	4c11      	ldr	r4, [pc, #68]	@ (8017144 <uartinit+0x54>)
 80170fe:	f240 32a7 	movw	r2, #935	@ 0x3a7
 8017102:	2109      	movs	r1, #9
 8017104:	4620      	mov	r0, r4
 8017106:	f000 f88c 	bl	8017222 <hw_cfg_pin>
 801710a:	f240 32a7 	movw	r2, #935	@ 0x3a7
 801710e:	210a      	movs	r1, #10
 8017110:	4620      	mov	r0, r4
 8017112:	f000 f886 	bl	8017222 <hw_cfg_pin>
 8017116:	4b0c      	ldr	r3, [pc, #48]	@ (8017148 <uartinit+0x58>)
 8017118:	68da      	ldr	r2, [r3, #12]
 801711a:	f422 5200 	bic.w	r2, r2, #8192	@ 0x2000
 801711e:	60da      	str	r2, [r3, #12]
 8017120:	f240 22d9 	movw	r2, #729	@ 0x2d9
 8017124:	609a      	str	r2, [r3, #8]
 8017126:	68da      	ldr	r2, [r3, #12]
 8017128:	f042 022c 	orr.w	r2, r2, #44	@ 0x2c
 801712c:	60da      	str	r2, [r3, #12]
 801712e:	68da      	ldr	r2, [r3, #12]
 8017130:	f442 5200 	orr.w	r2, r2, #8192	@ 0x2000
 8017134:	60da      	str	r2, [r3, #12]
 8017136:	4b05      	ldr	r3, [pc, #20]	@ (801714c <uartinit+0x5c>)
 8017138:	2220      	movs	r2, #32
 801713a:	605a      	str	r2, [r3, #4]
 801713c:	bd10      	pop	{r4, pc}
 801713e:	bf00      	nop
 8017140:	40023800 	.word	0x40023800
 8017144:	40020000 	.word	0x40020000
 8017148:	40011000 	.word	0x40011000
 801714c:	e000e100 	.word	0xe000e100

08017150 <putcharuart>:
 8017150:	4b03      	ldr	r3, [pc, #12]	@ (8017160 <putcharuart+0x10>)
 8017152:	681b      	ldr	r3, [r3, #0]
 8017154:	f013 0f80 	tst.w	r3, #128	@ 0x80
 8017158:	d0fa      	beq.n	8017150 <putcharuart>
 801715a:	4b01      	ldr	r3, [pc, #4]	@ (8017160 <putcharuart+0x10>)
 801715c:	6058      	str	r0, [r3, #4]
 801715e:	4770      	bx	lr
 8017160:	40011000 	.word	0x40011000

08017164 <uart_available>:
 8017164:	4b02      	ldr	r3, [pc, #8]	@ (8017170 <uart_available+0xc>)
 8017166:	6818      	ldr	r0, [r3, #0]
 8017168:	f3c0 1040 	ubfx	r0, r0, #5, #1
 801716c:	4770      	bx	lr
 801716e:	bf00      	nop
 8017170:	40011000 	.word	0x40011000

08017174 <uart_get>:
 8017174:	b508      	push	{r3, lr}
 8017176:	f7ff fff5 	bl	8017164 <uart_available>
 801717a:	2800      	cmp	r0, #0
 801717c:	d0fb      	beq.n	8017176 <uart_get+0x2>
 801717e:	4b02      	ldr	r3, [pc, #8]	@ (8017188 <uart_get+0x14>)
 8017180:	6858      	ldr	r0, [r3, #4]
 8017182:	b2c0      	uxtb	r0, r0
 8017184:	bd08      	pop	{r3, pc}
 8017186:	bf00      	nop
 8017188:	40011000 	.word	0x40011000

0801718c <default_IRQ_Handler>:
 801718c:	b538      	push	{r3, r4, r5, lr}
 801718e:	f01e 0f04 	tst.w	lr, #4
 8017192:	bf0c      	ite	eq
 8017194:	f3ef 8508 	mrseq	r5, MSP
 8017198:	f3ef 8509 	mrsne	r5, PSP
 801719c:	2400      	movs	r4, #0
 801719e:	e006      	b.n	80171ae <default_IRQ_Handler+0x22>
 80171a0:	f855 2024 	ldr.w	r2, [r5, r4, lsl #2]
 80171a4:	4621      	mov	r1, r4
 80171a6:	4803      	ldr	r0, [pc, #12]	@ (80171b4 <default_IRQ_Handler+0x28>)
 80171a8:	f7fe ffc2 	bl	8016130 <kprintf>
 80171ac:	3401      	adds	r4, #1
 80171ae:	2c0e      	cmp	r4, #14
 80171b0:	ddf6      	ble.n	80171a0 <default_IRQ_Handler+0x14>
 80171b2:	e7fe      	b.n	80171b2 <default_IRQ_Handler+0x26>
 80171b4:	0801d3dc 	.word	0x0801d3dc

080171b8 <xdone>:
 80171b8:	b508      	push	{r3, lr}
 80171ba:	4803      	ldr	r0, [pc, #12]	@ (80171c8 <xdone+0x10>)
 80171bc:	f7fe ffb8 	bl	8016130 <kprintf>
 80171c0:	f000 f80e 	bl	80171e0 <halt>
 80171c4:	bd08      	pop	{r3, pc}
 80171c6:	bf00      	nop
 80171c8:	0801d3ec 	.word	0x0801d3ec

080171cc <disable>:
 80171cc:	f3ef 8003 	mrs	r0, PSR
 80171d0:	b672      	cpsid	i
 80171d2:	4770      	bx	lr

080171d4 <restore>:
 80171d4:	f380 8803 	msr	PSR, r0
 80171d8:	b662      	cpsie	i
 80171da:	4770      	bx	lr

080171dc <enable>:
 80171dc:	b662      	cpsie	i
 80171de:	4770      	bx	lr

080171e0 <halt>:
 80171e0:	b672      	cpsid	i

080171e2 <dloop>:
 80171e2:	e7fe      	b.n	80171e2 <dloop>

080171e4 <__syscall>:
 80171e4:	df00      	svc	0
 80171e6:	bf00      	nop
 80171e8:	4770      	bx	lr

080171ea <save_context>:
 80171ea:	f3ef 8009 	mrs	r0, PSP
 80171ee:	e920 0ff0 	stmdb	r0!, {r4, r5, r6, r7, r8, r9, sl, fp}
 80171f2:	f380 8809 	msr	PSP, r0
 80171f6:	4770      	bx	lr

080171f8 <restore_context>:
 80171f8:	f3ef 8009 	mrs	r0, PSP
 80171fc:	e8b0 0ff0 	ldmia.w	r0!, {r4, r5, r6, r7, r8, r9, sl, fp}
 8017200:	f380 8809 	msr	PSP, r0
 8017204:	4770      	bx	lr

08017206 <SVC_Handler>:
 8017206:	f3ef 8009 	mrs	r0, PSP
 801720a:	b500      	push	{lr}
 801720c:	b401      	push	{r0}
 801720e:	f7ff ffec 	bl	80171ea <save_context>
 8017212:	bc01      	pop	{r0}
 8017214:	f7ff feba 	bl	8016f8c <svccall_handler>
 8017218:	f7ff ffee 	bl	80171f8 <restore_context>
 801721c:	f85d eb04 	ldr.w	lr, [sp], #4
 8017220:	4770      	bx	lr

08017222 <hw_cfg_pin>:
 8017222:	b530      	push	{r4, r5, lr}
 8017224:	004b      	lsls	r3, r1, #1
 8017226:	b2db      	uxtb	r3, r3
 8017228:	ea4f 0cd1 	mov.w	ip, r1, lsr #3
 801722c:	f10c 0c08 	add.w	ip, ip, #8
 8017230:	f850 402c 	ldr.w	r4, [r0, ip, lsl #2]
 8017234:	f001 0e07 	and.w	lr, r1, #7
 8017238:	ea4f 0e8e 	mov.w	lr, lr, lsl #2
 801723c:	250f      	movs	r5, #15
 801723e:	fa05 f50e 	lsl.w	r5, r5, lr
 8017242:	ea24 0405 	bic.w	r4, r4, r5
 8017246:	f002 050f 	and.w	r5, r2, #15
 801724a:	fa05 fe0e 	lsl.w	lr, r5, lr
 801724e:	ea44 040e 	orr.w	r4, r4, lr
 8017252:	f840 402c 	str.w	r4, [r0, ip, lsl #2]
 8017256:	6804      	ldr	r4, [r0, #0]
 8017258:	f04f 0c03 	mov.w	ip, #3
 801725c:	fa0c fc03 	lsl.w	ip, ip, r3
 8017260:	ea24 040c 	bic.w	r4, r4, ip
 8017264:	f3c2 1e01 	ubfx	lr, r2, #4, #2
 8017268:	fa0e fe03 	lsl.w	lr, lr, r3
 801726c:	ea44 040e 	orr.w	r4, r4, lr
 8017270:	6004      	str	r4, [r0, #0]
 8017272:	6884      	ldr	r4, [r0, #8]
 8017274:	ea24 040c 	bic.w	r4, r4, ip
 8017278:	f3c2 1ec1 	ubfx	lr, r2, #7, #2
 801727c:	fa0e fe03 	lsl.w	lr, lr, r3
 8017280:	ea44 040e 	orr.w	r4, r4, lr
 8017284:	6084      	str	r4, [r0, #8]
 8017286:	6844      	ldr	r4, [r0, #4]
 8017288:	f04f 0e01 	mov.w	lr, #1
 801728c:	fa0e fe01 	lsl.w	lr, lr, r1
 8017290:	ea24 0e0e 	bic.w	lr, r4, lr
 8017294:	f3c2 1480 	ubfx	r4, r2, #6, #1
 8017298:	fa04 f101 	lsl.w	r1, r4, r1
 801729c:	ea4e 0101 	orr.w	r1, lr, r1
 80172a0:	6041      	str	r1, [r0, #4]
 80172a2:	68c1      	ldr	r1, [r0, #12]
 80172a4:	ea21 010c 	bic.w	r1, r1, ip
 80172a8:	f3c2 2241 	ubfx	r2, r2, #9, #2
 80172ac:	409a      	lsls	r2, r3
 80172ae:	430a      	orrs	r2, r1
 80172b0:	60c2      	str	r2, [r0, #12]
 80172b2:	bd30      	pop	{r4, r5, pc}

080172b4 <hw_set_pin>:
 80172b4:	6943      	ldr	r3, [r0, #20]
 80172b6:	f04f 0c01 	mov.w	ip, #1
 80172ba:	fa0c fc01 	lsl.w	ip, ip, r1
 80172be:	ea23 030c 	bic.w	r3, r3, ip
 80172c2:	f002 0201 	and.w	r2, r2, #1
 80172c6:	fa02 f101 	lsl.w	r1, r2, r1
 80172ca:	430b      	orrs	r3, r1
 80172cc:	6143      	str	r3, [r0, #20]
 80172ce:	4770      	bx	lr

080172d0 <hw_toggle_pin>:
 80172d0:	6943      	ldr	r3, [r0, #20]
 80172d2:	2201      	movs	r2, #1
 80172d4:	fa02 f101 	lsl.w	r1, r2, r1
 80172d8:	ea23 0301 	bic.w	r3, r3, r1
 80172dc:	430b      	orrs	r3, r1
 80172de:	6942      	ldr	r2, [r0, #20]
 80172e0:	4053      	eors	r3, r2
 80172e2:	6143      	str	r3, [r0, #20]
 80172e4:	4770      	bx	lr

080172e6 <hw_get_pin>:
 80172e6:	6900      	ldr	r0, [r0, #16]
 80172e8:	2301      	movs	r3, #1
 80172ea:	408b      	lsls	r3, r1
 80172ec:	4018      	ands	r0, r3
 80172ee:	40c8      	lsrs	r0, r1
 80172f0:	b2c0      	uxtb	r0, r0
 80172f2:	4770      	bx	lr

080172f4 <crc7_one>:
 80172f4:	4048      	eors	r0, r1
 80172f6:	2300      	movs	r3, #0
 80172f8:	e003      	b.n	8017302 <crc7_one+0xe>
 80172fa:	0040      	lsls	r0, r0, #1
 80172fc:	b2c0      	uxtb	r0, r0
 80172fe:	3301      	adds	r3, #1
 8017300:	b2db      	uxtb	r3, r3
 8017302:	2b07      	cmp	r3, #7
 8017304:	d805      	bhi.n	8017312 <crc7_one+0x1e>
 8017306:	f010 0f80 	tst.w	r0, #128	@ 0x80
 801730a:	d0f6      	beq.n	80172fa <crc7_one+0x6>
 801730c:	f080 0089 	eor.w	r0, r0, #137	@ 0x89
 8017310:	e7f3      	b.n	80172fa <crc7_one+0x6>
 8017312:	4770      	bx	lr

08017314 <crc7>:
 8017314:	b570      	push	{r4, r5, r6, lr}
 8017316:	4606      	mov	r6, r0
 8017318:	460d      	mov	r5, r1
 801731a:	2000      	movs	r0, #0
 801731c:	4604      	mov	r4, r0
 801731e:	e004      	b.n	801732a <crc7+0x16>
 8017320:	5d31      	ldrb	r1, [r6, r4]
 8017322:	f7ff ffe7 	bl	80172f4 <crc7_one>
 8017326:	3401      	adds	r4, #1
 8017328:	b2e4      	uxtb	r4, r4
 801732a:	42ac      	cmp	r4, r5
 801732c:	d3f8      	bcc.n	8017320 <crc7+0xc>
 801732e:	f3c0 0047 	ubfx	r0, r0, #1, #8
 8017332:	bd70      	pop	{r4, r5, r6, pc}

08017334 <crc16_one>:
 8017334:	0203      	lsls	r3, r0, #8
 8017336:	ea43 2010 	orr.w	r0, r3, r0, lsr #8
 801733a:	b280      	uxth	r0, r0
 801733c:	4041      	eors	r1, r0
 801733e:	f3c1 1303 	ubfx	r3, r1, #4, #4
 8017342:	4059      	eors	r1, r3
 8017344:	ea81 3101 	eor.w	r1, r1, r1, lsl #12
 8017348:	b208      	sxth	r0, r1
 801734a:	b289      	uxth	r1, r1
 801734c:	0149      	lsls	r1, r1, #5
 801734e:	f401 51ff 	and.w	r1, r1, #8160	@ 0x1fe0
 8017352:	4048      	eors	r0, r1
 8017354:	b280      	uxth	r0, r0
 8017356:	4770      	bx	lr

08017358 <crc16>:
 8017358:	b570      	push	{r4, r5, r6, lr}
 801735a:	4606      	mov	r6, r0
 801735c:	460d      	mov	r5, r1
 801735e:	2000      	movs	r0, #0
 8017360:	4604      	mov	r4, r0
 8017362:	e004      	b.n	801736e <crc16+0x16>
 8017364:	5d31      	ldrb	r1, [r6, r4]
 8017366:	f7ff ffe5 	bl	8017334 <crc16_one>
 801736a:	3401      	adds	r4, #1
 801736c:	b2a4      	uxth	r4, r4
 801736e:	42ac      	cmp	r4, r5
 8017370:	d3f8      	bcc.n	8017364 <crc16+0xc>
 8017372:	bd70      	pop	{r4, r5, r6, pc}

08017374 <sd_spi_getcardinfo>:
 8017374:	4800      	ldr	r0, [pc, #0]	@ (8017378 <sd_spi_getcardinfo+0x4>)
 8017376:	4770      	bx	lr
 8017378:	20001e30 	.word	0x20001e30

0801737c <reset_prepare>:
 801737c:	b510      	push	{r4, lr}
 801737e:	f000 fbab 	bl	8017ad8 <hal_sd_spi_release>
 8017382:	2400      	movs	r4, #0
 8017384:	e004      	b.n	8017390 <reset_prepare+0x14>
 8017386:	20ff      	movs	r0, #255	@ 0xff
 8017388:	f000 fbb0 	bl	8017aec <hal_sd_spi_txrx>
 801738c:	3401      	adds	r4, #1
 801738e:	b2e4      	uxtb	r4, r4
 8017390:	2c09      	cmp	r4, #9
 8017392:	d9f8      	bls.n	8017386 <reset_prepare+0xa>
 8017394:	bd10      	pop	{r4, pc}

08017396 <send_command>:
 8017396:	e92d 41f0 	stmdb	sp!, {r4, r5, r6, r7, r8, lr}
 801739a:	b082      	sub	sp, #8
 801739c:	4607      	mov	r7, r0
 801739e:	4688      	mov	r8, r1
 80173a0:	4614      	mov	r4, r2
 80173a2:	461d      	mov	r5, r3
 80173a4:	20ff      	movs	r0, #255	@ 0xff
 80173a6:	f000 fba1 	bl	8017aec <hal_sd_spi_txrx>
 80173aa:	20ff      	movs	r0, #255	@ 0xff
 80173ac:	f000 fb9e 	bl	8017aec <hal_sd_spi_txrx>
 80173b0:	1e62      	subs	r2, r4, #1
 80173b2:	2a05      	cmp	r2, #5
 80173b4:	d85b      	bhi.n	801746e <send_command+0xd8>
 80173b6:	e8df f002 	tbb	[pc, r2]
 80173ba:	0303      	.short	0x0303
 80173bc:	215a2123 	.word	0x215a2123
 80173c0:	2601      	movs	r6, #1
 80173c2:	f047 0340 	orr.w	r3, r7, #64	@ 0x40
 80173c6:	f88d 3000 	strb.w	r3, [sp]
 80173ca:	ea4f 6318 	mov.w	r3, r8, lsr #24
 80173ce:	f88d 3001 	strb.w	r3, [sp, #1]
 80173d2:	f3c8 4307 	ubfx	r3, r8, #16, #8
 80173d6:	f88d 3002 	strb.w	r3, [sp, #2]
 80173da:	f3c8 2307 	ubfx	r3, r8, #8, #8
 80173de:	f88d 3003 	strb.w	r3, [sp, #3]
 80173e2:	f88d 8004 	strb.w	r8, [sp, #4]
 80173e6:	2105      	movs	r1, #5
 80173e8:	4668      	mov	r0, sp
 80173ea:	f7ff ff93 	bl	8017314 <crc7>
 80173ee:	0040      	lsls	r0, r0, #1
 80173f0:	f040 0001 	orr.w	r0, r0, #1
 80173f4:	f88d 0005 	strb.w	r0, [sp, #5]
 80173f8:	2400      	movs	r4, #0
 80173fa:	e00c      	b.n	8017416 <send_command+0x80>
 80173fc:	2605      	movs	r6, #5
 80173fe:	e7e0      	b.n	80173c2 <send_command+0x2c>
 8017400:	2602      	movs	r6, #2
 8017402:	e7de      	b.n	80173c2 <send_command+0x2c>
 8017404:	f104 0308 	add.w	r3, r4, #8
 8017408:	eb0d 0203 	add.w	r2, sp, r3
 801740c:	f812 0c08 	ldrb.w	r0, [r2, #-8]
 8017410:	f000 fb6c 	bl	8017aec <hal_sd_spi_txrx>
 8017414:	3401      	adds	r4, #1
 8017416:	2c05      	cmp	r4, #5
 8017418:	d9f4      	bls.n	8017404 <send_command+0x6e>
 801741a:	2f0c      	cmp	r7, #12
 801741c:	d002      	beq.n	8017424 <send_command+0x8e>
 801741e:	20ff      	movs	r0, #255	@ 0xff
 8017420:	2400      	movs	r4, #0
 8017422:	e007      	b.n	8017434 <send_command+0x9e>
 8017424:	20ff      	movs	r0, #255	@ 0xff
 8017426:	f000 fb61 	bl	8017aec <hal_sd_spi_txrx>
 801742a:	e7f8      	b.n	801741e <send_command+0x88>
 801742c:	20ff      	movs	r0, #255	@ 0xff
 801742e:	f000 fb5d 	bl	8017aec <hal_sd_spi_txrx>
 8017432:	3401      	adds	r4, #1
 8017434:	f5b4 7f7a 	cmp.w	r4, #1000	@ 0x3e8
 8017438:	d202      	bcs.n	8017440 <send_command+0xaa>
 801743a:	f010 0f80 	tst.w	r0, #128	@ 0x80
 801743e:	d1f5      	bne.n	801742c <send_command+0x96>
 8017440:	f5b4 7f7a 	cmp.w	r4, #1000	@ 0x3e8
 8017444:	d015      	beq.n	8017472 <send_command+0xdc>
 8017446:	f010 0f04 	tst.w	r0, #4
 801744a:	d114      	bne.n	8017476 <send_command+0xe0>
 801744c:	f010 0708 	ands.w	r7, r0, #8
 8017450:	d113      	bne.n	801747a <send_command+0xe4>
 8017452:	7028      	strb	r0, [r5, #0]
 8017454:	2401      	movs	r4, #1
 8017456:	e004      	b.n	8017462 <send_command+0xcc>
 8017458:	20ff      	movs	r0, #255	@ 0xff
 801745a:	f000 fb47 	bl	8017aec <hal_sd_spi_txrx>
 801745e:	5528      	strb	r0, [r5, r4]
 8017460:	3401      	adds	r4, #1
 8017462:	42a6      	cmp	r6, r4
 8017464:	d8f8      	bhi.n	8017458 <send_command+0xc2>
 8017466:	4638      	mov	r0, r7
 8017468:	b002      	add	sp, #8
 801746a:	e8bd 81f0 	ldmia.w	sp!, {r4, r5, r6, r7, r8, pc}
 801746e:	270a      	movs	r7, #10
 8017470:	e7f9      	b.n	8017466 <send_command+0xd0>
 8017472:	2701      	movs	r7, #1
 8017474:	e7f7      	b.n	8017466 <send_command+0xd0>
 8017476:	2709      	movs	r7, #9
 8017478:	e7f5      	b.n	8017466 <send_command+0xd0>
 801747a:	2702      	movs	r7, #2
 801747c:	e7f3      	b.n	8017466 <send_command+0xd0>

0801747e <read_ocr>:
 801747e:	b500      	push	{lr}
 8017480:	b083      	sub	sp, #12
 8017482:	466b      	mov	r3, sp
 8017484:	2204      	movs	r2, #4
 8017486:	2100      	movs	r1, #0
 8017488:	203a      	movs	r0, #58	@ 0x3a
 801748a:	f7ff ff84 	bl	8017396 <send_command>
 801748e:	b928      	cbnz	r0, 801749c <read_ocr+0x1e>
 8017490:	f89d 3001 	ldrb.w	r3, [sp, #1]
 8017494:	f99d 2001 	ldrsb.w	r2, [sp, #1]
 8017498:	2a00      	cmp	r2, #0
 801749a:	db02      	blt.n	80174a2 <read_ocr+0x24>
 801749c:	b003      	add	sp, #12
 801749e:	f85d fb04 	ldr.w	pc, [sp], #4
 80174a2:	f013 0340 	ands.w	r3, r3, #64	@ 0x40
 80174a6:	d003      	beq.n	80174b0 <read_ocr+0x32>
 80174a8:	4b04      	ldr	r3, [pc, #16]	@ (80174bc <read_ocr+0x3e>)
 80174aa:	2201      	movs	r2, #1
 80174ac:	701a      	strb	r2, [r3, #0]
 80174ae:	e7f5      	b.n	801749c <read_ocr+0x1e>
 80174b0:	4a02      	ldr	r2, [pc, #8]	@ (80174bc <read_ocr+0x3e>)
 80174b2:	2100      	movs	r1, #0
 80174b4:	7011      	strb	r1, [r2, #0]
 80174b6:	4618      	mov	r0, r3
 80174b8:	e7f0      	b.n	801749c <read_ocr+0x1e>
 80174ba:	bf00      	nop
 80174bc:	20001e30 	.word	0x20001e30

080174c0 <read_data>:
 80174c0:	b570      	push	{r4, r5, r6, lr}
 80174c2:	4606      	mov	r6, r0
 80174c4:	460d      	mov	r5, r1
 80174c6:	20ff      	movs	r0, #255	@ 0xff
 80174c8:	2400      	movs	r4, #0
 80174ca:	e003      	b.n	80174d4 <read_data+0x14>
 80174cc:	20ff      	movs	r0, #255	@ 0xff
 80174ce:	f000 fb0d 	bl	8017aec <hal_sd_spi_txrx>
 80174d2:	3401      	adds	r4, #1
 80174d4:	4b13      	ldr	r3, [pc, #76]	@ (8017524 <read_data+0x64>)
 80174d6:	429c      	cmp	r4, r3
 80174d8:	d801      	bhi.n	80174de <read_data+0x1e>
 80174da:	28fe      	cmp	r0, #254	@ 0xfe
 80174dc:	d1f6      	bne.n	80174cc <read_data+0xc>
 80174de:	4b12      	ldr	r3, [pc, #72]	@ (8017528 <read_data+0x68>)
 80174e0:	429c      	cmp	r4, r3
 80174e2:	d01a      	beq.n	801751a <read_data+0x5a>
 80174e4:	2400      	movs	r4, #0
 80174e6:	42a5      	cmp	r5, r4
 80174e8:	d905      	bls.n	80174f6 <read_data+0x36>
 80174ea:	20ff      	movs	r0, #255	@ 0xff
 80174ec:	f000 fafe 	bl	8017aec <hal_sd_spi_txrx>
 80174f0:	5530      	strb	r0, [r6, r4]
 80174f2:	3401      	adds	r4, #1
 80174f4:	e7f7      	b.n	80174e6 <read_data+0x26>
 80174f6:	20ff      	movs	r0, #255	@ 0xff
 80174f8:	f000 faf8 	bl	8017aec <hal_sd_spi_txrx>
 80174fc:	0204      	lsls	r4, r0, #8
 80174fe:	b2a4      	uxth	r4, r4
 8017500:	20ff      	movs	r0, #255	@ 0xff
 8017502:	f000 faf3 	bl	8017aec <hal_sd_spi_txrx>
 8017506:	4304      	orrs	r4, r0
 8017508:	b2a4      	uxth	r4, r4
 801750a:	4629      	mov	r1, r5
 801750c:	4630      	mov	r0, r6
 801750e:	f7ff ff23 	bl	8017358 <crc16>
 8017512:	4284      	cmp	r4, r0
 8017514:	d103      	bne.n	801751e <read_data+0x5e>
 8017516:	2000      	movs	r0, #0
 8017518:	bd70      	pop	{r4, r5, r6, pc}
 801751a:	2003      	movs	r0, #3
 801751c:	e7fc      	b.n	8017518 <read_data+0x58>
 801751e:	2004      	movs	r0, #4
 8017520:	e7fa      	b.n	8017518 <read_data+0x58>
 8017522:	bf00      	nop
 8017524:	0001869f 	.word	0x0001869f
 8017528:	000186a0 	.word	0x000186a0

0801752c <read_scr>:
 801752c:	b500      	push	{lr}
 801752e:	b083      	sub	sp, #12
 8017530:	466b      	mov	r3, sp
 8017532:	2201      	movs	r2, #1
 8017534:	2100      	movs	r1, #0
 8017536:	2037      	movs	r0, #55	@ 0x37
 8017538:	f7ff ff2d 	bl	8017396 <send_command>
 801753c:	b110      	cbz	r0, 8017544 <read_scr+0x18>
 801753e:	b003      	add	sp, #12
 8017540:	f85d fb04 	ldr.w	pc, [sp], #4
 8017544:	466b      	mov	r3, sp
 8017546:	2201      	movs	r2, #1
 8017548:	2100      	movs	r1, #0
 801754a:	2033      	movs	r0, #51	@ 0x33
 801754c:	f7ff ff23 	bl	8017396 <send_command>
 8017550:	2800      	cmp	r0, #0
 8017552:	d1f4      	bne.n	801753e <read_scr+0x12>
 8017554:	2108      	movs	r1, #8
 8017556:	4668      	mov	r0, sp
 8017558:	f7ff ffb2 	bl	80174c0 <read_data>
 801755c:	2800      	cmp	r0, #0
 801755e:	d1ee      	bne.n	801753e <read_scr+0x12>
 8017560:	f89d 3001 	ldrb.w	r3, [sp, #1]
 8017564:	f003 0370 	and.w	r3, r3, #112	@ 0x70
 8017568:	2b20      	cmp	r3, #32
 801756a:	d007      	beq.n	801757c <read_scr+0x50>
 801756c:	2b30      	cmp	r3, #48	@ 0x30
 801756e:	d009      	beq.n	8017584 <read_scr+0x58>
 8017570:	2b40      	cmp	r3, #64	@ 0x40
 8017572:	d1e4      	bne.n	801753e <read_scr+0x12>
 8017574:	4b05      	ldr	r3, [pc, #20]	@ (801758c <read_scr+0x60>)
 8017576:	2202      	movs	r2, #2
 8017578:	701a      	strb	r2, [r3, #0]
 801757a:	e7e0      	b.n	801753e <read_scr+0x12>
 801757c:	4a03      	ldr	r2, [pc, #12]	@ (801758c <read_scr+0x60>)
 801757e:	2100      	movs	r1, #0
 8017580:	7011      	strb	r1, [r2, #0]
 8017582:	e7f5      	b.n	8017570 <read_scr+0x44>
 8017584:	4b01      	ldr	r3, [pc, #4]	@ (801758c <read_scr+0x60>)
 8017586:	2201      	movs	r2, #1
 8017588:	701a      	strb	r2, [r3, #0]
 801758a:	e7d8      	b.n	801753e <read_scr+0x12>
 801758c:	20001e30 	.word	0x20001e30

08017590 <read_csd>:
 8017590:	b500      	push	{lr}
 8017592:	b085      	sub	sp, #20
 8017594:	466b      	mov	r3, sp
 8017596:	2201      	movs	r2, #1
 8017598:	2100      	movs	r1, #0
 801759a:	2009      	movs	r0, #9
 801759c:	f7ff fefb 	bl	8017396 <send_command>
 80175a0:	b110      	cbz	r0, 80175a8 <read_csd+0x18>
 80175a2:	b005      	add	sp, #20
 80175a4:	f85d fb04 	ldr.w	pc, [sp], #4
 80175a8:	2110      	movs	r1, #16
 80175aa:	4668      	mov	r0, sp
 80175ac:	f7ff ff88 	bl	80174c0 <read_data>
 80175b0:	2800      	cmp	r0, #0
 80175b2:	d1f6      	bne.n	80175a2 <read_csd+0x12>
 80175b4:	4b20      	ldr	r3, [pc, #128]	@ (8017638 <read_csd+0xa8>)
 80175b6:	7819      	ldrb	r1, [r3, #0]
 80175b8:	bb39      	cbnz	r1, 801760a <read_csd+0x7a>
 80175ba:	f89d 0005 	ldrb.w	r0, [sp, #5]
 80175be:	f000 000f 	and.w	r0, r0, #15
 80175c2:	f89d 3006 	ldrb.w	r3, [sp, #6]
 80175c6:	029b      	lsls	r3, r3, #10
 80175c8:	f403 6340 	and.w	r3, r3, #3072	@ 0xc00
 80175cc:	f89d 2007 	ldrb.w	r2, [sp, #7]
 80175d0:	ea43 0382 	orr.w	r3, r3, r2, lsl #2
 80175d4:	f89d 2008 	ldrb.w	r2, [sp, #8]
 80175d8:	ea43 1392 	orr.w	r3, r3, r2, lsr #6
 80175dc:	f89d 2009 	ldrb.w	r2, [sp, #9]
 80175e0:	0052      	lsls	r2, r2, #1
 80175e2:	f002 0206 	and.w	r2, r2, #6
 80175e6:	f89d c00a 	ldrb.w	ip, [sp, #10]
 80175ea:	ea42 12dc 	orr.w	r2, r2, ip, lsr #7
 80175ee:	3301      	adds	r3, #1
 80175f0:	3202      	adds	r2, #2
 80175f2:	4093      	lsls	r3, r2
 80175f4:	4083      	lsls	r3, r0
 80175f6:	0a5b      	lsrs	r3, r3, #9
 80175f8:	4a0f      	ldr	r2, [pc, #60]	@ (8017638 <read_csd+0xa8>)
 80175fa:	6093      	str	r3, [r2, #8]
 80175fc:	f44f 7300 	mov.w	r3, #512	@ 0x200
 8017600:	60d3      	str	r3, [r2, #12]
 8017602:	2301      	movs	r3, #1
 8017604:	6113      	str	r3, [r2, #16]
 8017606:	4608      	mov	r0, r1
 8017608:	e7cb      	b.n	80175a2 <read_csd+0x12>
 801760a:	f89d 2007 	ldrb.w	r2, [sp, #7]
 801760e:	0412      	lsls	r2, r2, #16
 8017610:	f402 127c 	and.w	r2, r2, #4128768	@ 0x3f0000
 8017614:	f89d 3008 	ldrb.w	r3, [sp, #8]
 8017618:	ea42 2203 	orr.w	r2, r2, r3, lsl #8
 801761c:	f89d 3009 	ldrb.w	r3, [sp, #9]
 8017620:	4313      	orrs	r3, r2
 8017622:	3301      	adds	r3, #1
 8017624:	029b      	lsls	r3, r3, #10
 8017626:	4a04      	ldr	r2, [pc, #16]	@ (8017638 <read_csd+0xa8>)
 8017628:	6093      	str	r3, [r2, #8]
 801762a:	f44f 7300 	mov.w	r3, #512	@ 0x200
 801762e:	60d3      	str	r3, [r2, #12]
 8017630:	2301      	movs	r3, #1
 8017632:	6113      	str	r3, [r2, #16]
 8017634:	e7b5      	b.n	80175a2 <read_csd+0x12>
 8017636:	bf00      	nop
 8017638:	20001e30 	.word	0x20001e30

0801763c <read>:
 801763c:	b5f0      	push	{r4, r5, r6, r7, lr}
 801763e:	b083      	sub	sp, #12
 8017640:	4604      	mov	r4, r0
 8017642:	460d      	mov	r5, r1
 8017644:	4616      	mov	r6, r2
 8017646:	ab01      	add	r3, sp, #4
 8017648:	2203      	movs	r2, #3
 801764a:	2100      	movs	r1, #0
 801764c:	200d      	movs	r0, #13
 801764e:	f7ff fea2 	bl	8017396 <send_command>
 8017652:	4603      	mov	r3, r0
 8017654:	bbc0      	cbnz	r0, 80176c8 <read+0x8c>
 8017656:	f89d 3004 	ldrb.w	r3, [sp, #4]
 801765a:	bba3      	cbnz	r3, 80176c6 <read+0x8a>
 801765c:	f89d 7005 	ldrb.w	r7, [sp, #5]
 8017660:	bbaf      	cbnz	r7, 80176ce <read+0x92>
 8017662:	4b1c      	ldr	r3, [pc, #112]	@ (80176d4 <read+0x98>)
 8017664:	781b      	ldrb	r3, [r3, #0]
 8017666:	b903      	cbnz	r3, 801766a <read+0x2e>
 8017668:	026d      	lsls	r5, r5, #9
 801766a:	2e01      	cmp	r6, #1
 801766c:	d015      	beq.n	801769a <read+0x5e>
 801766e:	ab01      	add	r3, sp, #4
 8017670:	2201      	movs	r2, #1
 8017672:	4629      	mov	r1, r5
 8017674:	2012      	movs	r0, #18
 8017676:	f7ff fe8e 	bl	8017396 <send_command>
 801767a:	4603      	mov	r3, r0
 801767c:	bb20      	cbnz	r0, 80176c8 <read+0x8c>
 801767e:	2500      	movs	r5, #0
 8017680:	42b5      	cmp	r5, r6
 8017682:	d214      	bcs.n	80176ae <read+0x72>
 8017684:	f44f 7100 	mov.w	r1, #512	@ 0x200
 8017688:	4620      	mov	r0, r4
 801768a:	f7ff ff19 	bl	80174c0 <read_data>
 801768e:	4603      	mov	r3, r0
 8017690:	b9d0      	cbnz	r0, 80176c8 <read+0x8c>
 8017692:	f504 7400 	add.w	r4, r4, #512	@ 0x200
 8017696:	3501      	adds	r5, #1
 8017698:	e7f2      	b.n	8017680 <read+0x44>
 801769a:	ab01      	add	r3, sp, #4
 801769c:	2201      	movs	r2, #1
 801769e:	4629      	mov	r1, r5
 80176a0:	2011      	movs	r0, #17
 80176a2:	f7ff fe78 	bl	8017396 <send_command>
 80176a6:	4603      	mov	r3, r0
 80176a8:	2800      	cmp	r0, #0
 80176aa:	d0e8      	beq.n	801767e <read+0x42>
 80176ac:	e00c      	b.n	80176c8 <read+0x8c>
 80176ae:	2e01      	cmp	r6, #1
 80176b0:	d801      	bhi.n	80176b6 <read+0x7a>
 80176b2:	463b      	mov	r3, r7
 80176b4:	e008      	b.n	80176c8 <read+0x8c>
 80176b6:	ab01      	add	r3, sp, #4
 80176b8:	2202      	movs	r2, #2
 80176ba:	2100      	movs	r1, #0
 80176bc:	200c      	movs	r0, #12
 80176be:	f7ff fe6a 	bl	8017396 <send_command>
 80176c2:	4603      	mov	r3, r0
 80176c4:	e000      	b.n	80176c8 <read+0x8c>
 80176c6:	230b      	movs	r3, #11
 80176c8:	4618      	mov	r0, r3
 80176ca:	b003      	add	sp, #12
 80176cc:	bdf0      	pop	{r4, r5, r6, r7, pc}
 80176ce:	230b      	movs	r3, #11
 80176d0:	e7fa      	b.n	80176c8 <read+0x8c>
 80176d2:	bf00      	nop
 80176d4:	20001e30 	.word	0x20001e30

080176d8 <sd_spi_read>:
 80176d8:	b570      	push	{r4, r5, r6, lr}
 80176da:	4604      	mov	r4, r0
 80176dc:	460d      	mov	r5, r1
 80176de:	4616      	mov	r6, r2
 80176e0:	f000 f9f0 	bl	8017ac4 <hal_sd_spi_select>
 80176e4:	4632      	mov	r2, r6
 80176e6:	4629      	mov	r1, r5
 80176e8:	4620      	mov	r0, r4
 80176ea:	f7ff ffa7 	bl	801763c <read>
 80176ee:	4604      	mov	r4, r0
 80176f0:	f000 f9f2 	bl	8017ad8 <hal_sd_spi_release>
 80176f4:	4620      	mov	r0, r4
 80176f6:	bd70      	pop	{r4, r5, r6, pc}

080176f8 <write_data>:
 80176f8:	b5f8      	push	{r3, r4, r5, r6, r7, lr}
 80176fa:	4606      	mov	r6, r0
 80176fc:	460d      	mov	r5, r1
 80176fe:	f7ff fe2b 	bl	8017358 <crc16>
 8017702:	4607      	mov	r7, r0
 8017704:	2400      	movs	r4, #0
 8017706:	e003      	b.n	8017710 <write_data+0x18>
 8017708:	5d30      	ldrb	r0, [r6, r4]
 801770a:	f000 f9ef 	bl	8017aec <hal_sd_spi_txrx>
 801770e:	3401      	adds	r4, #1
 8017710:	42a5      	cmp	r5, r4
 8017712:	d8f9      	bhi.n	8017708 <write_data+0x10>
 8017714:	f3c7 2007 	ubfx	r0, r7, #8, #8
 8017718:	f000 f9e8 	bl	8017aec <hal_sd_spi_txrx>
 801771c:	b2f8      	uxtb	r0, r7
 801771e:	f000 f9e5 	bl	8017aec <hal_sd_spi_txrx>
 8017722:	20ff      	movs	r0, #255	@ 0xff
 8017724:	2400      	movs	r4, #0
 8017726:	e003      	b.n	8017730 <write_data+0x38>
 8017728:	20ff      	movs	r0, #255	@ 0xff
 801772a:	f000 f9df 	bl	8017aec <hal_sd_spi_txrx>
 801772e:	3401      	adds	r4, #1
 8017730:	4b13      	ldr	r3, [pc, #76]	@ (8017780 <write_data+0x88>)
 8017732:	429c      	cmp	r4, r3
 8017734:	d801      	bhi.n	801773a <write_data+0x42>
 8017736:	28ff      	cmp	r0, #255	@ 0xff
 8017738:	d0f6      	beq.n	8017728 <write_data+0x30>
 801773a:	4b12      	ldr	r3, [pc, #72]	@ (8017784 <write_data+0x8c>)
 801773c:	429c      	cmp	r4, r3
 801773e:	d016      	beq.n	801776e <write_data+0x76>
 8017740:	f000 001f 	and.w	r0, r0, #31
 8017744:	280b      	cmp	r0, #11
 8017746:	d014      	beq.n	8017772 <write_data+0x7a>
 8017748:	280d      	cmp	r0, #13
 801774a:	d014      	beq.n	8017776 <write_data+0x7e>
 801774c:	2000      	movs	r0, #0
 801774e:	4604      	mov	r4, r0
 8017750:	e003      	b.n	801775a <write_data+0x62>
 8017752:	20ff      	movs	r0, #255	@ 0xff
 8017754:	f000 f9ca 	bl	8017aec <hal_sd_spi_txrx>
 8017758:	3401      	adds	r4, #1
 801775a:	4b09      	ldr	r3, [pc, #36]	@ (8017780 <write_data+0x88>)
 801775c:	429c      	cmp	r4, r3
 801775e:	d801      	bhi.n	8017764 <write_data+0x6c>
 8017760:	28ff      	cmp	r0, #255	@ 0xff
 8017762:	d1f6      	bne.n	8017752 <write_data+0x5a>
 8017764:	4b07      	ldr	r3, [pc, #28]	@ (8017784 <write_data+0x8c>)
 8017766:	429c      	cmp	r4, r3
 8017768:	d007      	beq.n	801777a <write_data+0x82>
 801776a:	2000      	movs	r0, #0
 801776c:	bdf8      	pop	{r3, r4, r5, r6, r7, pc}
 801776e:	2003      	movs	r0, #3
 8017770:	e7fc      	b.n	801776c <write_data+0x74>
 8017772:	2004      	movs	r0, #4
 8017774:	e7fa      	b.n	801776c <write_data+0x74>
 8017776:	2008      	movs	r0, #8
 8017778:	e7f8      	b.n	801776c <write_data+0x74>
 801777a:	2003      	movs	r0, #3
 801777c:	e7f6      	b.n	801776c <write_data+0x74>
 801777e:	bf00      	nop
 8017780:	0001869f 	.word	0x0001869f
 8017784:	000186a0 	.word	0x000186a0

08017788 <write_data_token>:
 8017788:	b510      	push	{r4, lr}
 801778a:	4604      	mov	r4, r0
 801778c:	f000 f9ae 	bl	8017aec <hal_sd_spi_txrx>
 8017790:	2cfd      	cmp	r4, #253	@ 0xfd
 8017792:	d00f      	beq.n	80177b4 <write_data_token+0x2c>
 8017794:	2000      	movs	r0, #0
 8017796:	bd10      	pop	{r4, pc}
 8017798:	20ff      	movs	r0, #255	@ 0xff
 801779a:	f000 f9a7 	bl	8017aec <hal_sd_spi_txrx>
 801779e:	3401      	adds	r4, #1
 80177a0:	4b07      	ldr	r3, [pc, #28]	@ (80177c0 <write_data_token+0x38>)
 80177a2:	429c      	cmp	r4, r3
 80177a4:	d801      	bhi.n	80177aa <write_data_token+0x22>
 80177a6:	28ff      	cmp	r0, #255	@ 0xff
 80177a8:	d1f6      	bne.n	8017798 <write_data_token+0x10>
 80177aa:	4b06      	ldr	r3, [pc, #24]	@ (80177c4 <write_data_token+0x3c>)
 80177ac:	429c      	cmp	r4, r3
 80177ae:	d004      	beq.n	80177ba <write_data_token+0x32>
 80177b0:	2000      	movs	r0, #0
 80177b2:	e7f0      	b.n	8017796 <write_data_token+0xe>
 80177b4:	2000      	movs	r0, #0
 80177b6:	4604      	mov	r4, r0
 80177b8:	e7f2      	b.n	80177a0 <write_data_token+0x18>
 80177ba:	2003      	movs	r0, #3
 80177bc:	e7eb      	b.n	8017796 <write_data_token+0xe>
 80177be:	bf00      	nop
 80177c0:	0001869f 	.word	0x0001869f
 80177c4:	000186a0 	.word	0x000186a0

080177c8 <write>:
 80177c8:	b5f0      	push	{r4, r5, r6, r7, lr}
 80177ca:	b083      	sub	sp, #12
 80177cc:	4604      	mov	r4, r0
 80177ce:	460e      	mov	r6, r1
 80177d0:	4615      	mov	r5, r2
 80177d2:	ab01      	add	r3, sp, #4
 80177d4:	2203      	movs	r2, #3
 80177d6:	2100      	movs	r1, #0
 80177d8:	200d      	movs	r0, #13
 80177da:	f7ff fddc 	bl	8017396 <send_command>
 80177de:	4603      	mov	r3, r0
 80177e0:	2800      	cmp	r0, #0
 80177e2:	d14f      	bne.n	8017884 <write+0xbc>
 80177e4:	f89d 3004 	ldrb.w	r3, [sp, #4]
 80177e8:	2b00      	cmp	r3, #0
 80177ea:	d14a      	bne.n	8017882 <write+0xba>
 80177ec:	f89d 7005 	ldrb.w	r7, [sp, #5]
 80177f0:	2f00      	cmp	r7, #0
 80177f2:	d14a      	bne.n	801788a <write+0xc2>
 80177f4:	4b26      	ldr	r3, [pc, #152]	@ (8017890 <write+0xc8>)
 80177f6:	781b      	ldrb	r3, [r3, #0]
 80177f8:	b903      	cbnz	r3, 80177fc <write+0x34>
 80177fa:	0276      	lsls	r6, r6, #9
 80177fc:	2d01      	cmp	r5, #1
 80177fe:	d018      	beq.n	8017832 <write+0x6a>
 8017800:	ab01      	add	r3, sp, #4
 8017802:	2201      	movs	r2, #1
 8017804:	2100      	movs	r1, #0
 8017806:	2037      	movs	r0, #55	@ 0x37
 8017808:	f7ff fdc5 	bl	8017396 <send_command>
 801780c:	4603      	mov	r3, r0
 801780e:	bbc8      	cbnz	r0, 8017884 <write+0xbc>
 8017810:	ab01      	add	r3, sp, #4
 8017812:	2201      	movs	r2, #1
 8017814:	4629      	mov	r1, r5
 8017816:	2017      	movs	r0, #23
 8017818:	f7ff fdbd 	bl	8017396 <send_command>
 801781c:	4603      	mov	r3, r0
 801781e:	bb88      	cbnz	r0, 8017884 <write+0xbc>
 8017820:	ab01      	add	r3, sp, #4
 8017822:	2201      	movs	r2, #1
 8017824:	4631      	mov	r1, r6
 8017826:	2019      	movs	r0, #25
 8017828:	f7ff fdb5 	bl	8017396 <send_command>
 801782c:	4603      	mov	r3, r0
 801782e:	b140      	cbz	r0, 8017842 <write+0x7a>
 8017830:	e028      	b.n	8017884 <write+0xbc>
 8017832:	ab01      	add	r3, sp, #4
 8017834:	2201      	movs	r2, #1
 8017836:	4631      	mov	r1, r6
 8017838:	2018      	movs	r0, #24
 801783a:	f7ff fdac 	bl	8017396 <send_command>
 801783e:	4603      	mov	r3, r0
 8017840:	bb00      	cbnz	r0, 8017884 <write+0xbc>
 8017842:	2600      	movs	r6, #0
 8017844:	e00c      	b.n	8017860 <write+0x98>
 8017846:	20fc      	movs	r0, #252	@ 0xfc
 8017848:	f7ff ff9e 	bl	8017788 <write_data_token>
 801784c:	f44f 7100 	mov.w	r1, #512	@ 0x200
 8017850:	4620      	mov	r0, r4
 8017852:	f7ff ff51 	bl	80176f8 <write_data>
 8017856:	4603      	mov	r3, r0
 8017858:	b9a0      	cbnz	r0, 8017884 <write+0xbc>
 801785a:	f504 7400 	add.w	r4, r4, #512	@ 0x200
 801785e:	3601      	adds	r6, #1
 8017860:	42ae      	cmp	r6, r5
 8017862:	d205      	bcs.n	8017870 <write+0xa8>
 8017864:	2d01      	cmp	r5, #1
 8017866:	d1ee      	bne.n	8017846 <write+0x7e>
 8017868:	20fe      	movs	r0, #254	@ 0xfe
 801786a:	f7ff ff8d 	bl	8017788 <write_data_token>
 801786e:	e7ed      	b.n	801784c <write+0x84>
 8017870:	2d01      	cmp	r5, #1
 8017872:	d801      	bhi.n	8017878 <write+0xb0>
 8017874:	463b      	mov	r3, r7
 8017876:	e005      	b.n	8017884 <write+0xbc>
 8017878:	20fd      	movs	r0, #253	@ 0xfd
 801787a:	f7ff ff85 	bl	8017788 <write_data_token>
 801787e:	463b      	mov	r3, r7
 8017880:	e000      	b.n	8017884 <write+0xbc>
 8017882:	230b      	movs	r3, #11
 8017884:	4618      	mov	r0, r3
 8017886:	b003      	add	sp, #12
 8017888:	bdf0      	pop	{r4, r5, r6, r7, pc}
 801788a:	230b      	movs	r3, #11
 801788c:	e7fa      	b.n	8017884 <write+0xbc>
 801788e:	bf00      	nop
 8017890:	20001e30 	.word	0x20001e30

08017894 <sd_spi_write>:
 8017894:	b570      	push	{r4, r5, r6, lr}
 8017896:	4604      	mov	r4, r0
 8017898:	460d      	mov	r5, r1
 801789a:	4616      	mov	r6, r2
 801789c:	f000 f912 	bl	8017ac4 <hal_sd_spi_select>
 80178a0:	4632      	mov	r2, r6
 80178a2:	4629      	mov	r1, r5
 80178a4:	4620      	mov	r0, r4
 80178a6:	f7ff ff8f 	bl	80177c8 <write>
 80178aa:	4604      	mov	r4, r0
 80178ac:	f000 f914 	bl	8017ad8 <hal_sd_spi_release>
 80178b0:	4620      	mov	r0, r4
 80178b2:	bd70      	pop	{r4, r5, r6, pc}

080178b4 <reset_idle>:
 80178b4:	b510      	push	{r4, lr}
 80178b6:	b084      	sub	sp, #16
 80178b8:	466b      	mov	r3, sp
 80178ba:	2201      	movs	r2, #1
 80178bc:	2100      	movs	r1, #0
 80178be:	4608      	mov	r0, r1
 80178c0:	f7ff fd69 	bl	8017396 <send_command>
 80178c4:	4603      	mov	r3, r0
 80178c6:	b110      	cbz	r0, 80178ce <reset_idle+0x1a>
 80178c8:	4618      	mov	r0, r3
 80178ca:	b004      	add	sp, #16
 80178cc:	bd10      	pop	{r4, pc}
 80178ce:	466b      	mov	r3, sp
 80178d0:	2206      	movs	r2, #6
 80178d2:	f44f 71d5 	mov.w	r1, #426	@ 0x1aa
 80178d6:	2008      	movs	r0, #8
 80178d8:	f7ff fd5d 	bl	8017396 <send_command>
 80178dc:	4603      	mov	r3, r0
 80178de:	2809      	cmp	r0, #9
 80178e0:	d033      	beq.n	801794a <reset_idle+0x96>
 80178e2:	2800      	cmp	r0, #0
 80178e4:	d1f0      	bne.n	80178c8 <reset_idle+0x14>
 80178e6:	f89d 2001 	ldrb.w	r2, [sp, #1]
 80178ea:	f89d 3002 	ldrb.w	r3, [sp, #2]
 80178ee:	041b      	lsls	r3, r3, #16
 80178f0:	ea43 6302 	orr.w	r3, r3, r2, lsl #24
 80178f4:	f89d 2003 	ldrb.w	r2, [sp, #3]
 80178f8:	ea43 2302 	orr.w	r3, r3, r2, lsl #8
 80178fc:	f89d 2004 	ldrb.w	r2, [sp, #4]
 8017900:	4313      	orrs	r3, r2
 8017902:	f5b3 7fd5 	cmp.w	r3, #426	@ 0x1aa
 8017906:	d167      	bne.n	80179d8 <reset_idle+0x124>
 8017908:	2400      	movs	r4, #0
 801790a:	f5b4 7f7a 	cmp.w	r4, #1000	@ 0x3e8
 801790e:	d258      	bcs.n	80179c2 <reset_idle+0x10e>
 8017910:	f89d 3000 	ldrb.w	r3, [sp]
 8017914:	f013 0f01 	tst.w	r3, #1
 8017918:	d053      	beq.n	80179c2 <reset_idle+0x10e>
 801791a:	466b      	mov	r3, sp
 801791c:	2201      	movs	r2, #1
 801791e:	2100      	movs	r1, #0
 8017920:	2037      	movs	r0, #55	@ 0x37
 8017922:	f7ff fd38 	bl	8017396 <send_command>
 8017926:	4603      	mov	r3, r0
 8017928:	2800      	cmp	r0, #0
 801792a:	d1cd      	bne.n	80178c8 <reset_idle+0x14>
 801792c:	466b      	mov	r3, sp
 801792e:	2201      	movs	r2, #1
 8017930:	f04f 4180 	mov.w	r1, #1073741824	@ 0x40000000
 8017934:	2029      	movs	r0, #41	@ 0x29
 8017936:	f7ff fd2e 	bl	8017396 <send_command>
 801793a:	4603      	mov	r3, r0
 801793c:	2800      	cmp	r0, #0
 801793e:	d1c3      	bne.n	80178c8 <reset_idle+0x14>
 8017940:	200a      	movs	r0, #10
 8017942:	f7fe fbc1 	bl	80160c8 <delay>
 8017946:	3401      	adds	r4, #1
 8017948:	e7df      	b.n	801790a <reset_idle+0x56>
 801794a:	2400      	movs	r4, #0
 801794c:	f5b4 7f7a 	cmp.w	r4, #1000	@ 0x3e8
 8017950:	d21b      	bcs.n	801798a <reset_idle+0xd6>
 8017952:	f89d 3000 	ldrb.w	r3, [sp]
 8017956:	f013 0f01 	tst.w	r3, #1
 801795a:	d016      	beq.n	801798a <reset_idle+0xd6>
 801795c:	466b      	mov	r3, sp
 801795e:	2201      	movs	r2, #1
 8017960:	2100      	movs	r1, #0
 8017962:	2037      	movs	r0, #55	@ 0x37
 8017964:	f7ff fd17 	bl	8017396 <send_command>
 8017968:	4603      	mov	r3, r0
 801796a:	2800      	cmp	r0, #0
 801796c:	d1ac      	bne.n	80178c8 <reset_idle+0x14>
 801796e:	466b      	mov	r3, sp
 8017970:	2201      	movs	r2, #1
 8017972:	2100      	movs	r1, #0
 8017974:	2029      	movs	r0, #41	@ 0x29
 8017976:	f7ff fd0e 	bl	8017396 <send_command>
 801797a:	4603      	mov	r3, r0
 801797c:	2800      	cmp	r0, #0
 801797e:	d1a3      	bne.n	80178c8 <reset_idle+0x14>
 8017980:	2064      	movs	r0, #100	@ 0x64
 8017982:	f7fe fba1 	bl	80160c8 <delay>
 8017986:	3401      	adds	r4, #1
 8017988:	e7e0      	b.n	801794c <reset_idle+0x98>
 801798a:	f5b4 7f7a 	cmp.w	r4, #1000	@ 0x3e8
 801798e:	d021      	beq.n	80179d4 <reset_idle+0x120>
 8017990:	4b13      	ldr	r3, [pc, #76]	@ (80179e0 <reset_idle+0x12c>)
 8017992:	2200      	movs	r2, #0
 8017994:	701a      	strb	r2, [r3, #0]
 8017996:	4b12      	ldr	r3, [pc, #72]	@ (80179e0 <reset_idle+0x12c>)
 8017998:	781b      	ldrb	r3, [r3, #0]
 801799a:	b94b      	cbnz	r3, 80179b0 <reset_idle+0xfc>
 801799c:	466b      	mov	r3, sp
 801799e:	2201      	movs	r2, #1
 80179a0:	f44f 7100 	mov.w	r1, #512	@ 0x200
 80179a4:	2010      	movs	r0, #16
 80179a6:	f7ff fcf6 	bl	8017396 <send_command>
 80179aa:	4603      	mov	r3, r0
 80179ac:	2800      	cmp	r0, #0
 80179ae:	d18b      	bne.n	80178c8 <reset_idle+0x14>
 80179b0:	f7ff fdbc 	bl	801752c <read_scr>
 80179b4:	4603      	mov	r3, r0
 80179b6:	2800      	cmp	r0, #0
 80179b8:	d186      	bne.n	80178c8 <reset_idle+0x14>
 80179ba:	f7ff fde9 	bl	8017590 <read_csd>
 80179be:	4603      	mov	r3, r0
 80179c0:	e782      	b.n	80178c8 <reset_idle+0x14>
 80179c2:	f5b4 7f7a 	cmp.w	r4, #1000	@ 0x3e8
 80179c6:	d009      	beq.n	80179dc <reset_idle+0x128>
 80179c8:	f7ff fd59 	bl	801747e <read_ocr>
 80179cc:	4603      	mov	r3, r0
 80179ce:	2800      	cmp	r0, #0
 80179d0:	d0e1      	beq.n	8017996 <reset_idle+0xe2>
 80179d2:	e779      	b.n	80178c8 <reset_idle+0x14>
 80179d4:	230a      	movs	r3, #10
 80179d6:	e777      	b.n	80178c8 <reset_idle+0x14>
 80179d8:	230a      	movs	r3, #10
 80179da:	e775      	b.n	80178c8 <reset_idle+0x14>
 80179dc:	230a      	movs	r3, #10
 80179de:	e773      	b.n	80178c8 <reset_idle+0x14>
 80179e0:	20001e30 	.word	0x20001e30

080179e4 <sd_spi_reset>:
 80179e4:	b510      	push	{r4, lr}
 80179e6:	f000 f893 	bl	8017b10 <hal_sd_spi_slow>
 80179ea:	f7ff fcc7 	bl	801737c <reset_prepare>
 80179ee:	f000 f869 	bl	8017ac4 <hal_sd_spi_select>
 80179f2:	f7ff ff5f 	bl	80178b4 <reset_idle>
 80179f6:	4604      	mov	r4, r0
 80179f8:	f000 f86e 	bl	8017ad8 <hal_sd_spi_release>
 80179fc:	b10c      	cbz	r4, 8017a02 <sd_spi_reset+0x1e>
 80179fe:	4620      	mov	r0, r4
 8017a00:	bd10      	pop	{r4, pc}
 8017a02:	f000 f88d 	bl	8017b20 <hal_sd_spi_fast>
 8017a06:	e7fa      	b.n	80179fe <sd_spi_reset+0x1a>

08017a08 <hal_w25q_spi_init>:
 8017a08:	b538      	push	{r3, r4, r5, lr}
 8017a0a:	4b18      	ldr	r3, [pc, #96]	@ (8017a6c <hal_w25q_spi_init+0x64>)
 8017a0c:	6c5a      	ldr	r2, [r3, #68]	@ 0x44
 8017a0e:	f442 5280 	orr.w	r2, r2, #4096	@ 0x1000
 8017a12:	645a      	str	r2, [r3, #68]	@ 0x44
 8017a14:	6b1a      	ldr	r2, [r3, #48]	@ 0x30
 8017a16:	f042 0203 	orr.w	r2, r2, #3
 8017a1a:	631a      	str	r2, [r3, #48]	@ 0x30
 8017a1c:	4c14      	ldr	r4, [pc, #80]	@ (8017a70 <hal_w25q_spi_init+0x68>)
 8017a1e:	f240 32a5 	movw	r2, #933	@ 0x3a5
 8017a22:	2103      	movs	r1, #3
 8017a24:	4620      	mov	r0, r4
 8017a26:	f7ff fbfc 	bl	8017222 <hw_cfg_pin>
 8017a2a:	f240 32a5 	movw	r2, #933	@ 0x3a5
 8017a2e:	2104      	movs	r1, #4
 8017a30:	4620      	mov	r0, r4
 8017a32:	f7ff fbf6 	bl	8017222 <hw_cfg_pin>
 8017a36:	f240 32a5 	movw	r2, #933	@ 0x3a5
 8017a3a:	2105      	movs	r1, #5
 8017a3c:	4620      	mov	r0, r4
 8017a3e:	f7ff fbf0 	bl	8017222 <hw_cfg_pin>
 8017a42:	4d0c      	ldr	r5, [pc, #48]	@ (8017a74 <hal_w25q_spi_init+0x6c>)
 8017a44:	f44f 7264 	mov.w	r2, #912	@ 0x390
 8017a48:	210f      	movs	r1, #15
 8017a4a:	4628      	mov	r0, r5
 8017a4c:	f7ff fbe9 	bl	8017222 <hw_cfg_pin>
 8017a50:	f5a4 4454 	sub.w	r4, r4, #54272	@ 0xd400
 8017a54:	f44f 7359 	mov.w	r3, #868	@ 0x364
 8017a58:	6023      	str	r3, [r4, #0]
 8017a5a:	2201      	movs	r2, #1
 8017a5c:	210f      	movs	r1, #15
 8017a5e:	4628      	mov	r0, r5
 8017a60:	f7ff fc28 	bl	80172b4 <hw_set_pin>
 8017a64:	f44f 7353 	mov.w	r3, #844	@ 0x34c
 8017a68:	6023      	str	r3, [r4, #0]
 8017a6a:	bd38      	pop	{r3, r4, r5, pc}
 8017a6c:	40023800 	.word	0x40023800
 8017a70:	40020400 	.word	0x40020400
 8017a74:	40020000 	.word	0x40020000

08017a78 <hal_w25q_spi_select>:
 8017a78:	b508      	push	{r3, lr}
 8017a7a:	2200      	movs	r2, #0
 8017a7c:	210f      	movs	r1, #15
 8017a7e:	4802      	ldr	r0, [pc, #8]	@ (8017a88 <hal_w25q_spi_select+0x10>)
 8017a80:	f7ff fc18 	bl	80172b4 <hw_set_pin>
 8017a84:	bd08      	pop	{r3, pc}
 8017a86:	bf00      	nop
 8017a88:	40020000 	.word	0x40020000

08017a8c <hal_w25q_spi_release>:
 8017a8c:	b508      	push	{r3, lr}
 8017a8e:	2201      	movs	r2, #1
 8017a90:	210f      	movs	r1, #15
 8017a92:	4802      	ldr	r0, [pc, #8]	@ (8017a9c <hal_w25q_spi_release+0x10>)
 8017a94:	f7ff fc0e 	bl	80172b4 <hw_set_pin>
 8017a98:	bd08      	pop	{r3, pc}
 8017a9a:	bf00      	nop
 8017a9c:	40020000 	.word	0x40020000

08017aa0 <hal_w25q_spi_txrx>:
 8017aa0:	4b07      	ldr	r3, [pc, #28]	@ (8017ac0 <hal_w25q_spi_txrx+0x20>)
 8017aa2:	689b      	ldr	r3, [r3, #8]
 8017aa4:	f013 0f02 	tst.w	r3, #2
 8017aa8:	d0fa      	beq.n	8017aa0 <hal_w25q_spi_txrx>
 8017aaa:	4b05      	ldr	r3, [pc, #20]	@ (8017ac0 <hal_w25q_spi_txrx+0x20>)
 8017aac:	60d8      	str	r0, [r3, #12]
 8017aae:	4b04      	ldr	r3, [pc, #16]	@ (8017ac0 <hal_w25q_spi_txrx+0x20>)
 8017ab0:	689b      	ldr	r3, [r3, #8]
 8017ab2:	f013 0f01 	tst.w	r3, #1
 8017ab6:	d0fa      	beq.n	8017aae <hal_w25q_spi_txrx+0xe>
 8017ab8:	4b01      	ldr	r3, [pc, #4]	@ (8017ac0 <hal_w25q_spi_txrx+0x20>)
 8017aba:	68d8      	ldr	r0, [r3, #12]
 8017abc:	b2c0      	uxtb	r0, r0
 8017abe:	4770      	bx	lr
 8017ac0:	40013000 	.word	0x40013000

08017ac4 <hal_sd_spi_select>:
 8017ac4:	b508      	push	{r3, lr}
 8017ac6:	2200      	movs	r2, #0
 8017ac8:	210c      	movs	r1, #12
 8017aca:	4802      	ldr	r0, [pc, #8]	@ (8017ad4 <hal_sd_spi_select+0x10>)
 8017acc:	f7ff fbf2 	bl	80172b4 <hw_set_pin>
 8017ad0:	bd08      	pop	{r3, pc}
 8017ad2:	bf00      	nop
 8017ad4:	40020400 	.word	0x40020400

08017ad8 <hal_sd_spi_release>:
 8017ad8:	b508      	push	{r3, lr}
 8017ada:	2201      	movs	r2, #1
 8017adc:	210c      	movs	r1, #12
 8017ade:	4802      	ldr	r0, [pc, #8]	@ (8017ae8 <hal_sd_spi_release+0x10>)
 8017ae0:	f7ff fbe8 	bl	80172b4 <hw_set_pin>
 8017ae4:	bd08      	pop	{r3, pc}
 8017ae6:	bf00      	nop
 8017ae8:	40020400 	.word	0x40020400

08017aec <hal_sd_spi_txrx>:
 8017aec:	4b07      	ldr	r3, [pc, #28]	@ (8017b0c <hal_sd_spi_txrx+0x20>)
 8017aee:	689b      	ldr	r3, [r3, #8]
 8017af0:	f013 0f02 	tst.w	r3, #2
 8017af4:	d0fa      	beq.n	8017aec <hal_sd_spi_txrx>
 8017af6:	4b05      	ldr	r3, [pc, #20]	@ (8017b0c <hal_sd_spi_txrx+0x20>)
 8017af8:	60d8      	str	r0, [r3, #12]
 8017afa:	4b04      	ldr	r3, [pc, #16]	@ (8017b0c <hal_sd_spi_txrx+0x20>)
 8017afc:	689b      	ldr	r3, [r3, #8]
 8017afe:	f013 0f01 	tst.w	r3, #1
 8017b02:	d0fa      	beq.n	8017afa <hal_sd_spi_txrx+0xe>
 8017b04:	4b01      	ldr	r3, [pc, #4]	@ (8017b0c <hal_sd_spi_txrx+0x20>)
 8017b06:	68d8      	ldr	r0, [r3, #12]
 8017b08:	b2c0      	uxtb	r0, r0
 8017b0a:	4770      	bx	lr
 8017b0c:	40003800 	.word	0x40003800

08017b10 <hal_sd_spi_slow>:
 8017b10:	4b02      	ldr	r3, [pc, #8]	@ (8017b1c <hal_sd_spi_slow+0xc>)
 8017b12:	f44f 725f 	mov.w	r2, #892	@ 0x37c
 8017b16:	601a      	str	r2, [r3, #0]
 8017b18:	4770      	bx	lr
 8017b1a:	bf00      	nop
 8017b1c:	40003800 	.word	0x40003800

08017b20 <hal_sd_spi_fast>:
 8017b20:	4b02      	ldr	r3, [pc, #8]	@ (8017b2c <hal_sd_spi_fast+0xc>)
 8017b22:	f44f 7253 	mov.w	r2, #844	@ 0x34c
 8017b26:	601a      	str	r2, [r3, #0]
 8017b28:	4770      	bx	lr
 8017b2a:	bf00      	nop
 8017b2c:	40003800 	.word	0x40003800

08017b30 <hal_sd_spi_init>:
 8017b30:	b510      	push	{r4, lr}
 8017b32:	4b17      	ldr	r3, [pc, #92]	@ (8017b90 <hal_sd_spi_init+0x60>)
 8017b34:	6c1a      	ldr	r2, [r3, #64]	@ 0x40
 8017b36:	f442 4280 	orr.w	r2, r2, #16384	@ 0x4000
 8017b3a:	641a      	str	r2, [r3, #64]	@ 0x40
 8017b3c:	6b1a      	ldr	r2, [r3, #48]	@ 0x30
 8017b3e:	f042 0202 	orr.w	r2, r2, #2
 8017b42:	631a      	str	r2, [r3, #48]	@ 0x30
 8017b44:	4c13      	ldr	r4, [pc, #76]	@ (8017b94 <hal_sd_spi_init+0x64>)
 8017b46:	f240 32a5 	movw	r2, #933	@ 0x3a5
 8017b4a:	210d      	movs	r1, #13
 8017b4c:	4620      	mov	r0, r4
 8017b4e:	f7ff fb68 	bl	8017222 <hw_cfg_pin>
 8017b52:	f240 32a5 	movw	r2, #933	@ 0x3a5
 8017b56:	210e      	movs	r1, #14
 8017b58:	4620      	mov	r0, r4
 8017b5a:	f7ff fb62 	bl	8017222 <hw_cfg_pin>
 8017b5e:	f240 32a5 	movw	r2, #933	@ 0x3a5
 8017b62:	210f      	movs	r1, #15
 8017b64:	4620      	mov	r0, r4
 8017b66:	f7ff fb5c 	bl	8017222 <hw_cfg_pin>
 8017b6a:	f44f 7264 	mov.w	r2, #912	@ 0x390
 8017b6e:	210c      	movs	r1, #12
 8017b70:	4620      	mov	r0, r4
 8017b72:	f7ff fb56 	bl	8017222 <hw_cfg_pin>
 8017b76:	4b08      	ldr	r3, [pc, #32]	@ (8017b98 <hal_sd_spi_init+0x68>)
 8017b78:	f44f 7259 	mov.w	r2, #868	@ 0x364
 8017b7c:	601a      	str	r2, [r3, #0]
 8017b7e:	2201      	movs	r2, #1
 8017b80:	210c      	movs	r1, #12
 8017b82:	4620      	mov	r0, r4
 8017b84:	f7ff fb96 	bl	80172b4 <hw_set_pin>
 8017b88:	f7ff ffca 	bl	8017b20 <hal_sd_spi_fast>
 8017b8c:	bd10      	pop	{r4, pc}
 8017b8e:	bf00      	nop
 8017b90:	40023800 	.word	0x40023800
 8017b94:	40020400 	.word	0x40020400
 8017b98:	40003800 	.word	0x40003800

08017b9c <hal_st7735_spi_init>:
 8017b9c:	b510      	push	{r4, lr}
 8017b9e:	4b14      	ldr	r3, [pc, #80]	@ (8017bf0 <hal_st7735_spi_init+0x54>)
 8017ba0:	6b1a      	ldr	r2, [r3, #48]	@ 0x30
 8017ba2:	f042 0202 	orr.w	r2, r2, #2
 8017ba6:	631a      	str	r2, [r3, #48]	@ 0x30
 8017ba8:	6b1a      	ldr	r2, [r3, #48]	@ 0x30
 8017baa:	f042 0204 	orr.w	r2, r2, #4
 8017bae:	631a      	str	r2, [r3, #48]	@ 0x30
 8017bb0:	4c10      	ldr	r4, [pc, #64]	@ (8017bf4 <hal_st7735_spi_init+0x58>)
 8017bb2:	f44f 7264 	mov.w	r2, #912	@ 0x390
 8017bb6:	210b      	movs	r1, #11
 8017bb8:	4620      	mov	r0, r4
 8017bba:	f7ff fb32 	bl	8017222 <hw_cfg_pin>
 8017bbe:	f44f 7264 	mov.w	r2, #912	@ 0x390
 8017bc2:	210a      	movs	r1, #10
 8017bc4:	4620      	mov	r0, r4
 8017bc6:	f7ff fb2c 	bl	8017222 <hw_cfg_pin>
 8017bca:	f44f 7264 	mov.w	r2, #912	@ 0x390
 8017bce:	2100      	movs	r1, #0
 8017bd0:	4620      	mov	r0, r4
 8017bd2:	f7ff fb26 	bl	8017222 <hw_cfg_pin>
 8017bd6:	f44f 7264 	mov.w	r2, #912	@ 0x390
 8017bda:	2102      	movs	r1, #2
 8017bdc:	4620      	mov	r0, r4
 8017bde:	f7ff fb20 	bl	8017222 <hw_cfg_pin>
 8017be2:	f44f 7264 	mov.w	r2, #912	@ 0x390
 8017be6:	2101      	movs	r1, #1
 8017be8:	4620      	mov	r0, r4
 8017bea:	f7ff fb1a 	bl	8017222 <hw_cfg_pin>
 8017bee:	bd10      	pop	{r4, pc}
 8017bf0:	40023800 	.word	0x40023800
 8017bf4:	40020400 	.word	0x40020400

08017bf8 <hal_st7735_spi_select>:
 8017bf8:	b508      	push	{r3, lr}
 8017bfa:	2200      	movs	r2, #0
 8017bfc:	4611      	mov	r1, r2
 8017bfe:	4802      	ldr	r0, [pc, #8]	@ (8017c08 <hal_st7735_spi_select+0x10>)
 8017c00:	f7ff fb58 	bl	80172b4 <hw_set_pin>
 8017c04:	bd08      	pop	{r3, pc}
 8017c06:	bf00      	nop
 8017c08:	40020400 	.word	0x40020400

08017c0c <hal_st7735_spi_release>:
 8017c0c:	b508      	push	{r3, lr}
 8017c0e:	2201      	movs	r2, #1
 8017c10:	2100      	movs	r1, #0
 8017c12:	4802      	ldr	r0, [pc, #8]	@ (8017c1c <hal_st7735_spi_release+0x10>)
 8017c14:	f7ff fb4e 	bl	80172b4 <hw_set_pin>
 8017c18:	bd08      	pop	{r3, pc}
 8017c1a:	bf00      	nop
 8017c1c:	40020400 	.word	0x40020400

08017c20 <hal_st7735_spi_txrx>:
 8017c20:	b570      	push	{r4, r5, r6, lr}
 8017c22:	4604      	mov	r4, r0
 8017c24:	2200      	movs	r2, #0
 8017c26:	210a      	movs	r1, #10
 8017c28:	4812      	ldr	r0, [pc, #72]	@ (8017c74 <hal_st7735_spi_txrx+0x54>)
 8017c2a:	f7ff fb43 	bl	80172b4 <hw_set_pin>
 8017c2e:	2508      	movs	r5, #8
 8017c30:	e013      	b.n	8017c5a <hal_st7735_spi_txrx+0x3a>
 8017c32:	2200      	movs	r2, #0
 8017c34:	210b      	movs	r1, #11
 8017c36:	480f      	ldr	r0, [pc, #60]	@ (8017c74 <hal_st7735_spi_txrx+0x54>)
 8017c38:	f7ff fb3c 	bl	80172b4 <hw_set_pin>
 8017c3c:	0064      	lsls	r4, r4, #1
 8017c3e:	b2e4      	uxtb	r4, r4
 8017c40:	4e0c      	ldr	r6, [pc, #48]	@ (8017c74 <hal_st7735_spi_txrx+0x54>)
 8017c42:	2201      	movs	r2, #1
 8017c44:	210a      	movs	r1, #10
 8017c46:	4630      	mov	r0, r6
 8017c48:	f7ff fb34 	bl	80172b4 <hw_set_pin>
 8017c4c:	2200      	movs	r2, #0
 8017c4e:	210a      	movs	r1, #10
 8017c50:	4630      	mov	r0, r6
 8017c52:	f7ff fb2f 	bl	80172b4 <hw_set_pin>
 8017c56:	3d01      	subs	r5, #1
 8017c58:	b2ed      	uxtb	r5, r5
 8017c5a:	b145      	cbz	r5, 8017c6e <hal_st7735_spi_txrx+0x4e>
 8017c5c:	f014 0f80 	tst.w	r4, #128	@ 0x80
 8017c60:	d0e7      	beq.n	8017c32 <hal_st7735_spi_txrx+0x12>
 8017c62:	2201      	movs	r2, #1
 8017c64:	210b      	movs	r1, #11
 8017c66:	4803      	ldr	r0, [pc, #12]	@ (8017c74 <hal_st7735_spi_txrx+0x54>)
 8017c68:	f7ff fb24 	bl	80172b4 <hw_set_pin>
 8017c6c:	e7e6      	b.n	8017c3c <hal_st7735_spi_txrx+0x1c>
 8017c6e:	2000      	movs	r0, #0
 8017c70:	bd70      	pop	{r4, r5, r6, pc}
 8017c72:	bf00      	nop
 8017c74:	40020400 	.word	0x40020400

08017c78 <hal_st7735_spi_slow>:
 8017c78:	4b02      	ldr	r3, [pc, #8]	@ (8017c84 <hal_st7735_spi_slow+0xc>)
 8017c7a:	f44f 725f 	mov.w	r2, #892	@ 0x37c
 8017c7e:	601a      	str	r2, [r3, #0]
 8017c80:	4770      	bx	lr
 8017c82:	bf00      	nop
 8017c84:	40003c00 	.word	0x40003c00

08017c88 <hal_st7735_spi_fast>:
 8017c88:	4b02      	ldr	r3, [pc, #8]	@ (8017c94 <hal_st7735_spi_fast+0xc>)
 8017c8a:	f44f 7253 	mov.w	r2, #844	@ 0x34c
 8017c8e:	601a      	str	r2, [r3, #0]
 8017c90:	4770      	bx	lr
 8017c92:	bf00      	nop
 8017c94:	40003c00 	.word	0x40003c00

08017c98 <hal_23lc1024_spi_select1_set>:
 8017c98:	b508      	push	{r3, lr}
 8017c9a:	b2c2      	uxtb	r2, r0
 8017c9c:	2107      	movs	r1, #7
 8017c9e:	4802      	ldr	r0, [pc, #8]	@ (8017ca8 <hal_23lc1024_spi_select1_set+0x10>)
 8017ca0:	f7ff fb08 	bl	80172b4 <hw_set_pin>
 8017ca4:	bd08      	pop	{r3, pc}
 8017ca6:	bf00      	nop
 8017ca8:	40020800 	.word	0x40020800

08017cac <hal_23lc1024_spi_select2_set>:
 8017cac:	b508      	push	{r3, lr}
 8017cae:	b2c2      	uxtb	r2, r0
 8017cb0:	2108      	movs	r1, #8
 8017cb2:	4802      	ldr	r0, [pc, #8]	@ (8017cbc <hal_23lc1024_spi_select2_set+0x10>)
 8017cb4:	f7ff fafe 	bl	80172b4 <hw_set_pin>
 8017cb8:	bd08      	pop	{r3, pc}
 8017cba:	bf00      	nop
 8017cbc:	40020800 	.word	0x40020800

08017cc0 <hal_23lc1024_spi_select3_set>:
 8017cc0:	b508      	push	{r3, lr}
 8017cc2:	b2c2      	uxtb	r2, r0
 8017cc4:	2109      	movs	r1, #9
 8017cc6:	4802      	ldr	r0, [pc, #8]	@ (8017cd0 <hal_23lc1024_spi_select3_set+0x10>)
 8017cc8:	f7ff faf4 	bl	80172b4 <hw_set_pin>
 8017ccc:	bd08      	pop	{r3, pc}
 8017cce:	bf00      	nop
 8017cd0:	40020800 	.word	0x40020800

08017cd4 <hal_23lc1024_spi_init>:
 8017cd4:	b538      	push	{r3, r4, r5, lr}
 8017cd6:	4b27      	ldr	r3, [pc, #156]	@ (8017d74 <hal_23lc1024_spi_init+0xa0>)
 8017cd8:	6c1a      	ldr	r2, [r3, #64]	@ 0x40
 8017cda:	f442 4200 	orr.w	r2, r2, #32768	@ 0x8000
 8017cde:	641a      	str	r2, [r3, #64]	@ 0x40
 8017ce0:	6b1a      	ldr	r2, [r3, #48]	@ 0x30
 8017ce2:	f042 0204 	orr.w	r2, r2, #4
 8017ce6:	631a      	str	r2, [r3, #48]	@ 0x30
 8017ce8:	4c23      	ldr	r4, [pc, #140]	@ (8017d78 <hal_23lc1024_spi_init+0xa4>)
 8017cea:	f240 32a6 	movw	r2, #934	@ 0x3a6
 8017cee:	210a      	movs	r1, #10
 8017cf0:	4620      	mov	r0, r4
 8017cf2:	f7ff fa96 	bl	8017222 <hw_cfg_pin>
 8017cf6:	f240 32a6 	movw	r2, #934	@ 0x3a6
 8017cfa:	210b      	movs	r1, #11
 8017cfc:	4620      	mov	r0, r4
 8017cfe:	f7ff fa90 	bl	8017222 <hw_cfg_pin>
 8017d02:	f240 32a6 	movw	r2, #934	@ 0x3a6
 8017d06:	210c      	movs	r1, #12
 8017d08:	4620      	mov	r0, r4
 8017d0a:	f7ff fa8a 	bl	8017222 <hw_cfg_pin>
 8017d0e:	f44f 7264 	mov.w	r2, #912	@ 0x390
 8017d12:	2107      	movs	r1, #7
 8017d14:	4620      	mov	r0, r4
 8017d16:	f7ff fa84 	bl	8017222 <hw_cfg_pin>
 8017d1a:	f44f 7264 	mov.w	r2, #912	@ 0x390
 8017d1e:	2108      	movs	r1, #8
 8017d20:	4620      	mov	r0, r4
 8017d22:	f7ff fa7e 	bl	8017222 <hw_cfg_pin>
 8017d26:	f44f 7264 	mov.w	r2, #912	@ 0x390
 8017d2a:	2109      	movs	r1, #9
 8017d2c:	4620      	mov	r0, r4
 8017d2e:	f7ff fa78 	bl	8017222 <hw_cfg_pin>
 8017d32:	4d12      	ldr	r5, [pc, #72]	@ (8017d7c <hal_23lc1024_spi_init+0xa8>)
 8017d34:	f44f 7359 	mov.w	r3, #868	@ 0x364
 8017d38:	602b      	str	r3, [r5, #0]
 8017d3a:	2201      	movs	r2, #1
 8017d3c:	2107      	movs	r1, #7
 8017d3e:	4620      	mov	r0, r4
 8017d40:	f7ff fab8 	bl	80172b4 <hw_set_pin>
 8017d44:	2201      	movs	r2, #1
 8017d46:	2108      	movs	r1, #8
 8017d48:	4620      	mov	r0, r4
 8017d4a:	f7ff fab3 	bl	80172b4 <hw_set_pin>
 8017d4e:	2201      	movs	r2, #1
 8017d50:	2109      	movs	r1, #9
 8017d52:	4620      	mov	r0, r4
 8017d54:	f7ff faae 	bl	80172b4 <hw_set_pin>
 8017d58:	2001      	movs	r0, #1
 8017d5a:	f7ff ff9d 	bl	8017c98 <hal_23lc1024_spi_select1_set>
 8017d5e:	2001      	movs	r0, #1
 8017d60:	f7ff ffa4 	bl	8017cac <hal_23lc1024_spi_select2_set>
 8017d64:	2001      	movs	r0, #1
 8017d66:	f7ff ffab 	bl	8017cc0 <hal_23lc1024_spi_select3_set>
 8017d6a:	f44f 7353 	mov.w	r3, #844	@ 0x34c
 8017d6e:	602b      	str	r3, [r5, #0]
 8017d70:	bd38      	pop	{r3, r4, r5, pc}
 8017d72:	bf00      	nop
 8017d74:	40023800 	.word	0x40023800
 8017d78:	40020800 	.word	0x40020800
 8017d7c:	40003c00 	.word	0x40003c00

08017d80 <hal_23lc1024_spi_txrx>:
 8017d80:	4b07      	ldr	r3, [pc, #28]	@ (8017da0 <hal_23lc1024_spi_txrx+0x20>)
 8017d82:	689b      	ldr	r3, [r3, #8]
 8017d84:	f013 0f02 	tst.w	r3, #2
 8017d88:	d0fa      	beq.n	8017d80 <hal_23lc1024_spi_txrx>
 8017d8a:	4b05      	ldr	r3, [pc, #20]	@ (8017da0 <hal_23lc1024_spi_txrx+0x20>)
 8017d8c:	60d8      	str	r0, [r3, #12]
 8017d8e:	4b04      	ldr	r3, [pc, #16]	@ (8017da0 <hal_23lc1024_spi_txrx+0x20>)
 8017d90:	689b      	ldr	r3, [r3, #8]
 8017d92:	f013 0f01 	tst.w	r3, #1
 8017d96:	d0fa      	beq.n	8017d8e <hal_23lc1024_spi_txrx+0xe>
 8017d98:	4b01      	ldr	r3, [pc, #4]	@ (8017da0 <hal_23lc1024_spi_txrx+0x20>)
 8017d9a:	68d8      	ldr	r0, [r3, #12]
 8017d9c:	b2c0      	uxtb	r0, r0
 8017d9e:	4770      	bx	lr
 8017da0:	40003c00 	.word	0x40003c00

08017da4 <sd_init>:
 8017da4:	b510      	push	{r4, lr}
 8017da6:	4c03      	ldr	r4, [pc, #12]	@ (8017db4 <sd_init+0x10>)
 8017da8:	6823      	ldr	r3, [r4, #0]
 8017daa:	4798      	blx	r3
 8017dac:	68e3      	ldr	r3, [r4, #12]
 8017dae:	4798      	blx	r3
 8017db0:	6800      	ldr	r0, [r0, #0]
 8017db2:	bd10      	pop	{r4, pc}
 8017db4:	0801c688 	.word	0x0801c688

08017db8 <sd_readsector>:
 8017db8:	b508      	push	{r3, lr}
 8017dba:	4684      	mov	ip, r0
 8017dbc:	4608      	mov	r0, r1
 8017dbe:	4b03      	ldr	r3, [pc, #12]	@ (8017dcc <sd_readsector+0x14>)
 8017dc0:	685b      	ldr	r3, [r3, #4]
 8017dc2:	4661      	mov	r1, ip
 8017dc4:	4798      	blx	r3
 8017dc6:	2001      	movs	r0, #1
 8017dc8:	bd08      	pop	{r3, pc}
 8017dca:	bf00      	nop
 8017dcc:	0801c688 	.word	0x0801c688

08017dd0 <sd_writesector>:
 8017dd0:	b508      	push	{r3, lr}
 8017dd2:	4684      	mov	ip, r0
 8017dd4:	4608      	mov	r0, r1
 8017dd6:	4b03      	ldr	r3, [pc, #12]	@ (8017de4 <sd_writesector+0x14>)
 8017dd8:	689b      	ldr	r3, [r3, #8]
 8017dda:	4661      	mov	r1, ip
 8017ddc:	4798      	blx	r3
 8017dde:	2001      	movs	r0, #1
 8017de0:	bd08      	pop	{r3, pc}
 8017de2:	bf00      	nop
 8017de4:	0801c688 	.word	0x0801c688

08017de8 <fatfs_init>:
 8017de8:	e92d 47f0 	stmdb	sp!, {r4, r5, r6, r7, r8, r9, sl, lr}
 8017dec:	4604      	mov	r4, r0
 8017dee:	f04f 33ff 	mov.w	r3, #4294967295	@ 0xffffffff
 8017df2:	f8c0 3240 	str.w	r3, [r0, #576]	@ 0x240
 8017df6:	2300      	movs	r3, #0
 8017df8:	f8c0 3244 	str.w	r3, [r0, #580]	@ 0x244
 8017dfc:	6243      	str	r3, [r0, #36]	@ 0x24
 8017dfe:	f002 fc2d 	bl	801a65c <fatfs_fat_init>
 8017e02:	6b23      	ldr	r3, [r4, #48]	@ 0x30
 8017e04:	2b00      	cmp	r3, #0
 8017e06:	f000 80f8 	beq.w	8017ffa <fatfs_init+0x212>
 8017e0a:	f104 0540 	add.w	r5, r4, #64	@ 0x40
 8017e0e:	2201      	movs	r2, #1
 8017e10:	4629      	mov	r1, r5
 8017e12:	2000      	movs	r0, #0
 8017e14:	4798      	blx	r3
 8017e16:	2800      	cmp	r0, #0
 8017e18:	f000 80f2 	beq.w	8018000 <fatfs_init+0x218>
 8017e1c:	f8b4 223e 	ldrh.w	r2, [r4, #574]	@ 0x23e
 8017e20:	f64a 2355 	movw	r3, #43605	@ 0xaa55
 8017e24:	429a      	cmp	r2, r3
 8017e26:	f040 80ee 	bne.w	8018006 <fatfs_init+0x21e>
 8017e2a:	f894 223f 	ldrb.w	r2, [r4, #575]	@ 0x23f
 8017e2e:	f894 323e 	ldrb.w	r3, [r4, #574]	@ 0x23e
 8017e32:	eb03 2302 	add.w	r3, r3, r2, lsl #8
 8017e36:	f64a 2255 	movw	r2, #43605	@ 0xaa55
 8017e3a:	4293      	cmp	r3, r2
 8017e3c:	f040 80e6 	bne.w	801800c <fatfs_init+0x224>
 8017e40:	f894 3202 	ldrb.w	r3, [r4, #514]	@ 0x202
 8017e44:	2b0f      	cmp	r3, #15
 8017e46:	d809      	bhi.n	8017e5c <fatfs_init+0x74>
 8017e48:	e8df f003 	tbb	[pc, r3]
 8017e4c:	080808b0 	.word	0x080808b0
 8017e50:	080b0b08 	.word	0x080b0b08
 8017e54:	0b080808 	.word	0x0b080808
 8017e58:	0b0b080b 	.word	0x0b0b080b
 8017e5c:	2b06      	cmp	r3, #6
 8017e5e:	f200 80a5 	bhi.w	8017fac <fatfs_init+0x1c4>
 8017e62:	f894 2209 	ldrb.w	r2, [r4, #521]	@ 0x209
 8017e66:	f894 3208 	ldrb.w	r3, [r4, #520]	@ 0x208
 8017e6a:	041b      	lsls	r3, r3, #16
 8017e6c:	eb03 6302 	add.w	r3, r3, r2, lsl #24
 8017e70:	f894 2207 	ldrb.w	r2, [r4, #519]	@ 0x207
 8017e74:	eb03 2302 	add.w	r3, r3, r2, lsl #8
 8017e78:	f894 2206 	ldrb.w	r2, [r4, #518]	@ 0x206
 8017e7c:	4413      	add	r3, r2
 8017e7e:	61e3      	str	r3, [r4, #28]
 8017e80:	6b23      	ldr	r3, [r4, #48]	@ 0x30
 8017e82:	2201      	movs	r2, #1
 8017e84:	4629      	mov	r1, r5
 8017e86:	69e0      	ldr	r0, [r4, #28]
 8017e88:	4798      	blx	r3
 8017e8a:	2800      	cmp	r0, #0
 8017e8c:	f000 80c1 	beq.w	8018012 <fatfs_init+0x22a>
 8017e90:	f894 304c 	ldrb.w	r3, [r4, #76]	@ 0x4c
 8017e94:	f894 704b 	ldrb.w	r7, [r4, #75]	@ 0x4b
 8017e98:	eb07 2703 	add.w	r7, r7, r3, lsl #8
 8017e9c:	f5b7 7f00 	cmp.w	r7, #512	@ 0x200
 8017ea0:	f040 80ba 	bne.w	8018018 <fatfs_init+0x230>
 8017ea4:	f894 004d 	ldrb.w	r0, [r4, #77]	@ 0x4d
 8017ea8:	7020      	strb	r0, [r4, #0]
 8017eaa:	f894 e04f 	ldrb.w	lr, [r4, #79]	@ 0x4f
 8017eae:	f894 104e 	ldrb.w	r1, [r4, #78]	@ 0x4e
 8017eb2:	eb01 260e 	add.w	r6, r1, lr, lsl #8
 8017eb6:	b2b6      	uxth	r6, r6
 8017eb8:	f894 c050 	ldrb.w	ip, [r4, #80]	@ 0x50
 8017ebc:	f894 9052 	ldrb.w	r9, [r4, #82]	@ 0x52
 8017ec0:	f894 8051 	ldrb.w	r8, [r4, #81]	@ 0x51
 8017ec4:	eb08 2209 	add.w	r2, r8, r9, lsl #8
 8017ec8:	b292      	uxth	r2, r2
 8017eca:	8522      	strh	r2, [r4, #40]	@ 0x28
 8017ecc:	f894 5057 	ldrb.w	r5, [r4, #87]	@ 0x57
 8017ed0:	f894 3056 	ldrb.w	r3, [r4, #86]	@ 0x56
 8017ed4:	eb13 2305 	adds.w	r3, r3, r5, lsl #8
 8017ed8:	d06b      	beq.n	8017fb2 <fatfs_init+0x1ca>
 8017eda:	6223      	str	r3, [r4, #32]
 8017edc:	f894 a06f 	ldrb.w	sl, [r4, #111]	@ 0x6f
 8017ee0:	f894 506e 	ldrb.w	r5, [r4, #110]	@ 0x6e
 8017ee4:	042d      	lsls	r5, r5, #16
 8017ee6:	eb05 650a 	add.w	r5, r5, sl, lsl #24
 8017eea:	f894 a06d 	ldrb.w	sl, [r4, #109]	@ 0x6d
 8017eee:	eb05 250a 	add.w	r5, r5, sl, lsl #8
 8017ef2:	f894 a06c 	ldrb.w	sl, [r4, #108]	@ 0x6c
 8017ef6:	4455      	add	r5, sl
 8017ef8:	60a5      	str	r5, [r4, #8]
 8017efa:	f894 a071 	ldrb.w	sl, [r4, #113]	@ 0x71
 8017efe:	f894 5070 	ldrb.w	r5, [r4, #112]	@ 0x70
 8017f02:	eb05 250a 	add.w	r5, r5, sl, lsl #8
 8017f06:	8325      	strh	r5, [r4, #24]
 8017f08:	6a25      	ldr	r5, [r4, #32]
 8017f0a:	fb05 f50c 	mul.w	r5, r5, ip
 8017f0e:	eb06 0a05 	add.w	sl, r6, r5
 8017f12:	f8c4 a00c 	str.w	sl, [r4, #12]
 8017f16:	0152      	lsls	r2, r2, #5
 8017f18:	f202 12ff 	addw	r2, r2, #511	@ 0x1ff
 8017f1c:	1252      	asrs	r2, r2, #9
 8017f1e:	6122      	str	r2, [r4, #16]
 8017f20:	69e2      	ldr	r2, [r4, #28]
 8017f22:	4416      	add	r6, r2
 8017f24:	6166      	str	r6, [r4, #20]
 8017f26:	4435      	add	r5, r6
 8017f28:	6065      	str	r5, [r4, #4]
 8017f2a:	f894 523f 	ldrb.w	r5, [r4, #575]	@ 0x23f
 8017f2e:	f894 223e 	ldrb.w	r2, [r4, #574]	@ 0x23e
 8017f32:	eb02 2205 	add.w	r2, r2, r5, lsl #8
 8017f36:	f64a 2555 	movw	r5, #43605	@ 0xaa55
 8017f3a:	42aa      	cmp	r2, r5
 8017f3c:	d16f      	bne.n	801801e <fatfs_init+0x236>
 8017f3e:	eb08 2809 	add.w	r8, r8, r9, lsl #8
 8017f42:	1e7a      	subs	r2, r7, #1
 8017f44:	eb02 1248 	add.w	r2, r2, r8, lsl #5
 8017f48:	fb92 f2f7 	sdiv	r2, r2, r7
 8017f4c:	2b00      	cmp	r3, #0
 8017f4e:	d040      	beq.n	8017fd2 <fatfs_init+0x1ea>
 8017f50:	461d      	mov	r5, r3
 8017f52:	f894 6054 	ldrb.w	r6, [r4, #84]	@ 0x54
 8017f56:	f894 3053 	ldrb.w	r3, [r4, #83]	@ 0x53
 8017f5a:	eb13 2306 	adds.w	r3, r3, r6, lsl #8
 8017f5e:	d10d      	bne.n	8017f7c <fatfs_init+0x194>
 8017f60:	f894 6063 	ldrb.w	r6, [r4, #99]	@ 0x63
 8017f64:	f894 3062 	ldrb.w	r3, [r4, #98]	@ 0x62
 8017f68:	041b      	lsls	r3, r3, #16
 8017f6a:	eb03 6306 	add.w	r3, r3, r6, lsl #24
 8017f6e:	f894 6061 	ldrb.w	r6, [r4, #97]	@ 0x61
 8017f72:	eb03 2306 	add.w	r3, r3, r6, lsl #8
 8017f76:	f894 6060 	ldrb.w	r6, [r4, #96]	@ 0x60
 8017f7a:	4433      	add	r3, r6
 8017f7c:	eb01 210e 	add.w	r1, r1, lr, lsl #8
 8017f80:	fb05 110c 	mla	r1, r5, ip, r1
 8017f84:	4411      	add	r1, r2
 8017f86:	1a5b      	subs	r3, r3, r1
 8017f88:	2800      	cmp	r0, #0
 8017f8a:	d04b      	beq.n	8018024 <fatfs_init+0x23c>
 8017f8c:	fbb3 f3f0 	udiv	r3, r3, r0
 8017f90:	f640 72f4 	movw	r2, #4084	@ 0xff4
 8017f94:	4293      	cmp	r3, r2
 8017f96:	d948      	bls.n	801802a <fatfs_init+0x242>
 8017f98:	f64f 72f4 	movw	r2, #65524	@ 0xfff4
 8017f9c:	4293      	cmp	r3, r2
 8017f9e:	d827      	bhi.n	8017ff0 <fatfs_init+0x208>
 8017fa0:	2000      	movs	r0, #0
 8017fa2:	60a0      	str	r0, [r4, #8]
 8017fa4:	f884 002d 	strb.w	r0, [r4, #45]	@ 0x2d
 8017fa8:	e8bd 87f0 	ldmia.w	sp!, {r4, r5, r6, r7, r8, r9, sl, pc}
 8017fac:	2300      	movs	r3, #0
 8017fae:	61e3      	str	r3, [r4, #28]
 8017fb0:	e766      	b.n	8017e80 <fatfs_init+0x98>
 8017fb2:	f894 a067 	ldrb.w	sl, [r4, #103]	@ 0x67
 8017fb6:	f894 5066 	ldrb.w	r5, [r4, #102]	@ 0x66
 8017fba:	042d      	lsls	r5, r5, #16
 8017fbc:	eb05 650a 	add.w	r5, r5, sl, lsl #24
 8017fc0:	f894 a065 	ldrb.w	sl, [r4, #101]	@ 0x65
 8017fc4:	eb05 250a 	add.w	r5, r5, sl, lsl #8
 8017fc8:	f894 a064 	ldrb.w	sl, [r4, #100]	@ 0x64
 8017fcc:	4455      	add	r5, sl
 8017fce:	6225      	str	r5, [r4, #32]
 8017fd0:	e784      	b.n	8017edc <fatfs_init+0xf4>
 8017fd2:	f894 5067 	ldrb.w	r5, [r4, #103]	@ 0x67
 8017fd6:	f894 3066 	ldrb.w	r3, [r4, #102]	@ 0x66
 8017fda:	041b      	lsls	r3, r3, #16
 8017fdc:	eb03 6305 	add.w	r3, r3, r5, lsl #24
 8017fe0:	f894 5065 	ldrb.w	r5, [r4, #101]	@ 0x65
 8017fe4:	eb03 2305 	add.w	r3, r3, r5, lsl #8
 8017fe8:	f894 5064 	ldrb.w	r5, [r4, #100]	@ 0x64
 8017fec:	441d      	add	r5, r3
 8017fee:	e7b0      	b.n	8017f52 <fatfs_init+0x16a>
 8017ff0:	2301      	movs	r3, #1
 8017ff2:	f884 302d 	strb.w	r3, [r4, #45]	@ 0x2d
 8017ff6:	2000      	movs	r0, #0
 8017ff8:	e7d6      	b.n	8017fa8 <fatfs_init+0x1c0>
 8017ffa:	f04f 30ff 	mov.w	r0, #4294967295	@ 0xffffffff
 8017ffe:	e7d3      	b.n	8017fa8 <fatfs_init+0x1c0>
 8018000:	f04f 30ff 	mov.w	r0, #4294967295	@ 0xffffffff
 8018004:	e7d0      	b.n	8017fa8 <fatfs_init+0x1c0>
 8018006:	f06f 0002 	mvn.w	r0, #2
 801800a:	e7cd      	b.n	8017fa8 <fatfs_init+0x1c0>
 801800c:	f06f 0003 	mvn.w	r0, #3
 8018010:	e7ca      	b.n	8017fa8 <fatfs_init+0x1c0>
 8018012:	f04f 30ff 	mov.w	r0, #4294967295	@ 0xffffffff
 8018016:	e7c7      	b.n	8017fa8 <fatfs_init+0x1c0>
 8018018:	f06f 0001 	mvn.w	r0, #1
 801801c:	e7c4      	b.n	8017fa8 <fatfs_init+0x1c0>
 801801e:	f06f 0002 	mvn.w	r0, #2
 8018022:	e7c1      	b.n	8017fa8 <fatfs_init+0x1c0>
 8018024:	f06f 0004 	mvn.w	r0, #4
 8018028:	e7be      	b.n	8017fa8 <fatfs_init+0x1c0>
 801802a:	f06f 0004 	mvn.w	r0, #4
 801802e:	e7bb      	b.n	8017fa8 <fatfs_init+0x1c0>

08018030 <fatfs_lba_of_cluster>:
 8018030:	f890 302d 	ldrb.w	r3, [r0, #45]	@ 0x2d
 8018034:	b943      	cbnz	r3, 8018048 <fatfs_lba_of_cluster+0x18>
 8018036:	6843      	ldr	r3, [r0, #4]
 8018038:	8d02      	ldrh	r2, [r0, #40]	@ 0x28
 801803a:	eb03 1322 	add.w	r3, r3, r2, asr #4
 801803e:	3902      	subs	r1, #2
 8018040:	7802      	ldrb	r2, [r0, #0]
 8018042:	fb02 3001 	mla	r0, r2, r1, r3
 8018046:	4770      	bx	lr
 8018048:	6843      	ldr	r3, [r0, #4]
 801804a:	3902      	subs	r1, #2
 801804c:	7802      	ldrb	r2, [r0, #0]
 801804e:	fb02 3001 	mla	r0, r2, r1, r3
 8018052:	4770      	bx	lr

08018054 <fatfs_sector_read>:
 8018054:	b510      	push	{r4, lr}
 8018056:	4604      	mov	r4, r0
 8018058:	4608      	mov	r0, r1
 801805a:	4611      	mov	r1, r2
 801805c:	6b24      	ldr	r4, [r4, #48]	@ 0x30
 801805e:	461a      	mov	r2, r3
 8018060:	47a0      	blx	r4
 8018062:	bd10      	pop	{r4, pc}

08018064 <fatfs_sector_write>:
 8018064:	b510      	push	{r4, lr}
 8018066:	4604      	mov	r4, r0
 8018068:	4608      	mov	r0, r1
 801806a:	4611      	mov	r1, r2
 801806c:	6b64      	ldr	r4, [r4, #52]	@ 0x34
 801806e:	461a      	mov	r2, r3
 8018070:	47a0      	blx	r4
 8018072:	bd10      	pop	{r4, pc}

08018074 <fatfs_sector_reader>:
 8018074:	e92d 41f0 	stmdb	sp!, {r4, r5, r6, r7, r8, lr}
 8018078:	4605      	mov	r5, r0
 801807a:	4698      	mov	r8, r3
 801807c:	f890 302d 	ldrb.w	r3, [r0, #45]	@ 0x2d
 8018080:	b943      	cbnz	r3, 8018094 <fatfs_sector_reader+0x20>
 8018082:	b939      	cbnz	r1, 8018094 <fatfs_sector_reader+0x20>
 8018084:	6903      	ldr	r3, [r0, #16]
 8018086:	4293      	cmp	r3, r2
 8018088:	d92e      	bls.n	80180e8 <fatfs_sector_reader+0x74>
 801808a:	69c0      	ldr	r0, [r0, #28]
 801808c:	68eb      	ldr	r3, [r5, #12]
 801808e:	4418      	add	r0, r3
 8018090:	4410      	add	r0, r2
 8018092:	e014      	b.n	80180be <fatfs_sector_reader+0x4a>
 8018094:	782b      	ldrb	r3, [r5, #0]
 8018096:	fbb2 f6f3 	udiv	r6, r2, r3
 801809a:	fb06 2713 	mls	r7, r6, r3, r2
 801809e:	2400      	movs	r4, #0
 80180a0:	e004      	b.n	80180ac <fatfs_sector_reader+0x38>
 80180a2:	4628      	mov	r0, r5
 80180a4:	f002 fb1e 	bl	801a6e4 <fatfs_find_next_cluster>
 80180a8:	4601      	mov	r1, r0
 80180aa:	3401      	adds	r4, #1
 80180ac:	42b4      	cmp	r4, r6
 80180ae:	d3f8      	bcc.n	80180a2 <fatfs_sector_reader+0x2e>
 80180b0:	f1b1 3fff 	cmp.w	r1, #4294967295	@ 0xffffffff
 80180b4:	d01a      	beq.n	80180ec <fatfs_sector_reader+0x78>
 80180b6:	4628      	mov	r0, r5
 80180b8:	f7ff ffba 	bl	8018030 <fatfs_lba_of_cluster>
 80180bc:	4438      	add	r0, r7
 80180be:	f1b8 0f00 	cmp.w	r8, #0
 80180c2:	d005      	beq.n	80180d0 <fatfs_sector_reader+0x5c>
 80180c4:	6b2b      	ldr	r3, [r5, #48]	@ 0x30
 80180c6:	2201      	movs	r2, #1
 80180c8:	4641      	mov	r1, r8
 80180ca:	4798      	blx	r3
 80180cc:	e8bd 81f0 	ldmia.w	sp!, {r4, r5, r6, r7, r8, pc}
 80180d0:	f8d5 3240 	ldr.w	r3, [r5, #576]	@ 0x240
 80180d4:	4283      	cmp	r3, r0
 80180d6:	d00b      	beq.n	80180f0 <fatfs_sector_reader+0x7c>
 80180d8:	f8c5 0240 	str.w	r0, [r5, #576]	@ 0x240
 80180dc:	6b2b      	ldr	r3, [r5, #48]	@ 0x30
 80180de:	2201      	movs	r2, #1
 80180e0:	f105 0140 	add.w	r1, r5, #64	@ 0x40
 80180e4:	4798      	blx	r3
 80180e6:	e7f1      	b.n	80180cc <fatfs_sector_reader+0x58>
 80180e8:	2000      	movs	r0, #0
 80180ea:	e7ef      	b.n	80180cc <fatfs_sector_reader+0x58>
 80180ec:	2000      	movs	r0, #0
 80180ee:	e7ed      	b.n	80180cc <fatfs_sector_reader+0x58>
 80180f0:	2001      	movs	r0, #1
 80180f2:	e7eb      	b.n	80180cc <fatfs_sector_reader+0x58>

080180f4 <fatfs_read_sector>:
 80180f4:	b570      	push	{r4, r5, r6, lr}
 80180f6:	4604      	mov	r4, r0
 80180f8:	4616      	mov	r6, r2
 80180fa:	461d      	mov	r5, r3
 80180fc:	f890 302d 	ldrb.w	r3, [r0, #45]	@ 0x2d
 8018100:	b9ab      	cbnz	r3, 801812e <fatfs_read_sector+0x3a>
 8018102:	b9a1      	cbnz	r1, 801812e <fatfs_read_sector+0x3a>
 8018104:	6903      	ldr	r3, [r0, #16]
 8018106:	4293      	cmp	r3, r2
 8018108:	d927      	bls.n	801815a <fatfs_read_sector+0x66>
 801810a:	69c0      	ldr	r0, [r0, #28]
 801810c:	68e3      	ldr	r3, [r4, #12]
 801810e:	4418      	add	r0, r3
 8018110:	4410      	add	r0, r2
 8018112:	b125      	cbz	r5, 801811e <fatfs_read_sector+0x2a>
 8018114:	6b23      	ldr	r3, [r4, #48]	@ 0x30
 8018116:	2201      	movs	r2, #1
 8018118:	4629      	mov	r1, r5
 801811a:	4798      	blx	r3
 801811c:	e010      	b.n	8018140 <fatfs_read_sector+0x4c>
 801811e:	f8c4 0240 	str.w	r0, [r4, #576]	@ 0x240
 8018122:	6b23      	ldr	r3, [r4, #48]	@ 0x30
 8018124:	2201      	movs	r2, #1
 8018126:	f104 0140 	add.w	r1, r4, #64	@ 0x40
 801812a:	4798      	blx	r3
 801812c:	e008      	b.n	8018140 <fatfs_read_sector+0x4c>
 801812e:	b145      	cbz	r5, 8018142 <fatfs_read_sector+0x4e>
 8018130:	4620      	mov	r0, r4
 8018132:	f7ff ff7d 	bl	8018030 <fatfs_lba_of_cluster>
 8018136:	6b23      	ldr	r3, [r4, #48]	@ 0x30
 8018138:	2201      	movs	r2, #1
 801813a:	4629      	mov	r1, r5
 801813c:	4430      	add	r0, r6
 801813e:	4798      	blx	r3
 8018140:	bd70      	pop	{r4, r5, r6, pc}
 8018142:	4620      	mov	r0, r4
 8018144:	f7ff ff74 	bl	8018030 <fatfs_lba_of_cluster>
 8018148:	4430      	add	r0, r6
 801814a:	f8c4 0240 	str.w	r0, [r4, #576]	@ 0x240
 801814e:	6b23      	ldr	r3, [r4, #48]	@ 0x30
 8018150:	2201      	movs	r2, #1
 8018152:	f104 0140 	add.w	r1, r4, #64	@ 0x40
 8018156:	4798      	blx	r3
 8018158:	e7f2      	b.n	8018140 <fatfs_read_sector+0x4c>
 801815a:	2000      	movs	r0, #0
 801815c:	e7f0      	b.n	8018140 <fatfs_read_sector+0x4c>

0801815e <fatfs_write_sector>:
 801815e:	b5f8      	push	{r3, r4, r5, r6, r7, lr}
 8018160:	6b46      	ldr	r6, [r0, #52]	@ 0x34
 8018162:	b36e      	cbz	r6, 80181c0 <fatfs_write_sector+0x62>
 8018164:	4604      	mov	r4, r0
 8018166:	4617      	mov	r7, r2
 8018168:	461d      	mov	r5, r3
 801816a:	f890 302d 	ldrb.w	r3, [r0, #45]	@ 0x2d
 801816e:	b99b      	cbnz	r3, 8018198 <fatfs_write_sector+0x3a>
 8018170:	b991      	cbnz	r1, 8018198 <fatfs_write_sector+0x3a>
 8018172:	6903      	ldr	r3, [r0, #16]
 8018174:	4293      	cmp	r3, r2
 8018176:	d925      	bls.n	80181c4 <fatfs_write_sector+0x66>
 8018178:	69c0      	ldr	r0, [r0, #28]
 801817a:	68e3      	ldr	r3, [r4, #12]
 801817c:	4418      	add	r0, r3
 801817e:	4410      	add	r0, r2
 8018180:	b11d      	cbz	r5, 801818a <fatfs_write_sector+0x2c>
 8018182:	2201      	movs	r2, #1
 8018184:	4629      	mov	r1, r5
 8018186:	47b0      	blx	r6
 8018188:	e00e      	b.n	80181a8 <fatfs_write_sector+0x4a>
 801818a:	f8c4 0240 	str.w	r0, [r4, #576]	@ 0x240
 801818e:	2201      	movs	r2, #1
 8018190:	f104 0140 	add.w	r1, r4, #64	@ 0x40
 8018194:	47b0      	blx	r6
 8018196:	e007      	b.n	80181a8 <fatfs_write_sector+0x4a>
 8018198:	b13d      	cbz	r5, 80181aa <fatfs_write_sector+0x4c>
 801819a:	4620      	mov	r0, r4
 801819c:	f7ff ff48 	bl	8018030 <fatfs_lba_of_cluster>
 80181a0:	2201      	movs	r2, #1
 80181a2:	4629      	mov	r1, r5
 80181a4:	4438      	add	r0, r7
 80181a6:	47b0      	blx	r6
 80181a8:	bdf8      	pop	{r3, r4, r5, r6, r7, pc}
 80181aa:	4620      	mov	r0, r4
 80181ac:	f7ff ff40 	bl	8018030 <fatfs_lba_of_cluster>
 80181b0:	4438      	add	r0, r7
 80181b2:	f8c4 0240 	str.w	r0, [r4, #576]	@ 0x240
 80181b6:	2201      	movs	r2, #1
 80181b8:	f104 0140 	add.w	r1, r4, #64	@ 0x40
 80181bc:	47b0      	blx	r6
 80181be:	e7f3      	b.n	80181a8 <fatfs_write_sector+0x4a>
 80181c0:	2000      	movs	r0, #0
 80181c2:	e7f1      	b.n	80181a8 <fatfs_write_sector+0x4a>
 80181c4:	2000      	movs	r0, #0
 80181c6:	e7ef      	b.n	80181a8 <fatfs_write_sector+0x4a>

080181c8 <fatfs_show_details>:
 80181c8:	b510      	push	{r4, lr}
 80181ca:	4604      	mov	r4, r0
 80181cc:	480e      	ldr	r0, [pc, #56]	@ (8018208 <fatfs_show_details+0x40>)
 80181ce:	f7fa f929 	bl	8012424 <printf>
 80181d2:	f894 302d 	ldrb.w	r3, [r4, #45]	@ 0x2d
 80181d6:	2b01      	cmp	r3, #1
 80181d8:	d014      	beq.n	8018204 <fatfs_show_details+0x3c>
 80181da:	490c      	ldr	r1, [pc, #48]	@ (801820c <fatfs_show_details+0x44>)
 80181dc:	480c      	ldr	r0, [pc, #48]	@ (8018210 <fatfs_show_details+0x48>)
 80181de:	f7fa f921 	bl	8012424 <printf>
 80181e2:	68a1      	ldr	r1, [r4, #8]
 80181e4:	480b      	ldr	r0, [pc, #44]	@ (8018214 <fatfs_show_details+0x4c>)
 80181e6:	f7fa f91d 	bl	8012424 <printf>
 80181ea:	6961      	ldr	r1, [r4, #20]
 80181ec:	480a      	ldr	r0, [pc, #40]	@ (8018218 <fatfs_show_details+0x50>)
 80181ee:	f7fa f919 	bl	8012424 <printf>
 80181f2:	6861      	ldr	r1, [r4, #4]
 80181f4:	4809      	ldr	r0, [pc, #36]	@ (801821c <fatfs_show_details+0x54>)
 80181f6:	f7fa f915 	bl	8012424 <printf>
 80181fa:	7821      	ldrb	r1, [r4, #0]
 80181fc:	4808      	ldr	r0, [pc, #32]	@ (8018220 <fatfs_show_details+0x58>)
 80181fe:	f7fa f911 	bl	8012424 <printf>
 8018202:	bd10      	pop	{r4, pc}
 8018204:	4907      	ldr	r1, [pc, #28]	@ (8018224 <fatfs_show_details+0x5c>)
 8018206:	e7e9      	b.n	80181dc <fatfs_show_details+0x14>
 8018208:	0801d424 	.word	0x0801d424
 801820c:	0801d41c 	.word	0x0801d41c
 8018210:	0801d434 	.word	0x0801d434
 8018214:	0801d440 	.word	0x0801d440
 8018218:	0801d460 	.word	0x0801d460
 801821c:	0801d478 	.word	0x0801d478
 8018220:	0801d494 	.word	0x0801d494
 8018224:	0801d414 	.word	0x0801d414

08018228 <fatfs_get_root_cluster>:
 8018228:	6880      	ldr	r0, [r0, #8]
 801822a:	4770      	bx	lr

0801822c <fatfs_get_file_entry>:
 801822c:	e92d 4ff0 	stmdb	sp!, {r4, r5, r6, r7, r8, r9, sl, fp, lr}
 8018230:	b0c7      	sub	sp, #284	@ 0x11c
 8018232:	4606      	mov	r6, r0
 8018234:	4689      	mov	r9, r1
 8018236:	4690      	mov	r8, r2
 8018238:	469a      	mov	sl, r3
 801823a:	2101      	movs	r1, #1
 801823c:	4668      	mov	r0, sp
 801823e:	f001 fdd7 	bl	8019df0 <fatfs_lfn_cache_init>
 8018242:	2700      	movs	r7, #0
 8018244:	463a      	mov	r2, r7
 8018246:	2300      	movs	r3, #0
 8018248:	3701      	adds	r7, #1
 801824a:	4649      	mov	r1, r9
 801824c:	4630      	mov	r0, r6
 801824e:	f7ff ff11 	bl	8018074 <fatfs_sector_reader>
 8018252:	b398      	cbz	r0, 80182bc <fatfs_get_file_entry+0x90>
 8018254:	2400      	movs	r4, #0
 8018256:	e009      	b.n	801826c <fatfs_get_file_entry+0x40>
 8018258:	4628      	mov	r0, r5
 801825a:	f001 fe45 	bl	8019ee8 <fatfs_entry_lfn_invalid>
 801825e:	b1a8      	cbz	r0, 801828c <fatfs_get_file_entry+0x60>
 8018260:	2100      	movs	r1, #0
 8018262:	4668      	mov	r0, sp
 8018264:	f001 fdc4 	bl	8019df0 <fatfs_lfn_cache_init>
 8018268:	3401      	adds	r4, #1
 801826a:	b2e4      	uxtb	r4, r4
 801826c:	2c0f      	cmp	r4, #15
 801826e:	d8e9      	bhi.n	8018244 <fatfs_get_file_entry+0x18>
 8018270:	f106 0540 	add.w	r5, r6, #64	@ 0x40
 8018274:	eb05 1544 	add.w	r5, r5, r4, lsl #5
 8018278:	4628      	mov	r0, r5
 801827a:	f001 fe2c 	bl	8019ed6 <fatfs_entry_lfn_text>
 801827e:	2800      	cmp	r0, #0
 8018280:	d0ea      	beq.n	8018258 <fatfs_get_file_entry+0x2c>
 8018282:	4629      	mov	r1, r5
 8018284:	4668      	mov	r0, sp
 8018286:	f001 fdc9 	bl	8019e1c <fatfs_lfn_cache_entry>
 801828a:	e7ed      	b.n	8018268 <fatfs_get_file_entry+0x3c>
 801828c:	4629      	mov	r1, r5
 801828e:	4668      	mov	r0, sp
 8018290:	f001 fe3e 	bl	8019f10 <fatfs_entry_lfn_exists>
 8018294:	4683      	mov	fp, r0
 8018296:	b1a0      	cbz	r0, 80182c2 <fatfs_get_file_entry+0x96>
 8018298:	4668      	mov	r0, sp
 801829a:	f001 fe09 	bl	8019eb0 <fatfs_lfn_cache_get>
 801829e:	4641      	mov	r1, r8
 80182a0:	f002 f889 	bl	801a3b6 <fatfs_compare_names>
 80182a4:	b920      	cbnz	r0, 80182b0 <fatfs_get_file_entry+0x84>
 80182a6:	2100      	movs	r1, #0
 80182a8:	4668      	mov	r0, sp
 80182aa:	f001 fda1 	bl	8019df0 <fatfs_lfn_cache_init>
 80182ae:	e7db      	b.n	8018268 <fatfs_get_file_entry+0x3c>
 80182b0:	2220      	movs	r2, #32
 80182b2:	4629      	mov	r1, r5
 80182b4:	4650      	mov	r0, sl
 80182b6:	f7fa fbbd 	bl	8012a34 <memcpy>
 80182ba:	2001      	movs	r0, #1
 80182bc:	b047      	add	sp, #284	@ 0x11c
 80182be:	e8bd 8ff0 	ldmia.w	sp!, {r4, r5, r6, r7, r8, r9, sl, fp, pc}
 80182c2:	4628      	mov	r0, r5
 80182c4:	f001 fe41 	bl	8019f4a <fatfs_entry_sfn_only>
 80182c8:	2800      	cmp	r0, #0
 80182ca:	d0cd      	beq.n	8018268 <fatfs_get_file_entry+0x3c>
 80182cc:	220d      	movs	r2, #13
 80182ce:	2100      	movs	r1, #0
 80182d0:	a842      	add	r0, sp, #264	@ 0x108
 80182d2:	f7fa fba8 	bl	8012a26 <memset>
 80182d6:	2300      	movs	r3, #0
 80182d8:	e007      	b.n	80182ea <fatfs_get_file_entry+0xbe>
 80182da:	5ce9      	ldrb	r1, [r5, r3]
 80182dc:	f503 728c 	add.w	r2, r3, #280	@ 0x118
 80182e0:	446a      	add	r2, sp
 80182e2:	f802 1c10 	strb.w	r1, [r2, #-16]
 80182e6:	3301      	adds	r3, #1
 80182e8:	b2db      	uxtb	r3, r3
 80182ea:	2b07      	cmp	r3, #7
 80182ec:	d9f5      	bls.n	80182da <fatfs_get_file_entry+0xae>
 80182ee:	2308      	movs	r3, #8
 80182f0:	e001      	b.n	80182f6 <fatfs_get_file_entry+0xca>
 80182f2:	3301      	adds	r3, #1
 80182f4:	b2db      	uxtb	r3, r3
 80182f6:	2b0a      	cmp	r3, #10
 80182f8:	d80a      	bhi.n	8018310 <fatfs_get_file_entry+0xe4>
 80182fa:	5ce9      	ldrb	r1, [r5, r3]
 80182fc:	f203 1219 	addw	r2, r3, #281	@ 0x119
 8018300:	446a      	add	r2, sp
 8018302:	f802 1c10 	strb.w	r1, [r2, #-16]
 8018306:	2920      	cmp	r1, #32
 8018308:	d0f3      	beq.n	80182f2 <fatfs_get_file_entry+0xc6>
 801830a:	f04f 0b01 	mov.w	fp, #1
 801830e:	e7f0      	b.n	80182f2 <fatfs_get_file_entry+0xc6>
 8018310:	f1bb 0f00 	cmp.w	fp, #0
 8018314:	d00b      	beq.n	801832e <fatfs_get_file_entry+0x102>
 8018316:	f89d 3108 	ldrb.w	r3, [sp, #264]	@ 0x108
 801831a:	2b2e      	cmp	r3, #46	@ 0x2e
 801831c:	d003      	beq.n	8018326 <fatfs_get_file_entry+0xfa>
 801831e:	232e      	movs	r3, #46	@ 0x2e
 8018320:	f88d 3110 	strb.w	r3, [sp, #272]	@ 0x110
 8018324:	e006      	b.n	8018334 <fatfs_get_file_entry+0x108>
 8018326:	2320      	movs	r3, #32
 8018328:	f88d 3110 	strb.w	r3, [sp, #272]	@ 0x110
 801832c:	e002      	b.n	8018334 <fatfs_get_file_entry+0x108>
 801832e:	2320      	movs	r3, #32
 8018330:	f88d 3110 	strb.w	r3, [sp, #272]	@ 0x110
 8018334:	4641      	mov	r1, r8
 8018336:	a842      	add	r0, sp, #264	@ 0x108
 8018338:	f002 f83d 	bl	801a3b6 <fatfs_compare_names>
 801833c:	b920      	cbnz	r0, 8018348 <fatfs_get_file_entry+0x11c>
 801833e:	2100      	movs	r1, #0
 8018340:	4668      	mov	r0, sp
 8018342:	f001 fd55 	bl	8019df0 <fatfs_lfn_cache_init>
 8018346:	e78f      	b.n	8018268 <fatfs_get_file_entry+0x3c>
 8018348:	2220      	movs	r2, #32
 801834a:	4629      	mov	r1, r5
 801834c:	4650      	mov	r0, sl
 801834e:	f7fa fb71 	bl	8012a34 <memcpy>
 8018352:	2001      	movs	r0, #1
 8018354:	e7b2      	b.n	80182bc <fatfs_get_file_entry+0x90>

08018356 <fatfs_sfn_exists>:
 8018356:	e92d 43f8 	stmdb	sp!, {r3, r4, r5, r6, r7, r8, r9, lr}
 801835a:	4606      	mov	r6, r0
 801835c:	4688      	mov	r8, r1
 801835e:	4691      	mov	r9, r2
 8018360:	2700      	movs	r7, #0
 8018362:	463a      	mov	r2, r7
 8018364:	2300      	movs	r3, #0
 8018366:	3701      	adds	r7, #1
 8018368:	4641      	mov	r1, r8
 801836a:	4630      	mov	r0, r6
 801836c:	f7ff fe82 	bl	8018074 <fatfs_sector_reader>
 8018370:	4603      	mov	r3, r0
 8018372:	b300      	cbz	r0, 80183b6 <fatfs_sfn_exists+0x60>
 8018374:	2400      	movs	r4, #0
 8018376:	e001      	b.n	801837c <fatfs_sfn_exists+0x26>
 8018378:	3401      	adds	r4, #1
 801837a:	b2e4      	uxtb	r4, r4
 801837c:	2c0f      	cmp	r4, #15
 801837e:	d8f0      	bhi.n	8018362 <fatfs_sfn_exists+0xc>
 8018380:	f106 0540 	add.w	r5, r6, #64	@ 0x40
 8018384:	eb05 1544 	add.w	r5, r5, r4, lsl #5
 8018388:	4628      	mov	r0, r5
 801838a:	f001 fda4 	bl	8019ed6 <fatfs_entry_lfn_text>
 801838e:	2800      	cmp	r0, #0
 8018390:	d1f2      	bne.n	8018378 <fatfs_sfn_exists+0x22>
 8018392:	4628      	mov	r0, r5
 8018394:	f001 fda8 	bl	8019ee8 <fatfs_entry_lfn_invalid>
 8018398:	2800      	cmp	r0, #0
 801839a:	d1ed      	bne.n	8018378 <fatfs_sfn_exists+0x22>
 801839c:	4628      	mov	r0, r5
 801839e:	f001 fdd4 	bl	8019f4a <fatfs_entry_sfn_only>
 80183a2:	2800      	cmp	r0, #0
 80183a4:	d0e8      	beq.n	8018378 <fatfs_sfn_exists+0x22>
 80183a6:	220b      	movs	r2, #11
 80183a8:	4649      	mov	r1, r9
 80183aa:	4628      	mov	r0, r5
 80183ac:	f7fa fba2 	bl	8012af4 <strncmp>
 80183b0:	2800      	cmp	r0, #0
 80183b2:	d1e1      	bne.n	8018378 <fatfs_sfn_exists+0x22>
 80183b4:	2301      	movs	r3, #1
 80183b6:	4618      	mov	r0, r3
 80183b8:	e8bd 83f8 	ldmia.w	sp!, {r3, r4, r5, r6, r7, r8, r9, pc}

080183bc <fatfs_update_file_length>:
 80183bc:	e92d 4ff8 	stmdb	sp!, {r3, r4, r5, r6, r7, r8, r9, sl, fp, lr}
 80183c0:	469b      	mov	fp, r3
 80183c2:	6b43      	ldr	r3, [r0, #52]	@ 0x34
 80183c4:	2b00      	cmp	r3, #0
 80183c6:	d03f      	beq.n	8018448 <fatfs_update_file_length+0x8c>
 80183c8:	4607      	mov	r7, r0
 80183ca:	4689      	mov	r9, r1
 80183cc:	4692      	mov	sl, r2
 80183ce:	f04f 0800 	mov.w	r8, #0
 80183d2:	4642      	mov	r2, r8
 80183d4:	2300      	movs	r3, #0
 80183d6:	f108 0801 	add.w	r8, r8, #1
 80183da:	4649      	mov	r1, r9
 80183dc:	4638      	mov	r0, r7
 80183de:	f7ff fe49 	bl	8018074 <fatfs_sector_reader>
 80183e2:	4603      	mov	r3, r0
 80183e4:	b368      	cbz	r0, 8018442 <fatfs_update_file_length+0x86>
 80183e6:	2400      	movs	r4, #0
 80183e8:	e001      	b.n	80183ee <fatfs_update_file_length+0x32>
 80183ea:	3401      	adds	r4, #1
 80183ec:	b2e4      	uxtb	r4, r4
 80183ee:	2c0f      	cmp	r4, #15
 80183f0:	d8ef      	bhi.n	80183d2 <fatfs_update_file_length+0x16>
 80183f2:	f107 0640 	add.w	r6, r7, #64	@ 0x40
 80183f6:	eb06 1544 	add.w	r5, r6, r4, lsl #5
 80183fa:	4628      	mov	r0, r5
 80183fc:	f001 fd6b 	bl	8019ed6 <fatfs_entry_lfn_text>
 8018400:	2800      	cmp	r0, #0
 8018402:	d1f2      	bne.n	80183ea <fatfs_update_file_length+0x2e>
 8018404:	4628      	mov	r0, r5
 8018406:	f001 fd6f 	bl	8019ee8 <fatfs_entry_lfn_invalid>
 801840a:	2800      	cmp	r0, #0
 801840c:	d1ed      	bne.n	80183ea <fatfs_update_file_length+0x2e>
 801840e:	4628      	mov	r0, r5
 8018410:	f001 fd9b 	bl	8019f4a <fatfs_entry_sfn_only>
 8018414:	2800      	cmp	r0, #0
 8018416:	d0e8      	beq.n	80183ea <fatfs_update_file_length+0x2e>
 8018418:	220b      	movs	r2, #11
 801841a:	4651      	mov	r1, sl
 801841c:	4628      	mov	r0, r5
 801841e:	f7fa fb69 	bl	8012af4 <strncmp>
 8018422:	2800      	cmp	r0, #0
 8018424:	d1e1      	bne.n	80183ea <fatfs_update_file_length+0x2e>
 8018426:	f8c5 b01c 	str.w	fp, [r5, #28]
 801842a:	2220      	movs	r2, #32
 801842c:	4629      	mov	r1, r5
 801842e:	4628      	mov	r0, r5
 8018430:	f7fa fb00 	bl	8012a34 <memcpy>
 8018434:	6b7b      	ldr	r3, [r7, #52]	@ 0x34
 8018436:	2201      	movs	r2, #1
 8018438:	4631      	mov	r1, r6
 801843a:	f8d7 0240 	ldr.w	r0, [r7, #576]	@ 0x240
 801843e:	4798      	blx	r3
 8018440:	4603      	mov	r3, r0
 8018442:	4618      	mov	r0, r3
 8018444:	e8bd 8ff8 	ldmia.w	sp!, {r3, r4, r5, r6, r7, r8, r9, sl, fp, pc}
 8018448:	2300      	movs	r3, #0
 801844a:	e7fa      	b.n	8018442 <fatfs_update_file_length+0x86>

0801844c <fatfs_mark_file_deleted>:
 801844c:	e92d 4ff8 	stmdb	sp!, {r3, r4, r5, r6, r7, r8, r9, sl, fp, lr}
 8018450:	6b43      	ldr	r3, [r0, #52]	@ 0x34
 8018452:	2b00      	cmp	r3, #0
 8018454:	d042      	beq.n	80184dc <fatfs_mark_file_deleted+0x90>
 8018456:	4607      	mov	r7, r0
 8018458:	468a      	mov	sl, r1
 801845a:	4693      	mov	fp, r2
 801845c:	f04f 0900 	mov.w	r9, #0
 8018460:	464a      	mov	r2, r9
 8018462:	2300      	movs	r3, #0
 8018464:	f109 0901 	add.w	r9, r9, #1
 8018468:	4651      	mov	r1, sl
 801846a:	4638      	mov	r0, r7
 801846c:	f7ff fe02 	bl	8018074 <fatfs_sector_reader>
 8018470:	4603      	mov	r3, r0
 8018472:	b380      	cbz	r0, 80184d6 <fatfs_mark_file_deleted+0x8a>
 8018474:	2400      	movs	r4, #0
 8018476:	e001      	b.n	801847c <fatfs_mark_file_deleted+0x30>
 8018478:	3401      	adds	r4, #1
 801847a:	b2e4      	uxtb	r4, r4
 801847c:	2c0f      	cmp	r4, #15
 801847e:	d8ef      	bhi.n	8018460 <fatfs_mark_file_deleted+0x14>
 8018480:	ea4f 1844 	mov.w	r8, r4, lsl #5
 8018484:	f107 0640 	add.w	r6, r7, #64	@ 0x40
 8018488:	eb06 1544 	add.w	r5, r6, r4, lsl #5
 801848c:	4628      	mov	r0, r5
 801848e:	f001 fd22 	bl	8019ed6 <fatfs_entry_lfn_text>
 8018492:	2800      	cmp	r0, #0
 8018494:	d1f0      	bne.n	8018478 <fatfs_mark_file_deleted+0x2c>
 8018496:	4628      	mov	r0, r5
 8018498:	f001 fd26 	bl	8019ee8 <fatfs_entry_lfn_invalid>
 801849c:	2800      	cmp	r0, #0
 801849e:	d1eb      	bne.n	8018478 <fatfs_mark_file_deleted+0x2c>
 80184a0:	4628      	mov	r0, r5
 80184a2:	f001 fd52 	bl	8019f4a <fatfs_entry_sfn_only>
 80184a6:	2800      	cmp	r0, #0
 80184a8:	d0e6      	beq.n	8018478 <fatfs_mark_file_deleted+0x2c>
 80184aa:	220b      	movs	r2, #11
 80184ac:	4659      	mov	r1, fp
 80184ae:	4628      	mov	r0, r5
 80184b0:	f7fa fb20 	bl	8012af4 <strncmp>
 80184b4:	2800      	cmp	r0, #0
 80184b6:	d1df      	bne.n	8018478 <fatfs_mark_file_deleted+0x2c>
 80184b8:	23e5      	movs	r3, #229	@ 0xe5
 80184ba:	f806 3008 	strb.w	r3, [r6, r8]
 80184be:	2220      	movs	r2, #32
 80184c0:	4629      	mov	r1, r5
 80184c2:	4628      	mov	r0, r5
 80184c4:	f7fa fab6 	bl	8012a34 <memcpy>
 80184c8:	6b7b      	ldr	r3, [r7, #52]	@ 0x34
 80184ca:	2201      	movs	r2, #1
 80184cc:	4631      	mov	r1, r6
 80184ce:	f8d7 0240 	ldr.w	r0, [r7, #576]	@ 0x240
 80184d2:	4798      	blx	r3
 80184d4:	4603      	mov	r3, r0
 80184d6:	4618      	mov	r0, r3
 80184d8:	e8bd 8ff8 	ldmia.w	sp!, {r3, r4, r5, r6, r7, r8, r9, sl, fp, pc}
 80184dc:	2300      	movs	r3, #0
 80184de:	e7fa      	b.n	80184d6 <fatfs_mark_file_deleted+0x8a>

080184e0 <fatfs_list_directory_start>:
 80184e0:	604a      	str	r2, [r1, #4]
 80184e2:	2300      	movs	r3, #0
 80184e4:	600b      	str	r3, [r1, #0]
 80184e6:	720b      	strb	r3, [r1, #8]
 80184e8:	4770      	bx	lr

080184ea <fatfs_list_directory_next>:
 80184ea:	e92d 43f0 	stmdb	sp!, {r4, r5, r6, r7, r8, r9, lr}
 80184ee:	b0c7      	sub	sp, #284	@ 0x11c
 80184f0:	4606      	mov	r6, r0
 80184f2:	460f      	mov	r7, r1
 80184f4:	4690      	mov	r8, r2
 80184f6:	2100      	movs	r1, #0
 80184f8:	4668      	mov	r0, sp
 80184fa:	f001 fc79 	bl	8019df0 <fatfs_lfn_cache_init>
 80184fe:	e0a1      	b.n	8018644 <fatfs_list_directory_next+0x15a>
 8018500:	4628      	mov	r0, r5
 8018502:	f001 fcf1 	bl	8019ee8 <fatfs_entry_lfn_invalid>
 8018506:	b1b0      	cbz	r0, 8018536 <fatfs_list_directory_next+0x4c>
 8018508:	2100      	movs	r1, #0
 801850a:	4668      	mov	r0, sp
 801850c:	f001 fc70 	bl	8019df0 <fatfs_lfn_cache_init>
 8018510:	3401      	adds	r4, #1
 8018512:	b2e4      	uxtb	r4, r4
 8018514:	2c0f      	cmp	r4, #15
 8018516:	f200 8090 	bhi.w	801863a <fatfs_list_directory_next+0x150>
 801851a:	f106 0540 	add.w	r5, r6, #64	@ 0x40
 801851e:	eb05 1544 	add.w	r5, r5, r4, lsl #5
 8018522:	4628      	mov	r0, r5
 8018524:	f001 fcd7 	bl	8019ed6 <fatfs_entry_lfn_text>
 8018528:	2800      	cmp	r0, #0
 801852a:	d0e9      	beq.n	8018500 <fatfs_list_directory_next+0x16>
 801852c:	4629      	mov	r1, r5
 801852e:	4668      	mov	r0, sp
 8018530:	f001 fc74 	bl	8019e1c <fatfs_lfn_cache_entry>
 8018534:	e7ec      	b.n	8018510 <fatfs_list_directory_next+0x26>
 8018536:	4629      	mov	r1, r5
 8018538:	4668      	mov	r0, sp
 801853a:	f001 fce9 	bl	8019f10 <fatfs_entry_lfn_exists>
 801853e:	4681      	mov	r9, r0
 8018540:	b978      	cbnz	r0, 8018562 <fatfs_list_directory_next+0x78>
 8018542:	4628      	mov	r0, r5
 8018544:	f001 fd01 	bl	8019f4a <fatfs_entry_sfn_only>
 8018548:	2800      	cmp	r0, #0
 801854a:	d0e1      	beq.n	8018510 <fatfs_list_directory_next+0x26>
 801854c:	2100      	movs	r1, #0
 801854e:	4668      	mov	r0, sp
 8018550:	f001 fc4e 	bl	8019df0 <fatfs_lfn_cache_init>
 8018554:	220d      	movs	r2, #13
 8018556:	2100      	movs	r1, #0
 8018558:	a842      	add	r0, sp, #264	@ 0x108
 801855a:	f7fa fa64 	bl	8012a26 <memset>
 801855e:	2300      	movs	r3, #0
 8018560:	e02a      	b.n	80185b8 <fatfs_list_directory_next+0xce>
 8018562:	4668      	mov	r0, sp
 8018564:	f001 fca4 	bl	8019eb0 <fatfs_lfn_cache_get>
 8018568:	4601      	mov	r1, r0
 801856a:	223f      	movs	r2, #63	@ 0x3f
 801856c:	4640      	mov	r0, r8
 801856e:	f7fa fadc 	bl	8012b2a <strncpy>
 8018572:	4628      	mov	r0, r5
 8018574:	f001 fd01 	bl	8019f7a <fatfs_entry_is_dir>
 8018578:	b190      	cbz	r0, 80185a0 <fatfs_list_directory_next+0xb6>
 801857a:	2301      	movs	r3, #1
 801857c:	f888 3040 	strb.w	r3, [r8, #64]	@ 0x40
 8018580:	69eb      	ldr	r3, [r5, #28]
 8018582:	f8c8 3048 	str.w	r3, [r8, #72]	@ 0x48
 8018586:	8aaa      	ldrh	r2, [r5, #20]
 8018588:	8b6b      	ldrh	r3, [r5, #26]
 801858a:	ea43 4302 	orr.w	r3, r3, r2, lsl #16
 801858e:	f8c8 3044 	str.w	r3, [r8, #68]	@ 0x44
 8018592:	3401      	adds	r4, #1
 8018594:	723c      	strb	r4, [r7, #8]
 8018596:	2301      	movs	r3, #1
 8018598:	4618      	mov	r0, r3
 801859a:	b047      	add	sp, #284	@ 0x11c
 801859c:	e8bd 83f0 	ldmia.w	sp!, {r4, r5, r6, r7, r8, r9, pc}
 80185a0:	2300      	movs	r3, #0
 80185a2:	f888 3040 	strb.w	r3, [r8, #64]	@ 0x40
 80185a6:	e7eb      	b.n	8018580 <fatfs_list_directory_next+0x96>
 80185a8:	5ce9      	ldrb	r1, [r5, r3]
 80185aa:	f503 728c 	add.w	r2, r3, #280	@ 0x118
 80185ae:	446a      	add	r2, sp
 80185b0:	f802 1c10 	strb.w	r1, [r2, #-16]
 80185b4:	3301      	adds	r3, #1
 80185b6:	b2db      	uxtb	r3, r3
 80185b8:	2b07      	cmp	r3, #7
 80185ba:	d9f5      	bls.n	80185a8 <fatfs_list_directory_next+0xbe>
 80185bc:	2308      	movs	r3, #8
 80185be:	e001      	b.n	80185c4 <fatfs_list_directory_next+0xda>
 80185c0:	3301      	adds	r3, #1
 80185c2:	b2db      	uxtb	r3, r3
 80185c4:	2b0a      	cmp	r3, #10
 80185c6:	d80a      	bhi.n	80185de <fatfs_list_directory_next+0xf4>
 80185c8:	5ce9      	ldrb	r1, [r5, r3]
 80185ca:	f203 1219 	addw	r2, r3, #281	@ 0x119
 80185ce:	446a      	add	r2, sp
 80185d0:	f802 1c10 	strb.w	r1, [r2, #-16]
 80185d4:	2920      	cmp	r1, #32
 80185d6:	d0f3      	beq.n	80185c0 <fatfs_list_directory_next+0xd6>
 80185d8:	f04f 0901 	mov.w	r9, #1
 80185dc:	e7f0      	b.n	80185c0 <fatfs_list_directory_next+0xd6>
 80185de:	f1b9 0f00 	cmp.w	r9, #0
 80185e2:	d00b      	beq.n	80185fc <fatfs_list_directory_next+0x112>
 80185e4:	f89d 3108 	ldrb.w	r3, [sp, #264]	@ 0x108
 80185e8:	2b2e      	cmp	r3, #46	@ 0x2e
 80185ea:	d003      	beq.n	80185f4 <fatfs_list_directory_next+0x10a>
 80185ec:	232e      	movs	r3, #46	@ 0x2e
 80185ee:	f88d 3110 	strb.w	r3, [sp, #272]	@ 0x110
 80185f2:	e006      	b.n	8018602 <fatfs_list_directory_next+0x118>
 80185f4:	2320      	movs	r3, #32
 80185f6:	f88d 3110 	strb.w	r3, [sp, #272]	@ 0x110
 80185fa:	e002      	b.n	8018602 <fatfs_list_directory_next+0x118>
 80185fc:	2320      	movs	r3, #32
 80185fe:	f88d 3110 	strb.w	r3, [sp, #272]	@ 0x110
 8018602:	a942      	add	r1, sp, #264	@ 0x108
 8018604:	4640      	mov	r0, r8
 8018606:	f001 ff40 	bl	801a48a <fatfs_get_sfn_display_name>
 801860a:	4628      	mov	r0, r5
 801860c:	f001 fcb5 	bl	8019f7a <fatfs_entry_is_dir>
 8018610:	b178      	cbz	r0, 8018632 <fatfs_list_directory_next+0x148>
 8018612:	2301      	movs	r3, #1
 8018614:	f888 3040 	strb.w	r3, [r8, #64]	@ 0x40
 8018618:	69eb      	ldr	r3, [r5, #28]
 801861a:	f8c8 3048 	str.w	r3, [r8, #72]	@ 0x48
 801861e:	8aaa      	ldrh	r2, [r5, #20]
 8018620:	8b6b      	ldrh	r3, [r5, #26]
 8018622:	ea43 4302 	orr.w	r3, r3, r2, lsl #16
 8018626:	f8c8 3044 	str.w	r3, [r8, #68]	@ 0x44
 801862a:	3401      	adds	r4, #1
 801862c:	723c      	strb	r4, [r7, #8]
 801862e:	2301      	movs	r3, #1
 8018630:	e7b2      	b.n	8018598 <fatfs_list_directory_next+0xae>
 8018632:	2300      	movs	r3, #0
 8018634:	f888 3040 	strb.w	r3, [r8, #64]	@ 0x40
 8018638:	e7ee      	b.n	8018618 <fatfs_list_directory_next+0x12e>
 801863a:	683b      	ldr	r3, [r7, #0]
 801863c:	3301      	adds	r3, #1
 801863e:	603b      	str	r3, [r7, #0]
 8018640:	2300      	movs	r3, #0
 8018642:	723b      	strb	r3, [r7, #8]
 8018644:	2300      	movs	r3, #0
 8018646:	683a      	ldr	r2, [r7, #0]
 8018648:	6879      	ldr	r1, [r7, #4]
 801864a:	4630      	mov	r0, r6
 801864c:	f7ff fd12 	bl	8018074 <fatfs_sector_reader>
 8018650:	4603      	mov	r3, r0
 8018652:	2800      	cmp	r0, #0
 8018654:	d0a0      	beq.n	8018598 <fatfs_list_directory_next+0xae>
 8018656:	7a3c      	ldrb	r4, [r7, #8]
 8018658:	e75c      	b.n	8018514 <fatfs_list_directory_next+0x2a>
 801865a:	bf00      	nop

0801865c <fatfs_cache_init>:
 801865c:	2001      	movs	r0, #1
 801865e:	4770      	bx	lr

08018660 <fatfs_cache_get_next_cluster>:
 8018660:	2000      	movs	r0, #0
 8018662:	4770      	bx	lr

08018664 <fatfs_cache_set_next_cluster>:
 8018664:	2001      	movs	r0, #1
 8018666:	4770      	bx	lr

08018668 <fat_list_init>:
 8018668:	2300      	movs	r3, #0
 801866a:	6043      	str	r3, [r0, #4]
 801866c:	6003      	str	r3, [r0, #0]
 801866e:	4770      	bx	lr

08018670 <fat_list_remove>:
 8018670:	680b      	ldr	r3, [r1, #0]
 8018672:	b133      	cbz	r3, 8018682 <fat_list_remove+0x12>
 8018674:	684a      	ldr	r2, [r1, #4]
 8018676:	605a      	str	r2, [r3, #4]
 8018678:	684b      	ldr	r3, [r1, #4]
 801867a:	b12b      	cbz	r3, 8018688 <fat_list_remove+0x18>
 801867c:	680a      	ldr	r2, [r1, #0]
 801867e:	601a      	str	r2, [r3, #0]
 8018680:	4770      	bx	lr
 8018682:	684b      	ldr	r3, [r1, #4]
 8018684:	6003      	str	r3, [r0, #0]
 8018686:	e7f7      	b.n	8018678 <fat_list_remove+0x8>
 8018688:	680b      	ldr	r3, [r1, #0]
 801868a:	6043      	str	r3, [r0, #4]
 801868c:	4770      	bx	lr

0801868e <fat_list_insert_after>:
 801868e:	6011      	str	r1, [r2, #0]
 8018690:	684b      	ldr	r3, [r1, #4]
 8018692:	6053      	str	r3, [r2, #4]
 8018694:	b113      	cbz	r3, 801869c <fat_list_insert_after+0xe>
 8018696:	601a      	str	r2, [r3, #0]
 8018698:	604a      	str	r2, [r1, #4]
 801869a:	4770      	bx	lr
 801869c:	6042      	str	r2, [r0, #4]
 801869e:	e7fb      	b.n	8018698 <fat_list_insert_after+0xa>

080186a0 <fat_list_insert_before>:
 80186a0:	680b      	ldr	r3, [r1, #0]
 80186a2:	6013      	str	r3, [r2, #0]
 80186a4:	6051      	str	r1, [r2, #4]
 80186a6:	680b      	ldr	r3, [r1, #0]
 80186a8:	b113      	cbz	r3, 80186b0 <fat_list_insert_before+0x10>
 80186aa:	605a      	str	r2, [r3, #4]
 80186ac:	600a      	str	r2, [r1, #0]
 80186ae:	4770      	bx	lr
 80186b0:	6002      	str	r2, [r0, #0]
 80186b2:	e7fb      	b.n	80186ac <fat_list_insert_before+0xc>

080186b4 <fat_list_insert_first>:
 80186b4:	b508      	push	{r3, lr}
 80186b6:	460a      	mov	r2, r1
 80186b8:	6801      	ldr	r1, [r0, #0]
 80186ba:	b111      	cbz	r1, 80186c2 <fat_list_insert_first+0xe>
 80186bc:	f7ff fff0 	bl	80186a0 <fat_list_insert_before>
 80186c0:	bd08      	pop	{r3, pc}
 80186c2:	6002      	str	r2, [r0, #0]
 80186c4:	6042      	str	r2, [r0, #4]
 80186c6:	2300      	movs	r3, #0
 80186c8:	6013      	str	r3, [r2, #0]
 80186ca:	6053      	str	r3, [r2, #4]
 80186cc:	e7f8      	b.n	80186c0 <fat_list_insert_first+0xc>

080186ce <fat_list_insert_last>:
 80186ce:	b508      	push	{r3, lr}
 80186d0:	460a      	mov	r2, r1
 80186d2:	6841      	ldr	r1, [r0, #4]
 80186d4:	b111      	cbz	r1, 80186dc <fat_list_insert_last+0xe>
 80186d6:	f7ff ffda 	bl	801868e <fat_list_insert_after>
 80186da:	bd08      	pop	{r3, pc}
 80186dc:	4611      	mov	r1, r2
 80186de:	f7ff ffe9 	bl	80186b4 <fat_list_insert_first>
 80186e2:	e7fa      	b.n	80186da <fat_list_insert_last+0xc>

080186e4 <fat_list_pop_head>:
 80186e4:	b510      	push	{r4, lr}
 80186e6:	6804      	ldr	r4, [r0, #0]
 80186e8:	b114      	cbz	r4, 80186f0 <fat_list_pop_head+0xc>
 80186ea:	4621      	mov	r1, r4
 80186ec:	f7ff ffc0 	bl	8018670 <fat_list_remove>
 80186f0:	4620      	mov	r0, r4
 80186f2:	bd10      	pop	{r4, pc}

080186f4 <_allocate_file>:
 80186f4:	b510      	push	{r4, lr}
 80186f6:	4806      	ldr	r0, [pc, #24]	@ (8018710 <_allocate_file+0x1c>)
 80186f8:	f7ff fff4 	bl	80186e4 <fat_list_pop_head>
 80186fc:	4604      	mov	r4, r0
 80186fe:	b128      	cbz	r0, 801870c <_allocate_file+0x18>
 8018700:	4601      	mov	r1, r0
 8018702:	4804      	ldr	r0, [pc, #16]	@ (8018714 <_allocate_file+0x20>)
 8018704:	f7ff ffe3 	bl	80186ce <fat_list_insert_last>
 8018708:	f5a4 742d 	sub.w	r4, r4, #692	@ 0x2b4
 801870c:	4620      	mov	r0, r4
 801870e:	bd10      	pop	{r4, pc}
 8018710:	20001e44 	.word	0x20001e44
 8018714:	20001e4c 	.word	0x20001e4c

08018718 <_free_file>:
 8018718:	b538      	push	{r3, r4, r5, lr}
 801871a:	f500 742d 	add.w	r4, r0, #692	@ 0x2b4
 801871e:	4d05      	ldr	r5, [pc, #20]	@ (8018734 <_free_file+0x1c>)
 8018720:	4621      	mov	r1, r4
 8018722:	f105 0008 	add.w	r0, r5, #8
 8018726:	f7ff ffa3 	bl	8018670 <fat_list_remove>
 801872a:	4621      	mov	r1, r4
 801872c:	4628      	mov	r0, r5
 801872e:	f7ff ffce 	bl	80186ce <fat_list_insert_last>
 8018732:	bd38      	pop	{r3, r4, r5, pc}
 8018734:	20001e44 	.word	0x20001e44

08018738 <_check_file_open>:
 8018738:	b570      	push	{r4, r5, r6, lr}
 801873a:	4606      	mov	r6, r0
 801873c:	4b0e      	ldr	r3, [pc, #56]	@ (8018778 <_check_file_open+0x40>)
 801873e:	689c      	ldr	r4, [r3, #8]
 8018740:	e000      	b.n	8018744 <_check_file_open+0xc>
 8018742:	6864      	ldr	r4, [r4, #4]
 8018744:	b1ac      	cbz	r4, 8018772 <_check_file_open+0x3a>
 8018746:	f5a4 752d 	sub.w	r5, r4, #692	@ 0x2b4
 801874a:	42b5      	cmp	r5, r6
 801874c:	d0f9      	beq.n	8018742 <_check_file_open+0xa>
 801874e:	f106 0114 	add.w	r1, r6, #20
 8018752:	f5a4 7028 	sub.w	r0, r4, #672	@ 0x2a0
 8018756:	f001 fe2e 	bl	801a3b6 <fatfs_compare_names>
 801875a:	2800      	cmp	r0, #0
 801875c:	d0f1      	beq.n	8018742 <_check_file_open+0xa>
 801875e:	f106 0154 	add.w	r1, r6, #84	@ 0x54
 8018762:	f5a4 7018 	sub.w	r0, r4, #608	@ 0x260
 8018766:	f001 fe26 	bl	801a3b6 <fatfs_compare_names>
 801876a:	2800      	cmp	r0, #0
 801876c:	d0e9      	beq.n	8018742 <_check_file_open+0xa>
 801876e:	2001      	movs	r0, #1
 8018770:	e000      	b.n	8018774 <_check_file_open+0x3c>
 8018772:	2000      	movs	r0, #0
 8018774:	bd70      	pop	{r4, r5, r6, pc}
 8018776:	bf00      	nop
 8018778:	20001e44 	.word	0x20001e44

0801877c <_open_directory>:
 801877c:	e92d 41f0 	stmdb	sp!, {r4, r5, r6, r7, r8, lr}
 8018780:	b098      	sub	sp, #96	@ 0x60
 8018782:	4606      	mov	r6, r0
 8018784:	460f      	mov	r7, r1
 8018786:	4819      	ldr	r0, [pc, #100]	@ (80187ec <_open_directory+0x70>)
 8018788:	f7ff fd4e 	bl	8018228 <fatfs_get_root_cluster>
 801878c:	4604      	mov	r4, r0
 801878e:	4630      	mov	r0, r6
 8018790:	f001 fd70 	bl	801a274 <fatfs_total_path_levels>
 8018794:	4680      	mov	r8, r0
 8018796:	2500      	movs	r5, #0
 8018798:	4545      	cmp	r5, r8
 801879a:	dc1c      	bgt.n	80187d6 <_open_directory+0x5a>
 801879c:	2340      	movs	r3, #64	@ 0x40
 801879e:	aa08      	add	r2, sp, #32
 80187a0:	4629      	mov	r1, r5
 80187a2:	4630      	mov	r0, r6
 80187a4:	f001 fd8a 	bl	801a2bc <fatfs_get_substring>
 80187a8:	f1b0 3fff 	cmp.w	r0, #4294967295	@ 0xffffffff
 80187ac:	d019      	beq.n	80187e2 <_open_directory+0x66>
 80187ae:	466b      	mov	r3, sp
 80187b0:	aa08      	add	r2, sp, #32
 80187b2:	4621      	mov	r1, r4
 80187b4:	480d      	ldr	r0, [pc, #52]	@ (80187ec <_open_directory+0x70>)
 80187b6:	f7ff fd39 	bl	801822c <fatfs_get_file_entry>
 80187ba:	b1a0      	cbz	r0, 80187e6 <_open_directory+0x6a>
 80187bc:	4668      	mov	r0, sp
 80187be:	f001 fbdc 	bl	8019f7a <fatfs_entry_is_dir>
 80187c2:	4603      	mov	r3, r0
 80187c4:	b148      	cbz	r0, 80187da <_open_directory+0x5e>
 80187c6:	f8bd 3014 	ldrh.w	r3, [sp, #20]
 80187ca:	f8bd 401a 	ldrh.w	r4, [sp, #26]
 80187ce:	eb04 4403 	add.w	r4, r4, r3, lsl #16
 80187d2:	3501      	adds	r5, #1
 80187d4:	e7e0      	b.n	8018798 <_open_directory+0x1c>
 80187d6:	603c      	str	r4, [r7, #0]
 80187d8:	2301      	movs	r3, #1
 80187da:	4618      	mov	r0, r3
 80187dc:	b018      	add	sp, #96	@ 0x60
 80187de:	e8bd 81f0 	ldmia.w	sp!, {r4, r5, r6, r7, r8, pc}
 80187e2:	2300      	movs	r3, #0
 80187e4:	e7f9      	b.n	80187da <_open_directory+0x5e>
 80187e6:	2300      	movs	r3, #0
 80187e8:	e7f7      	b.n	80187da <_open_directory+0x5e>
 80187ea:	bf00      	nop
 80187ec:	20001e54 	.word	0x20001e54

080187f0 <_create_file>:
 80187f0:	b5f0      	push	{r4, r5, r6, r7, lr}
 80187f2:	b091      	sub	sp, #68	@ 0x44
 80187f4:	4b5e      	ldr	r3, [pc, #376]	@ (8018970 <_create_file+0x180>)
 80187f6:	6c5b      	ldr	r3, [r3, #68]	@ 0x44
 80187f8:	2b00      	cmp	r3, #0
 80187fa:	f000 80b6 	beq.w	801896a <_create_file+0x17a>
 80187fe:	4604      	mov	r4, r0
 8018800:	f7ff ff78 	bl	80186f4 <_allocate_file>
 8018804:	4606      	mov	r6, r0
 8018806:	2800      	cmp	r0, #0
 8018808:	f000 809a 	beq.w	8018940 <_create_file+0x150>
 801880c:	f100 0514 	add.w	r5, r0, #20
 8018810:	2240      	movs	r2, #64	@ 0x40
 8018812:	2100      	movs	r1, #0
 8018814:	4628      	mov	r0, r5
 8018816:	f7fa f906 	bl	8012a26 <memset>
 801881a:	f106 0754 	add.w	r7, r6, #84	@ 0x54
 801881e:	2240      	movs	r2, #64	@ 0x40
 8018820:	2100      	movs	r1, #0
 8018822:	4638      	mov	r0, r7
 8018824:	f7fa f8ff 	bl	8012a26 <memset>
 8018828:	2240      	movs	r2, #64	@ 0x40
 801882a:	9200      	str	r2, [sp, #0]
 801882c:	463b      	mov	r3, r7
 801882e:	4629      	mov	r1, r5
 8018830:	4620      	mov	r0, r4
 8018832:	f001 fd8c 	bl	801a34e <fatfs_split_path>
 8018836:	f1b0 3fff 	cmp.w	r0, #4294967295	@ 0xffffffff
 801883a:	d021      	beq.n	8018880 <_create_file+0x90>
 801883c:	4630      	mov	r0, r6
 801883e:	f7ff ff7b 	bl	8018738 <_check_file_open>
 8018842:	4604      	mov	r4, r0
 8018844:	bb08      	cbnz	r0, 801888a <_create_file+0x9a>
 8018846:	7d33      	ldrb	r3, [r6, #20]
 8018848:	bb23      	cbnz	r3, 8018894 <_create_file+0xa4>
 801884a:	484a      	ldr	r0, [pc, #296]	@ (8018974 <_create_file+0x184>)
 801884c:	f7ff fcec 	bl	8018228 <fatfs_get_root_cluster>
 8018850:	6030      	str	r0, [r6, #0]
 8018852:	ab08      	add	r3, sp, #32
 8018854:	463a      	mov	r2, r7
 8018856:	6831      	ldr	r1, [r6, #0]
 8018858:	4846      	ldr	r0, [pc, #280]	@ (8018974 <_create_file+0x184>)
 801885a:	f7ff fce7 	bl	801822c <fatfs_get_file_entry>
 801885e:	2801      	cmp	r0, #1
 8018860:	d023      	beq.n	80188aa <_create_file+0xba>
 8018862:	4632      	mov	r2, r6
 8018864:	2300      	movs	r3, #0
 8018866:	f842 3f04 	str.w	r3, [r2, #4]!
 801886a:	2301      	movs	r3, #1
 801886c:	4619      	mov	r1, r3
 801886e:	4841      	ldr	r0, [pc, #260]	@ (8018974 <_create_file+0x184>)
 8018870:	f002 f961 	bl	801ab36 <fatfs_allocate_free_space>
 8018874:	bb88      	cbnz	r0, 80188da <_create_file+0xea>
 8018876:	4630      	mov	r0, r6
 8018878:	f7ff ff4e 	bl	8018718 <_free_file>
 801887c:	2600      	movs	r6, #0
 801887e:	e05f      	b.n	8018940 <_create_file+0x150>
 8018880:	4630      	mov	r0, r6
 8018882:	f7ff ff49 	bl	8018718 <_free_file>
 8018886:	2600      	movs	r6, #0
 8018888:	e05a      	b.n	8018940 <_create_file+0x150>
 801888a:	4630      	mov	r0, r6
 801888c:	f7ff ff44 	bl	8018718 <_free_file>
 8018890:	2600      	movs	r6, #0
 8018892:	e055      	b.n	8018940 <_create_file+0x150>
 8018894:	4631      	mov	r1, r6
 8018896:	4628      	mov	r0, r5
 8018898:	f7ff ff70 	bl	801877c <_open_directory>
 801889c:	2800      	cmp	r0, #0
 801889e:	d1d8      	bne.n	8018852 <_create_file+0x62>
 80188a0:	4630      	mov	r0, r6
 80188a2:	f7ff ff39 	bl	8018718 <_free_file>
 80188a6:	2600      	movs	r6, #0
 80188a8:	e04a      	b.n	8018940 <_create_file+0x150>
 80188aa:	4630      	mov	r0, r6
 80188ac:	f7ff ff34 	bl	8018718 <_free_file>
 80188b0:	2600      	movs	r6, #0
 80188b2:	e045      	b.n	8018940 <_create_file+0x150>
 80188b4:	4622      	mov	r2, r4
 80188b6:	a905      	add	r1, sp, #20
 80188b8:	f106 0094 	add.w	r0, r6, #148	@ 0x94
 80188bc:	f001 fc6d 	bl	801a19a <fatfs_lfn_generate_tail>
 80188c0:	4635      	mov	r5, r6
 80188c2:	f855 1b94 	ldr.w	r1, [r5], #148
 80188c6:	462a      	mov	r2, r5
 80188c8:	482a      	ldr	r0, [pc, #168]	@ (8018974 <_create_file+0x184>)
 80188ca:	f7ff fd44 	bl	8018356 <fatfs_sfn_exists>
 80188ce:	b188      	cbz	r0, 80188f4 <_create_file+0x104>
 80188d0:	3401      	adds	r4, #1
 80188d2:	f242 730e 	movw	r3, #9998	@ 0x270e
 80188d6:	429c      	cmp	r4, r3
 80188d8:	dc0c      	bgt.n	80188f4 <_create_file+0x104>
 80188da:	4639      	mov	r1, r7
 80188dc:	a805      	add	r0, sp, #20
 80188de:	f001 fbf6 	bl	801a0ce <fatfs_lfn_create_sfn>
 80188e2:	2c00      	cmp	r4, #0
 80188e4:	d1e6      	bne.n	80188b4 <_create_file+0xc4>
 80188e6:	220b      	movs	r2, #11
 80188e8:	a905      	add	r1, sp, #20
 80188ea:	f106 0094 	add.w	r0, r6, #148	@ 0x94
 80188ee:	f7fa f8a1 	bl	8012a34 <memcpy>
 80188f2:	e7e5      	b.n	80188c0 <_create_file+0xd0>
 80188f4:	f242 730f 	movw	r3, #9999	@ 0x270f
 80188f8:	429c      	cmp	r4, r3
 80188fa:	d024      	beq.n	8018946 <_create_file+0x156>
 80188fc:	6831      	ldr	r1, [r6, #0]
 80188fe:	2300      	movs	r3, #0
 8018900:	9302      	str	r3, [sp, #8]
 8018902:	9301      	str	r3, [sp, #4]
 8018904:	6873      	ldr	r3, [r6, #4]
 8018906:	9300      	str	r3, [sp, #0]
 8018908:	462b      	mov	r3, r5
 801890a:	463a      	mov	r2, r7
 801890c:	4819      	ldr	r0, [pc, #100]	@ (8018974 <_create_file+0x184>)
 801890e:	f002 f951 	bl	801abb4 <fatfs_add_file_entry>
 8018912:	b308      	cbz	r0, 8018958 <_create_file+0x168>
 8018914:	2300      	movs	r3, #0
 8018916:	60f3      	str	r3, [r6, #12]
 8018918:	60b3      	str	r3, [r6, #8]
 801891a:	f04f 32ff 	mov.w	r2, #4294967295	@ 0xffffffff
 801891e:	f8c6 22a8 	str.w	r2, [r6, #680]	@ 0x2a8
 8018922:	f8c6 32ac 	str.w	r3, [r6, #684]	@ 0x2ac
 8018926:	6133      	str	r3, [r6, #16]
 8018928:	f8c6 20a0 	str.w	r2, [r6, #160]	@ 0xa0
 801892c:	f8c6 20a4 	str.w	r2, [r6, #164]	@ 0xa4
 8018930:	4c10      	ldr	r4, [pc, #64]	@ (8018974 <_create_file+0x184>)
 8018932:	4631      	mov	r1, r6
 8018934:	4620      	mov	r0, r4
 8018936:	f7ff fe91 	bl	801865c <fatfs_cache_init>
 801893a:	4620      	mov	r0, r4
 801893c:	f001 febb 	bl	801a6b6 <fatfs_fat_purge>
 8018940:	4630      	mov	r0, r6
 8018942:	b011      	add	sp, #68	@ 0x44
 8018944:	bdf0      	pop	{r4, r5, r6, r7, pc}
 8018946:	6871      	ldr	r1, [r6, #4]
 8018948:	480a      	ldr	r0, [pc, #40]	@ (8018974 <_create_file+0x184>)
 801894a:	f001 ffce 	bl	801a8ea <fatfs_free_cluster_chain>
 801894e:	4630      	mov	r0, r6
 8018950:	f7ff fee2 	bl	8018718 <_free_file>
 8018954:	2600      	movs	r6, #0
 8018956:	e7f3      	b.n	8018940 <_create_file+0x150>
 8018958:	6871      	ldr	r1, [r6, #4]
 801895a:	4806      	ldr	r0, [pc, #24]	@ (8018974 <_create_file+0x184>)
 801895c:	f001 ffc5 	bl	801a8ea <fatfs_free_cluster_chain>
 8018960:	4630      	mov	r0, r6
 8018962:	f7ff fed9 	bl	8018718 <_free_file>
 8018966:	2600      	movs	r6, #0
 8018968:	e7ea      	b.n	8018940 <_create_file+0x150>
 801896a:	2600      	movs	r6, #0
 801896c:	e7e8      	b.n	8018940 <_create_file+0x150>
 801896e:	bf00      	nop
 8018970:	20001e44 	.word	0x20001e44
 8018974:	20001e54 	.word	0x20001e54

08018978 <_open_file>:
 8018978:	b5f0      	push	{r4, r5, r6, r7, lr}
 801897a:	b08b      	sub	sp, #44	@ 0x2c
 801897c:	4605      	mov	r5, r0
 801897e:	f7ff feb9 	bl	80186f4 <_allocate_file>
 8018982:	4604      	mov	r4, r0
 8018984:	b380      	cbz	r0, 80189e8 <_open_file+0x70>
 8018986:	f100 0714 	add.w	r7, r0, #20
 801898a:	2240      	movs	r2, #64	@ 0x40
 801898c:	2100      	movs	r1, #0
 801898e:	4638      	mov	r0, r7
 8018990:	f7fa f849 	bl	8012a26 <memset>
 8018994:	f104 0654 	add.w	r6, r4, #84	@ 0x54
 8018998:	2240      	movs	r2, #64	@ 0x40
 801899a:	2100      	movs	r1, #0
 801899c:	4630      	mov	r0, r6
 801899e:	f7fa f842 	bl	8012a26 <memset>
 80189a2:	2240      	movs	r2, #64	@ 0x40
 80189a4:	9200      	str	r2, [sp, #0]
 80189a6:	4633      	mov	r3, r6
 80189a8:	4639      	mov	r1, r7
 80189aa:	4628      	mov	r0, r5
 80189ac:	f001 fccf 	bl	801a34e <fatfs_split_path>
 80189b0:	f1b0 3fff 	cmp.w	r0, #4294967295	@ 0xffffffff
 80189b4:	d01b      	beq.n	80189ee <_open_file+0x76>
 80189b6:	4620      	mov	r0, r4
 80189b8:	f7ff febe 	bl	8018738 <_check_file_open>
 80189bc:	b9e0      	cbnz	r0, 80189f8 <_open_file+0x80>
 80189be:	7d23      	ldrb	r3, [r4, #20]
 80189c0:	b9fb      	cbnz	r3, 8018a02 <_open_file+0x8a>
 80189c2:	4828      	ldr	r0, [pc, #160]	@ (8018a64 <_open_file+0xec>)
 80189c4:	f7ff fc30 	bl	8018228 <fatfs_get_root_cluster>
 80189c8:	6020      	str	r0, [r4, #0]
 80189ca:	ab02      	add	r3, sp, #8
 80189cc:	4632      	mov	r2, r6
 80189ce:	6821      	ldr	r1, [r4, #0]
 80189d0:	4824      	ldr	r0, [pc, #144]	@ (8018a64 <_open_file+0xec>)
 80189d2:	f7ff fc2b 	bl	801822c <fatfs_get_file_entry>
 80189d6:	b118      	cbz	r0, 80189e0 <_open_file+0x68>
 80189d8:	a802      	add	r0, sp, #8
 80189da:	f001 fad6 	bl	8019f8a <fatfs_entry_is_file>
 80189de:	b9d8      	cbnz	r0, 8018a18 <_open_file+0xa0>
 80189e0:	4620      	mov	r0, r4
 80189e2:	f7ff fe99 	bl	8018718 <_free_file>
 80189e6:	2400      	movs	r4, #0
 80189e8:	4620      	mov	r0, r4
 80189ea:	b00b      	add	sp, #44	@ 0x2c
 80189ec:	bdf0      	pop	{r4, r5, r6, r7, pc}
 80189ee:	4620      	mov	r0, r4
 80189f0:	f7ff fe92 	bl	8018718 <_free_file>
 80189f4:	2400      	movs	r4, #0
 80189f6:	e7f7      	b.n	80189e8 <_open_file+0x70>
 80189f8:	4620      	mov	r0, r4
 80189fa:	f7ff fe8d 	bl	8018718 <_free_file>
 80189fe:	2400      	movs	r4, #0
 8018a00:	e7f2      	b.n	80189e8 <_open_file+0x70>
 8018a02:	4621      	mov	r1, r4
 8018a04:	4638      	mov	r0, r7
 8018a06:	f7ff feb9 	bl	801877c <_open_directory>
 8018a0a:	2800      	cmp	r0, #0
 8018a0c:	d1dd      	bne.n	80189ca <_open_file+0x52>
 8018a0e:	4620      	mov	r0, r4
 8018a10:	f7ff fe82 	bl	8018718 <_free_file>
 8018a14:	2400      	movs	r4, #0
 8018a16:	e7e7      	b.n	80189e8 <_open_file+0x70>
 8018a18:	220b      	movs	r2, #11
 8018a1a:	a902      	add	r1, sp, #8
 8018a1c:	f104 0094 	add.w	r0, r4, #148	@ 0x94
 8018a20:	f7fa f808 	bl	8012a34 <memcpy>
 8018a24:	9b09      	ldr	r3, [sp, #36]	@ 0x24
 8018a26:	60e3      	str	r3, [r4, #12]
 8018a28:	2200      	movs	r2, #0
 8018a2a:	60a2      	str	r2, [r4, #8]
 8018a2c:	f8bd 101c 	ldrh.w	r1, [sp, #28]
 8018a30:	f8bd 3022 	ldrh.w	r3, [sp, #34]	@ 0x22
 8018a34:	eb03 4301 	add.w	r3, r3, r1, lsl #16
 8018a38:	6063      	str	r3, [r4, #4]
 8018a3a:	f04f 33ff 	mov.w	r3, #4294967295	@ 0xffffffff
 8018a3e:	f8c4 32a8 	str.w	r3, [r4, #680]	@ 0x2a8
 8018a42:	f8c4 22ac 	str.w	r2, [r4, #684]	@ 0x2ac
 8018a46:	6122      	str	r2, [r4, #16]
 8018a48:	f8c4 30a0 	str.w	r3, [r4, #160]	@ 0xa0
 8018a4c:	f8c4 30a4 	str.w	r3, [r4, #164]	@ 0xa4
 8018a50:	4d04      	ldr	r5, [pc, #16]	@ (8018a64 <_open_file+0xec>)
 8018a52:	4621      	mov	r1, r4
 8018a54:	4628      	mov	r0, r5
 8018a56:	f7ff fe01 	bl	801865c <fatfs_cache_init>
 8018a5a:	4628      	mov	r0, r5
 8018a5c:	f001 fe2b 	bl	801a6b6 <fatfs_fat_purge>
 8018a60:	e7c2      	b.n	80189e8 <_open_file+0x70>
 8018a62:	bf00      	nop
 8018a64:	20001e54 	.word	0x20001e54

08018a68 <_write_sectors>:
 8018a68:	e92d 4ff0 	stmdb	sp!, {r4, r5, r6, r7, r8, r9, sl, fp, lr}
 8018a6c:	b085      	sub	sp, #20
 8018a6e:	4606      	mov	r6, r0
 8018a70:	9201      	str	r2, [sp, #4]
 8018a72:	469a      	mov	sl, r3
 8018a74:	f04f 33ff 	mov.w	r3, #4294967295	@ 0xffffffff
 8018a78:	9303      	str	r3, [sp, #12]
 8018a7a:	4b36      	ldr	r3, [pc, #216]	@ (8018b54 <_write_sectors+0xec>)
 8018a7c:	7c1b      	ldrb	r3, [r3, #16]
 8018a7e:	fbb1 f7f3 	udiv	r7, r1, r3
 8018a82:	fb07 f803 	mul.w	r8, r7, r3
 8018a86:	eba1 0b08 	sub.w	fp, r1, r8
 8018a8a:	eb0a 020b 	add.w	r2, sl, fp
 8018a8e:	4293      	cmp	r3, r2
 8018a90:	d203      	bcs.n	8018a9a <_write_sectors+0x32>
 8018a92:	eba8 0801 	sub.w	r8, r8, r1
 8018a96:	4498      	add	r8, r3
 8018a98:	e000      	b.n	8018a9c <_write_sectors+0x34>
 8018a9a:	46d0      	mov	r8, sl
 8018a9c:	f8d6 40a0 	ldr.w	r4, [r6, #160]	@ 0xa0
 8018aa0:	42bc      	cmp	r4, r7
 8018aa2:	d007      	beq.n	8018ab4 <_write_sectors+0x4c>
 8018aa4:	428b      	cmp	r3, r1
 8018aa6:	d802      	bhi.n	8018aae <_write_sectors+0x46>
 8018aa8:	1c63      	adds	r3, r4, #1
 8018aaa:	42bb      	cmp	r3, r7
 8018aac:	d005      	beq.n	8018aba <_write_sectors+0x52>
 8018aae:	6875      	ldr	r5, [r6, #4]
 8018ab0:	2400      	movs	r4, #0
 8018ab2:	e00b      	b.n	8018acc <_write_sectors+0x64>
 8018ab4:	f8d6 50a4 	ldr.w	r5, [r6, #164]	@ 0xa4
 8018ab8:	e027      	b.n	8018b0a <_write_sectors+0xa2>
 8018aba:	f8d6 50a4 	ldr.w	r5, [r6, #164]	@ 0xa4
 8018abe:	e005      	b.n	8018acc <_write_sectors+0x64>
 8018ac0:	9503      	str	r5, [sp, #12]
 8018ac2:	9d02      	ldr	r5, [sp, #8]
 8018ac4:	f1b5 3fff 	cmp.w	r5, #4294967295	@ 0xffffffff
 8018ac8:	d018      	beq.n	8018afc <_write_sectors+0x94>
 8018aca:	3401      	adds	r4, #1
 8018acc:	42bc      	cmp	r4, r7
 8018ace:	d215      	bcs.n	8018afc <_write_sectors+0x94>
 8018ad0:	ab02      	add	r3, sp, #8
 8018ad2:	4622      	mov	r2, r4
 8018ad4:	4631      	mov	r1, r6
 8018ad6:	4820      	ldr	r0, [pc, #128]	@ (8018b58 <_write_sectors+0xf0>)
 8018ad8:	f7ff fdc2 	bl	8018660 <fatfs_cache_get_next_cluster>
 8018adc:	2800      	cmp	r0, #0
 8018ade:	d1ef      	bne.n	8018ac0 <_write_sectors+0x58>
 8018ae0:	f8df 9074 	ldr.w	r9, [pc, #116]	@ 8018b58 <_write_sectors+0xf0>
 8018ae4:	4629      	mov	r1, r5
 8018ae6:	4648      	mov	r0, r9
 8018ae8:	f001 fdfc 	bl	801a6e4 <fatfs_find_next_cluster>
 8018aec:	4603      	mov	r3, r0
 8018aee:	9002      	str	r0, [sp, #8]
 8018af0:	4622      	mov	r2, r4
 8018af2:	4631      	mov	r1, r6
 8018af4:	4648      	mov	r0, r9
 8018af6:	f7ff fdb5 	bl	8018664 <fatfs_cache_set_next_cluster>
 8018afa:	e7e1      	b.n	8018ac0 <_write_sectors+0x58>
 8018afc:	f1b5 3fff 	cmp.w	r5, #4294967295	@ 0xffffffff
 8018b00:	d014      	beq.n	8018b2c <_write_sectors+0xc4>
 8018b02:	f8c6 50a4 	str.w	r5, [r6, #164]	@ 0xa4
 8018b06:	f8c6 70a0 	str.w	r7, [r6, #160]	@ 0xa0
 8018b0a:	4c13      	ldr	r4, [pc, #76]	@ (8018b58 <_write_sectors+0xf0>)
 8018b0c:	4629      	mov	r1, r5
 8018b0e:	4620      	mov	r0, r4
 8018b10:	f7ff fa8e 	bl	8018030 <fatfs_lba_of_cluster>
 8018b14:	4643      	mov	r3, r8
 8018b16:	9a01      	ldr	r2, [sp, #4]
 8018b18:	eb00 010b 	add.w	r1, r0, fp
 8018b1c:	4620      	mov	r0, r4
 8018b1e:	f7ff faa1 	bl	8018064 <fatfs_sector_write>
 8018b22:	b1a0      	cbz	r0, 8018b4e <_write_sectors+0xe6>
 8018b24:	4640      	mov	r0, r8
 8018b26:	b005      	add	sp, #20
 8018b28:	e8bd 8ff0 	ldmia.w	sp!, {r4, r5, r6, r7, r8, r9, sl, fp, pc}
 8018b2c:	4809      	ldr	r0, [pc, #36]	@ (8018b54 <_write_sectors+0xec>)
 8018b2e:	f810 2f10 	ldrb.w	r2, [r0, #16]!
 8018b32:	4492      	add	sl, r2
 8018b34:	f10a 3aff 	add.w	sl, sl, #4294967295	@ 0xffffffff
 8018b38:	fbba f2f2 	udiv	r2, sl, r2
 8018b3c:	a903      	add	r1, sp, #12
 8018b3e:	f001 ffc8 	bl	801aad2 <fatfs_add_free_space>
 8018b42:	b108      	cbz	r0, 8018b48 <_write_sectors+0xe0>
 8018b44:	9d03      	ldr	r5, [sp, #12]
 8018b46:	e7dc      	b.n	8018b02 <_write_sectors+0x9a>
 8018b48:	f04f 0800 	mov.w	r8, #0
 8018b4c:	e7ea      	b.n	8018b24 <_write_sectors+0xbc>
 8018b4e:	f04f 0800 	mov.w	r8, #0
 8018b52:	e7e7      	b.n	8018b24 <_write_sectors+0xbc>
 8018b54:	20001e44 	.word	0x20001e44
 8018b58:	20001e54 	.word	0x20001e54

08018b5c <_read_sectors>:
 8018b5c:	e92d 4ff0 	stmdb	sp!, {r4, r5, r6, r7, r8, r9, sl, fp, lr}
 8018b60:	b083      	sub	sp, #12
 8018b62:	4605      	mov	r5, r0
 8018b64:	4691      	mov	r9, r2
 8018b66:	4698      	mov	r8, r3
 8018b68:	4b2c      	ldr	r3, [pc, #176]	@ (8018c1c <_read_sectors+0xc0>)
 8018b6a:	7c1b      	ldrb	r3, [r3, #16]
 8018b6c:	fbb1 f7f3 	udiv	r7, r1, r3
 8018b70:	fb07 f203 	mul.w	r2, r7, r3
 8018b74:	eba1 0a02 	sub.w	sl, r1, r2
 8018b78:	eb0a 0008 	add.w	r0, sl, r8
 8018b7c:	4283      	cmp	r3, r0
 8018b7e:	d202      	bcs.n	8018b86 <_read_sectors+0x2a>
 8018b80:	1a52      	subs	r2, r2, r1
 8018b82:	eb02 0803 	add.w	r8, r2, r3
 8018b86:	f8d5 40a0 	ldr.w	r4, [r5, #160]	@ 0xa0
 8018b8a:	42bc      	cmp	r4, r7
 8018b8c:	d007      	beq.n	8018b9e <_read_sectors+0x42>
 8018b8e:	428b      	cmp	r3, r1
 8018b90:	d802      	bhi.n	8018b98 <_read_sectors+0x3c>
 8018b92:	1c63      	adds	r3, r4, #1
 8018b94:	42bb      	cmp	r3, r7
 8018b96:	d005      	beq.n	8018ba4 <_read_sectors+0x48>
 8018b98:	686e      	ldr	r6, [r5, #4]
 8018b9a:	2400      	movs	r4, #0
 8018b9c:	e007      	b.n	8018bae <_read_sectors+0x52>
 8018b9e:	f8d5 60a4 	ldr.w	r6, [r5, #164]	@ 0xa4
 8018ba2:	e023      	b.n	8018bec <_read_sectors+0x90>
 8018ba4:	f8d5 60a4 	ldr.w	r6, [r5, #164]	@ 0xa4
 8018ba8:	e001      	b.n	8018bae <_read_sectors+0x52>
 8018baa:	9e01      	ldr	r6, [sp, #4]
 8018bac:	3401      	adds	r4, #1
 8018bae:	42bc      	cmp	r4, r7
 8018bb0:	d215      	bcs.n	8018bde <_read_sectors+0x82>
 8018bb2:	ab01      	add	r3, sp, #4
 8018bb4:	4622      	mov	r2, r4
 8018bb6:	4629      	mov	r1, r5
 8018bb8:	4819      	ldr	r0, [pc, #100]	@ (8018c20 <_read_sectors+0xc4>)
 8018bba:	f7ff fd51 	bl	8018660 <fatfs_cache_get_next_cluster>
 8018bbe:	2800      	cmp	r0, #0
 8018bc0:	d1f3      	bne.n	8018baa <_read_sectors+0x4e>
 8018bc2:	f8df b05c 	ldr.w	fp, [pc, #92]	@ 8018c20 <_read_sectors+0xc4>
 8018bc6:	4631      	mov	r1, r6
 8018bc8:	4658      	mov	r0, fp
 8018bca:	f001 fd8b 	bl	801a6e4 <fatfs_find_next_cluster>
 8018bce:	4603      	mov	r3, r0
 8018bd0:	9001      	str	r0, [sp, #4]
 8018bd2:	4622      	mov	r2, r4
 8018bd4:	4629      	mov	r1, r5
 8018bd6:	4658      	mov	r0, fp
 8018bd8:	f7ff fd44 	bl	8018664 <fatfs_cache_set_next_cluster>
 8018bdc:	e7e5      	b.n	8018baa <_read_sectors+0x4e>
 8018bde:	f1b6 3fff 	cmp.w	r6, #4294967295	@ 0xffffffff
 8018be2:	d015      	beq.n	8018c10 <_read_sectors+0xb4>
 8018be4:	f8c5 60a4 	str.w	r6, [r5, #164]	@ 0xa4
 8018be8:	f8c5 70a0 	str.w	r7, [r5, #160]	@ 0xa0
 8018bec:	f1b6 3fff 	cmp.w	r6, #4294967295	@ 0xffffffff
 8018bf0:	d00e      	beq.n	8018c10 <_read_sectors+0xb4>
 8018bf2:	4c0b      	ldr	r4, [pc, #44]	@ (8018c20 <_read_sectors+0xc4>)
 8018bf4:	4631      	mov	r1, r6
 8018bf6:	4620      	mov	r0, r4
 8018bf8:	f7ff fa1a 	bl	8018030 <fatfs_lba_of_cluster>
 8018bfc:	4643      	mov	r3, r8
 8018bfe:	464a      	mov	r2, r9
 8018c00:	eb00 010a 	add.w	r1, r0, sl
 8018c04:	4620      	mov	r0, r4
 8018c06:	f7ff fa25 	bl	8018054 <fatfs_sector_read>
 8018c0a:	b128      	cbz	r0, 8018c18 <_read_sectors+0xbc>
 8018c0c:	4640      	mov	r0, r8
 8018c0e:	e000      	b.n	8018c12 <_read_sectors+0xb6>
 8018c10:	2000      	movs	r0, #0
 8018c12:	b003      	add	sp, #12
 8018c14:	e8bd 8ff0 	ldmia.w	sp!, {r4, r5, r6, r7, r8, r9, sl, fp, pc}
 8018c18:	2000      	movs	r0, #0
 8018c1a:	e7fa      	b.n	8018c12 <_read_sectors+0xb6>
 8018c1c:	20001e44 	.word	0x20001e44
 8018c20:	20001e54 	.word	0x20001e54

08018c24 <_create_directory>:
 8018c24:	e92d 43f0 	stmdb	sp!, {r4, r5, r6, r7, r8, r9, lr}
 8018c28:	b091      	sub	sp, #68	@ 0x44
 8018c2a:	4605      	mov	r5, r0
 8018c2c:	f7ff fd62 	bl	80186f4 <_allocate_file>
 8018c30:	2800      	cmp	r0, #0
 8018c32:	f000 80cc 	beq.w	8018dce <_create_directory+0x1aa>
 8018c36:	4604      	mov	r4, r0
 8018c38:	f100 0614 	add.w	r6, r0, #20
 8018c3c:	2240      	movs	r2, #64	@ 0x40
 8018c3e:	2100      	movs	r1, #0
 8018c40:	4630      	mov	r0, r6
 8018c42:	f7f9 fef0 	bl	8012a26 <memset>
 8018c46:	f104 0754 	add.w	r7, r4, #84	@ 0x54
 8018c4a:	2240      	movs	r2, #64	@ 0x40
 8018c4c:	2100      	movs	r1, #0
 8018c4e:	4638      	mov	r0, r7
 8018c50:	f7f9 fee9 	bl	8012a26 <memset>
 8018c54:	2240      	movs	r2, #64	@ 0x40
 8018c56:	9200      	str	r2, [sp, #0]
 8018c58:	463b      	mov	r3, r7
 8018c5a:	4631      	mov	r1, r6
 8018c5c:	4628      	mov	r0, r5
 8018c5e:	f001 fb76 	bl	801a34e <fatfs_split_path>
 8018c62:	f1b0 3fff 	cmp.w	r0, #4294967295	@ 0xffffffff
 8018c66:	d027      	beq.n	8018cb8 <_create_directory+0x94>
 8018c68:	4620      	mov	r0, r4
 8018c6a:	f7ff fd65 	bl	8018738 <_check_file_open>
 8018c6e:	4680      	mov	r8, r0
 8018c70:	bb38      	cbnz	r0, 8018cc2 <_create_directory+0x9e>
 8018c72:	7d23      	ldrb	r3, [r4, #20]
 8018c74:	bb53      	cbnz	r3, 8018ccc <_create_directory+0xa8>
 8018c76:	4858      	ldr	r0, [pc, #352]	@ (8018dd8 <_create_directory+0x1b4>)
 8018c78:	f7ff fad6 	bl	8018228 <fatfs_get_root_cluster>
 8018c7c:	6020      	str	r0, [r4, #0]
 8018c7e:	ab08      	add	r3, sp, #32
 8018c80:	463a      	mov	r2, r7
 8018c82:	6821      	ldr	r1, [r4, #0]
 8018c84:	4854      	ldr	r0, [pc, #336]	@ (8018dd8 <_create_directory+0x1b4>)
 8018c86:	f7ff fad1 	bl	801822c <fatfs_get_file_entry>
 8018c8a:	2801      	cmp	r0, #1
 8018c8c:	d029      	beq.n	8018ce2 <_create_directory+0xbe>
 8018c8e:	4622      	mov	r2, r4
 8018c90:	2300      	movs	r3, #0
 8018c92:	f842 3f04 	str.w	r3, [r2, #4]!
 8018c96:	2301      	movs	r3, #1
 8018c98:	4619      	mov	r1, r3
 8018c9a:	484f      	ldr	r0, [pc, #316]	@ (8018dd8 <_create_directory+0x1b4>)
 8018c9c:	f001 ff4b 	bl	801ab36 <fatfs_allocate_free_space>
 8018ca0:	4606      	mov	r6, r0
 8018ca2:	b318      	cbz	r0, 8018cec <_create_directory+0xc8>
 8018ca4:	f104 09a8 	add.w	r9, r4, #168	@ 0xa8
 8018ca8:	f44f 7200 	mov.w	r2, #512	@ 0x200
 8018cac:	2100      	movs	r1, #0
 8018cae:	4648      	mov	r0, r9
 8018cb0:	f7f9 feb9 	bl	8012a26 <memset>
 8018cb4:	4645      	mov	r5, r8
 8018cb6:	e01e      	b.n	8018cf6 <_create_directory+0xd2>
 8018cb8:	4620      	mov	r0, r4
 8018cba:	f7ff fd2d 	bl	8018718 <_free_file>
 8018cbe:	2600      	movs	r6, #0
 8018cc0:	e086      	b.n	8018dd0 <_create_directory+0x1ac>
 8018cc2:	4620      	mov	r0, r4
 8018cc4:	f7ff fd28 	bl	8018718 <_free_file>
 8018cc8:	2600      	movs	r6, #0
 8018cca:	e081      	b.n	8018dd0 <_create_directory+0x1ac>
 8018ccc:	4621      	mov	r1, r4
 8018cce:	4630      	mov	r0, r6
 8018cd0:	f7ff fd54 	bl	801877c <_open_directory>
 8018cd4:	4606      	mov	r6, r0
 8018cd6:	2800      	cmp	r0, #0
 8018cd8:	d1d1      	bne.n	8018c7e <_create_directory+0x5a>
 8018cda:	4620      	mov	r0, r4
 8018cdc:	f7ff fd1c 	bl	8018718 <_free_file>
 8018ce0:	e076      	b.n	8018dd0 <_create_directory+0x1ac>
 8018ce2:	4620      	mov	r0, r4
 8018ce4:	f7ff fd18 	bl	8018718 <_free_file>
 8018ce8:	4646      	mov	r6, r8
 8018cea:	e071      	b.n	8018dd0 <_create_directory+0x1ac>
 8018cec:	4620      	mov	r0, r4
 8018cee:	f7ff fd13 	bl	8018718 <_free_file>
 8018cf2:	e06d      	b.n	8018dd0 <_create_directory+0x1ac>
 8018cf4:	3501      	adds	r5, #1
 8018cf6:	4b39      	ldr	r3, [pc, #228]	@ (8018ddc <_create_directory+0x1b8>)
 8018cf8:	7c1b      	ldrb	r3, [r3, #16]
 8018cfa:	42ab      	cmp	r3, r5
 8018cfc:	dd0c      	ble.n	8018d18 <_create_directory+0xf4>
 8018cfe:	464b      	mov	r3, r9
 8018d00:	462a      	mov	r2, r5
 8018d02:	6861      	ldr	r1, [r4, #4]
 8018d04:	4834      	ldr	r0, [pc, #208]	@ (8018dd8 <_create_directory+0x1b4>)
 8018d06:	f7ff fa2a 	bl	801815e <fatfs_write_sector>
 8018d0a:	4606      	mov	r6, r0
 8018d0c:	2800      	cmp	r0, #0
 8018d0e:	d1f1      	bne.n	8018cf4 <_create_directory+0xd0>
 8018d10:	4620      	mov	r0, r4
 8018d12:	f7ff fd01 	bl	8018718 <_free_file>
 8018d16:	e05b      	b.n	8018dd0 <_create_directory+0x1ac>
 8018d18:	4645      	mov	r5, r8
 8018d1a:	e012      	b.n	8018d42 <_create_directory+0x11e>
 8018d1c:	220b      	movs	r2, #11
 8018d1e:	a905      	add	r1, sp, #20
 8018d20:	f104 0094 	add.w	r0, r4, #148	@ 0x94
 8018d24:	f7f9 fe86 	bl	8012a34 <memcpy>
 8018d28:	4626      	mov	r6, r4
 8018d2a:	f856 1b94 	ldr.w	r1, [r6], #148
 8018d2e:	4632      	mov	r2, r6
 8018d30:	4829      	ldr	r0, [pc, #164]	@ (8018dd8 <_create_directory+0x1b4>)
 8018d32:	f7ff fb10 	bl	8018356 <fatfs_sfn_exists>
 8018d36:	b188      	cbz	r0, 8018d5c <_create_directory+0x138>
 8018d38:	3501      	adds	r5, #1
 8018d3a:	f242 730e 	movw	r3, #9998	@ 0x270e
 8018d3e:	429d      	cmp	r5, r3
 8018d40:	dc0c      	bgt.n	8018d5c <_create_directory+0x138>
 8018d42:	4639      	mov	r1, r7
 8018d44:	a805      	add	r0, sp, #20
 8018d46:	f001 f9c2 	bl	801a0ce <fatfs_lfn_create_sfn>
 8018d4a:	2d00      	cmp	r5, #0
 8018d4c:	d0e6      	beq.n	8018d1c <_create_directory+0xf8>
 8018d4e:	462a      	mov	r2, r5
 8018d50:	a905      	add	r1, sp, #20
 8018d52:	f104 0094 	add.w	r0, r4, #148	@ 0x94
 8018d56:	f001 fa20 	bl	801a19a <fatfs_lfn_generate_tail>
 8018d5a:	e7e5      	b.n	8018d28 <_create_directory+0x104>
 8018d5c:	f242 730f 	movw	r3, #9999	@ 0x270f
 8018d60:	429d      	cmp	r5, r3
 8018d62:	d023      	beq.n	8018dac <_create_directory+0x188>
 8018d64:	6821      	ldr	r1, [r4, #0]
 8018d66:	2301      	movs	r3, #1
 8018d68:	9302      	str	r3, [sp, #8]
 8018d6a:	2300      	movs	r3, #0
 8018d6c:	9301      	str	r3, [sp, #4]
 8018d6e:	6863      	ldr	r3, [r4, #4]
 8018d70:	9300      	str	r3, [sp, #0]
 8018d72:	4633      	mov	r3, r6
 8018d74:	463a      	mov	r2, r7
 8018d76:	4818      	ldr	r0, [pc, #96]	@ (8018dd8 <_create_directory+0x1b4>)
 8018d78:	f001 ff1c 	bl	801abb4 <fatfs_add_file_entry>
 8018d7c:	4606      	mov	r6, r0
 8018d7e:	b1f0      	cbz	r0, 8018dbe <_create_directory+0x19a>
 8018d80:	2300      	movs	r3, #0
 8018d82:	60e3      	str	r3, [r4, #12]
 8018d84:	60a3      	str	r3, [r4, #8]
 8018d86:	f04f 32ff 	mov.w	r2, #4294967295	@ 0xffffffff
 8018d8a:	f8c4 22a8 	str.w	r2, [r4, #680]	@ 0x2a8
 8018d8e:	f8c4 32ac 	str.w	r3, [r4, #684]	@ 0x2ac
 8018d92:	6123      	str	r3, [r4, #16]
 8018d94:	f8c4 20a0 	str.w	r2, [r4, #160]	@ 0xa0
 8018d98:	f8c4 20a4 	str.w	r2, [r4, #164]	@ 0xa4
 8018d9c:	480e      	ldr	r0, [pc, #56]	@ (8018dd8 <_create_directory+0x1b4>)
 8018d9e:	f001 fc8a 	bl	801a6b6 <fatfs_fat_purge>
 8018da2:	4620      	mov	r0, r4
 8018da4:	f7ff fcb8 	bl	8018718 <_free_file>
 8018da8:	2601      	movs	r6, #1
 8018daa:	e011      	b.n	8018dd0 <_create_directory+0x1ac>
 8018dac:	6861      	ldr	r1, [r4, #4]
 8018dae:	480a      	ldr	r0, [pc, #40]	@ (8018dd8 <_create_directory+0x1b4>)
 8018db0:	f001 fd9b 	bl	801a8ea <fatfs_free_cluster_chain>
 8018db4:	4620      	mov	r0, r4
 8018db6:	f7ff fcaf 	bl	8018718 <_free_file>
 8018dba:	4646      	mov	r6, r8
 8018dbc:	e008      	b.n	8018dd0 <_create_directory+0x1ac>
 8018dbe:	6861      	ldr	r1, [r4, #4]
 8018dc0:	4805      	ldr	r0, [pc, #20]	@ (8018dd8 <_create_directory+0x1b4>)
 8018dc2:	f001 fd92 	bl	801a8ea <fatfs_free_cluster_chain>
 8018dc6:	4620      	mov	r0, r4
 8018dc8:	f7ff fca6 	bl	8018718 <_free_file>
 8018dcc:	e000      	b.n	8018dd0 <_create_directory+0x1ac>
 8018dce:	2600      	movs	r6, #0
 8018dd0:	4630      	mov	r0, r6
 8018dd2:	b011      	add	sp, #68	@ 0x44
 8018dd4:	e8bd 83f0 	ldmia.w	sp!, {r4, r5, r6, r7, r8, r9, pc}
 8018dd8:	20001e54 	.word	0x20001e54
 8018ddc:	20001e44 	.word	0x20001e44

08018de0 <fl_init>:
 8018de0:	b510      	push	{r4, lr}
 8018de2:	4c0f      	ldr	r4, [pc, #60]	@ (8018e20 <fl_init+0x40>)
 8018de4:	4620      	mov	r0, r4
 8018de6:	f7ff fc3f 	bl	8018668 <fat_list_init>
 8018dea:	f104 0008 	add.w	r0, r4, #8
 8018dee:	f7ff fc3b 	bl	8018668 <fat_list_init>
 8018df2:	2400      	movs	r4, #0
 8018df4:	e00d      	b.n	8018e12 <fl_init+0x32>
 8018df6:	480a      	ldr	r0, [pc, #40]	@ (8018e20 <fl_init+0x40>)
 8018df8:	f200 4174 	addw	r1, r0, #1140	@ 0x474
 8018dfc:	f44f 732f 	mov.w	r3, #700	@ 0x2bc
 8018e00:	fb04 f303 	mul.w	r3, r4, r3
 8018e04:	f503 732c 	add.w	r3, r3, #688	@ 0x2b0
 8018e08:	4419      	add	r1, r3
 8018e0a:	3104      	adds	r1, #4
 8018e0c:	f7ff fc5f 	bl	80186ce <fat_list_insert_last>
 8018e10:	3401      	adds	r4, #1
 8018e12:	2c02      	cmp	r4, #2
 8018e14:	ddef      	ble.n	8018df6 <fl_init+0x16>
 8018e16:	4b02      	ldr	r3, [pc, #8]	@ (8018e20 <fl_init+0x40>)
 8018e18:	2201      	movs	r2, #1
 8018e1a:	f8c3 2ca8 	str.w	r2, [r3, #3240]	@ 0xca8
 8018e1e:	bd10      	pop	{r4, pc}
 8018e20:	20001e44 	.word	0x20001e44

08018e24 <fl_attach_locks>:
 8018e24:	4b01      	ldr	r3, [pc, #4]	@ (8018e2c <fl_attach_locks+0x8>)
 8018e26:	6498      	str	r0, [r3, #72]	@ 0x48
 8018e28:	64d9      	str	r1, [r3, #76]	@ 0x4c
 8018e2a:	4770      	bx	lr
 8018e2c:	20001e44 	.word	0x20001e44

08018e30 <fl_attach_media>:
 8018e30:	b538      	push	{r3, r4, r5, lr}
 8018e32:	4605      	mov	r5, r0
 8018e34:	460c      	mov	r4, r1
 8018e36:	4b0d      	ldr	r3, [pc, #52]	@ (8018e6c <fl_attach_media+0x3c>)
 8018e38:	f8d3 3ca8 	ldr.w	r3, [r3, #3240]	@ 0xca8
 8018e3c:	b16b      	cbz	r3, 8018e5a <fl_attach_media+0x2a>
 8018e3e:	480b      	ldr	r0, [pc, #44]	@ (8018e6c <fl_attach_media+0x3c>)
 8018e40:	6405      	str	r5, [r0, #64]	@ 0x40
 8018e42:	6444      	str	r4, [r0, #68]	@ 0x44
 8018e44:	3010      	adds	r0, #16
 8018e46:	f7fe ffcf 	bl	8017de8 <fatfs_init>
 8018e4a:	4604      	mov	r4, r0
 8018e4c:	b940      	cbnz	r0, 8018e60 <fl_attach_media+0x30>
 8018e4e:	4b07      	ldr	r3, [pc, #28]	@ (8018e6c <fl_attach_media+0x3c>)
 8018e50:	2201      	movs	r2, #1
 8018e52:	f8c3 2cac 	str.w	r2, [r3, #3244]	@ 0xcac
 8018e56:	4620      	mov	r0, r4
 8018e58:	bd38      	pop	{r3, r4, r5, pc}
 8018e5a:	f7ff ffc1 	bl	8018de0 <fl_init>
 8018e5e:	e7ee      	b.n	8018e3e <fl_attach_media+0xe>
 8018e60:	4601      	mov	r1, r0
 8018e62:	4803      	ldr	r0, [pc, #12]	@ (8018e70 <fl_attach_media+0x40>)
 8018e64:	f7f9 fade 	bl	8012424 <printf>
 8018e68:	e7f5      	b.n	8018e56 <fl_attach_media+0x26>
 8018e6a:	bf00      	nop
 8018e6c:	20001e44 	.word	0x20001e44
 8018e70:	0801d4b0 	.word	0x0801d4b0

08018e74 <fl_shutdown>:
 8018e74:	b510      	push	{r4, lr}
 8018e76:	4b0a      	ldr	r3, [pc, #40]	@ (8018ea0 <fl_shutdown+0x2c>)
 8018e78:	f8d3 3ca8 	ldr.w	r3, [r3, #3240]	@ 0xca8
 8018e7c:	b163      	cbz	r3, 8018e98 <fl_shutdown+0x24>
 8018e7e:	4b08      	ldr	r3, [pc, #32]	@ (8018ea0 <fl_shutdown+0x2c>)
 8018e80:	6c9b      	ldr	r3, [r3, #72]	@ 0x48
 8018e82:	b103      	cbz	r3, 8018e86 <fl_shutdown+0x12>
 8018e84:	4798      	blx	r3
 8018e86:	4c06      	ldr	r4, [pc, #24]	@ (8018ea0 <fl_shutdown+0x2c>)
 8018e88:	f104 0010 	add.w	r0, r4, #16
 8018e8c:	f001 fc13 	bl	801a6b6 <fatfs_fat_purge>
 8018e90:	6ce3      	ldr	r3, [r4, #76]	@ 0x4c
 8018e92:	b103      	cbz	r3, 8018e96 <fl_shutdown+0x22>
 8018e94:	4798      	blx	r3
 8018e96:	bd10      	pop	{r4, pc}
 8018e98:	f7ff ffa2 	bl	8018de0 <fl_init>
 8018e9c:	e7ef      	b.n	8018e7e <fl_shutdown+0xa>
 8018e9e:	bf00      	nop
 8018ea0:	20001e44 	.word	0x20001e44

08018ea4 <fl_fopen>:
 8018ea4:	b5f8      	push	{r3, r4, r5, r6, r7, lr}
 8018ea6:	4607      	mov	r7, r0
 8018ea8:	460d      	mov	r5, r1
 8018eaa:	4b77      	ldr	r3, [pc, #476]	@ (8019088 <fl_fopen+0x1e4>)
 8018eac:	f8d3 3ca8 	ldr.w	r3, [r3, #3240]	@ 0xca8
 8018eb0:	b173      	cbz	r3, 8018ed0 <fl_fopen+0x2c>
 8018eb2:	4b75      	ldr	r3, [pc, #468]	@ (8019088 <fl_fopen+0x1e4>)
 8018eb4:	f8d3 3cac 	ldr.w	r3, [r3, #3244]	@ 0xcac
 8018eb8:	2b00      	cmp	r3, #0
 8018eba:	f000 80e0 	beq.w	801907e <fl_fopen+0x1da>
 8018ebe:	2f00      	cmp	r7, #0
 8018ec0:	f000 80df 	beq.w	8019082 <fl_fopen+0x1de>
 8018ec4:	2d00      	cmp	r5, #0
 8018ec6:	f000 80c4 	beq.w	8019052 <fl_fopen+0x1ae>
 8018eca:	2600      	movs	r6, #0
 8018ecc:	4634      	mov	r4, r6
 8018ece:	e005      	b.n	8018edc <fl_fopen+0x38>
 8018ed0:	f7ff ff86 	bl	8018de0 <fl_init>
 8018ed4:	e7ed      	b.n	8018eb2 <fl_fopen+0xe>
 8018ed6:	f046 0601 	orr.w	r6, r6, #1
 8018eda:	3401      	adds	r4, #1
 8018edc:	4628      	mov	r0, r5
 8018ede:	f7f9 fdd8 	bl	8012a92 <strlen>
 8018ee2:	42a0      	cmp	r0, r4
 8018ee4:	f340 8098 	ble.w	8019018 <fl_fopen+0x174>
 8018ee8:	5d2b      	ldrb	r3, [r5, r4]
 8018eea:	2b2b      	cmp	r3, #43	@ 0x2b
 8018eec:	d07e      	beq.n	8018fec <fl_fopen+0x148>
 8018eee:	d3f4      	bcc.n	8018eda <fl_fopen+0x36>
 8018ef0:	2b77      	cmp	r3, #119	@ 0x77
 8018ef2:	d8f2      	bhi.n	8018eda <fl_fopen+0x36>
 8018ef4:	2b41      	cmp	r3, #65	@ 0x41
 8018ef6:	d3f0      	bcc.n	8018eda <fl_fopen+0x36>
 8018ef8:	3b41      	subs	r3, #65	@ 0x41
 8018efa:	2b36      	cmp	r3, #54	@ 0x36
 8018efc:	d8ed      	bhi.n	8018eda <fl_fopen+0x36>
 8018efe:	a201      	add	r2, pc, #4	@ (adr r2, 8018f04 <fl_fopen+0x60>)
 8018f00:	f852 f023 	ldr.w	pc, [r2, r3, lsl #2]
 8018f04:	08018fe7 	.word	0x08018fe7
 8018f08:	08019013 	.word	0x08019013
 8018f0c:	08018edb 	.word	0x08018edb
 8018f10:	08018edb 	.word	0x08018edb
 8018f14:	08018edb 	.word	0x08018edb
 8018f18:	08018edb 	.word	0x08018edb
 8018f1c:	08018edb 	.word	0x08018edb
 8018f20:	08018edb 	.word	0x08018edb
 8018f24:	08018edb 	.word	0x08018edb
 8018f28:	08018edb 	.word	0x08018edb
 8018f2c:	08018edb 	.word	0x08018edb
 8018f30:	08018edb 	.word	0x08018edb
 8018f34:	08018edb 	.word	0x08018edb
 8018f38:	08018edb 	.word	0x08018edb
 8018f3c:	08018edb 	.word	0x08018edb
 8018f40:	08018edb 	.word	0x08018edb
 8018f44:	08018edb 	.word	0x08018edb
 8018f48:	08018ed7 	.word	0x08018ed7
 8018f4c:	08018edb 	.word	0x08018edb
 8018f50:	08018edb 	.word	0x08018edb
 8018f54:	08018edb 	.word	0x08018edb
 8018f58:	08018edb 	.word	0x08018edb
 8018f5c:	08018fe1 	.word	0x08018fe1
 8018f60:	08018edb 	.word	0x08018edb
 8018f64:	08018edb 	.word	0x08018edb
 8018f68:	08018edb 	.word	0x08018edb
 8018f6c:	08018edb 	.word	0x08018edb
 8018f70:	08018edb 	.word	0x08018edb
 8018f74:	08018edb 	.word	0x08018edb
 8018f78:	08018edb 	.word	0x08018edb
 8018f7c:	08018edb 	.word	0x08018edb
 8018f80:	08018edb 	.word	0x08018edb
 8018f84:	08018fe7 	.word	0x08018fe7
 8018f88:	08019013 	.word	0x08019013
 8018f8c:	08018edb 	.word	0x08018edb
 8018f90:	08018edb 	.word	0x08018edb
 8018f94:	08018edb 	.word	0x08018edb
 8018f98:	08018edb 	.word	0x08018edb
 8018f9c:	08018edb 	.word	0x08018edb
 8018fa0:	08018edb 	.word	0x08018edb
 8018fa4:	08018edb 	.word	0x08018edb
 8018fa8:	08018edb 	.word	0x08018edb
 8018fac:	08018edb 	.word	0x08018edb
 8018fb0:	08018edb 	.word	0x08018edb
 8018fb4:	08018edb 	.word	0x08018edb
 8018fb8:	08018edb 	.word	0x08018edb
 8018fbc:	08018edb 	.word	0x08018edb
 8018fc0:	08018edb 	.word	0x08018edb
 8018fc4:	08018edb 	.word	0x08018edb
 8018fc8:	08018ed7 	.word	0x08018ed7
 8018fcc:	08018edb 	.word	0x08018edb
 8018fd0:	08018edb 	.word	0x08018edb
 8018fd4:	08018edb 	.word	0x08018edb
 8018fd8:	08018edb 	.word	0x08018edb
 8018fdc:	08018fe1 	.word	0x08018fe1
 8018fe0:	f046 0632 	orr.w	r6, r6, #50	@ 0x32
 8018fe4:	e779      	b.n	8018eda <fl_fopen+0x36>
 8018fe6:	f046 0626 	orr.w	r6, r6, #38	@ 0x26
 8018fea:	e776      	b.n	8018eda <fl_fopen+0x36>
 8018fec:	f016 0f01 	tst.w	r6, #1
 8018ff0:	d002      	beq.n	8018ff8 <fl_fopen+0x154>
 8018ff2:	f046 0602 	orr.w	r6, r6, #2
 8018ff6:	e770      	b.n	8018eda <fl_fopen+0x36>
 8018ff8:	f016 0f02 	tst.w	r6, #2
 8018ffc:	d002      	beq.n	8019004 <fl_fopen+0x160>
 8018ffe:	f046 0631 	orr.w	r6, r6, #49	@ 0x31
 8019002:	e76a      	b.n	8018eda <fl_fopen+0x36>
 8019004:	f016 0f04 	tst.w	r6, #4
 8019008:	f43f af67 	beq.w	8018eda <fl_fopen+0x36>
 801900c:	f046 0627 	orr.w	r6, r6, #39	@ 0x27
 8019010:	e763      	b.n	8018eda <fl_fopen+0x36>
 8019012:	f046 0608 	orr.w	r6, r6, #8
 8019016:	e760      	b.n	8018eda <fl_fopen+0x36>
 8019018:	4b1b      	ldr	r3, [pc, #108]	@ (8019088 <fl_fopen+0x1e4>)
 801901a:	6c5b      	ldr	r3, [r3, #68]	@ 0x44
 801901c:	b1db      	cbz	r3, 8019056 <fl_fopen+0x1b2>
 801901e:	4b1a      	ldr	r3, [pc, #104]	@ (8019088 <fl_fopen+0x1e4>)
 8019020:	6c9b      	ldr	r3, [r3, #72]	@ 0x48
 8019022:	b103      	cbz	r3, 8019026 <fl_fopen+0x182>
 8019024:	4798      	blx	r3
 8019026:	f016 0401 	ands.w	r4, r6, #1
 801902a:	d117      	bne.n	801905c <fl_fopen+0x1b8>
 801902c:	2500      	movs	r5, #0
 801902e:	f016 0f20 	tst.w	r6, #32
 8019032:	d11a      	bne.n	801906a <fl_fopen+0x1c6>
 8019034:	b934      	cbnz	r4, 8019044 <fl_fopen+0x1a0>
 8019036:	f016 0f20 	tst.w	r6, #32
 801903a:	d003      	beq.n	8019044 <fl_fopen+0x1a0>
 801903c:	b91d      	cbnz	r5, 8019046 <fl_fopen+0x1a2>
 801903e:	f016 0f06 	tst.w	r6, #6
 8019042:	d117      	bne.n	8019074 <fl_fopen+0x1d0>
 8019044:	b10d      	cbz	r5, 801904a <fl_fopen+0x1a6>
 8019046:	f885 62b0 	strb.w	r6, [r5, #688]	@ 0x2b0
 801904a:	4b0f      	ldr	r3, [pc, #60]	@ (8019088 <fl_fopen+0x1e4>)
 801904c:	6cdb      	ldr	r3, [r3, #76]	@ 0x4c
 801904e:	b103      	cbz	r3, 8019052 <fl_fopen+0x1ae>
 8019050:	4798      	blx	r3
 8019052:	4628      	mov	r0, r5
 8019054:	bdf8      	pop	{r3, r4, r5, r6, r7, pc}
 8019056:	f006 06d9 	and.w	r6, r6, #217	@ 0xd9
 801905a:	e7e0      	b.n	801901e <fl_fopen+0x17a>
 801905c:	4638      	mov	r0, r7
 801905e:	f7ff fc8b 	bl	8018978 <_open_file>
 8019062:	4605      	mov	r5, r0
 8019064:	2800      	cmp	r0, #0
 8019066:	d1e5      	bne.n	8019034 <fl_fopen+0x190>
 8019068:	e7e1      	b.n	801902e <fl_fopen+0x18a>
 801906a:	4638      	mov	r0, r7
 801906c:	f7ff fbc0 	bl	80187f0 <_create_file>
 8019070:	4605      	mov	r5, r0
 8019072:	e7df      	b.n	8019034 <fl_fopen+0x190>
 8019074:	4638      	mov	r0, r7
 8019076:	f7ff fc7f 	bl	8018978 <_open_file>
 801907a:	4605      	mov	r5, r0
 801907c:	e7e2      	b.n	8019044 <fl_fopen+0x1a0>
 801907e:	2500      	movs	r5, #0
 8019080:	e7e7      	b.n	8019052 <fl_fopen+0x1ae>
 8019082:	463d      	mov	r5, r7
 8019084:	e7e5      	b.n	8019052 <fl_fopen+0x1ae>
 8019086:	bf00      	nop
 8019088:	20001e44 	.word	0x20001e44

0801908c <fl_fflush>:
 801908c:	b510      	push	{r4, lr}
 801908e:	4604      	mov	r4, r0
 8019090:	4b11      	ldr	r3, [pc, #68]	@ (80190d8 <fl_fflush+0x4c>)
 8019092:	f8d3 3ca8 	ldr.w	r3, [r3, #3240]	@ 0xca8
 8019096:	b16b      	cbz	r3, 80190b4 <fl_fflush+0x28>
 8019098:	b154      	cbz	r4, 80190b0 <fl_fflush+0x24>
 801909a:	4b0f      	ldr	r3, [pc, #60]	@ (80190d8 <fl_fflush+0x4c>)
 801909c:	6c9b      	ldr	r3, [r3, #72]	@ 0x48
 801909e:	b103      	cbz	r3, 80190a2 <fl_fflush+0x16>
 80190a0:	4798      	blx	r3
 80190a2:	f8d4 32ac 	ldr.w	r3, [r4, #684]	@ 0x2ac
 80190a6:	b943      	cbnz	r3, 80190ba <fl_fflush+0x2e>
 80190a8:	4b0b      	ldr	r3, [pc, #44]	@ (80190d8 <fl_fflush+0x4c>)
 80190aa:	6cdb      	ldr	r3, [r3, #76]	@ 0x4c
 80190ac:	b103      	cbz	r3, 80190b0 <fl_fflush+0x24>
 80190ae:	4798      	blx	r3
 80190b0:	2000      	movs	r0, #0
 80190b2:	bd10      	pop	{r4, pc}
 80190b4:	f7ff fe94 	bl	8018de0 <fl_init>
 80190b8:	e7ee      	b.n	8019098 <fl_fflush+0xc>
 80190ba:	2301      	movs	r3, #1
 80190bc:	f104 02a8 	add.w	r2, r4, #168	@ 0xa8
 80190c0:	f8d4 12a8 	ldr.w	r1, [r4, #680]	@ 0x2a8
 80190c4:	4620      	mov	r0, r4
 80190c6:	f7ff fccf 	bl	8018a68 <_write_sectors>
 80190ca:	2800      	cmp	r0, #0
 80190cc:	d0ec      	beq.n	80190a8 <fl_fflush+0x1c>
 80190ce:	2300      	movs	r3, #0
 80190d0:	f8c4 32ac 	str.w	r3, [r4, #684]	@ 0x2ac
 80190d4:	e7e8      	b.n	80190a8 <fl_fflush+0x1c>
 80190d6:	bf00      	nop
 80190d8:	20001e44 	.word	0x20001e44

080190dc <fl_fclose>:
 80190dc:	b510      	push	{r4, lr}
 80190de:	4604      	mov	r4, r0
 80190e0:	4b18      	ldr	r3, [pc, #96]	@ (8019144 <fl_fclose+0x68>)
 80190e2:	f8d3 3ca8 	ldr.w	r3, [r3, #3240]	@ 0xca8
 80190e6:	b303      	cbz	r3, 801912a <fl_fclose+0x4e>
 80190e8:	b1f4      	cbz	r4, 8019128 <fl_fclose+0x4c>
 80190ea:	4b16      	ldr	r3, [pc, #88]	@ (8019144 <fl_fclose+0x68>)
 80190ec:	6c9b      	ldr	r3, [r3, #72]	@ 0x48
 80190ee:	b103      	cbz	r3, 80190f2 <fl_fclose+0x16>
 80190f0:	4798      	blx	r3
 80190f2:	4620      	mov	r0, r4
 80190f4:	f7ff ffca 	bl	801908c <fl_fflush>
 80190f8:	6923      	ldr	r3, [r4, #16]
 80190fa:	b9cb      	cbnz	r3, 8019130 <fl_fclose+0x54>
 80190fc:	2300      	movs	r3, #0
 80190fe:	60a3      	str	r3, [r4, #8]
 8019100:	60e3      	str	r3, [r4, #12]
 8019102:	6063      	str	r3, [r4, #4]
 8019104:	f04f 32ff 	mov.w	r2, #4294967295	@ 0xffffffff
 8019108:	f8c4 22a8 	str.w	r2, [r4, #680]	@ 0x2a8
 801910c:	f8c4 32ac 	str.w	r3, [r4, #684]	@ 0x2ac
 8019110:	6123      	str	r3, [r4, #16]
 8019112:	4620      	mov	r0, r4
 8019114:	f7ff fb00 	bl	8018718 <_free_file>
 8019118:	4c0a      	ldr	r4, [pc, #40]	@ (8019144 <fl_fclose+0x68>)
 801911a:	f104 0010 	add.w	r0, r4, #16
 801911e:	f001 faca 	bl	801a6b6 <fatfs_fat_purge>
 8019122:	6ce3      	ldr	r3, [r4, #76]	@ 0x4c
 8019124:	b103      	cbz	r3, 8019128 <fl_fclose+0x4c>
 8019126:	4798      	blx	r3
 8019128:	bd10      	pop	{r4, pc}
 801912a:	f7ff fe59 	bl	8018de0 <fl_init>
 801912e:	e7db      	b.n	80190e8 <fl_fclose+0xc>
 8019130:	68e3      	ldr	r3, [r4, #12]
 8019132:	f104 0294 	add.w	r2, r4, #148	@ 0x94
 8019136:	6821      	ldr	r1, [r4, #0]
 8019138:	4803      	ldr	r0, [pc, #12]	@ (8019148 <fl_fclose+0x6c>)
 801913a:	f7ff f93f 	bl	80183bc <fatfs_update_file_length>
 801913e:	2300      	movs	r3, #0
 8019140:	6123      	str	r3, [r4, #16]
 8019142:	e7db      	b.n	80190fc <fl_fclose+0x20>
 8019144:	20001e44 	.word	0x20001e44
 8019148:	20001e54 	.word	0x20001e54

0801914c <fl_fread>:
 801914c:	e92d 47f0 	stmdb	sp!, {r4, r5, r6, r7, r8, r9, sl, lr}
 8019150:	4682      	mov	sl, r0
 8019152:	461c      	mov	r4, r3
 8019154:	fb02 f601 	mul.w	r6, r2, r1
 8019158:	4b3d      	ldr	r3, [pc, #244]	@ (8019250 <fl_fread+0x104>)
 801915a:	f8d3 3ca8 	ldr.w	r3, [r3, #3240]	@ 0xca8
 801915e:	b1cb      	cbz	r3, 8019194 <fl_fread+0x48>
 8019160:	f1ba 0f00 	cmp.w	sl, #0
 8019164:	d066      	beq.n	8019234 <fl_fread+0xe8>
 8019166:	2c00      	cmp	r4, #0
 8019168:	d067      	beq.n	801923a <fl_fread+0xee>
 801916a:	f894 32b0 	ldrb.w	r3, [r4, #688]	@ 0x2b0
 801916e:	f013 0f01 	tst.w	r3, #1
 8019172:	d065      	beq.n	8019240 <fl_fread+0xf4>
 8019174:	2e00      	cmp	r6, #0
 8019176:	d065      	beq.n	8019244 <fl_fread+0xf8>
 8019178:	68a3      	ldr	r3, [r4, #8]
 801917a:	68e2      	ldr	r2, [r4, #12]
 801917c:	4293      	cmp	r3, r2
 801917e:	d264      	bcs.n	801924a <fl_fread+0xfe>
 8019180:	18f1      	adds	r1, r6, r3
 8019182:	428a      	cmp	r2, r1
 8019184:	d209      	bcs.n	801919a <fl_fread+0x4e>
 8019186:	eba2 0903 	sub.w	r9, r2, r3
 801918a:	0a5f      	lsrs	r7, r3, #9
 801918c:	f3c3 0808 	ubfx	r8, r3, #0, #9
 8019190:	2600      	movs	r6, #0
 8019192:	e033      	b.n	80191fc <fl_fread+0xb0>
 8019194:	f7ff fe24 	bl	8018de0 <fl_init>
 8019198:	e7e2      	b.n	8019160 <fl_fread+0x14>
 801919a:	46b1      	mov	r9, r6
 801919c:	e7f5      	b.n	801918a <fl_fread+0x3e>
 801919e:	f202 13ff 	addw	r3, r2, #511	@ 0x1ff
 80191a2:	e038      	b.n	8019216 <fl_fread+0xca>
 80191a4:	f8d4 32a8 	ldr.w	r3, [r4, #680]	@ 0x2a8
 80191a8:	42bb      	cmp	r3, r7
 80191aa:	d011      	beq.n	80191d0 <fl_fread+0x84>
 80191ac:	f8d4 32ac 	ldr.w	r3, [r4, #684]	@ 0x2ac
 80191b0:	2b00      	cmp	r3, #0
 80191b2:	d13b      	bne.n	801922c <fl_fread+0xe0>
 80191b4:	2301      	movs	r3, #1
 80191b6:	f104 02a8 	add.w	r2, r4, #168	@ 0xa8
 80191ba:	4639      	mov	r1, r7
 80191bc:	4620      	mov	r0, r4
 80191be:	f7ff fccd 	bl	8018b5c <_read_sectors>
 80191c2:	2800      	cmp	r0, #0
 80191c4:	d03e      	beq.n	8019244 <fl_fread+0xf8>
 80191c6:	f8c4 72a8 	str.w	r7, [r4, #680]	@ 0x2a8
 80191ca:	2300      	movs	r3, #0
 80191cc:	f8c4 32ac 	str.w	r3, [r4, #684]	@ 0x2ac
 80191d0:	f5c8 7300 	rsb	r3, r8, #512	@ 0x200
 80191d4:	eba9 0506 	sub.w	r5, r9, r6
 80191d8:	429d      	cmp	r5, r3
 80191da:	db00      	blt.n	80191de <fl_fread+0x92>
 80191dc:	461d      	mov	r5, r3
 80191de:	f104 01a8 	add.w	r1, r4, #168	@ 0xa8
 80191e2:	462a      	mov	r2, r5
 80191e4:	4441      	add	r1, r8
 80191e6:	eb0a 0006 	add.w	r0, sl, r6
 80191ea:	f7f9 fc23 	bl	8012a34 <memcpy>
 80191ee:	3701      	adds	r7, #1
 80191f0:	442e      	add	r6, r5
 80191f2:	68a3      	ldr	r3, [r4, #8]
 80191f4:	441d      	add	r5, r3
 80191f6:	60a5      	str	r5, [r4, #8]
 80191f8:	f04f 0800 	mov.w	r8, #0
 80191fc:	45b1      	cmp	r9, r6
 80191fe:	dd21      	ble.n	8019244 <fl_fread+0xf8>
 8019200:	f1b8 0f00 	cmp.w	r8, #0
 8019204:	d1ce      	bne.n	80191a4 <fl_fread+0x58>
 8019206:	eba9 0206 	sub.w	r2, r9, r6
 801920a:	f5b2 7f00 	cmp.w	r2, #512	@ 0x200
 801920e:	dbc9      	blt.n	80191a4 <fl_fread+0x58>
 8019210:	4613      	mov	r3, r2
 8019212:	2a00      	cmp	r2, #0
 8019214:	dbc3      	blt.n	801919e <fl_fread+0x52>
 8019216:	125b      	asrs	r3, r3, #9
 8019218:	eb0a 0206 	add.w	r2, sl, r6
 801921c:	4639      	mov	r1, r7
 801921e:	4620      	mov	r0, r4
 8019220:	f7ff fc9c 	bl	8018b5c <_read_sectors>
 8019224:	b170      	cbz	r0, 8019244 <fl_fread+0xf8>
 8019226:	0245      	lsls	r5, r0, #9
 8019228:	4407      	add	r7, r0
 801922a:	e7e1      	b.n	80191f0 <fl_fread+0xa4>
 801922c:	4620      	mov	r0, r4
 801922e:	f7ff ff2d 	bl	801908c <fl_fflush>
 8019232:	e7bf      	b.n	80191b4 <fl_fread+0x68>
 8019234:	f04f 36ff 	mov.w	r6, #4294967295	@ 0xffffffff
 8019238:	e004      	b.n	8019244 <fl_fread+0xf8>
 801923a:	f04f 36ff 	mov.w	r6, #4294967295	@ 0xffffffff
 801923e:	e001      	b.n	8019244 <fl_fread+0xf8>
 8019240:	f04f 36ff 	mov.w	r6, #4294967295	@ 0xffffffff
 8019244:	4630      	mov	r0, r6
 8019246:	e8bd 87f0 	ldmia.w	sp!, {r4, r5, r6, r7, r8, r9, sl, pc}
 801924a:	f04f 36ff 	mov.w	r6, #4294967295	@ 0xffffffff
 801924e:	e7f9      	b.n	8019244 <fl_fread+0xf8>
 8019250:	20001e44 	.word	0x20001e44

08019254 <fl_fgetc>:
 8019254:	b500      	push	{lr}
 8019256:	b083      	sub	sp, #12
 8019258:	4603      	mov	r3, r0
 801925a:	2200      	movs	r2, #0
 801925c:	f88d 2007 	strb.w	r2, [sp, #7]
 8019260:	2201      	movs	r2, #1
 8019262:	4611      	mov	r1, r2
 8019264:	f10d 0007 	add.w	r0, sp, #7
 8019268:	f7ff ff70 	bl	801914c <fl_fread>
 801926c:	2801      	cmp	r0, #1
 801926e:	d002      	beq.n	8019276 <fl_fgetc+0x22>
 8019270:	b003      	add	sp, #12
 8019272:	f85d fb04 	ldr.w	pc, [sp], #4
 8019276:	f89d 0007 	ldrb.w	r0, [sp, #7]
 801927a:	e7f9      	b.n	8019270 <fl_fgetc+0x1c>

0801927c <fl_fgets>:
 801927c:	b5f8      	push	{r3, r4, r5, r6, r7, lr}
 801927e:	1e0e      	subs	r6, r1, #0
 8019280:	dd10      	ble.n	80192a4 <fl_fgets+0x28>
 8019282:	4605      	mov	r5, r0
 8019284:	4617      	mov	r7, r2
 8019286:	2400      	movs	r4, #0
 8019288:	1e73      	subs	r3, r6, #1
 801928a:	42a3      	cmp	r3, r4
 801928c:	dd0d      	ble.n	80192aa <fl_fgets+0x2e>
 801928e:	4638      	mov	r0, r7
 8019290:	f7ff ffe0 	bl	8019254 <fl_fgetc>
 8019294:	2800      	cmp	r0, #0
 8019296:	db08      	blt.n	80192aa <fl_fgets+0x2e>
 8019298:	1c63      	adds	r3, r4, #1
 801929a:	5528      	strb	r0, [r5, r4]
 801929c:	280a      	cmp	r0, #10
 801929e:	d003      	beq.n	80192a8 <fl_fgets+0x2c>
 80192a0:	461c      	mov	r4, r3
 80192a2:	e7f1      	b.n	8019288 <fl_fgets+0xc>
 80192a4:	2000      	movs	r0, #0
 80192a6:	e005      	b.n	80192b4 <fl_fgets+0x38>
 80192a8:	461c      	mov	r4, r3
 80192aa:	2c00      	cmp	r4, #0
 80192ac:	dd03      	ble.n	80192b6 <fl_fgets+0x3a>
 80192ae:	2300      	movs	r3, #0
 80192b0:	552b      	strb	r3, [r5, r4]
 80192b2:	4628      	mov	r0, r5
 80192b4:	bdf8      	pop	{r3, r4, r5, r6, r7, pc}
 80192b6:	2000      	movs	r0, #0
 80192b8:	e7fc      	b.n	80192b4 <fl_fgets+0x38>

080192ba <fl_fseek>:
 80192ba:	b570      	push	{r4, r5, r6, lr}
 80192bc:	4605      	mov	r5, r0
 80192be:	460e      	mov	r6, r1
 80192c0:	4614      	mov	r4, r2
 80192c2:	4b26      	ldr	r3, [pc, #152]	@ (801935c <fl_fseek+0xa2>)
 80192c4:	f8d3 3ca8 	ldr.w	r3, [r3, #3240]	@ 0xca8
 80192c8:	b1d3      	cbz	r3, 8019300 <fl_fseek+0x46>
 80192ca:	2d00      	cmp	r5, #0
 80192cc:	d043      	beq.n	8019356 <fl_fseek+0x9c>
 80192ce:	2c02      	cmp	r4, #2
 80192d0:	d019      	beq.n	8019306 <fl_fseek+0x4c>
 80192d2:	4b22      	ldr	r3, [pc, #136]	@ (801935c <fl_fseek+0xa2>)
 80192d4:	6c9b      	ldr	r3, [r3, #72]	@ 0x48
 80192d6:	b103      	cbz	r3, 80192da <fl_fseek+0x20>
 80192d8:	4798      	blx	r3
 80192da:	f04f 33ff 	mov.w	r3, #4294967295	@ 0xffffffff
 80192de:	f8c5 32a8 	str.w	r3, [r5, #680]	@ 0x2a8
 80192e2:	2300      	movs	r3, #0
 80192e4:	f8c5 32ac 	str.w	r3, [r5, #684]	@ 0x2ac
 80192e8:	b994      	cbnz	r4, 8019310 <fl_fseek+0x56>
 80192ea:	60ae      	str	r6, [r5, #8]
 80192ec:	68eb      	ldr	r3, [r5, #12]
 80192ee:	429e      	cmp	r6, r3
 80192f0:	d900      	bls.n	80192f4 <fl_fseek+0x3a>
 80192f2:	60ab      	str	r3, [r5, #8]
 80192f4:	4b19      	ldr	r3, [pc, #100]	@ (801935c <fl_fseek+0xa2>)
 80192f6:	6cdb      	ldr	r3, [r3, #76]	@ 0x4c
 80192f8:	b103      	cbz	r3, 80192fc <fl_fseek+0x42>
 80192fa:	4798      	blx	r3
 80192fc:	4620      	mov	r0, r4
 80192fe:	bd70      	pop	{r4, r5, r6, pc}
 8019300:	f7ff fd6e 	bl	8018de0 <fl_init>
 8019304:	e7e1      	b.n	80192ca <fl_fseek+0x10>
 8019306:	2e00      	cmp	r6, #0
 8019308:	d0e3      	beq.n	80192d2 <fl_fseek+0x18>
 801930a:	f04f 34ff 	mov.w	r4, #4294967295	@ 0xffffffff
 801930e:	e7f5      	b.n	80192fc <fl_fseek+0x42>
 8019310:	2c01      	cmp	r4, #1
 8019312:	d004      	beq.n	801931e <fl_fseek+0x64>
 8019314:	2c02      	cmp	r4, #2
 8019316:	d018      	beq.n	801934a <fl_fseek+0x90>
 8019318:	f04f 34ff 	mov.w	r4, #4294967295	@ 0xffffffff
 801931c:	e7ea      	b.n	80192f4 <fl_fseek+0x3a>
 801931e:	2e00      	cmp	r6, #0
 8019320:	db08      	blt.n	8019334 <fl_fseek+0x7a>
 8019322:	68ab      	ldr	r3, [r5, #8]
 8019324:	4433      	add	r3, r6
 8019326:	60ab      	str	r3, [r5, #8]
 8019328:	68ea      	ldr	r2, [r5, #12]
 801932a:	4293      	cmp	r3, r2
 801932c:	d911      	bls.n	8019352 <fl_fseek+0x98>
 801932e:	60aa      	str	r2, [r5, #8]
 8019330:	2400      	movs	r4, #0
 8019332:	e7df      	b.n	80192f4 <fl_fseek+0x3a>
 8019334:	4273      	negs	r3, r6
 8019336:	68aa      	ldr	r2, [r5, #8]
 8019338:	429a      	cmp	r2, r3
 801933a:	d202      	bcs.n	8019342 <fl_fseek+0x88>
 801933c:	2400      	movs	r4, #0
 801933e:	60ac      	str	r4, [r5, #8]
 8019340:	e7d8      	b.n	80192f4 <fl_fseek+0x3a>
 8019342:	4432      	add	r2, r6
 8019344:	60aa      	str	r2, [r5, #8]
 8019346:	2400      	movs	r4, #0
 8019348:	e7d4      	b.n	80192f4 <fl_fseek+0x3a>
 801934a:	68eb      	ldr	r3, [r5, #12]
 801934c:	60ab      	str	r3, [r5, #8]
 801934e:	2400      	movs	r4, #0
 8019350:	e7d0      	b.n	80192f4 <fl_fseek+0x3a>
 8019352:	2400      	movs	r4, #0
 8019354:	e7ce      	b.n	80192f4 <fl_fseek+0x3a>
 8019356:	f04f 34ff 	mov.w	r4, #4294967295	@ 0xffffffff
 801935a:	e7cf      	b.n	80192fc <fl_fseek+0x42>
 801935c:	20001e44 	.word	0x20001e44

08019360 <fl_fgetpos>:
 8019360:	b170      	cbz	r0, 8019380 <fl_fgetpos+0x20>
 8019362:	b538      	push	{r3, r4, r5, lr}
 8019364:	460c      	mov	r4, r1
 8019366:	4605      	mov	r5, r0
 8019368:	4b08      	ldr	r3, [pc, #32]	@ (801938c <fl_fgetpos+0x2c>)
 801936a:	6c9b      	ldr	r3, [r3, #72]	@ 0x48
 801936c:	b103      	cbz	r3, 8019370 <fl_fgetpos+0x10>
 801936e:	4798      	blx	r3
 8019370:	68ab      	ldr	r3, [r5, #8]
 8019372:	6023      	str	r3, [r4, #0]
 8019374:	4b05      	ldr	r3, [pc, #20]	@ (801938c <fl_fgetpos+0x2c>)
 8019376:	6cdb      	ldr	r3, [r3, #76]	@ 0x4c
 8019378:	b12b      	cbz	r3, 8019386 <fl_fgetpos+0x26>
 801937a:	4798      	blx	r3
 801937c:	2000      	movs	r0, #0
 801937e:	bd38      	pop	{r3, r4, r5, pc}
 8019380:	f04f 30ff 	mov.w	r0, #4294967295	@ 0xffffffff
 8019384:	4770      	bx	lr
 8019386:	2000      	movs	r0, #0
 8019388:	e7f9      	b.n	801937e <fl_fgetpos+0x1e>
 801938a:	bf00      	nop
 801938c:	20001e44 	.word	0x20001e44

08019390 <fl_ftell>:
 8019390:	b500      	push	{lr}
 8019392:	b083      	sub	sp, #12
 8019394:	2300      	movs	r3, #0
 8019396:	9301      	str	r3, [sp, #4]
 8019398:	a901      	add	r1, sp, #4
 801939a:	f7ff ffe1 	bl	8019360 <fl_fgetpos>
 801939e:	9801      	ldr	r0, [sp, #4]
 80193a0:	b003      	add	sp, #12
 80193a2:	f85d fb04 	ldr.w	pc, [sp], #4

080193a6 <fl_feof>:
 80193a6:	b510      	push	{r4, lr}
 80193a8:	b190      	cbz	r0, 80193d0 <fl_feof+0x2a>
 80193aa:	4604      	mov	r4, r0
 80193ac:	4b0a      	ldr	r3, [pc, #40]	@ (80193d8 <fl_feof+0x32>)
 80193ae:	6c9b      	ldr	r3, [r3, #72]	@ 0x48
 80193b0:	b103      	cbz	r3, 80193b4 <fl_feof+0xe>
 80193b2:	4798      	blx	r3
 80193b4:	68a2      	ldr	r2, [r4, #8]
 80193b6:	68e3      	ldr	r3, [r4, #12]
 80193b8:	429a      	cmp	r2, r3
 80193ba:	d006      	beq.n	80193ca <fl_feof+0x24>
 80193bc:	2400      	movs	r4, #0
 80193be:	4b06      	ldr	r3, [pc, #24]	@ (80193d8 <fl_feof+0x32>)
 80193c0:	6cdb      	ldr	r3, [r3, #76]	@ 0x4c
 80193c2:	b103      	cbz	r3, 80193c6 <fl_feof+0x20>
 80193c4:	4798      	blx	r3
 80193c6:	4620      	mov	r0, r4
 80193c8:	bd10      	pop	{r4, pc}
 80193ca:	f06f 0401 	mvn.w	r4, #1
 80193ce:	e7f6      	b.n	80193be <fl_feof+0x18>
 80193d0:	f04f 34ff 	mov.w	r4, #4294967295	@ 0xffffffff
 80193d4:	e7f7      	b.n	80193c6 <fl_feof+0x20>
 80193d6:	bf00      	nop
 80193d8:	20001e44 	.word	0x20001e44

080193dc <fl_fwrite>:
 80193dc:	e92d 4ff0 	stmdb	sp!, {r4, r5, r6, r7, r8, r9, sl, fp, lr}
 80193e0:	b083      	sub	sp, #12
 80193e2:	4682      	mov	sl, r0
 80193e4:	461c      	mov	r4, r3
 80193e6:	fb02 fb01 	mul.w	fp, r2, r1
 80193ea:	46d9      	mov	r9, fp
 80193ec:	4b54      	ldr	r3, [pc, #336]	@ (8019540 <fl_fwrite+0x164>)
 80193ee:	f8d3 3ca8 	ldr.w	r3, [r3, #3240]	@ 0xca8
 80193f2:	b1c3      	cbz	r3, 8019426 <fl_fwrite+0x4a>
 80193f4:	2c00      	cmp	r4, #0
 80193f6:	f000 80a0 	beq.w	801953a <fl_fwrite+0x15e>
 80193fa:	4b51      	ldr	r3, [pc, #324]	@ (8019540 <fl_fwrite+0x164>)
 80193fc:	6c9b      	ldr	r3, [r3, #72]	@ 0x48
 80193fe:	b103      	cbz	r3, 8019402 <fl_fwrite+0x26>
 8019400:	4798      	blx	r3
 8019402:	f894 32b0 	ldrb.w	r3, [r4, #688]	@ 0x2b0
 8019406:	f013 0f02 	tst.w	r3, #2
 801940a:	d00f      	beq.n	801942c <fl_fwrite+0x50>
 801940c:	f013 0f04 	tst.w	r3, #4
 8019410:	d001      	beq.n	8019416 <fl_fwrite+0x3a>
 8019412:	68e3      	ldr	r3, [r4, #12]
 8019414:	60a3      	str	r3, [r4, #8]
 8019416:	68a3      	ldr	r3, [r4, #8]
 8019418:	0a5f      	lsrs	r7, r3, #9
 801941a:	f3c3 0808 	ubfx	r8, r3, #0, #9
 801941e:	2500      	movs	r5, #0
 8019420:	f8cd b004 	str.w	fp, [sp, #4]
 8019424:	e036      	b.n	8019494 <fl_fwrite+0xb8>
 8019426:	f7ff fcdb 	bl	8018de0 <fl_init>
 801942a:	e7e3      	b.n	80193f4 <fl_fwrite+0x18>
 801942c:	4b44      	ldr	r3, [pc, #272]	@ (8019540 <fl_fwrite+0x164>)
 801942e:	6cdb      	ldr	r3, [r3, #76]	@ 0x4c
 8019430:	b103      	cbz	r3, 8019434 <fl_fwrite+0x58>
 8019432:	4798      	blx	r3
 8019434:	f04f 3bff 	mov.w	fp, #4294967295	@ 0xffffffff
 8019438:	e07b      	b.n	8019532 <fl_fwrite+0x156>
 801943a:	4620      	mov	r0, r4
 801943c:	f7ff fe26 	bl	801908c <fl_fflush>
 8019440:	e03b      	b.n	80194ba <fl_fwrite+0xde>
 8019442:	f5c8 7300 	rsb	r3, r8, #512	@ 0x200
 8019446:	eba9 0605 	sub.w	r6, r9, r5
 801944a:	429e      	cmp	r6, r3
 801944c:	d300      	bcc.n	8019450 <fl_fwrite+0x74>
 801944e:	461e      	mov	r6, r3
 8019450:	f8d4 32a8 	ldr.w	r3, [r4, #680]	@ 0x2a8
 8019454:	42bb      	cmp	r3, r7
 8019456:	d00b      	beq.n	8019470 <fl_fwrite+0x94>
 8019458:	f8d4 32ac 	ldr.w	r3, [r4, #684]	@ 0x2ac
 801945c:	2b00      	cmp	r3, #0
 801945e:	d146      	bne.n	80194ee <fl_fwrite+0x112>
 8019460:	f5b6 7f00 	cmp.w	r6, #512	@ 0x200
 8019464:	d147      	bne.n	80194f6 <fl_fwrite+0x11a>
 8019466:	f8c4 72a8 	str.w	r7, [r4, #680]	@ 0x2a8
 801946a:	2300      	movs	r3, #0
 801946c:	f8c4 32ac 	str.w	r3, [r4, #684]	@ 0x2ac
 8019470:	f104 00a8 	add.w	r0, r4, #168	@ 0xa8
 8019474:	4632      	mov	r2, r6
 8019476:	eb0a 0105 	add.w	r1, sl, r5
 801947a:	4440      	add	r0, r8
 801947c:	f7f9 fada 	bl	8012a34 <memcpy>
 8019480:	2301      	movs	r3, #1
 8019482:	f8c4 32ac 	str.w	r3, [r4, #684]	@ 0x2ac
 8019486:	4435      	add	r5, r6
 8019488:	68a3      	ldr	r3, [r4, #8]
 801948a:	4433      	add	r3, r6
 801948c:	60a3      	str	r3, [r4, #8]
 801948e:	3701      	adds	r7, #1
 8019490:	f04f 0800 	mov.w	r8, #0
 8019494:	454d      	cmp	r5, r9
 8019496:	d23f      	bcs.n	8019518 <fl_fwrite+0x13c>
 8019498:	f1b8 0f00 	cmp.w	r8, #0
 801949c:	d1d1      	bne.n	8019442 <fl_fwrite+0x66>
 801949e:	eba9 0605 	sub.w	r6, r9, r5
 80194a2:	f5b6 7f00 	cmp.w	r6, #512	@ 0x200
 80194a6:	d3cc      	bcc.n	8019442 <fl_fwrite+0x66>
 80194a8:	f8d4 32a8 	ldr.w	r3, [r4, #680]	@ 0x2a8
 80194ac:	f1b3 3fff 	cmp.w	r3, #4294967295	@ 0xffffffff
 80194b0:	d00a      	beq.n	80194c8 <fl_fwrite+0xec>
 80194b2:	f8d4 32ac 	ldr.w	r3, [r4, #684]	@ 0x2ac
 80194b6:	2b00      	cmp	r3, #0
 80194b8:	d1bf      	bne.n	801943a <fl_fwrite+0x5e>
 80194ba:	f04f 33ff 	mov.w	r3, #4294967295	@ 0xffffffff
 80194be:	f8c4 32a8 	str.w	r3, [r4, #680]	@ 0x2a8
 80194c2:	2300      	movs	r3, #0
 80194c4:	f8c4 32ac 	str.w	r3, [r4, #684]	@ 0x2ac
 80194c8:	0a73      	lsrs	r3, r6, #9
 80194ca:	eb0a 0205 	add.w	r2, sl, r5
 80194ce:	4639      	mov	r1, r7
 80194d0:	4620      	mov	r0, r4
 80194d2:	f7ff fac9 	bl	8018a68 <_write_sectors>
 80194d6:	eb05 2540 	add.w	r5, r5, r0, lsl #9
 80194da:	68a3      	ldr	r3, [r4, #8]
 80194dc:	eb03 2340 	add.w	r3, r3, r0, lsl #9
 80194e0:	60a3      	str	r3, [r4, #8]
 80194e2:	4407      	add	r7, r0
 80194e4:	2800      	cmp	r0, #0
 80194e6:	d1d3      	bne.n	8019490 <fl_fwrite+0xb4>
 80194e8:	f8dd b004 	ldr.w	fp, [sp, #4]
 80194ec:	e016      	b.n	801951c <fl_fwrite+0x140>
 80194ee:	4620      	mov	r0, r4
 80194f0:	f7ff fdcc 	bl	801908c <fl_fflush>
 80194f4:	e7b4      	b.n	8019460 <fl_fwrite+0x84>
 80194f6:	f104 0ba8 	add.w	fp, r4, #168	@ 0xa8
 80194fa:	2301      	movs	r3, #1
 80194fc:	465a      	mov	r2, fp
 80194fe:	4639      	mov	r1, r7
 8019500:	4620      	mov	r0, r4
 8019502:	f7ff fb2b 	bl	8018b5c <_read_sectors>
 8019506:	2800      	cmp	r0, #0
 8019508:	d1ad      	bne.n	8019466 <fl_fwrite+0x8a>
 801950a:	f44f 7200 	mov.w	r2, #512	@ 0x200
 801950e:	2100      	movs	r1, #0
 8019510:	4658      	mov	r0, fp
 8019512:	f7f9 fa88 	bl	8012a26 <memset>
 8019516:	e7a6      	b.n	8019466 <fl_fwrite+0x8a>
 8019518:	f8dd b004 	ldr.w	fp, [sp, #4]
 801951c:	68a3      	ldr	r3, [r4, #8]
 801951e:	68e2      	ldr	r2, [r4, #12]
 8019520:	4293      	cmp	r3, r2
 8019522:	d902      	bls.n	801952a <fl_fwrite+0x14e>
 8019524:	60e3      	str	r3, [r4, #12]
 8019526:	2301      	movs	r3, #1
 8019528:	6123      	str	r3, [r4, #16]
 801952a:	4b05      	ldr	r3, [pc, #20]	@ (8019540 <fl_fwrite+0x164>)
 801952c:	6cdb      	ldr	r3, [r3, #76]	@ 0x4c
 801952e:	b103      	cbz	r3, 8019532 <fl_fwrite+0x156>
 8019530:	4798      	blx	r3
 8019532:	4658      	mov	r0, fp
 8019534:	b003      	add	sp, #12
 8019536:	e8bd 8ff0 	ldmia.w	sp!, {r4, r5, r6, r7, r8, r9, sl, fp, pc}
 801953a:	f04f 3bff 	mov.w	fp, #4294967295	@ 0xffffffff
 801953e:	e7f8      	b.n	8019532 <fl_fwrite+0x156>
 8019540:	20001e44 	.word	0x20001e44

08019544 <fl_fputc>:
 8019544:	b510      	push	{r4, lr}
 8019546:	b082      	sub	sp, #8
 8019548:	4604      	mov	r4, r0
 801954a:	460b      	mov	r3, r1
 801954c:	f88d 0007 	strb.w	r0, [sp, #7]
 8019550:	2201      	movs	r2, #1
 8019552:	4611      	mov	r1, r2
 8019554:	f10d 0007 	add.w	r0, sp, #7
 8019558:	f7ff ff40 	bl	80193dc <fl_fwrite>
 801955c:	2801      	cmp	r0, #1
 801955e:	d001      	beq.n	8019564 <fl_fputc+0x20>
 8019560:	b002      	add	sp, #8
 8019562:	bd10      	pop	{r4, pc}
 8019564:	4620      	mov	r0, r4
 8019566:	e7fb      	b.n	8019560 <fl_fputc+0x1c>

08019568 <fl_fputs>:
 8019568:	b570      	push	{r4, r5, r6, lr}
 801956a:	4605      	mov	r5, r0
 801956c:	460e      	mov	r6, r1
 801956e:	f7f9 fa90 	bl	8012a92 <strlen>
 8019572:	4604      	mov	r4, r0
 8019574:	4633      	mov	r3, r6
 8019576:	4602      	mov	r2, r0
 8019578:	2101      	movs	r1, #1
 801957a:	4628      	mov	r0, r5
 801957c:	f7ff ff2e 	bl	80193dc <fl_fwrite>
 8019580:	4284      	cmp	r4, r0
 8019582:	d000      	beq.n	8019586 <fl_fputs+0x1e>
 8019584:	bd70      	pop	{r4, r5, r6, pc}
 8019586:	4620      	mov	r0, r4
 8019588:	e7fc      	b.n	8019584 <fl_fputs+0x1c>

0801958a <fl_remove>:
 801958a:	b510      	push	{r4, lr}
 801958c:	4604      	mov	r4, r0
 801958e:	4b14      	ldr	r3, [pc, #80]	@ (80195e0 <fl_remove+0x56>)
 8019590:	6c9b      	ldr	r3, [r3, #72]	@ 0x48
 8019592:	b103      	cbz	r3, 8019596 <fl_remove+0xc>
 8019594:	4798      	blx	r3
 8019596:	4913      	ldr	r1, [pc, #76]	@ (80195e4 <fl_remove+0x5a>)
 8019598:	4620      	mov	r0, r4
 801959a:	f7ff fc83 	bl	8018ea4 <fl_fopen>
 801959e:	4604      	mov	r4, r0
 80195a0:	b1a8      	cbz	r0, 80195ce <fl_remove+0x44>
 80195a2:	6841      	ldr	r1, [r0, #4]
 80195a4:	4810      	ldr	r0, [pc, #64]	@ (80195e8 <fl_remove+0x5e>)
 80195a6:	f001 f9a0 	bl	801a8ea <fatfs_free_cluster_chain>
 80195aa:	b198      	cbz	r0, 80195d4 <fl_remove+0x4a>
 80195ac:	4622      	mov	r2, r4
 80195ae:	f852 1b94 	ldr.w	r1, [r2], #148
 80195b2:	480d      	ldr	r0, [pc, #52]	@ (80195e8 <fl_remove+0x5e>)
 80195b4:	f7fe ff4a 	bl	801844c <fatfs_mark_file_deleted>
 80195b8:	b178      	cbz	r0, 80195da <fl_remove+0x50>
 80195ba:	4620      	mov	r0, r4
 80195bc:	f7ff fd8e 	bl	80190dc <fl_fclose>
 80195c0:	2400      	movs	r4, #0
 80195c2:	4b07      	ldr	r3, [pc, #28]	@ (80195e0 <fl_remove+0x56>)
 80195c4:	6cdb      	ldr	r3, [r3, #76]	@ 0x4c
 80195c6:	b103      	cbz	r3, 80195ca <fl_remove+0x40>
 80195c8:	4798      	blx	r3
 80195ca:	4620      	mov	r0, r4
 80195cc:	bd10      	pop	{r4, pc}
 80195ce:	f04f 34ff 	mov.w	r4, #4294967295	@ 0xffffffff
 80195d2:	e7f6      	b.n	80195c2 <fl_remove+0x38>
 80195d4:	f04f 34ff 	mov.w	r4, #4294967295	@ 0xffffffff
 80195d8:	e7f3      	b.n	80195c2 <fl_remove+0x38>
 80195da:	f04f 34ff 	mov.w	r4, #4294967295	@ 0xffffffff
 80195de:	e7f0      	b.n	80195c2 <fl_remove+0x38>
 80195e0:	20001e44 	.word	0x20001e44
 80195e4:	0801c9d4 	.word	0x0801c9d4
 80195e8:	20001e54 	.word	0x20001e54

080195ec <fl_createdirectory>:
 80195ec:	b510      	push	{r4, lr}
 80195ee:	4604      	mov	r4, r0
 80195f0:	4b0a      	ldr	r3, [pc, #40]	@ (801961c <fl_createdirectory+0x30>)
 80195f2:	f8d3 3ca8 	ldr.w	r3, [r3, #3240]	@ 0xca8
 80195f6:	b16b      	cbz	r3, 8019614 <fl_createdirectory+0x28>
 80195f8:	4b08      	ldr	r3, [pc, #32]	@ (801961c <fl_createdirectory+0x30>)
 80195fa:	6c9b      	ldr	r3, [r3, #72]	@ 0x48
 80195fc:	b103      	cbz	r3, 8019600 <fl_createdirectory+0x14>
 80195fe:	4798      	blx	r3
 8019600:	4620      	mov	r0, r4
 8019602:	f7ff fb0f 	bl	8018c24 <_create_directory>
 8019606:	4604      	mov	r4, r0
 8019608:	4b04      	ldr	r3, [pc, #16]	@ (801961c <fl_createdirectory+0x30>)
 801960a:	6cdb      	ldr	r3, [r3, #76]	@ 0x4c
 801960c:	b103      	cbz	r3, 8019610 <fl_createdirectory+0x24>
 801960e:	4798      	blx	r3
 8019610:	4620      	mov	r0, r4
 8019612:	bd10      	pop	{r4, pc}
 8019614:	f7ff fbe4 	bl	8018de0 <fl_init>
 8019618:	e7ee      	b.n	80195f8 <fl_createdirectory+0xc>
 801961a:	bf00      	nop
 801961c:	20001e44 	.word	0x20001e44

08019620 <fl_opendir>:
 8019620:	b530      	push	{r4, r5, lr}
 8019622:	b083      	sub	sp, #12
 8019624:	4605      	mov	r5, r0
 8019626:	460c      	mov	r4, r1
 8019628:	f04f 33ff 	mov.w	r3, #4294967295	@ 0xffffffff
 801962c:	9301      	str	r3, [sp, #4]
 801962e:	4b16      	ldr	r3, [pc, #88]	@ (8019688 <fl_opendir+0x68>)
 8019630:	f8d3 3ca8 	ldr.w	r3, [r3, #3240]	@ 0xca8
 8019634:	b17b      	cbz	r3, 8019656 <fl_opendir+0x36>
 8019636:	4b14      	ldr	r3, [pc, #80]	@ (8019688 <fl_opendir+0x68>)
 8019638:	6c9b      	ldr	r3, [r3, #72]	@ 0x48
 801963a:	b103      	cbz	r3, 801963e <fl_opendir+0x1e>
 801963c:	4798      	blx	r3
 801963e:	4628      	mov	r0, r5
 8019640:	f000 fe18 	bl	801a274 <fatfs_total_path_levels>
 8019644:	f1b0 3fff 	cmp.w	r0, #4294967295	@ 0xffffffff
 8019648:	d008      	beq.n	801965c <fl_opendir+0x3c>
 801964a:	a901      	add	r1, sp, #4
 801964c:	4628      	mov	r0, r5
 801964e:	f7ff f895 	bl	801877c <_open_directory>
 8019652:	b160      	cbz	r0, 801966e <fl_opendir+0x4e>
 8019654:	e006      	b.n	8019664 <fl_opendir+0x44>
 8019656:	f7ff fbc3 	bl	8018de0 <fl_init>
 801965a:	e7ec      	b.n	8019636 <fl_opendir+0x16>
 801965c:	480b      	ldr	r0, [pc, #44]	@ (801968c <fl_opendir+0x6c>)
 801965e:	f7fe fde3 	bl	8018228 <fatfs_get_root_cluster>
 8019662:	9001      	str	r0, [sp, #4]
 8019664:	9a01      	ldr	r2, [sp, #4]
 8019666:	4621      	mov	r1, r4
 8019668:	4808      	ldr	r0, [pc, #32]	@ (801968c <fl_opendir+0x6c>)
 801966a:	f7fe ff39 	bl	80184e0 <fatfs_list_directory_start>
 801966e:	4b06      	ldr	r3, [pc, #24]	@ (8019688 <fl_opendir+0x68>)
 8019670:	6cdb      	ldr	r3, [r3, #76]	@ 0x4c
 8019672:	b103      	cbz	r3, 8019676 <fl_opendir+0x56>
 8019674:	4798      	blx	r3
 8019676:	9b01      	ldr	r3, [sp, #4]
 8019678:	f1b3 3fff 	cmp.w	r3, #4294967295	@ 0xffffffff
 801967c:	d002      	beq.n	8019684 <fl_opendir+0x64>
 801967e:	4620      	mov	r0, r4
 8019680:	b003      	add	sp, #12
 8019682:	bd30      	pop	{r4, r5, pc}
 8019684:	2000      	movs	r0, #0
 8019686:	e7fb      	b.n	8019680 <fl_opendir+0x60>
 8019688:	20001e44 	.word	0x20001e44
 801968c:	20001e54 	.word	0x20001e54

08019690 <fl_readdir>:
 8019690:	b570      	push	{r4, r5, r6, lr}
 8019692:	4604      	mov	r4, r0
 8019694:	460d      	mov	r5, r1
 8019696:	4b0e      	ldr	r3, [pc, #56]	@ (80196d0 <fl_readdir+0x40>)
 8019698:	f8d3 3ca8 	ldr.w	r3, [r3, #3240]	@ 0xca8
 801969c:	b18b      	cbz	r3, 80196c2 <fl_readdir+0x32>
 801969e:	4b0c      	ldr	r3, [pc, #48]	@ (80196d0 <fl_readdir+0x40>)
 80196a0:	6c9b      	ldr	r3, [r3, #72]	@ 0x48
 80196a2:	b103      	cbz	r3, 80196a6 <fl_readdir+0x16>
 80196a4:	4798      	blx	r3
 80196a6:	4e0a      	ldr	r6, [pc, #40]	@ (80196d0 <fl_readdir+0x40>)
 80196a8:	462a      	mov	r2, r5
 80196aa:	4621      	mov	r1, r4
 80196ac:	f106 0010 	add.w	r0, r6, #16
 80196b0:	f7fe ff1b 	bl	80184ea <fatfs_list_directory_next>
 80196b4:	4604      	mov	r4, r0
 80196b6:	6cf3      	ldr	r3, [r6, #76]	@ 0x4c
 80196b8:	b103      	cbz	r3, 80196bc <fl_readdir+0x2c>
 80196ba:	4798      	blx	r3
 80196bc:	b124      	cbz	r4, 80196c8 <fl_readdir+0x38>
 80196be:	2000      	movs	r0, #0
 80196c0:	bd70      	pop	{r4, r5, r6, pc}
 80196c2:	f7ff fb8d 	bl	8018de0 <fl_init>
 80196c6:	e7ea      	b.n	801969e <fl_readdir+0xe>
 80196c8:	f04f 30ff 	mov.w	r0, #4294967295	@ 0xffffffff
 80196cc:	e7f8      	b.n	80196c0 <fl_readdir+0x30>
 80196ce:	bf00      	nop
 80196d0:	20001e44 	.word	0x20001e44

080196d4 <fl_listdirectory>:
 80196d4:	b510      	push	{r4, lr}
 80196d6:	b096      	sub	sp, #88	@ 0x58
 80196d8:	4604      	mov	r4, r0
 80196da:	4b17      	ldr	r3, [pc, #92]	@ (8019738 <fl_listdirectory+0x64>)
 80196dc:	f8d3 3ca8 	ldr.w	r3, [r3, #3240]	@ 0xca8
 80196e0:	b193      	cbz	r3, 8019708 <fl_listdirectory+0x34>
 80196e2:	4b15      	ldr	r3, [pc, #84]	@ (8019738 <fl_listdirectory+0x64>)
 80196e4:	6c9b      	ldr	r3, [r3, #72]	@ 0x48
 80196e6:	b103      	cbz	r3, 80196ea <fl_listdirectory+0x16>
 80196e8:	4798      	blx	r3
 80196ea:	4621      	mov	r1, r4
 80196ec:	4813      	ldr	r0, [pc, #76]	@ (801973c <fl_listdirectory+0x68>)
 80196ee:	f7f8 fe99 	bl	8012424 <printf>
 80196f2:	a913      	add	r1, sp, #76	@ 0x4c
 80196f4:	4620      	mov	r0, r4
 80196f6:	f7ff ff93 	bl	8019620 <fl_opendir>
 80196fa:	b968      	cbnz	r0, 8019718 <fl_listdirectory+0x44>
 80196fc:	4b0e      	ldr	r3, [pc, #56]	@ (8019738 <fl_listdirectory+0x64>)
 80196fe:	6cdb      	ldr	r3, [r3, #76]	@ 0x4c
 8019700:	b103      	cbz	r3, 8019704 <fl_listdirectory+0x30>
 8019702:	4798      	blx	r3
 8019704:	b016      	add	sp, #88	@ 0x58
 8019706:	bd10      	pop	{r4, pc}
 8019708:	f7ff fb6a 	bl	8018de0 <fl_init>
 801970c:	e7e9      	b.n	80196e2 <fl_listdirectory+0xe>
 801970e:	9a12      	ldr	r2, [sp, #72]	@ 0x48
 8019710:	4669      	mov	r1, sp
 8019712:	480b      	ldr	r0, [pc, #44]	@ (8019740 <fl_listdirectory+0x6c>)
 8019714:	f7f8 fe86 	bl	8012424 <printf>
 8019718:	4669      	mov	r1, sp
 801971a:	a813      	add	r0, sp, #76	@ 0x4c
 801971c:	f7ff ffb8 	bl	8019690 <fl_readdir>
 8019720:	2800      	cmp	r0, #0
 8019722:	d1eb      	bne.n	80196fc <fl_listdirectory+0x28>
 8019724:	f89d 3040 	ldrb.w	r3, [sp, #64]	@ 0x40
 8019728:	2b00      	cmp	r3, #0
 801972a:	d0f0      	beq.n	801970e <fl_listdirectory+0x3a>
 801972c:	4669      	mov	r1, sp
 801972e:	4805      	ldr	r0, [pc, #20]	@ (8019744 <fl_listdirectory+0x70>)
 8019730:	f7f8 fe78 	bl	8012424 <printf>
 8019734:	e7f0      	b.n	8019718 <fl_listdirectory+0x44>
 8019736:	bf00      	nop
 8019738:	20001e44 	.word	0x20001e44
 801973c:	0801d4e4 	.word	0x0801d4e4
 8019740:	0801cd70 	.word	0x0801cd70
 8019744:	0801cd64 	.word	0x0801cd64

08019748 <fl_closedir>:
 8019748:	2000      	movs	r0, #0
 801974a:	4770      	bx	lr

0801974c <fl_is_dir>:
 801974c:	b500      	push	{lr}
 801974e:	b085      	sub	sp, #20
 8019750:	a901      	add	r1, sp, #4
 8019752:	f7ff ff65 	bl	8019620 <fl_opendir>
 8019756:	b100      	cbz	r0, 801975a <fl_is_dir+0xe>
 8019758:	2001      	movs	r0, #1
 801975a:	b005      	add	sp, #20
 801975c:	f85d fb04 	ldr.w	pc, [sp], #4

08019760 <fl_format>:
 8019760:	b508      	push	{r3, lr}
 8019762:	460a      	mov	r2, r1
 8019764:	4601      	mov	r1, r0
 8019766:	4802      	ldr	r0, [pc, #8]	@ (8019770 <fl_format+0x10>)
 8019768:	f000 fb04 	bl	8019d74 <fatfs_format>
 801976c:	bd08      	pop	{r3, pc}
 801976e:	bf00      	nop
 8019770:	20001e54 	.word	0x20001e54

08019774 <fatfs_calc_cluster_size>:
 8019774:	4684      	mov	ip, r0
 8019776:	460a      	mov	r2, r1
 8019778:	b111      	cbz	r1, 8019780 <fatfs_calc_cluster_size+0xc>
 801977a:	2200      	movs	r2, #0
 801977c:	e00d      	b.n	801979a <fatfs_calc_cluster_size+0x26>
 801977e:	3201      	adds	r2, #1
 8019780:	4b0d      	ldr	r3, [pc, #52]	@ (80197b8 <fatfs_calc_cluster_size+0x44>)
 8019782:	eb03 03c2 	add.w	r3, r3, r2, lsl #3
 8019786:	7918      	ldrb	r0, [r3, #4]
 8019788:	b128      	cbz	r0, 8019796 <fatfs_calc_cluster_size+0x22>
 801978a:	4b0b      	ldr	r3, [pc, #44]	@ (80197b8 <fatfs_calc_cluster_size+0x44>)
 801978c:	f853 3032 	ldr.w	r3, [r3, r2, lsl #3]
 8019790:	4563      	cmp	r3, ip
 8019792:	d3f4      	bcc.n	801977e <fatfs_calc_cluster_size+0xa>
 8019794:	4770      	bx	lr
 8019796:	4770      	bx	lr
 8019798:	3201      	adds	r2, #1
 801979a:	4b07      	ldr	r3, [pc, #28]	@ (80197b8 <fatfs_calc_cluster_size+0x44>)
 801979c:	eb03 03c2 	add.w	r3, r3, r2, lsl #3
 80197a0:	f893 0044 	ldrb.w	r0, [r3, #68]	@ 0x44
 80197a4:	2800      	cmp	r0, #0
 80197a6:	d0f5      	beq.n	8019794 <fatfs_calc_cluster_size+0x20>
 80197a8:	4b03      	ldr	r3, [pc, #12]	@ (80197b8 <fatfs_calc_cluster_size+0x44>)
 80197aa:	eb03 03c2 	add.w	r3, r3, r2, lsl #3
 80197ae:	6c1b      	ldr	r3, [r3, #64]	@ 0x40
 80197b0:	4563      	cmp	r3, ip
 80197b2:	d3f1      	bcc.n	8019798 <fatfs_calc_cluster_size+0x24>
 80197b4:	e7ee      	b.n	8019794 <fatfs_calc_cluster_size+0x20>
 80197b6:	bf00      	nop
 80197b8:	2000031c 	.word	0x2000031c

080197bc <fatfs_erase_fat>:
 80197bc:	b570      	push	{r4, r5, r6, lr}
 80197be:	4604      	mov	r4, r0
 80197c0:	460d      	mov	r5, r1
 80197c2:	f100 0640 	add.w	r6, r0, #64	@ 0x40
 80197c6:	f44f 7200 	mov.w	r2, #512	@ 0x200
 80197ca:	2100      	movs	r1, #0
 80197cc:	4630      	mov	r0, r6
 80197ce:	f7f9 f92a 	bl	8012a26 <memset>
 80197d2:	b995      	cbnz	r5, 80197fa <fatfs_erase_fat+0x3e>
 80197d4:	23f8      	movs	r3, #248	@ 0xf8
 80197d6:	f884 3040 	strb.w	r3, [r4, #64]	@ 0x40
 80197da:	23ff      	movs	r3, #255	@ 0xff
 80197dc:	f884 3041 	strb.w	r3, [r4, #65]	@ 0x41
 80197e0:	f884 3042 	strb.w	r3, [r4, #66]	@ 0x42
 80197e4:	f884 3043 	strb.w	r3, [r4, #67]	@ 0x43
 80197e8:	6b63      	ldr	r3, [r4, #52]	@ 0x34
 80197ea:	2201      	movs	r2, #1
 80197ec:	4631      	mov	r1, r6
 80197ee:	6960      	ldr	r0, [r4, #20]
 80197f0:	4798      	blx	r3
 80197f2:	4603      	mov	r3, r0
 80197f4:	b9e8      	cbnz	r0, 8019832 <fatfs_erase_fat+0x76>
 80197f6:	4618      	mov	r0, r3
 80197f8:	bd70      	pop	{r4, r5, r6, pc}
 80197fa:	23f8      	movs	r3, #248	@ 0xf8
 80197fc:	f884 3040 	strb.w	r3, [r4, #64]	@ 0x40
 8019800:	23ff      	movs	r3, #255	@ 0xff
 8019802:	f884 3041 	strb.w	r3, [r4, #65]	@ 0x41
 8019806:	f884 3042 	strb.w	r3, [r4, #66]	@ 0x42
 801980a:	220f      	movs	r2, #15
 801980c:	f884 2043 	strb.w	r2, [r4, #67]	@ 0x43
 8019810:	f884 3044 	strb.w	r3, [r4, #68]	@ 0x44
 8019814:	f884 3045 	strb.w	r3, [r4, #69]	@ 0x45
 8019818:	f884 3046 	strb.w	r3, [r4, #70]	@ 0x46
 801981c:	f884 3047 	strb.w	r3, [r4, #71]	@ 0x47
 8019820:	f884 3048 	strb.w	r3, [r4, #72]	@ 0x48
 8019824:	f884 3049 	strb.w	r3, [r4, #73]	@ 0x49
 8019828:	f884 304a 	strb.w	r3, [r4, #74]	@ 0x4a
 801982c:	f884 204b 	strb.w	r2, [r4, #75]	@ 0x4b
 8019830:	e7da      	b.n	80197e8 <fatfs_erase_fat+0x2c>
 8019832:	f44f 7200 	mov.w	r2, #512	@ 0x200
 8019836:	2100      	movs	r1, #0
 8019838:	4630      	mov	r0, r6
 801983a:	f7f9 f8f4 	bl	8012a26 <memset>
 801983e:	2501      	movs	r5, #1
 8019840:	6a23      	ldr	r3, [r4, #32]
 8019842:	f894 202c 	ldrb.w	r2, [r4, #44]	@ 0x2c
 8019846:	fb02 f303 	mul.w	r3, r2, r3
 801984a:	42ab      	cmp	r3, r5
 801984c:	d90a      	bls.n	8019864 <fatfs_erase_fat+0xa8>
 801984e:	6b63      	ldr	r3, [r4, #52]	@ 0x34
 8019850:	6960      	ldr	r0, [r4, #20]
 8019852:	2201      	movs	r2, #1
 8019854:	4631      	mov	r1, r6
 8019856:	4428      	add	r0, r5
 8019858:	4798      	blx	r3
 801985a:	4603      	mov	r3, r0
 801985c:	2800      	cmp	r0, #0
 801985e:	d0ca      	beq.n	80197f6 <fatfs_erase_fat+0x3a>
 8019860:	3501      	adds	r5, #1
 8019862:	e7ed      	b.n	8019840 <fatfs_erase_fat+0x84>
 8019864:	2301      	movs	r3, #1
 8019866:	e7c6      	b.n	80197f6 <fatfs_erase_fat+0x3a>

08019868 <fatfs_erase_sectors>:
 8019868:	e92d 41f0 	stmdb	sp!, {r4, r5, r6, r7, r8, lr}
 801986c:	4605      	mov	r5, r0
 801986e:	460f      	mov	r7, r1
 8019870:	4616      	mov	r6, r2
 8019872:	f100 0840 	add.w	r8, r0, #64	@ 0x40
 8019876:	f44f 7200 	mov.w	r2, #512	@ 0x200
 801987a:	2100      	movs	r1, #0
 801987c:	4640      	mov	r0, r8
 801987e:	f7f9 f8d2 	bl	8012a26 <memset>
 8019882:	2400      	movs	r4, #0
 8019884:	e000      	b.n	8019888 <fatfs_erase_sectors+0x20>
 8019886:	3401      	adds	r4, #1
 8019888:	42b4      	cmp	r4, r6
 801988a:	da08      	bge.n	801989e <fatfs_erase_sectors+0x36>
 801988c:	6b6b      	ldr	r3, [r5, #52]	@ 0x34
 801988e:	2201      	movs	r2, #1
 8019890:	4641      	mov	r1, r8
 8019892:	19e0      	adds	r0, r4, r7
 8019894:	4798      	blx	r3
 8019896:	4603      	mov	r3, r0
 8019898:	2800      	cmp	r0, #0
 801989a:	d1f4      	bne.n	8019886 <fatfs_erase_sectors+0x1e>
 801989c:	e000      	b.n	80198a0 <fatfs_erase_sectors+0x38>
 801989e:	2301      	movs	r3, #1
 80198a0:	4618      	mov	r0, r3
 80198a2:	e8bd 81f0 	ldmia.w	sp!, {r4, r5, r6, r7, r8, pc}

080198a6 <fatfs_create_fsinfo_sector>:
 80198a6:	b570      	push	{r4, r5, r6, lr}
 80198a8:	4604      	mov	r4, r0
 80198aa:	460d      	mov	r5, r1
 80198ac:	f100 0640 	add.w	r6, r0, #64	@ 0x40
 80198b0:	f44f 7200 	mov.w	r2, #512	@ 0x200
 80198b4:	2100      	movs	r1, #0
 80198b6:	4630      	mov	r0, r6
 80198b8:	f7f9 f8b5 	bl	8012a26 <memset>
 80198bc:	2352      	movs	r3, #82	@ 0x52
 80198be:	f884 3040 	strb.w	r3, [r4, #64]	@ 0x40
 80198c2:	f884 3041 	strb.w	r3, [r4, #65]	@ 0x41
 80198c6:	2361      	movs	r3, #97	@ 0x61
 80198c8:	f884 3042 	strb.w	r3, [r4, #66]	@ 0x42
 80198cc:	2241      	movs	r2, #65	@ 0x41
 80198ce:	f884 2043 	strb.w	r2, [r4, #67]	@ 0x43
 80198d2:	2172      	movs	r1, #114	@ 0x72
 80198d4:	f884 1224 	strb.w	r1, [r4, #548]	@ 0x224
 80198d8:	f884 1225 	strb.w	r1, [r4, #549]	@ 0x225
 80198dc:	f884 2226 	strb.w	r2, [r4, #550]	@ 0x226
 80198e0:	f884 3227 	strb.w	r3, [r4, #551]	@ 0x227
 80198e4:	23ff      	movs	r3, #255	@ 0xff
 80198e6:	f884 3228 	strb.w	r3, [r4, #552]	@ 0x228
 80198ea:	f884 3229 	strb.w	r3, [r4, #553]	@ 0x229
 80198ee:	f884 322a 	strb.w	r3, [r4, #554]	@ 0x22a
 80198f2:	f884 322b 	strb.w	r3, [r4, #555]	@ 0x22b
 80198f6:	f884 322c 	strb.w	r3, [r4, #556]	@ 0x22c
 80198fa:	f884 322d 	strb.w	r3, [r4, #557]	@ 0x22d
 80198fe:	f884 322e 	strb.w	r3, [r4, #558]	@ 0x22e
 8019902:	f884 322f 	strb.w	r3, [r4, #559]	@ 0x22f
 8019906:	2355      	movs	r3, #85	@ 0x55
 8019908:	f884 323e 	strb.w	r3, [r4, #574]	@ 0x23e
 801990c:	23aa      	movs	r3, #170	@ 0xaa
 801990e:	f884 323f 	strb.w	r3, [r4, #575]	@ 0x23f
 8019912:	6b63      	ldr	r3, [r4, #52]	@ 0x34
 8019914:	2201      	movs	r2, #1
 8019916:	4631      	mov	r1, r6
 8019918:	4628      	mov	r0, r5
 801991a:	4798      	blx	r3
 801991c:	b100      	cbz	r0, 8019920 <fatfs_create_fsinfo_sector+0x7a>
 801991e:	2001      	movs	r0, #1
 8019920:	bd70      	pop	{r4, r5, r6, pc}

08019922 <fatfs_create_boot_sector>:
 8019922:	e92d 43f8 	stmdb	sp!, {r3, r4, r5, r6, r7, r8, r9, lr}
 8019926:	4604      	mov	r4, r0
 8019928:	4688      	mov	r8, r1
 801992a:	4617      	mov	r7, r2
 801992c:	461e      	mov	r6, r3
 801992e:	9d08      	ldr	r5, [sp, #32]
 8019930:	f100 0940 	add.w	r9, r0, #64	@ 0x40
 8019934:	f44f 7200 	mov.w	r2, #512	@ 0x200
 8019938:	2100      	movs	r1, #0
 801993a:	4648      	mov	r0, r9
 801993c:	f7f9 f873 	bl	8012a26 <memset>
 8019940:	23eb      	movs	r3, #235	@ 0xeb
 8019942:	f884 3040 	strb.w	r3, [r4, #64]	@ 0x40
 8019946:	233c      	movs	r3, #60	@ 0x3c
 8019948:	f884 3041 	strb.w	r3, [r4, #65]	@ 0x41
 801994c:	2390      	movs	r3, #144	@ 0x90
 801994e:	f884 3042 	strb.w	r3, [r4, #66]	@ 0x42
 8019952:	234d      	movs	r3, #77	@ 0x4d
 8019954:	f884 3043 	strb.w	r3, [r4, #67]	@ 0x43
 8019958:	2353      	movs	r3, #83	@ 0x53
 801995a:	f884 3044 	strb.w	r3, [r4, #68]	@ 0x44
 801995e:	2244      	movs	r2, #68	@ 0x44
 8019960:	f884 2045 	strb.w	r2, [r4, #69]	@ 0x45
 8019964:	224f      	movs	r2, #79	@ 0x4f
 8019966:	f884 2046 	strb.w	r2, [r4, #70]	@ 0x46
 801996a:	f884 3047 	strb.w	r3, [r4, #71]	@ 0x47
 801996e:	2335      	movs	r3, #53	@ 0x35
 8019970:	f884 3048 	strb.w	r3, [r4, #72]	@ 0x48
 8019974:	232e      	movs	r3, #46	@ 0x2e
 8019976:	f884 3049 	strb.w	r3, [r4, #73]	@ 0x49
 801997a:	2330      	movs	r3, #48	@ 0x30
 801997c:	f884 304a 	strb.w	r3, [r4, #74]	@ 0x4a
 8019980:	2300      	movs	r3, #0
 8019982:	f884 304b 	strb.w	r3, [r4, #75]	@ 0x4b
 8019986:	2302      	movs	r3, #2
 8019988:	f884 304c 	strb.w	r3, [r4, #76]	@ 0x4c
 801998c:	4629      	mov	r1, r5
 801998e:	4638      	mov	r0, r7
 8019990:	f7ff fef0 	bl	8019774 <fatfs_calc_cluster_size>
 8019994:	7020      	strb	r0, [r4, #0]
 8019996:	2800      	cmp	r0, #0
 8019998:	f000 8147 	beq.w	8019c2a <fatfs_create_boot_sector+0x308>
 801999c:	f884 004d 	strb.w	r0, [r4, #77]	@ 0x4d
 80199a0:	2d00      	cmp	r5, #0
 80199a2:	d161      	bne.n	8019a68 <fatfs_create_boot_sector+0x146>
 80199a4:	2308      	movs	r3, #8
 80199a6:	8563      	strh	r3, [r4, #42]	@ 0x2a
 80199a8:	8d63      	ldrh	r3, [r4, #42]	@ 0x2a
 80199aa:	f884 304e 	strb.w	r3, [r4, #78]	@ 0x4e
 80199ae:	0a1b      	lsrs	r3, r3, #8
 80199b0:	f884 304f 	strb.w	r3, [r4, #79]	@ 0x4f
 80199b4:	2302      	movs	r3, #2
 80199b6:	f884 302c 	strb.w	r3, [r4, #44]	@ 0x2c
 80199ba:	f884 3050 	strb.w	r3, [r4, #80]	@ 0x50
 80199be:	2d00      	cmp	r5, #0
 80199c0:	d155      	bne.n	8019a6e <fatfs_create_boot_sector+0x14c>
 80199c2:	f44f 7300 	mov.w	r3, #512	@ 0x200
 80199c6:	8523      	strh	r3, [r4, #40]	@ 0x28
 80199c8:	2300      	movs	r3, #0
 80199ca:	f884 3051 	strb.w	r3, [r4, #81]	@ 0x51
 80199ce:	2302      	movs	r3, #2
 80199d0:	f884 3052 	strb.w	r3, [r4, #82]	@ 0x52
 80199d4:	2300      	movs	r3, #0
 80199d6:	f884 3053 	strb.w	r3, [r4, #83]	@ 0x53
 80199da:	f884 3054 	strb.w	r3, [r4, #84]	@ 0x54
 80199de:	23f8      	movs	r3, #248	@ 0xf8
 80199e0:	f884 3055 	strb.w	r3, [r4, #85]	@ 0x55
 80199e4:	2d00      	cmp	r5, #0
 80199e6:	f040 8084 	bne.w	8019af2 <fatfs_create_boot_sector+0x1d0>
 80199ea:	fbb7 f3f0 	udiv	r3, r7, r0
 80199ee:	3301      	adds	r3, #1
 80199f0:	0a1b      	lsrs	r3, r3, #8
 80199f2:	3301      	adds	r3, #1
 80199f4:	6223      	str	r3, [r4, #32]
 80199f6:	f884 3056 	strb.w	r3, [r4, #86]	@ 0x56
 80199fa:	f3c3 2307 	ubfx	r3, r3, #8, #8
 80199fe:	f884 3057 	strb.w	r3, [r4, #87]	@ 0x57
 8019a02:	2300      	movs	r3, #0
 8019a04:	f884 3058 	strb.w	r3, [r4, #88]	@ 0x58
 8019a08:	f884 3059 	strb.w	r3, [r4, #89]	@ 0x59
 8019a0c:	f884 305a 	strb.w	r3, [r4, #90]	@ 0x5a
 8019a10:	f884 305b 	strb.w	r3, [r4, #91]	@ 0x5b
 8019a14:	2220      	movs	r2, #32
 8019a16:	f884 205c 	strb.w	r2, [r4, #92]	@ 0x5c
 8019a1a:	f884 305d 	strb.w	r3, [r4, #93]	@ 0x5d
 8019a1e:	f884 305e 	strb.w	r3, [r4, #94]	@ 0x5e
 8019a22:	f884 305f 	strb.w	r3, [r4, #95]	@ 0x5f
 8019a26:	f884 7060 	strb.w	r7, [r4, #96]	@ 0x60
 8019a2a:	f3c7 2207 	ubfx	r2, r7, #8, #8
 8019a2e:	f884 2061 	strb.w	r2, [r4, #97]	@ 0x61
 8019a32:	f3c7 4207 	ubfx	r2, r7, #16, #8
 8019a36:	f884 2062 	strb.w	r2, [r4, #98]	@ 0x62
 8019a3a:	0e3f      	lsrs	r7, r7, #24
 8019a3c:	f884 7063 	strb.w	r7, [r4, #99]	@ 0x63
 8019a40:	f884 3064 	strb.w	r3, [r4, #100]	@ 0x64
 8019a44:	f884 3065 	strb.w	r3, [r4, #101]	@ 0x65
 8019a48:	2329      	movs	r3, #41	@ 0x29
 8019a4a:	f884 3066 	strb.w	r3, [r4, #102]	@ 0x66
 8019a4e:	2312      	movs	r3, #18
 8019a50:	f884 3067 	strb.w	r3, [r4, #103]	@ 0x67
 8019a54:	2334      	movs	r3, #52	@ 0x34
 8019a56:	f884 3068 	strb.w	r3, [r4, #104]	@ 0x68
 8019a5a:	2356      	movs	r3, #86	@ 0x56
 8019a5c:	f884 3069 	strb.w	r3, [r4, #105]	@ 0x69
 8019a60:	2378      	movs	r3, #120	@ 0x78
 8019a62:	f884 306a 	strb.w	r3, [r4, #106]	@ 0x6a
 8019a66:	e010      	b.n	8019a8a <fatfs_create_boot_sector+0x168>
 8019a68:	2320      	movs	r3, #32
 8019a6a:	8563      	strh	r3, [r4, #42]	@ 0x2a
 8019a6c:	e79c      	b.n	80199a8 <fatfs_create_boot_sector+0x86>
 8019a6e:	2300      	movs	r3, #0
 8019a70:	8523      	strh	r3, [r4, #40]	@ 0x28
 8019a72:	f884 3051 	strb.w	r3, [r4, #81]	@ 0x51
 8019a76:	f884 3052 	strb.w	r3, [r4, #82]	@ 0x52
 8019a7a:	e7ab      	b.n	80199d4 <fatfs_create_boot_sector+0xb2>
 8019a7c:	f105 032b 	add.w	r3, r5, #43	@ 0x2b
 8019a80:	4423      	add	r3, r4
 8019a82:	2220      	movs	r2, #32
 8019a84:	f883 2040 	strb.w	r2, [r3, #64]	@ 0x40
 8019a88:	3501      	adds	r5, #1
 8019a8a:	2d0a      	cmp	r5, #10
 8019a8c:	dc0b      	bgt.n	8019aa6 <fatfs_create_boot_sector+0x184>
 8019a8e:	4630      	mov	r0, r6
 8019a90:	f7f8 ffff 	bl	8012a92 <strlen>
 8019a94:	42a8      	cmp	r0, r5
 8019a96:	ddf1      	ble.n	8019a7c <fatfs_create_boot_sector+0x15a>
 8019a98:	f105 032b 	add.w	r3, r5, #43	@ 0x2b
 8019a9c:	5d72      	ldrb	r2, [r6, r5]
 8019a9e:	4423      	add	r3, r4
 8019aa0:	f883 2040 	strb.w	r2, [r3, #64]	@ 0x40
 8019aa4:	e7f0      	b.n	8019a88 <fatfs_create_boot_sector+0x166>
 8019aa6:	2346      	movs	r3, #70	@ 0x46
 8019aa8:	f884 3076 	strb.w	r3, [r4, #118]	@ 0x76
 8019aac:	2341      	movs	r3, #65	@ 0x41
 8019aae:	f884 3077 	strb.w	r3, [r4, #119]	@ 0x77
 8019ab2:	2354      	movs	r3, #84	@ 0x54
 8019ab4:	f884 3078 	strb.w	r3, [r4, #120]	@ 0x78
 8019ab8:	2331      	movs	r3, #49	@ 0x31
 8019aba:	f884 3079 	strb.w	r3, [r4, #121]	@ 0x79
 8019abe:	2336      	movs	r3, #54	@ 0x36
 8019ac0:	f884 307a 	strb.w	r3, [r4, #122]	@ 0x7a
 8019ac4:	2320      	movs	r3, #32
 8019ac6:	f884 307b 	strb.w	r3, [r4, #123]	@ 0x7b
 8019aca:	f884 307c 	strb.w	r3, [r4, #124]	@ 0x7c
 8019ace:	f884 307d 	strb.w	r3, [r4, #125]	@ 0x7d
 8019ad2:	2355      	movs	r3, #85	@ 0x55
 8019ad4:	f884 323e 	strb.w	r3, [r4, #574]	@ 0x23e
 8019ad8:	23aa      	movs	r3, #170	@ 0xaa
 8019ada:	f884 323f 	strb.w	r3, [r4, #575]	@ 0x23f
 8019ade:	6b63      	ldr	r3, [r4, #52]	@ 0x34
 8019ae0:	2201      	movs	r2, #1
 8019ae2:	4649      	mov	r1, r9
 8019ae4:	4640      	mov	r0, r8
 8019ae6:	4798      	blx	r3
 8019ae8:	2800      	cmp	r0, #0
 8019aea:	f000 809f 	beq.w	8019c2c <fatfs_create_boot_sector+0x30a>
 8019aee:	2001      	movs	r0, #1
 8019af0:	e09c      	b.n	8019c2c <fatfs_create_boot_sector+0x30a>
 8019af2:	2500      	movs	r5, #0
 8019af4:	f884 5056 	strb.w	r5, [r4, #86]	@ 0x56
 8019af8:	f884 5057 	strb.w	r5, [r4, #87]	@ 0x57
 8019afc:	233f      	movs	r3, #63	@ 0x3f
 8019afe:	f884 3058 	strb.w	r3, [r4, #88]	@ 0x58
 8019b02:	f884 5059 	strb.w	r5, [r4, #89]	@ 0x59
 8019b06:	23ff      	movs	r3, #255	@ 0xff
 8019b08:	f884 305a 	strb.w	r3, [r4, #90]	@ 0x5a
 8019b0c:	f884 505b 	strb.w	r5, [r4, #91]	@ 0x5b
 8019b10:	f884 505c 	strb.w	r5, [r4, #92]	@ 0x5c
 8019b14:	f884 505d 	strb.w	r5, [r4, #93]	@ 0x5d
 8019b18:	f884 505e 	strb.w	r5, [r4, #94]	@ 0x5e
 8019b1c:	f884 505f 	strb.w	r5, [r4, #95]	@ 0x5f
 8019b20:	f884 7060 	strb.w	r7, [r4, #96]	@ 0x60
 8019b24:	f3c7 2307 	ubfx	r3, r7, #8, #8
 8019b28:	f884 3061 	strb.w	r3, [r4, #97]	@ 0x61
 8019b2c:	f3c7 4307 	ubfx	r3, r7, #16, #8
 8019b30:	f884 3062 	strb.w	r3, [r4, #98]	@ 0x62
 8019b34:	0e3b      	lsrs	r3, r7, #24
 8019b36:	f884 3063 	strb.w	r3, [r4, #99]	@ 0x63
 8019b3a:	fbb7 f3f0 	udiv	r3, r7, r0
 8019b3e:	3301      	adds	r3, #1
 8019b40:	09db      	lsrs	r3, r3, #7
 8019b42:	3301      	adds	r3, #1
 8019b44:	6223      	str	r3, [r4, #32]
 8019b46:	f884 3064 	strb.w	r3, [r4, #100]	@ 0x64
 8019b4a:	f3c3 2207 	ubfx	r2, r3, #8, #8
 8019b4e:	f884 2065 	strb.w	r2, [r4, #101]	@ 0x65
 8019b52:	f3c3 4207 	ubfx	r2, r3, #16, #8
 8019b56:	f884 2066 	strb.w	r2, [r4, #102]	@ 0x66
 8019b5a:	0e1b      	lsrs	r3, r3, #24
 8019b5c:	f884 3067 	strb.w	r3, [r4, #103]	@ 0x67
 8019b60:	f884 5068 	strb.w	r5, [r4, #104]	@ 0x68
 8019b64:	f884 5069 	strb.w	r5, [r4, #105]	@ 0x69
 8019b68:	f884 506a 	strb.w	r5, [r4, #106]	@ 0x6a
 8019b6c:	f884 506b 	strb.w	r5, [r4, #107]	@ 0x6b
 8019b70:	68a3      	ldr	r3, [r4, #8]
 8019b72:	f884 306c 	strb.w	r3, [r4, #108]	@ 0x6c
 8019b76:	f3c3 2207 	ubfx	r2, r3, #8, #8
 8019b7a:	f884 206d 	strb.w	r2, [r4, #109]	@ 0x6d
 8019b7e:	f3c3 4207 	ubfx	r2, r3, #16, #8
 8019b82:	f884 206e 	strb.w	r2, [r4, #110]	@ 0x6e
 8019b86:	0e1b      	lsrs	r3, r3, #24
 8019b88:	f884 306f 	strb.w	r3, [r4, #111]	@ 0x6f
 8019b8c:	8b23      	ldrh	r3, [r4, #24]
 8019b8e:	f884 3070 	strb.w	r3, [r4, #112]	@ 0x70
 8019b92:	0a1b      	lsrs	r3, r3, #8
 8019b94:	f884 3071 	strb.w	r3, [r4, #113]	@ 0x71
 8019b98:	2306      	movs	r3, #6
 8019b9a:	f884 3072 	strb.w	r3, [r4, #114]	@ 0x72
 8019b9e:	f884 5073 	strb.w	r5, [r4, #115]	@ 0x73
 8019ba2:	f884 5080 	strb.w	r5, [r4, #128]	@ 0x80
 8019ba6:	2329      	movs	r3, #41	@ 0x29
 8019ba8:	f884 3082 	strb.w	r3, [r4, #130]	@ 0x82
 8019bac:	2312      	movs	r3, #18
 8019bae:	f884 3083 	strb.w	r3, [r4, #131]	@ 0x83
 8019bb2:	2334      	movs	r3, #52	@ 0x34
 8019bb4:	f884 3084 	strb.w	r3, [r4, #132]	@ 0x84
 8019bb8:	2356      	movs	r3, #86	@ 0x56
 8019bba:	f884 3085 	strb.w	r3, [r4, #133]	@ 0x85
 8019bbe:	2378      	movs	r3, #120	@ 0x78
 8019bc0:	f884 3086 	strb.w	r3, [r4, #134]	@ 0x86
 8019bc4:	e006      	b.n	8019bd4 <fatfs_create_boot_sector+0x2b2>
 8019bc6:	f105 0347 	add.w	r3, r5, #71	@ 0x47
 8019bca:	4423      	add	r3, r4
 8019bcc:	2220      	movs	r2, #32
 8019bce:	f883 2040 	strb.w	r2, [r3, #64]	@ 0x40
 8019bd2:	3501      	adds	r5, #1
 8019bd4:	2d0a      	cmp	r5, #10
 8019bd6:	dc0b      	bgt.n	8019bf0 <fatfs_create_boot_sector+0x2ce>
 8019bd8:	4630      	mov	r0, r6
 8019bda:	f7f8 ff5a 	bl	8012a92 <strlen>
 8019bde:	42a8      	cmp	r0, r5
 8019be0:	ddf1      	ble.n	8019bc6 <fatfs_create_boot_sector+0x2a4>
 8019be2:	f105 0347 	add.w	r3, r5, #71	@ 0x47
 8019be6:	5d72      	ldrb	r2, [r6, r5]
 8019be8:	4423      	add	r3, r4
 8019bea:	f883 2040 	strb.w	r2, [r3, #64]	@ 0x40
 8019bee:	e7f0      	b.n	8019bd2 <fatfs_create_boot_sector+0x2b0>
 8019bf0:	2346      	movs	r3, #70	@ 0x46
 8019bf2:	f884 3092 	strb.w	r3, [r4, #146]	@ 0x92
 8019bf6:	2341      	movs	r3, #65	@ 0x41
 8019bf8:	f884 3093 	strb.w	r3, [r4, #147]	@ 0x93
 8019bfc:	2354      	movs	r3, #84	@ 0x54
 8019bfe:	f884 3094 	strb.w	r3, [r4, #148]	@ 0x94
 8019c02:	2333      	movs	r3, #51	@ 0x33
 8019c04:	f884 3095 	strb.w	r3, [r4, #149]	@ 0x95
 8019c08:	2332      	movs	r3, #50	@ 0x32
 8019c0a:	f884 3096 	strb.w	r3, [r4, #150]	@ 0x96
 8019c0e:	2320      	movs	r3, #32
 8019c10:	f884 3097 	strb.w	r3, [r4, #151]	@ 0x97
 8019c14:	f884 3098 	strb.w	r3, [r4, #152]	@ 0x98
 8019c18:	f884 3099 	strb.w	r3, [r4, #153]	@ 0x99
 8019c1c:	2355      	movs	r3, #85	@ 0x55
 8019c1e:	f884 323e 	strb.w	r3, [r4, #574]	@ 0x23e
 8019c22:	23aa      	movs	r3, #170	@ 0xaa
 8019c24:	f884 323f 	strb.w	r3, [r4, #575]	@ 0x23f
 8019c28:	e759      	b.n	8019ade <fatfs_create_boot_sector+0x1bc>
 8019c2a:	2000      	movs	r0, #0
 8019c2c:	e8bd 83f8 	ldmia.w	sp!, {r3, r4, r5, r6, r7, r8, r9, pc}

08019c30 <fatfs_format_fat16>:
 8019c30:	b570      	push	{r4, r5, r6, lr}
 8019c32:	b082      	sub	sp, #8
 8019c34:	4604      	mov	r4, r0
 8019c36:	460e      	mov	r6, r1
 8019c38:	4615      	mov	r5, r2
 8019c3a:	f04f 33ff 	mov.w	r3, #4294967295	@ 0xffffffff
 8019c3e:	f8c0 3240 	str.w	r3, [r0, #576]	@ 0x240
 8019c42:	2300      	movs	r3, #0
 8019c44:	f8c0 3244 	str.w	r3, [r0, #580]	@ 0x244
 8019c48:	6243      	str	r3, [r0, #36]	@ 0x24
 8019c4a:	f000 fd07 	bl	801a65c <fatfs_fat_init>
 8019c4e:	6b23      	ldr	r3, [r4, #48]	@ 0x30
 8019c50:	2b00      	cmp	r3, #0
 8019c52:	d035      	beq.n	8019cc0 <fatfs_format_fat16+0x90>
 8019c54:	6b63      	ldr	r3, [r4, #52]	@ 0x34
 8019c56:	2b00      	cmp	r3, #0
 8019c58:	d035      	beq.n	8019cc6 <fatfs_format_fat16+0x96>
 8019c5a:	2100      	movs	r1, #0
 8019c5c:	f884 102d 	strb.w	r1, [r4, #45]	@ 0x2d
 8019c60:	8321      	strh	r1, [r4, #24]
 8019c62:	60a1      	str	r1, [r4, #8]
 8019c64:	61e1      	str	r1, [r4, #28]
 8019c66:	9100      	str	r1, [sp, #0]
 8019c68:	462b      	mov	r3, r5
 8019c6a:	4632      	mov	r2, r6
 8019c6c:	4620      	mov	r0, r4
 8019c6e:	f7ff fe58 	bl	8019922 <fatfs_create_boot_sector>
 8019c72:	b908      	cbnz	r0, 8019c78 <fatfs_format_fat16+0x48>
 8019c74:	b002      	add	sp, #8
 8019c76:	bd70      	pop	{r4, r5, r6, pc}
 8019c78:	8d61      	ldrh	r1, [r4, #42]	@ 0x2a
 8019c7a:	f894 202c 	ldrb.w	r2, [r4, #44]	@ 0x2c
 8019c7e:	6a23      	ldr	r3, [r4, #32]
 8019c80:	fb03 f202 	mul.w	r2, r3, r2
 8019c84:	188b      	adds	r3, r1, r2
 8019c86:	60e3      	str	r3, [r4, #12]
 8019c88:	8d23      	ldrh	r3, [r4, #40]	@ 0x28
 8019c8a:	015b      	lsls	r3, r3, #5
 8019c8c:	f203 13ff 	addw	r3, r3, #511	@ 0x1ff
 8019c90:	125b      	asrs	r3, r3, #9
 8019c92:	6123      	str	r3, [r4, #16]
 8019c94:	69e3      	ldr	r3, [r4, #28]
 8019c96:	440b      	add	r3, r1
 8019c98:	6163      	str	r3, [r4, #20]
 8019c9a:	441a      	add	r2, r3
 8019c9c:	6062      	str	r2, [r4, #4]
 8019c9e:	2100      	movs	r1, #0
 8019ca0:	4620      	mov	r0, r4
 8019ca2:	f7ff fd8b 	bl	80197bc <fatfs_erase_fat>
 8019ca6:	2800      	cmp	r0, #0
 8019ca8:	d0e4      	beq.n	8019c74 <fatfs_format_fat16+0x44>
 8019caa:	69e1      	ldr	r1, [r4, #28]
 8019cac:	68e3      	ldr	r3, [r4, #12]
 8019cae:	6922      	ldr	r2, [r4, #16]
 8019cb0:	4419      	add	r1, r3
 8019cb2:	4620      	mov	r0, r4
 8019cb4:	f7ff fdd8 	bl	8019868 <fatfs_erase_sectors>
 8019cb8:	2800      	cmp	r0, #0
 8019cba:	d0db      	beq.n	8019c74 <fatfs_format_fat16+0x44>
 8019cbc:	2001      	movs	r0, #1
 8019cbe:	e7d9      	b.n	8019c74 <fatfs_format_fat16+0x44>
 8019cc0:	f04f 30ff 	mov.w	r0, #4294967295	@ 0xffffffff
 8019cc4:	e7d6      	b.n	8019c74 <fatfs_format_fat16+0x44>
 8019cc6:	f04f 30ff 	mov.w	r0, #4294967295	@ 0xffffffff
 8019cca:	e7d3      	b.n	8019c74 <fatfs_format_fat16+0x44>

08019ccc <fatfs_format_fat32>:
 8019ccc:	b5f0      	push	{r4, r5, r6, r7, lr}
 8019cce:	b083      	sub	sp, #12
 8019cd0:	4604      	mov	r4, r0
 8019cd2:	460f      	mov	r7, r1
 8019cd4:	4616      	mov	r6, r2
 8019cd6:	f04f 35ff 	mov.w	r5, #4294967295	@ 0xffffffff
 8019cda:	f8c0 5240 	str.w	r5, [r0, #576]	@ 0x240
 8019cde:	2500      	movs	r5, #0
 8019ce0:	f8c0 5244 	str.w	r5, [r0, #580]	@ 0x244
 8019ce4:	6245      	str	r5, [r0, #36]	@ 0x24
 8019ce6:	f000 fcb9 	bl	801a65c <fatfs_fat_init>
 8019cea:	6b20      	ldr	r0, [r4, #48]	@ 0x30
 8019cec:	2800      	cmp	r0, #0
 8019cee:	d03b      	beq.n	8019d68 <fatfs_format_fat32+0x9c>
 8019cf0:	6b63      	ldr	r3, [r4, #52]	@ 0x34
 8019cf2:	2b00      	cmp	r3, #0
 8019cf4:	d03b      	beq.n	8019d6e <fatfs_format_fat32+0xa2>
 8019cf6:	2001      	movs	r0, #1
 8019cf8:	f884 002d 	strb.w	r0, [r4, #45]	@ 0x2d
 8019cfc:	8320      	strh	r0, [r4, #24]
 8019cfe:	2302      	movs	r3, #2
 8019d00:	60a3      	str	r3, [r4, #8]
 8019d02:	4629      	mov	r1, r5
 8019d04:	61e5      	str	r5, [r4, #28]
 8019d06:	9000      	str	r0, [sp, #0]
 8019d08:	4633      	mov	r3, r6
 8019d0a:	463a      	mov	r2, r7
 8019d0c:	4620      	mov	r0, r4
 8019d0e:	f7ff fe08 	bl	8019922 <fatfs_create_boot_sector>
 8019d12:	4603      	mov	r3, r0
 8019d14:	b910      	cbnz	r0, 8019d1c <fatfs_format_fat32+0x50>
 8019d16:	4618      	mov	r0, r3
 8019d18:	b003      	add	sp, #12
 8019d1a:	bdf0      	pop	{r4, r5, r6, r7, pc}
 8019d1c:	69e3      	ldr	r3, [r4, #28]
 8019d1e:	8d62      	ldrh	r2, [r4, #42]	@ 0x2a
 8019d20:	4413      	add	r3, r2
 8019d22:	6163      	str	r3, [r4, #20]
 8019d24:	f894 202c 	ldrb.w	r2, [r4, #44]	@ 0x2c
 8019d28:	6a21      	ldr	r1, [r4, #32]
 8019d2a:	fb01 3302 	mla	r3, r1, r2, r3
 8019d2e:	6063      	str	r3, [r4, #4]
 8019d30:	8b21      	ldrh	r1, [r4, #24]
 8019d32:	4620      	mov	r0, r4
 8019d34:	f7ff fdb7 	bl	80198a6 <fatfs_create_fsinfo_sector>
 8019d38:	4603      	mov	r3, r0
 8019d3a:	2800      	cmp	r0, #0
 8019d3c:	d0eb      	beq.n	8019d16 <fatfs_format_fat32+0x4a>
 8019d3e:	2101      	movs	r1, #1
 8019d40:	4620      	mov	r0, r4
 8019d42:	f7ff fd3b 	bl	80197bc <fatfs_erase_fat>
 8019d46:	4603      	mov	r3, r0
 8019d48:	2800      	cmp	r0, #0
 8019d4a:	d0e4      	beq.n	8019d16 <fatfs_format_fat32+0x4a>
 8019d4c:	68a1      	ldr	r1, [r4, #8]
 8019d4e:	4620      	mov	r0, r4
 8019d50:	f7fe f96e 	bl	8018030 <fatfs_lba_of_cluster>
 8019d54:	4601      	mov	r1, r0
 8019d56:	7822      	ldrb	r2, [r4, #0]
 8019d58:	4620      	mov	r0, r4
 8019d5a:	f7ff fd85 	bl	8019868 <fatfs_erase_sectors>
 8019d5e:	4603      	mov	r3, r0
 8019d60:	2800      	cmp	r0, #0
 8019d62:	d0d8      	beq.n	8019d16 <fatfs_format_fat32+0x4a>
 8019d64:	2301      	movs	r3, #1
 8019d66:	e7d6      	b.n	8019d16 <fatfs_format_fat32+0x4a>
 8019d68:	f04f 33ff 	mov.w	r3, #4294967295	@ 0xffffffff
 8019d6c:	e7d3      	b.n	8019d16 <fatfs_format_fat32+0x4a>
 8019d6e:	f04f 33ff 	mov.w	r3, #4294967295	@ 0xffffffff
 8019d72:	e7d0      	b.n	8019d16 <fatfs_format_fat32+0x4a>

08019d74 <fatfs_format>:
 8019d74:	b508      	push	{r3, lr}
 8019d76:	f5b1 0f80 	cmp.w	r1, #4194304	@ 0x400000
 8019d7a:	d802      	bhi.n	8019d82 <fatfs_format+0xe>
 8019d7c:	f7ff ff58 	bl	8019c30 <fatfs_format_fat16>
 8019d80:	bd08      	pop	{r3, pc}
 8019d82:	f7ff ffa3 	bl	8019ccc <fatfs_format_fat32>
 8019d86:	e7fb      	b.n	8019d80 <fatfs_format+0xc>

08019d88 <fatfs_itoa>:
 8019d88:	b530      	push	{r4, r5, lr}
 8019d8a:	b089      	sub	sp, #36	@ 0x24
 8019d8c:	4684      	mov	ip, r0
 8019d8e:	468e      	mov	lr, r1
 8019d90:	466c      	mov	r4, sp
 8019d92:	4d15      	ldr	r5, [pc, #84]	@ (8019de8 <fatfs_itoa+0x60>)
 8019d94:	cd0f      	ldmia	r5!, {r0, r1, r2, r3}
 8019d96:	c40f      	stmia	r4!, {r0, r1, r2, r3}
 8019d98:	682b      	ldr	r3, [r5, #0]
 8019d9a:	7023      	strb	r3, [r4, #0]
 8019d9c:	a905      	add	r1, sp, #20
 8019d9e:	4b13      	ldr	r3, [pc, #76]	@ (8019dec <fatfs_itoa+0x64>)
 8019da0:	fba3 230c 	umull	r2, r3, r3, ip
 8019da4:	08db      	lsrs	r3, r3, #3
 8019da6:	4618      	mov	r0, r3
 8019da8:	eb03 0383 	add.w	r3, r3, r3, lsl #2
 8019dac:	ebac 0343 	sub.w	r3, ip, r3, lsl #1
 8019db0:	460a      	mov	r2, r1
 8019db2:	3101      	adds	r1, #1
 8019db4:	3320      	adds	r3, #32
 8019db6:	446b      	add	r3, sp
 8019db8:	f813 3c20 	ldrb.w	r3, [r3, #-32]
 8019dbc:	7013      	strb	r3, [r2, #0]
 8019dbe:	4663      	mov	r3, ip
 8019dc0:	4684      	mov	ip, r0
 8019dc2:	2b09      	cmp	r3, #9
 8019dc4:	d8eb      	bhi.n	8019d9e <fatfs_itoa+0x16>
 8019dc6:	2300      	movs	r3, #0
 8019dc8:	700b      	strb	r3, [r1, #0]
 8019dca:	e005      	b.n	8019dd8 <fatfs_itoa+0x50>
 8019dcc:	4671      	mov	r1, lr
 8019dce:	f812 3901 	ldrb.w	r3, [r2], #-1
 8019dd2:	f801 3b01 	strb.w	r3, [r1], #1
 8019dd6:	468e      	mov	lr, r1
 8019dd8:	ab05      	add	r3, sp, #20
 8019dda:	429a      	cmp	r2, r3
 8019ddc:	d2f6      	bcs.n	8019dcc <fatfs_itoa+0x44>
 8019dde:	2300      	movs	r3, #0
 8019de0:	f88e 3000 	strb.w	r3, [lr]
 8019de4:	b009      	add	sp, #36	@ 0x24
 8019de6:	bd30      	pop	{r4, r5, pc}
 8019de8:	0801c6b4 	.word	0x0801c6b4
 8019dec:	cccccccd 	.word	0xcccccccd

08019df0 <fatfs_lfn_cache_init>:
 8019df0:	b538      	push	{r3, r4, r5, lr}
 8019df2:	2300      	movs	r3, #0
 8019df4:	f880 3105 	strb.w	r3, [r0, #261]	@ 0x105
 8019df8:	b969      	cbnz	r1, 8019e16 <fatfs_lfn_cache_init+0x26>
 8019dfa:	bd38      	pop	{r3, r4, r5, pc}
 8019dfc:	eb04 0044 	add.w	r0, r4, r4, lsl #1
 8019e00:	eb04 0080 	add.w	r0, r4, r0, lsl #2
 8019e04:	220d      	movs	r2, #13
 8019e06:	2100      	movs	r1, #0
 8019e08:	4428      	add	r0, r5
 8019e0a:	f7f8 fe0c 	bl	8012a26 <memset>
 8019e0e:	3401      	adds	r4, #1
 8019e10:	2c13      	cmp	r4, #19
 8019e12:	ddf3      	ble.n	8019dfc <fatfs_lfn_cache_init+0xc>
 8019e14:	e7f1      	b.n	8019dfa <fatfs_lfn_cache_init+0xa>
 8019e16:	4605      	mov	r5, r0
 8019e18:	2400      	movs	r4, #0
 8019e1a:	e7f9      	b.n	8019e10 <fatfs_lfn_cache_init+0x20>

08019e1c <fatfs_lfn_cache_entry>:
 8019e1c:	f891 c000 	ldrb.w	ip, [r1]
 8019e20:	f00c 031f 	and.w	r3, ip, #31
 8019e24:	2b14      	cmp	r3, #20
 8019e26:	d842      	bhi.n	8019eae <fatfs_lfn_cache_entry+0x92>
 8019e28:	2b00      	cmp	r3, #0
 8019e2a:	d040      	beq.n	8019eae <fatfs_lfn_cache_entry+0x92>
 8019e2c:	b500      	push	{lr}
 8019e2e:	f890 2105 	ldrb.w	r2, [r0, #261]	@ 0x105
 8019e32:	b90a      	cbnz	r2, 8019e38 <fatfs_lfn_cache_entry+0x1c>
 8019e34:	f880 3105 	strb.w	r3, [r0, #261]	@ 0x105
 8019e38:	f103 3cff 	add.w	ip, r3, #4294967295	@ 0xffffffff
 8019e3c:	f891 e001 	ldrb.w	lr, [r1, #1]
 8019e40:	eb0c 024c 	add.w	r2, ip, ip, lsl #1
 8019e44:	eb0c 0282 	add.w	r2, ip, r2, lsl #2
 8019e48:	1883      	adds	r3, r0, r2
 8019e4a:	f800 e002 	strb.w	lr, [r0, r2]
 8019e4e:	78ca      	ldrb	r2, [r1, #3]
 8019e50:	705a      	strb	r2, [r3, #1]
 8019e52:	794a      	ldrb	r2, [r1, #5]
 8019e54:	709a      	strb	r2, [r3, #2]
 8019e56:	79ca      	ldrb	r2, [r1, #7]
 8019e58:	70da      	strb	r2, [r3, #3]
 8019e5a:	7a4a      	ldrb	r2, [r1, #9]
 8019e5c:	711a      	strb	r2, [r3, #4]
 8019e5e:	7b8a      	ldrb	r2, [r1, #14]
 8019e60:	715a      	strb	r2, [r3, #5]
 8019e62:	7c0a      	ldrb	r2, [r1, #16]
 8019e64:	719a      	strb	r2, [r3, #6]
 8019e66:	7c8a      	ldrb	r2, [r1, #18]
 8019e68:	71da      	strb	r2, [r3, #7]
 8019e6a:	7d0a      	ldrb	r2, [r1, #20]
 8019e6c:	721a      	strb	r2, [r3, #8]
 8019e6e:	7d8a      	ldrb	r2, [r1, #22]
 8019e70:	725a      	strb	r2, [r3, #9]
 8019e72:	7e0a      	ldrb	r2, [r1, #24]
 8019e74:	729a      	strb	r2, [r3, #10]
 8019e76:	7f0a      	ldrb	r2, [r1, #28]
 8019e78:	72da      	strb	r2, [r3, #11]
 8019e7a:	7f8a      	ldrb	r2, [r1, #30]
 8019e7c:	731a      	strb	r2, [r3, #12]
 8019e7e:	2300      	movs	r3, #0
 8019e80:	e001      	b.n	8019e86 <fatfs_lfn_cache_entry+0x6a>
 8019e82:	3301      	adds	r3, #1
 8019e84:	b2db      	uxtb	r3, r3
 8019e86:	2b0c      	cmp	r3, #12
 8019e88:	d80f      	bhi.n	8019eaa <fatfs_lfn_cache_entry+0x8e>
 8019e8a:	eb0c 024c 	add.w	r2, ip, ip, lsl #1
 8019e8e:	eb0c 0282 	add.w	r2, ip, r2, lsl #2
 8019e92:	4402      	add	r2, r0
 8019e94:	5cd2      	ldrb	r2, [r2, r3]
 8019e96:	2aff      	cmp	r2, #255	@ 0xff
 8019e98:	d1f3      	bne.n	8019e82 <fatfs_lfn_cache_entry+0x66>
 8019e9a:	eb0c 024c 	add.w	r2, ip, ip, lsl #1
 8019e9e:	eb0c 0282 	add.w	r2, ip, r2, lsl #2
 8019ea2:	4402      	add	r2, r0
 8019ea4:	2120      	movs	r1, #32
 8019ea6:	54d1      	strb	r1, [r2, r3]
 8019ea8:	e7eb      	b.n	8019e82 <fatfs_lfn_cache_entry+0x66>
 8019eaa:	f85d fb04 	ldr.w	pc, [sp], #4
 8019eae:	4770      	bx	lr

08019eb0 <fatfs_lfn_cache_get>:
 8019eb0:	f890 3105 	ldrb.w	r3, [r0, #261]	@ 0x105
 8019eb4:	2b14      	cmp	r3, #20
 8019eb6:	d007      	beq.n	8019ec8 <fatfs_lfn_cache_get+0x18>
 8019eb8:	b153      	cbz	r3, 8019ed0 <fatfs_lfn_cache_get+0x20>
 8019eba:	eb03 0243 	add.w	r2, r3, r3, lsl #1
 8019ebe:	eb03 0382 	add.w	r3, r3, r2, lsl #2
 8019ec2:	2200      	movs	r2, #0
 8019ec4:	54c2      	strb	r2, [r0, r3]
 8019ec6:	4770      	bx	lr
 8019ec8:	2300      	movs	r3, #0
 8019eca:	f880 3104 	strb.w	r3, [r0, #260]	@ 0x104
 8019ece:	4770      	bx	lr
 8019ed0:	2300      	movs	r3, #0
 8019ed2:	7003      	strb	r3, [r0, #0]
 8019ed4:	4770      	bx	lr

08019ed6 <fatfs_entry_lfn_text>:
 8019ed6:	7ac3      	ldrb	r3, [r0, #11]
 8019ed8:	f003 030f 	and.w	r3, r3, #15
 8019edc:	2b0f      	cmp	r3, #15
 8019ede:	d001      	beq.n	8019ee4 <fatfs_entry_lfn_text+0xe>
 8019ee0:	2000      	movs	r0, #0
 8019ee2:	4770      	bx	lr
 8019ee4:	2001      	movs	r0, #1
 8019ee6:	4770      	bx	lr

08019ee8 <fatfs_entry_lfn_invalid>:
 8019ee8:	7803      	ldrb	r3, [r0, #0]
 8019eea:	b14b      	cbz	r3, 8019f00 <fatfs_entry_lfn_invalid+0x18>
 8019eec:	2be5      	cmp	r3, #229	@ 0xe5
 8019eee:	d009      	beq.n	8019f04 <fatfs_entry_lfn_invalid+0x1c>
 8019ef0:	7ac3      	ldrb	r3, [r0, #11]
 8019ef2:	2b08      	cmp	r3, #8
 8019ef4:	d008      	beq.n	8019f08 <fatfs_entry_lfn_invalid+0x20>
 8019ef6:	f013 0f06 	tst.w	r3, #6
 8019efa:	d007      	beq.n	8019f0c <fatfs_entry_lfn_invalid+0x24>
 8019efc:	2001      	movs	r0, #1
 8019efe:	4770      	bx	lr
 8019f00:	2001      	movs	r0, #1
 8019f02:	4770      	bx	lr
 8019f04:	2001      	movs	r0, #1
 8019f06:	4770      	bx	lr
 8019f08:	2001      	movs	r0, #1
 8019f0a:	4770      	bx	lr
 8019f0c:	2000      	movs	r0, #0
 8019f0e:	4770      	bx	lr

08019f10 <fatfs_entry_lfn_exists>:
 8019f10:	7acb      	ldrb	r3, [r1, #11]
 8019f12:	2b0f      	cmp	r3, #15
 8019f14:	d00d      	beq.n	8019f32 <fatfs_entry_lfn_exists+0x22>
 8019f16:	780a      	ldrb	r2, [r1, #0]
 8019f18:	b16a      	cbz	r2, 8019f36 <fatfs_entry_lfn_exists+0x26>
 8019f1a:	2ae5      	cmp	r2, #229	@ 0xe5
 8019f1c:	d00d      	beq.n	8019f3a <fatfs_entry_lfn_exists+0x2a>
 8019f1e:	2b08      	cmp	r3, #8
 8019f20:	d00d      	beq.n	8019f3e <fatfs_entry_lfn_exists+0x2e>
 8019f22:	f013 0f06 	tst.w	r3, #6
 8019f26:	d10c      	bne.n	8019f42 <fatfs_entry_lfn_exists+0x32>
 8019f28:	f890 3105 	ldrb.w	r3, [r0, #261]	@ 0x105
 8019f2c:	b95b      	cbnz	r3, 8019f46 <fatfs_entry_lfn_exists+0x36>
 8019f2e:	2000      	movs	r0, #0
 8019f30:	4770      	bx	lr
 8019f32:	2000      	movs	r0, #0
 8019f34:	4770      	bx	lr
 8019f36:	2000      	movs	r0, #0
 8019f38:	4770      	bx	lr
 8019f3a:	2000      	movs	r0, #0
 8019f3c:	4770      	bx	lr
 8019f3e:	2000      	movs	r0, #0
 8019f40:	4770      	bx	lr
 8019f42:	2000      	movs	r0, #0
 8019f44:	4770      	bx	lr
 8019f46:	2001      	movs	r0, #1
 8019f48:	4770      	bx	lr

08019f4a <fatfs_entry_sfn_only>:
 8019f4a:	7ac3      	ldrb	r3, [r0, #11]
 8019f4c:	2b0f      	cmp	r3, #15
 8019f4e:	d00a      	beq.n	8019f66 <fatfs_entry_sfn_only+0x1c>
 8019f50:	7802      	ldrb	r2, [r0, #0]
 8019f52:	b152      	cbz	r2, 8019f6a <fatfs_entry_sfn_only+0x20>
 8019f54:	2ae5      	cmp	r2, #229	@ 0xe5
 8019f56:	d00a      	beq.n	8019f6e <fatfs_entry_sfn_only+0x24>
 8019f58:	2b08      	cmp	r3, #8
 8019f5a:	d00a      	beq.n	8019f72 <fatfs_entry_sfn_only+0x28>
 8019f5c:	f013 0f06 	tst.w	r3, #6
 8019f60:	d009      	beq.n	8019f76 <fatfs_entry_sfn_only+0x2c>
 8019f62:	2000      	movs	r0, #0
 8019f64:	4770      	bx	lr
 8019f66:	2000      	movs	r0, #0
 8019f68:	4770      	bx	lr
 8019f6a:	2000      	movs	r0, #0
 8019f6c:	4770      	bx	lr
 8019f6e:	2000      	movs	r0, #0
 8019f70:	4770      	bx	lr
 8019f72:	2000      	movs	r0, #0
 8019f74:	4770      	bx	lr
 8019f76:	2001      	movs	r0, #1
 8019f78:	4770      	bx	lr

08019f7a <fatfs_entry_is_dir>:
 8019f7a:	7ac3      	ldrb	r3, [r0, #11]
 8019f7c:	f013 0f10 	tst.w	r3, #16
 8019f80:	d001      	beq.n	8019f86 <fatfs_entry_is_dir+0xc>
 8019f82:	2001      	movs	r0, #1
 8019f84:	4770      	bx	lr
 8019f86:	2000      	movs	r0, #0
 8019f88:	4770      	bx	lr

08019f8a <fatfs_entry_is_file>:
 8019f8a:	7ac3      	ldrb	r3, [r0, #11]
 8019f8c:	f013 0f20 	tst.w	r3, #32
 8019f90:	d001      	beq.n	8019f96 <fatfs_entry_is_file+0xc>
 8019f92:	2001      	movs	r0, #1
 8019f94:	4770      	bx	lr
 8019f96:	2000      	movs	r0, #0
 8019f98:	4770      	bx	lr

08019f9a <fatfs_lfn_entries_required>:
 8019f9a:	b508      	push	{r3, lr}
 8019f9c:	f7f8 fd79 	bl	8012a92 <strlen>
 8019fa0:	b130      	cbz	r0, 8019fb0 <fatfs_lfn_entries_required+0x16>
 8019fa2:	300c      	adds	r0, #12
 8019fa4:	4b03      	ldr	r3, [pc, #12]	@ (8019fb4 <fatfs_lfn_entries_required+0x1a>)
 8019fa6:	fb83 2300 	smull	r2, r3, r3, r0
 8019faa:	17c0      	asrs	r0, r0, #31
 8019fac:	ebc0 00a3 	rsb	r0, r0, r3, asr #2
 8019fb0:	bd08      	pop	{r3, pc}
 8019fb2:	bf00      	nop
 8019fb4:	4ec4ec4f 	.word	0x4ec4ec4f

08019fb8 <fatfs_filename_to_lfn>:
 8019fb8:	e92d 47f0 	stmdb	sp!, {r4, r5, r6, r7, r8, r9, sl, lr}
 8019fbc:	b08e      	sub	sp, #56	@ 0x38
 8019fbe:	4606      	mov	r6, r0
 8019fc0:	460c      	mov	r4, r1
 8019fc2:	4690      	mov	r8, r2
 8019fc4:	4699      	mov	r9, r3
 8019fc6:	ad01      	add	r5, sp, #4
 8019fc8:	4f29      	ldr	r7, [pc, #164]	@ (801a070 <fatfs_filename_to_lfn+0xb8>)
 8019fca:	cf0f      	ldmia	r7!, {r0, r1, r2, r3}
 8019fcc:	c50f      	stmia	r5!, {r0, r1, r2, r3}
 8019fce:	cf0f      	ldmia	r7!, {r0, r1, r2, r3}
 8019fd0:	c50f      	stmia	r5!, {r0, r1, r2, r3}
 8019fd2:	cf0f      	ldmia	r7!, {r0, r1, r2, r3}
 8019fd4:	c50f      	stmia	r5!, {r0, r1, r2, r3}
 8019fd6:	683b      	ldr	r3, [r7, #0]
 8019fd8:	602b      	str	r3, [r5, #0]
 8019fda:	4630      	mov	r0, r6
 8019fdc:	f7f8 fd59 	bl	8012a92 <strlen>
 8019fe0:	4605      	mov	r5, r0
 8019fe2:	4630      	mov	r0, r6
 8019fe4:	f7ff ffd9 	bl	8019f9a <fatfs_lfn_entries_required>
 8019fe8:	4682      	mov	sl, r0
 8019fea:	eb08 0748 	add.w	r7, r8, r8, lsl #1
 8019fee:	eb08 0787 	add.w	r7, r8, r7, lsl #2
 8019ff2:	2220      	movs	r2, #32
 8019ff4:	2100      	movs	r1, #0
 8019ff6:	4620      	mov	r0, r4
 8019ff8:	f7f8 fd15 	bl	8012a26 <memset>
 8019ffc:	f10a 3aff 	add.w	sl, sl, #4294967295	@ 0xffffffff
 801a000:	45c2      	cmp	sl, r8
 801a002:	d00a      	beq.n	801a01a <fatfs_filename_to_lfn+0x62>
 801a004:	fa5f f388 	uxtb.w	r3, r8
 801a008:	3301      	adds	r3, #1
 801a00a:	b2db      	uxtb	r3, r3
 801a00c:	7023      	strb	r3, [r4, #0]
 801a00e:	230f      	movs	r3, #15
 801a010:	72e3      	strb	r3, [r4, #11]
 801a012:	f884 900d 	strb.w	r9, [r4, #13]
 801a016:	2300      	movs	r3, #0
 801a018:	e011      	b.n	801a03e <fatfs_filename_to_lfn+0x86>
 801a01a:	f108 0301 	add.w	r3, r8, #1
 801a01e:	b2db      	uxtb	r3, r3
 801a020:	f043 0340 	orr.w	r3, r3, #64	@ 0x40
 801a024:	e7f2      	b.n	801a00c <fatfs_filename_to_lfn+0x54>
 801a026:	42aa      	cmp	r2, r5
 801a028:	d016      	beq.n	801a058 <fatfs_filename_to_lfn+0xa0>
 801a02a:	aa0e      	add	r2, sp, #56	@ 0x38
 801a02c:	eb02 0283 	add.w	r2, r2, r3, lsl #2
 801a030:	f852 2c34 	ldr.w	r2, [r2, #-52]
 801a034:	21ff      	movs	r1, #255	@ 0xff
 801a036:	54a1      	strb	r1, [r4, r2]
 801a038:	3201      	adds	r2, #1
 801a03a:	54a1      	strb	r1, [r4, r2]
 801a03c:	3301      	adds	r3, #1
 801a03e:	2b0c      	cmp	r3, #12
 801a040:	dc12      	bgt.n	801a068 <fatfs_filename_to_lfn+0xb0>
 801a042:	19da      	adds	r2, r3, r7
 801a044:	42aa      	cmp	r2, r5
 801a046:	daee      	bge.n	801a026 <fatfs_filename_to_lfn+0x6e>
 801a048:	a90e      	add	r1, sp, #56	@ 0x38
 801a04a:	eb01 0183 	add.w	r1, r1, r3, lsl #2
 801a04e:	f851 1c34 	ldr.w	r1, [r1, #-52]
 801a052:	5cb2      	ldrb	r2, [r6, r2]
 801a054:	5462      	strb	r2, [r4, r1]
 801a056:	e7f1      	b.n	801a03c <fatfs_filename_to_lfn+0x84>
 801a058:	aa0e      	add	r2, sp, #56	@ 0x38
 801a05a:	eb02 0283 	add.w	r2, r2, r3, lsl #2
 801a05e:	f852 2c34 	ldr.w	r2, [r2, #-52]
 801a062:	2100      	movs	r1, #0
 801a064:	54a1      	strb	r1, [r4, r2]
 801a066:	e7e9      	b.n	801a03c <fatfs_filename_to_lfn+0x84>
 801a068:	b00e      	add	sp, #56	@ 0x38
 801a06a:	e8bd 87f0 	ldmia.w	sp!, {r4, r5, r6, r7, r8, r9, sl, pc}
 801a06e:	bf00      	nop
 801a070:	0801c648 	.word	0x0801c648

0801a074 <fatfs_sfn_create_entry>:
 801a074:	b500      	push	{lr}
 801a076:	f04f 0c00 	mov.w	ip, #0
 801a07a:	e005      	b.n	801a088 <fatfs_sfn_create_entry+0x14>
 801a07c:	f810 e00c 	ldrb.w	lr, [r0, ip]
 801a080:	f803 e00c 	strb.w	lr, [r3, ip]
 801a084:	f10c 0c01 	add.w	ip, ip, #1
 801a088:	f1bc 0f0a 	cmp.w	ip, #10
 801a08c:	ddf6      	ble.n	801a07c <fatfs_sfn_create_entry+0x8>
 801a08e:	2000      	movs	r0, #0
 801a090:	7358      	strb	r0, [r3, #13]
 801a092:	7398      	strb	r0, [r3, #14]
 801a094:	73d8      	strb	r0, [r3, #15]
 801a096:	7458      	strb	r0, [r3, #17]
 801a098:	f04f 0c20 	mov.w	ip, #32
 801a09c:	f883 c010 	strb.w	ip, [r3, #16]
 801a0a0:	74d8      	strb	r0, [r3, #19]
 801a0a2:	f883 c012 	strb.w	ip, [r3, #18]
 801a0a6:	7598      	strb	r0, [r3, #22]
 801a0a8:	75d8      	strb	r0, [r3, #23]
 801a0aa:	7658      	strb	r0, [r3, #25]
 801a0ac:	f883 c018 	strb.w	ip, [r3, #24]
 801a0b0:	9801      	ldr	r0, [sp, #4]
 801a0b2:	b948      	cbnz	r0, 801a0c8 <fatfs_sfn_create_entry+0x54>
 801a0b4:	f883 c00b 	strb.w	ip, [r3, #11]
 801a0b8:	2000      	movs	r0, #0
 801a0ba:	7318      	strb	r0, [r3, #12]
 801a0bc:	0c10      	lsrs	r0, r2, #16
 801a0be:	8298      	strh	r0, [r3, #20]
 801a0c0:	835a      	strh	r2, [r3, #26]
 801a0c2:	61d9      	str	r1, [r3, #28]
 801a0c4:	f85d fb04 	ldr.w	pc, [sp], #4
 801a0c8:	2010      	movs	r0, #16
 801a0ca:	72d8      	strb	r0, [r3, #11]
 801a0cc:	e7f4      	b.n	801a0b8 <fatfs_sfn_create_entry+0x44>

0801a0ce <fatfs_lfn_create_sfn>:
 801a0ce:	b570      	push	{r4, r5, r6, lr}
 801a0d0:	b082      	sub	sp, #8
 801a0d2:	4605      	mov	r5, r0
 801a0d4:	460c      	mov	r4, r1
 801a0d6:	4608      	mov	r0, r1
 801a0d8:	f7f8 fcdb 	bl	8012a92 <strlen>
 801a0dc:	7823      	ldrb	r3, [r4, #0]
 801a0de:	2b2e      	cmp	r3, #46	@ 0x2e
 801a0e0:	d059      	beq.n	801a196 <fatfs_lfn_create_sfn+0xc8>
 801a0e2:	4606      	mov	r6, r0
 801a0e4:	220b      	movs	r2, #11
 801a0e6:	2120      	movs	r1, #32
 801a0e8:	4628      	mov	r0, r5
 801a0ea:	f7f8 fc9c 	bl	8012a26 <memset>
 801a0ee:	2203      	movs	r2, #3
 801a0f0:	2120      	movs	r1, #32
 801a0f2:	a801      	add	r0, sp, #4
 801a0f4:	f7f8 fc97 	bl	8012a26 <memset>
 801a0f8:	f04f 3cff 	mov.w	ip, #4294967295	@ 0xffffffff
 801a0fc:	2300      	movs	r3, #0
 801a0fe:	e000      	b.n	801a102 <fatfs_lfn_create_sfn+0x34>
 801a100:	3301      	adds	r3, #1
 801a102:	42b3      	cmp	r3, r6
 801a104:	da04      	bge.n	801a110 <fatfs_lfn_create_sfn+0x42>
 801a106:	5ce2      	ldrb	r2, [r4, r3]
 801a108:	2a2e      	cmp	r2, #46	@ 0x2e
 801a10a:	d1f9      	bne.n	801a100 <fatfs_lfn_create_sfn+0x32>
 801a10c:	469c      	mov	ip, r3
 801a10e:	e7f7      	b.n	801a100 <fatfs_lfn_create_sfn+0x32>
 801a110:	f1bc 3fff 	cmp.w	ip, #4294967295	@ 0xffffffff
 801a114:	d011      	beq.n	801a13a <fatfs_lfn_create_sfn+0x6c>
 801a116:	f10c 0101 	add.w	r1, ip, #1
 801a11a:	460b      	mov	r3, r1
 801a11c:	e000      	b.n	801a120 <fatfs_lfn_create_sfn+0x52>
 801a11e:	3301      	adds	r3, #1
 801a120:	f10c 0203 	add.w	r2, ip, #3
 801a124:	429a      	cmp	r2, r3
 801a126:	db09      	blt.n	801a13c <fatfs_lfn_create_sfn+0x6e>
 801a128:	42b3      	cmp	r3, r6
 801a12a:	daf8      	bge.n	801a11e <fatfs_lfn_create_sfn+0x50>
 801a12c:	1a5a      	subs	r2, r3, r1
 801a12e:	5ce0      	ldrb	r0, [r4, r3]
 801a130:	3208      	adds	r2, #8
 801a132:	446a      	add	r2, sp
 801a134:	f802 0c04 	strb.w	r0, [r2, #-4]
 801a138:	e7f1      	b.n	801a11e <fatfs_lfn_create_sfn+0x50>
 801a13a:	46b4      	mov	ip, r6
 801a13c:	2100      	movs	r1, #0
 801a13e:	460b      	mov	r3, r1
 801a140:	e004      	b.n	801a14c <fatfs_lfn_create_sfn+0x7e>
 801a142:	546a      	strb	r2, [r5, r1]
 801a144:	3101      	adds	r1, #1
 801a146:	2908      	cmp	r1, #8
 801a148:	d010      	beq.n	801a16c <fatfs_lfn_create_sfn+0x9e>
 801a14a:	3301      	adds	r3, #1
 801a14c:	4563      	cmp	r3, ip
 801a14e:	da0d      	bge.n	801a16c <fatfs_lfn_create_sfn+0x9e>
 801a150:	5ce2      	ldrb	r2, [r4, r3]
 801a152:	2a20      	cmp	r2, #32
 801a154:	d0f7      	beq.n	801a146 <fatfs_lfn_create_sfn+0x78>
 801a156:	2a2e      	cmp	r2, #46	@ 0x2e
 801a158:	d0f5      	beq.n	801a146 <fatfs_lfn_create_sfn+0x78>
 801a15a:	f1a2 0061 	sub.w	r0, r2, #97	@ 0x61
 801a15e:	b2c0      	uxtb	r0, r0
 801a160:	2819      	cmp	r0, #25
 801a162:	d8ee      	bhi.n	801a142 <fatfs_lfn_create_sfn+0x74>
 801a164:	3a20      	subs	r2, #32
 801a166:	546a      	strb	r2, [r5, r1]
 801a168:	3101      	adds	r1, #1
 801a16a:	e7ec      	b.n	801a146 <fatfs_lfn_create_sfn+0x78>
 801a16c:	2308      	movs	r3, #8
 801a16e:	e001      	b.n	801a174 <fatfs_lfn_create_sfn+0xa6>
 801a170:	54ea      	strb	r2, [r5, r3]
 801a172:	3301      	adds	r3, #1
 801a174:	2b0a      	cmp	r3, #10
 801a176:	dc0b      	bgt.n	801a190 <fatfs_lfn_create_sfn+0xc2>
 801a178:	eb0d 0203 	add.w	r2, sp, r3
 801a17c:	f812 2c04 	ldrb.w	r2, [r2, #-4]
 801a180:	f1a2 0161 	sub.w	r1, r2, #97	@ 0x61
 801a184:	b2c9      	uxtb	r1, r1
 801a186:	2919      	cmp	r1, #25
 801a188:	d8f2      	bhi.n	801a170 <fatfs_lfn_create_sfn+0xa2>
 801a18a:	3a20      	subs	r2, #32
 801a18c:	54ea      	strb	r2, [r5, r3]
 801a18e:	e7f0      	b.n	801a172 <fatfs_lfn_create_sfn+0xa4>
 801a190:	2001      	movs	r0, #1
 801a192:	b002      	add	sp, #8
 801a194:	bd70      	pop	{r4, r5, r6, pc}
 801a196:	2000      	movs	r0, #0
 801a198:	e7fb      	b.n	801a192 <fatfs_lfn_create_sfn+0xc4>

0801a19a <fatfs_lfn_generate_tail>:
 801a19a:	4b14      	ldr	r3, [pc, #80]	@ (801a1ec <fatfs_lfn_generate_tail+0x52>)
 801a19c:	429a      	cmp	r2, r3
 801a19e:	d901      	bls.n	801a1a4 <fatfs_lfn_generate_tail+0xa>
 801a1a0:	2000      	movs	r0, #0
 801a1a2:	4770      	bx	lr
 801a1a4:	b570      	push	{r4, r5, r6, lr}
 801a1a6:	b084      	sub	sp, #16
 801a1a8:	4606      	mov	r6, r0
 801a1aa:	460d      	mov	r5, r1
 801a1ac:	4614      	mov	r4, r2
 801a1ae:	220c      	movs	r2, #12
 801a1b0:	2100      	movs	r1, #0
 801a1b2:	a801      	add	r0, sp, #4
 801a1b4:	f7f8 fc37 	bl	8012a26 <memset>
 801a1b8:	237e      	movs	r3, #126	@ 0x7e
 801a1ba:	f88d 3004 	strb.w	r3, [sp, #4]
 801a1be:	f10d 0105 	add.w	r1, sp, #5
 801a1c2:	4620      	mov	r0, r4
 801a1c4:	f7ff fde0 	bl	8019d88 <fatfs_itoa>
 801a1c8:	220b      	movs	r2, #11
 801a1ca:	4629      	mov	r1, r5
 801a1cc:	4630      	mov	r0, r6
 801a1ce:	f7f8 fc31 	bl	8012a34 <memcpy>
 801a1d2:	a801      	add	r0, sp, #4
 801a1d4:	f7f8 fc5d 	bl	8012a92 <strlen>
 801a1d8:	4602      	mov	r2, r0
 801a1da:	f1c0 0008 	rsb	r0, r0, #8
 801a1de:	a901      	add	r1, sp, #4
 801a1e0:	4430      	add	r0, r6
 801a1e2:	f7f8 fc27 	bl	8012a34 <memcpy>
 801a1e6:	2001      	movs	r0, #1
 801a1e8:	b004      	add	sp, #16
 801a1ea:	bd70      	pop	{r4, r5, r6, pc}
 801a1ec:	0001869f 	.word	0x0001869f

0801a1f0 <FileString_StrCmpNoCase>:
 801a1f0:	b530      	push	{r4, r5, lr}
 801a1f2:	4684      	mov	ip, r0
 801a1f4:	e012      	b.n	801a21c <FileString_StrCmpNoCase+0x2c>
 801a1f6:	4622      	mov	r2, r4
 801a1f8:	f1a5 0341 	sub.w	r3, r5, #65	@ 0x41
 801a1fc:	b2db      	uxtb	r3, r3
 801a1fe:	2b19      	cmp	r3, #25
 801a200:	d803      	bhi.n	801a20a <FileString_StrCmpNoCase+0x1a>
 801a202:	f105 0320 	add.w	r3, r5, #32
 801a206:	b2db      	uxtb	r3, r3
 801a208:	e000      	b.n	801a20c <FileString_StrCmpNoCase+0x1c>
 801a20a:	462b      	mov	r3, r5
 801a20c:	1ad0      	subs	r0, r2, r3
 801a20e:	d115      	bne.n	801a23c <FileString_StrCmpNoCase+0x4c>
 801a210:	b1a4      	cbz	r4, 801a23c <FileString_StrCmpNoCase+0x4c>
 801a212:	b19d      	cbz	r5, 801a23c <FileString_StrCmpNoCase+0x4c>
 801a214:	f10c 0c01 	add.w	ip, ip, #1
 801a218:	3101      	adds	r1, #1
 801a21a:	4672      	mov	r2, lr
 801a21c:	f102 3eff 	add.w	lr, r2, #4294967295	@ 0xffffffff
 801a220:	b15a      	cbz	r2, 801a23a <FileString_StrCmpNoCase+0x4a>
 801a222:	f89c 4000 	ldrb.w	r4, [ip]
 801a226:	780d      	ldrb	r5, [r1, #0]
 801a228:	f1a4 0341 	sub.w	r3, r4, #65	@ 0x41
 801a22c:	b2db      	uxtb	r3, r3
 801a22e:	2b19      	cmp	r3, #25
 801a230:	d8e1      	bhi.n	801a1f6 <FileString_StrCmpNoCase+0x6>
 801a232:	f104 0220 	add.w	r2, r4, #32
 801a236:	b2d2      	uxtb	r2, r2
 801a238:	e7de      	b.n	801a1f8 <FileString_StrCmpNoCase+0x8>
 801a23a:	4610      	mov	r0, r2
 801a23c:	bd30      	pop	{r4, r5, pc}

0801a23e <FileString_GetExtension>:
 801a23e:	4601      	mov	r1, r0
 801a240:	4603      	mov	r3, r0
 801a242:	f04f 30ff 	mov.w	r0, #4294967295	@ 0xffffffff
 801a246:	e000      	b.n	801a24a <FileString_GetExtension+0xc>
 801a248:	3301      	adds	r3, #1
 801a24a:	781a      	ldrb	r2, [r3, #0]
 801a24c:	b11a      	cbz	r2, 801a256 <FileString_GetExtension+0x18>
 801a24e:	2a2e      	cmp	r2, #46	@ 0x2e
 801a250:	d1fa      	bne.n	801a248 <FileString_GetExtension+0xa>
 801a252:	1a58      	subs	r0, r3, r1
 801a254:	e7f8      	b.n	801a248 <FileString_GetExtension+0xa>
 801a256:	4770      	bx	lr

0801a258 <FileString_TrimLength>:
 801a258:	4684      	mov	ip, r0
 801a25a:	1e4b      	subs	r3, r1, #1
 801a25c:	4403      	add	r3, r0
 801a25e:	4608      	mov	r0, r1
 801a260:	e003      	b.n	801a26a <FileString_TrimLength+0x12>
 801a262:	eba3 000c 	sub.w	r0, r3, ip
 801a266:	3b01      	subs	r3, #1
 801a268:	3901      	subs	r1, #1
 801a26a:	b111      	cbz	r1, 801a272 <FileString_TrimLength+0x1a>
 801a26c:	781a      	ldrb	r2, [r3, #0]
 801a26e:	2a20      	cmp	r2, #32
 801a270:	d0f7      	beq.n	801a262 <FileString_TrimLength+0xa>
 801a272:	4770      	bx	lr

0801a274 <fatfs_total_path_levels>:
 801a274:	4603      	mov	r3, r0
 801a276:	b1d8      	cbz	r0, 801a2b0 <fatfs_total_path_levels+0x3c>
 801a278:	7801      	ldrb	r1, [r0, #0]
 801a27a:	292f      	cmp	r1, #47	@ 0x2f
 801a27c:	d009      	beq.n	801a292 <fatfs_total_path_levels+0x1e>
 801a27e:	7842      	ldrb	r2, [r0, #1]
 801a280:	2a3a      	cmp	r2, #58	@ 0x3a
 801a282:	d002      	beq.n	801a28a <fatfs_total_path_levels+0x16>
 801a284:	7882      	ldrb	r2, [r0, #2]
 801a286:	2a5c      	cmp	r2, #92	@ 0x5c
 801a288:	d115      	bne.n	801a2b6 <fatfs_total_path_levels+0x42>
 801a28a:	3303      	adds	r3, #3
 801a28c:	215c      	movs	r1, #92	@ 0x5c
 801a28e:	2000      	movs	r0, #0
 801a290:	e003      	b.n	801a29a <fatfs_total_path_levels+0x26>
 801a292:	3301      	adds	r3, #1
 801a294:	e7fb      	b.n	801a28e <fatfs_total_path_levels+0x1a>
 801a296:	3301      	adds	r3, #1
 801a298:	3001      	adds	r0, #1
 801a29a:	781a      	ldrb	r2, [r3, #0]
 801a29c:	b132      	cbz	r2, 801a2ac <fatfs_total_path_levels+0x38>
 801a29e:	781a      	ldrb	r2, [r3, #0]
 801a2a0:	2a00      	cmp	r2, #0
 801a2a2:	d0f9      	beq.n	801a298 <fatfs_total_path_levels+0x24>
 801a2a4:	428a      	cmp	r2, r1
 801a2a6:	d0f6      	beq.n	801a296 <fatfs_total_path_levels+0x22>
 801a2a8:	3301      	adds	r3, #1
 801a2aa:	e7f8      	b.n	801a29e <fatfs_total_path_levels+0x2a>
 801a2ac:	3801      	subs	r0, #1
 801a2ae:	4770      	bx	lr
 801a2b0:	f04f 30ff 	mov.w	r0, #4294967295	@ 0xffffffff
 801a2b4:	4770      	bx	lr
 801a2b6:	f04f 30ff 	mov.w	r0, #4294967295	@ 0xffffffff
 801a2ba:	4770      	bx	lr

0801a2bc <fatfs_get_substring>:
 801a2bc:	b3d8      	cbz	r0, 801a336 <fatfs_get_substring+0x7a>
 801a2be:	e92d 43f8 	stmdb	sp!, {r3, r4, r5, r6, r7, r8, r9, lr}
 801a2c2:	460f      	mov	r7, r1
 801a2c4:	4690      	mov	r8, r2
 801a2c6:	4699      	mov	r9, r3
 801a2c8:	4604      	mov	r4, r0
 801a2ca:	2b00      	cmp	r3, #0
 801a2cc:	dd36      	ble.n	801a33c <fatfs_get_substring+0x80>
 801a2ce:	7806      	ldrb	r6, [r0, #0]
 801a2d0:	2e2f      	cmp	r6, #47	@ 0x2f
 801a2d2:	d00e      	beq.n	801a2f2 <fatfs_get_substring+0x36>
 801a2d4:	7843      	ldrb	r3, [r0, #1]
 801a2d6:	2b3a      	cmp	r3, #58	@ 0x3a
 801a2d8:	d002      	beq.n	801a2e0 <fatfs_get_substring+0x24>
 801a2da:	7883      	ldrb	r3, [r0, #2]
 801a2dc:	2b5c      	cmp	r3, #92	@ 0x5c
 801a2de:	d130      	bne.n	801a342 <fatfs_get_substring+0x86>
 801a2e0:	3403      	adds	r4, #3
 801a2e2:	265c      	movs	r6, #92	@ 0x5c
 801a2e4:	4620      	mov	r0, r4
 801a2e6:	f7f8 fbd4 	bl	8012a92 <strlen>
 801a2ea:	2300      	movs	r3, #0
 801a2ec:	461d      	mov	r5, r3
 801a2ee:	469c      	mov	ip, r3
 801a2f0:	e006      	b.n	801a300 <fatfs_get_substring+0x44>
 801a2f2:	3401      	adds	r4, #1
 801a2f4:	e7f6      	b.n	801a2e4 <fatfs_get_substring+0x28>
 801a2f6:	3501      	adds	r5, #1
 801a2f8:	e008      	b.n	801a30c <fatfs_get_substring+0x50>
 801a2fa:	3401      	adds	r4, #1
 801a2fc:	f10c 0c01 	add.w	ip, ip, #1
 801a300:	4584      	cmp	ip, r0
 801a302:	da0f      	bge.n	801a324 <fatfs_get_substring+0x68>
 801a304:	f894 e000 	ldrb.w	lr, [r4]
 801a308:	45b6      	cmp	lr, r6
 801a30a:	d0f4      	beq.n	801a2f6 <fatfs_get_substring+0x3a>
 801a30c:	42bd      	cmp	r5, r7
 801a30e:	d1f4      	bne.n	801a2fa <fatfs_get_substring+0x3e>
 801a310:	45b6      	cmp	lr, r6
 801a312:	d0f2      	beq.n	801a2fa <fatfs_get_substring+0x3e>
 801a314:	f109 32ff 	add.w	r2, r9, #4294967295	@ 0xffffffff
 801a318:	429a      	cmp	r2, r3
 801a31a:	ddee      	ble.n	801a2fa <fatfs_get_substring+0x3e>
 801a31c:	f808 e003 	strb.w	lr, [r8, r3]
 801a320:	3301      	adds	r3, #1
 801a322:	e7ea      	b.n	801a2fa <fatfs_get_substring+0x3e>
 801a324:	2200      	movs	r2, #0
 801a326:	f808 2003 	strb.w	r2, [r8, r3]
 801a32a:	f898 3000 	ldrb.w	r3, [r8]
 801a32e:	b15b      	cbz	r3, 801a348 <fatfs_get_substring+0x8c>
 801a330:	4610      	mov	r0, r2
 801a332:	e8bd 83f8 	ldmia.w	sp!, {r3, r4, r5, r6, r7, r8, r9, pc}
 801a336:	f04f 30ff 	mov.w	r0, #4294967295	@ 0xffffffff
 801a33a:	4770      	bx	lr
 801a33c:	f04f 30ff 	mov.w	r0, #4294967295	@ 0xffffffff
 801a340:	e7f7      	b.n	801a332 <fatfs_get_substring+0x76>
 801a342:	f04f 30ff 	mov.w	r0, #4294967295	@ 0xffffffff
 801a346:	e7f4      	b.n	801a332 <fatfs_get_substring+0x76>
 801a348:	f04f 30ff 	mov.w	r0, #4294967295	@ 0xffffffff
 801a34c:	e7f1      	b.n	801a332 <fatfs_get_substring+0x76>

0801a34e <fatfs_split_path>:
 801a34e:	e92d 43f8 	stmdb	sp!, {r3, r4, r5, r6, r7, r8, r9, lr}
 801a352:	4607      	mov	r7, r0
 801a354:	4688      	mov	r8, r1
 801a356:	4615      	mov	r5, r2
 801a358:	461e      	mov	r6, r3
 801a35a:	f7ff ff8b 	bl	801a274 <fatfs_total_path_levels>
 801a35e:	4604      	mov	r4, r0
 801a360:	f1b0 3fff 	cmp.w	r0, #4294967295	@ 0xffffffff
 801a364:	d00b      	beq.n	801a37e <fatfs_split_path+0x30>
 801a366:	9b08      	ldr	r3, [sp, #32]
 801a368:	4632      	mov	r2, r6
 801a36a:	4601      	mov	r1, r0
 801a36c:	4638      	mov	r0, r7
 801a36e:	f7ff ffa5 	bl	801a2bc <fatfs_get_substring>
 801a372:	4681      	mov	r9, r0
 801a374:	b9e0      	cbnz	r0, 801a3b0 <fatfs_split_path+0x62>
 801a376:	b92c      	cbnz	r4, 801a384 <fatfs_split_path+0x36>
 801a378:	2300      	movs	r3, #0
 801a37a:	f888 3000 	strb.w	r3, [r8]
 801a37e:	4620      	mov	r0, r4
 801a380:	e8bd 83f8 	ldmia.w	sp!, {r3, r4, r5, r6, r7, r8, r9, pc}
 801a384:	4638      	mov	r0, r7
 801a386:	f7f8 fb84 	bl	8012a92 <strlen>
 801a38a:	4604      	mov	r4, r0
 801a38c:	4630      	mov	r0, r6
 801a38e:	f7f8 fb80 	bl	8012a92 <strlen>
 801a392:	1a20      	subs	r0, r4, r0
 801a394:	42a8      	cmp	r0, r5
 801a396:	dc00      	bgt.n	801a39a <fatfs_split_path+0x4c>
 801a398:	4605      	mov	r5, r0
 801a39a:	462a      	mov	r2, r5
 801a39c:	4639      	mov	r1, r7
 801a39e:	4640      	mov	r0, r8
 801a3a0:	f7f8 fb48 	bl	8012a34 <memcpy>
 801a3a4:	3d01      	subs	r5, #1
 801a3a6:	2300      	movs	r3, #0
 801a3a8:	f808 3005 	strb.w	r3, [r8, r5]
 801a3ac:	464c      	mov	r4, r9
 801a3ae:	e7e6      	b.n	801a37e <fatfs_split_path+0x30>
 801a3b0:	f04f 34ff 	mov.w	r4, #4294967295	@ 0xffffffff
 801a3b4:	e7e3      	b.n	801a37e <fatfs_split_path+0x30>

0801a3b6 <fatfs_compare_names>:
 801a3b6:	e92d 47f0 	stmdb	sp!, {r4, r5, r6, r7, r8, r9, sl, lr}
 801a3ba:	4607      	mov	r7, r0
 801a3bc:	460e      	mov	r6, r1
 801a3be:	f7ff ff3e 	bl	801a23e <FileString_GetExtension>
 801a3c2:	4604      	mov	r4, r0
 801a3c4:	4630      	mov	r0, r6
 801a3c6:	f7ff ff3a 	bl	801a23e <FileString_GetExtension>
 801a3ca:	4605      	mov	r5, r0
 801a3cc:	f1b4 3fff 	cmp.w	r4, #4294967295	@ 0xffffffff
 801a3d0:	d008      	beq.n	801a3e4 <fatfs_compare_names+0x2e>
 801a3d2:	f1b0 3fff 	cmp.w	r0, #4294967295	@ 0xffffffff
 801a3d6:	d10a      	bne.n	801a3ee <fatfs_compare_names+0x38>
 801a3d8:	f1b4 3fff 	cmp.w	r4, #4294967295	@ 0xffffffff
 801a3dc:	d023      	beq.n	801a426 <fatfs_compare_names+0x70>
 801a3de:	2000      	movs	r0, #0
 801a3e0:	e8bd 87f0 	ldmia.w	sp!, {r4, r5, r6, r7, r8, r9, sl, pc}
 801a3e4:	f1b0 3fff 	cmp.w	r0, #4294967295	@ 0xffffffff
 801a3e8:	d0f6      	beq.n	801a3d8 <fatfs_compare_names+0x22>
 801a3ea:	2000      	movs	r0, #0
 801a3ec:	e7f8      	b.n	801a3e0 <fatfs_compare_names+0x2a>
 801a3ee:	f104 0801 	add.w	r8, r4, #1
 801a3f2:	44b8      	add	r8, r7
 801a3f4:	f100 0901 	add.w	r9, r0, #1
 801a3f8:	44b1      	add	r9, r6
 801a3fa:	4640      	mov	r0, r8
 801a3fc:	f7f8 fb49 	bl	8012a92 <strlen>
 801a400:	4682      	mov	sl, r0
 801a402:	4648      	mov	r0, r9
 801a404:	f7f8 fb45 	bl	8012a92 <strlen>
 801a408:	4582      	cmp	sl, r0
 801a40a:	d001      	beq.n	801a410 <fatfs_compare_names+0x5a>
 801a40c:	2000      	movs	r0, #0
 801a40e:	e7e7      	b.n	801a3e0 <fatfs_compare_names+0x2a>
 801a410:	4640      	mov	r0, r8
 801a412:	f7f8 fb3e 	bl	8012a92 <strlen>
 801a416:	4602      	mov	r2, r0
 801a418:	4649      	mov	r1, r9
 801a41a:	4640      	mov	r0, r8
 801a41c:	f7ff fee8 	bl	801a1f0 <FileString_StrCmpNoCase>
 801a420:	b148      	cbz	r0, 801a436 <fatfs_compare_names+0x80>
 801a422:	2000      	movs	r0, #0
 801a424:	e7dc      	b.n	801a3e0 <fatfs_compare_names+0x2a>
 801a426:	4638      	mov	r0, r7
 801a428:	f7f8 fb33 	bl	8012a92 <strlen>
 801a42c:	4604      	mov	r4, r0
 801a42e:	4630      	mov	r0, r6
 801a430:	f7f8 fb2f 	bl	8012a92 <strlen>
 801a434:	4605      	mov	r5, r0
 801a436:	4621      	mov	r1, r4
 801a438:	4638      	mov	r0, r7
 801a43a:	f7ff ff0d 	bl	801a258 <FileString_TrimLength>
 801a43e:	4604      	mov	r4, r0
 801a440:	4629      	mov	r1, r5
 801a442:	4630      	mov	r0, r6
 801a444:	f7ff ff08 	bl	801a258 <FileString_TrimLength>
 801a448:	4284      	cmp	r4, r0
 801a44a:	d107      	bne.n	801a45c <fatfs_compare_names+0xa6>
 801a44c:	4622      	mov	r2, r4
 801a44e:	4631      	mov	r1, r6
 801a450:	4638      	mov	r0, r7
 801a452:	f7ff fecd 	bl	801a1f0 <FileString_StrCmpNoCase>
 801a456:	b118      	cbz	r0, 801a460 <fatfs_compare_names+0xaa>
 801a458:	2000      	movs	r0, #0
 801a45a:	e7c1      	b.n	801a3e0 <fatfs_compare_names+0x2a>
 801a45c:	2000      	movs	r0, #0
 801a45e:	e7bf      	b.n	801a3e0 <fatfs_compare_names+0x2a>
 801a460:	2001      	movs	r0, #1
 801a462:	e7bd      	b.n	801a3e0 <fatfs_compare_names+0x2a>

0801a464 <fatfs_string_ends_with_slash>:
 801a464:	4603      	mov	r3, r0
 801a466:	b908      	cbnz	r0, 801a46c <fatfs_string_ends_with_slash+0x8>
 801a468:	4770      	bx	lr
 801a46a:	3301      	adds	r3, #1
 801a46c:	781a      	ldrb	r2, [r3, #0]
 801a46e:	b142      	cbz	r2, 801a482 <fatfs_string_ends_with_slash+0x1e>
 801a470:	7859      	ldrb	r1, [r3, #1]
 801a472:	2900      	cmp	r1, #0
 801a474:	d1f9      	bne.n	801a46a <fatfs_string_ends_with_slash+0x6>
 801a476:	2a5c      	cmp	r2, #92	@ 0x5c
 801a478:	d005      	beq.n	801a486 <fatfs_string_ends_with_slash+0x22>
 801a47a:	2a2f      	cmp	r2, #47	@ 0x2f
 801a47c:	d1f5      	bne.n	801a46a <fatfs_string_ends_with_slash+0x6>
 801a47e:	2001      	movs	r0, #1
 801a480:	4770      	bx	lr
 801a482:	2000      	movs	r0, #0
 801a484:	4770      	bx	lr
 801a486:	2001      	movs	r0, #1
 801a488:	4770      	bx	lr

0801a48a <fatfs_get_sfn_display_name>:
 801a48a:	f04f 0c00 	mov.w	ip, #0
 801a48e:	e003      	b.n	801a498 <fatfs_get_sfn_display_name+0xe>
 801a490:	f800 3b01 	strb.w	r3, [r0], #1
 801a494:	f10c 0c01 	add.w	ip, ip, #1
 801a498:	780b      	ldrb	r3, [r1, #0]
 801a49a:	b16b      	cbz	r3, 801a4b8 <fatfs_get_sfn_display_name+0x2e>
 801a49c:	f1bc 0f0b 	cmp.w	ip, #11
 801a4a0:	dc0a      	bgt.n	801a4b8 <fatfs_get_sfn_display_name+0x2e>
 801a4a2:	3101      	adds	r1, #1
 801a4a4:	2b20      	cmp	r3, #32
 801a4a6:	d0f7      	beq.n	801a498 <fatfs_get_sfn_display_name+0xe>
 801a4a8:	f1a3 0241 	sub.w	r2, r3, #65	@ 0x41
 801a4ac:	b2d2      	uxtb	r2, r2
 801a4ae:	2a19      	cmp	r2, #25
 801a4b0:	d8ee      	bhi.n	801a490 <fatfs_get_sfn_display_name+0x6>
 801a4b2:	3320      	adds	r3, #32
 801a4b4:	b2db      	uxtb	r3, r3
 801a4b6:	e7eb      	b.n	801a490 <fatfs_get_sfn_display_name+0x6>
 801a4b8:	2300      	movs	r3, #0
 801a4ba:	7003      	strb	r3, [r0, #0]
 801a4bc:	2001      	movs	r0, #1
 801a4be:	4770      	bx	lr

0801a4c0 <fatfs_get_extension>:
 801a4c0:	b570      	push	{r4, r5, r6, lr}
 801a4c2:	4604      	mov	r4, r0
 801a4c4:	460d      	mov	r5, r1
 801a4c6:	4616      	mov	r6, r2
 801a4c8:	f7ff feb9 	bl	801a23e <FileString_GetExtension>
 801a4cc:	2800      	cmp	r0, #0
 801a4ce:	dd21      	ble.n	801a514 <fatfs_get_extension+0x54>
 801a4d0:	b315      	cbz	r5, 801a518 <fatfs_get_extension+0x58>
 801a4d2:	b90e      	cbnz	r6, 801a4d8 <fatfs_get_extension+0x18>
 801a4d4:	4630      	mov	r0, r6
 801a4d6:	e01e      	b.n	801a516 <fatfs_get_extension+0x56>
 801a4d8:	3001      	adds	r0, #1
 801a4da:	eb04 0c00 	add.w	ip, r4, r0
 801a4de:	2000      	movs	r0, #0
 801a4e0:	e004      	b.n	801a4ec <fatfs_get_extension+0x2c>
 801a4e2:	4629      	mov	r1, r5
 801a4e4:	f801 3b01 	strb.w	r3, [r1], #1
 801a4e8:	3001      	adds	r0, #1
 801a4ea:	460d      	mov	r5, r1
 801a4ec:	f89c 3000 	ldrb.w	r3, [ip]
 801a4f0:	b163      	cbz	r3, 801a50c <fatfs_get_extension+0x4c>
 801a4f2:	1e72      	subs	r2, r6, #1
 801a4f4:	4282      	cmp	r2, r0
 801a4f6:	dd09      	ble.n	801a50c <fatfs_get_extension+0x4c>
 801a4f8:	f10c 0c01 	add.w	ip, ip, #1
 801a4fc:	f1a3 0241 	sub.w	r2, r3, #65	@ 0x41
 801a500:	b2d2      	uxtb	r2, r2
 801a502:	2a19      	cmp	r2, #25
 801a504:	d8ed      	bhi.n	801a4e2 <fatfs_get_extension+0x22>
 801a506:	3320      	adds	r3, #32
 801a508:	b2db      	uxtb	r3, r3
 801a50a:	e7ea      	b.n	801a4e2 <fatfs_get_extension+0x22>
 801a50c:	2300      	movs	r3, #0
 801a50e:	702b      	strb	r3, [r5, #0]
 801a510:	2001      	movs	r0, #1
 801a512:	e000      	b.n	801a516 <fatfs_get_extension+0x56>
 801a514:	2000      	movs	r0, #0
 801a516:	bd70      	pop	{r4, r5, r6, pc}
 801a518:	2000      	movs	r0, #0
 801a51a:	e7fc      	b.n	801a516 <fatfs_get_extension+0x56>

0801a51c <fatfs_create_path_string>:
 801a51c:	b388      	cbz	r0, 801a582 <fatfs_create_path_string+0x66>
 801a51e:	4684      	mov	ip, r0
 801a520:	b389      	cbz	r1, 801a586 <fatfs_create_path_string+0x6a>
 801a522:	b392      	cbz	r2, 801a58a <fatfs_create_path_string+0x6e>
 801a524:	2b00      	cmp	r3, #0
 801a526:	dc12      	bgt.n	801a54e <fatfs_create_path_string+0x32>
 801a528:	2000      	movs	r0, #0
 801a52a:	4770      	bx	lr
 801a52c:	f802 4b01 	strb.w	r4, [r2], #1
 801a530:	3001      	adds	r0, #1
 801a532:	4625      	mov	r5, r4
 801a534:	f89c 4000 	ldrb.w	r4, [ip]
 801a538:	b174      	cbz	r4, 801a558 <fatfs_create_path_string+0x3c>
 801a53a:	f1a3 0e02 	sub.w	lr, r3, #2
 801a53e:	4586      	cmp	lr, r0
 801a540:	dd0a      	ble.n	801a558 <fatfs_create_path_string+0x3c>
 801a542:	f10c 0c01 	add.w	ip, ip, #1
 801a546:	2c5c      	cmp	r4, #92	@ 0x5c
 801a548:	d1f0      	bne.n	801a52c <fatfs_create_path_string+0x10>
 801a54a:	4626      	mov	r6, r4
 801a54c:	e7ee      	b.n	801a52c <fatfs_create_path_string+0x10>
 801a54e:	b570      	push	{r4, r5, r6, lr}
 801a550:	262f      	movs	r6, #47	@ 0x2f
 801a552:	2500      	movs	r5, #0
 801a554:	4628      	mov	r0, r5
 801a556:	e7ed      	b.n	801a534 <fatfs_create_path_string+0x18>
 801a558:	2d5c      	cmp	r5, #92	@ 0x5c
 801a55a:	d008      	beq.n	801a56e <fatfs_create_path_string+0x52>
 801a55c:	2d2f      	cmp	r5, #47	@ 0x2f
 801a55e:	d006      	beq.n	801a56e <fatfs_create_path_string+0x52>
 801a560:	f802 6b01 	strb.w	r6, [r2], #1
 801a564:	e003      	b.n	801a56e <fatfs_create_path_string+0x52>
 801a566:	3101      	adds	r1, #1
 801a568:	f802 4b01 	strb.w	r4, [r2], #1
 801a56c:	3001      	adds	r0, #1
 801a56e:	780c      	ldrb	r4, [r1, #0]
 801a570:	b11c      	cbz	r4, 801a57a <fatfs_create_path_string+0x5e>
 801a572:	f103 3cff 	add.w	ip, r3, #4294967295	@ 0xffffffff
 801a576:	4584      	cmp	ip, r0
 801a578:	dcf5      	bgt.n	801a566 <fatfs_create_path_string+0x4a>
 801a57a:	2300      	movs	r3, #0
 801a57c:	7013      	strb	r3, [r2, #0]
 801a57e:	2001      	movs	r0, #1
 801a580:	bd70      	pop	{r4, r5, r6, pc}
 801a582:	2000      	movs	r0, #0
 801a584:	4770      	bx	lr
 801a586:	2000      	movs	r0, #0
 801a588:	4770      	bx	lr
 801a58a:	2000      	movs	r0, #0
 801a58c:	4770      	bx	lr

0801a58e <fatfs_fat_writeback>:
 801a58e:	b1d9      	cbz	r1, 801a5c8 <fatfs_fat_writeback+0x3a>
 801a590:	b538      	push	{r3, r4, r5, lr}
 801a592:	4603      	mov	r3, r0
 801a594:	460c      	mov	r4, r1
 801a596:	f8d1 2204 	ldr.w	r2, [r1, #516]	@ 0x204
 801a59a:	b19a      	cbz	r2, 801a5c4 <fatfs_fat_writeback+0x36>
 801a59c:	6b45      	ldr	r5, [r0, #52]	@ 0x34
 801a59e:	b175      	cbz	r5, 801a5be <fatfs_fat_writeback+0x30>
 801a5a0:	f8d1 0200 	ldr.w	r0, [r1, #512]	@ 0x200
 801a5a4:	6959      	ldr	r1, [r3, #20]
 801a5a6:	1a42      	subs	r2, r0, r1
 801a5a8:	3201      	adds	r2, #1
 801a5aa:	6a1b      	ldr	r3, [r3, #32]
 801a5ac:	429a      	cmp	r2, r3
 801a5ae:	d902      	bls.n	801a5b6 <fatfs_fat_writeback+0x28>
 801a5b0:	1a0a      	subs	r2, r1, r0
 801a5b2:	441a      	add	r2, r3
 801a5b4:	e000      	b.n	801a5b8 <fatfs_fat_writeback+0x2a>
 801a5b6:	2201      	movs	r2, #1
 801a5b8:	4621      	mov	r1, r4
 801a5ba:	47a8      	blx	r5
 801a5bc:	b118      	cbz	r0, 801a5c6 <fatfs_fat_writeback+0x38>
 801a5be:	2300      	movs	r3, #0
 801a5c0:	f8c4 3204 	str.w	r3, [r4, #516]	@ 0x204
 801a5c4:	2001      	movs	r0, #1
 801a5c6:	bd38      	pop	{r3, r4, r5, pc}
 801a5c8:	2000      	movs	r0, #0
 801a5ca:	4770      	bx	lr

0801a5cc <fatfs_fat_read_sector>:
 801a5cc:	b5f8      	push	{r3, r4, r5, r6, r7, lr}
 801a5ce:	4607      	mov	r7, r0
 801a5d0:	460d      	mov	r5, r1
 801a5d2:	f8d0 4250 	ldr.w	r4, [r0, #592]	@ 0x250
 801a5d6:	2600      	movs	r6, #0
 801a5d8:	e005      	b.n	801a5e6 <fatfs_fat_read_sector+0x1a>
 801a5da:	f8d4 320c 	ldr.w	r3, [r4, #524]	@ 0x20c
 801a5de:	b1a3      	cbz	r3, 801a60a <fatfs_fat_read_sector+0x3e>
 801a5e0:	4626      	mov	r6, r4
 801a5e2:	f8d4 420c 	ldr.w	r4, [r4, #524]	@ 0x20c
 801a5e6:	b134      	cbz	r4, 801a5f6 <fatfs_fat_read_sector+0x2a>
 801a5e8:	f8d4 3200 	ldr.w	r3, [r4, #512]	@ 0x200
 801a5ec:	42ab      	cmp	r3, r5
 801a5ee:	d8f4      	bhi.n	801a5da <fatfs_fat_read_sector+0xe>
 801a5f0:	3301      	adds	r3, #1
 801a5f2:	42ab      	cmp	r3, r5
 801a5f4:	d9f1      	bls.n	801a5da <fatfs_fat_read_sector+0xe>
 801a5f6:	b184      	cbz	r4, 801a61a <fatfs_fat_read_sector+0x4e>
 801a5f8:	f8d4 3200 	ldr.w	r3, [r4, #512]	@ 0x200
 801a5fc:	1aeb      	subs	r3, r5, r3
 801a5fe:	eb04 2343 	add.w	r3, r4, r3, lsl #9
 801a602:	f8c4 3208 	str.w	r3, [r4, #520]	@ 0x208
 801a606:	4620      	mov	r0, r4
 801a608:	bdf8      	pop	{r3, r4, r5, r6, r7, pc}
 801a60a:	b116      	cbz	r6, 801a612 <fatfs_fat_read_sector+0x46>
 801a60c:	f8c6 320c 	str.w	r3, [r6, #524]	@ 0x20c
 801a610:	e7e6      	b.n	801a5e0 <fatfs_fat_read_sector+0x14>
 801a612:	2300      	movs	r3, #0
 801a614:	f8c7 3250 	str.w	r3, [r7, #592]	@ 0x250
 801a618:	e7e2      	b.n	801a5e0 <fatfs_fat_read_sector+0x14>
 801a61a:	f8d7 3250 	ldr.w	r3, [r7, #592]	@ 0x250
 801a61e:	f8c6 320c 	str.w	r3, [r6, #524]	@ 0x20c
 801a622:	f8c7 6250 	str.w	r6, [r7, #592]	@ 0x250
 801a626:	f8d6 3204 	ldr.w	r3, [r6, #516]	@ 0x204
 801a62a:	b95b      	cbnz	r3, 801a644 <fatfs_fat_read_sector+0x78>
 801a62c:	f8c6 5200 	str.w	r5, [r6, #512]	@ 0x200
 801a630:	6b3b      	ldr	r3, [r7, #48]	@ 0x30
 801a632:	2201      	movs	r2, #1
 801a634:	4631      	mov	r1, r6
 801a636:	4628      	mov	r0, r5
 801a638:	4798      	blx	r3
 801a63a:	b150      	cbz	r0, 801a652 <fatfs_fat_read_sector+0x86>
 801a63c:	f8c6 6208 	str.w	r6, [r6, #520]	@ 0x208
 801a640:	4634      	mov	r4, r6
 801a642:	e7e0      	b.n	801a606 <fatfs_fat_read_sector+0x3a>
 801a644:	4631      	mov	r1, r6
 801a646:	4638      	mov	r0, r7
 801a648:	f7ff ffa1 	bl	801a58e <fatfs_fat_writeback>
 801a64c:	2800      	cmp	r0, #0
 801a64e:	d1ed      	bne.n	801a62c <fatfs_fat_read_sector+0x60>
 801a650:	e7d9      	b.n	801a606 <fatfs_fat_read_sector+0x3a>
 801a652:	f04f 33ff 	mov.w	r3, #4294967295	@ 0xffffffff
 801a656:	f8c6 3200 	str.w	r3, [r6, #512]	@ 0x200
 801a65a:	e7d4      	b.n	801a606 <fatfs_fat_read_sector+0x3a>

0801a65c <fatfs_fat_init>:
 801a65c:	e92d 41f0 	stmdb	sp!, {r4, r5, r6, r7, r8, lr}
 801a660:	4606      	mov	r6, r0
 801a662:	2400      	movs	r4, #0
 801a664:	f8c0 4250 	str.w	r4, [r0, #592]	@ 0x250
 801a668:	2c00      	cmp	r4, #0
 801a66a:	dd01      	ble.n	801a670 <fatfs_fat_init+0x14>
 801a66c:	e8bd 81f0 	ldmia.w	sp!, {r4, r5, r6, r7, r8, pc}
 801a670:	eb04 1744 	add.w	r7, r4, r4, lsl #5
 801a674:	eb06 1707 	add.w	r7, r6, r7, lsl #4
 801a678:	f04f 33ff 	mov.w	r3, #4294967295	@ 0xffffffff
 801a67c:	f8c7 3454 	str.w	r3, [r7, #1108]	@ 0x454
 801a680:	f04f 0800 	mov.w	r8, #0
 801a684:	f8c7 8458 	str.w	r8, [r7, #1112]	@ 0x458
 801a688:	eb04 1544 	add.w	r5, r4, r4, lsl #5
 801a68c:	012d      	lsls	r5, r5, #4
 801a68e:	f505 7514 	add.w	r5, r5, #592	@ 0x250
 801a692:	4435      	add	r5, r6
 801a694:	3504      	adds	r5, #4
 801a696:	f44f 7200 	mov.w	r2, #512	@ 0x200
 801a69a:	4641      	mov	r1, r8
 801a69c:	4628      	mov	r0, r5
 801a69e:	f7f8 f9c2 	bl	8012a26 <memset>
 801a6a2:	f8c7 845c 	str.w	r8, [r7, #1116]	@ 0x45c
 801a6a6:	f8d6 3250 	ldr.w	r3, [r6, #592]	@ 0x250
 801a6aa:	f8c7 3460 	str.w	r3, [r7, #1120]	@ 0x460
 801a6ae:	f8c6 5250 	str.w	r5, [r6, #592]	@ 0x250
 801a6b2:	3401      	adds	r4, #1
 801a6b4:	e7d8      	b.n	801a668 <fatfs_fat_init+0xc>

0801a6b6 <fatfs_fat_purge>:
 801a6b6:	b538      	push	{r3, r4, r5, lr}
 801a6b8:	4605      	mov	r5, r0
 801a6ba:	f8d0 4250 	ldr.w	r4, [r0, #592]	@ 0x250
 801a6be:	e001      	b.n	801a6c4 <fatfs_fat_purge+0xe>
 801a6c0:	f8d4 420c 	ldr.w	r4, [r4, #524]	@ 0x20c
 801a6c4:	b15c      	cbz	r4, 801a6de <fatfs_fat_purge+0x28>
 801a6c6:	f8d4 3204 	ldr.w	r3, [r4, #516]	@ 0x204
 801a6ca:	2b00      	cmp	r3, #0
 801a6cc:	d0f8      	beq.n	801a6c0 <fatfs_fat_purge+0xa>
 801a6ce:	4621      	mov	r1, r4
 801a6d0:	4628      	mov	r0, r5
 801a6d2:	f7ff ff5c 	bl	801a58e <fatfs_fat_writeback>
 801a6d6:	4603      	mov	r3, r0
 801a6d8:	2800      	cmp	r0, #0
 801a6da:	d1f1      	bne.n	801a6c0 <fatfs_fat_purge+0xa>
 801a6dc:	e000      	b.n	801a6e0 <fatfs_fat_purge+0x2a>
 801a6de:	2301      	movs	r3, #1
 801a6e0:	4618      	mov	r0, r3
 801a6e2:	bd38      	pop	{r3, r4, r5, pc}

0801a6e4 <fatfs_find_next_cluster>:
 801a6e4:	b570      	push	{r4, r5, r6, lr}
 801a6e6:	4604      	mov	r4, r0
 801a6e8:	460d      	mov	r5, r1
 801a6ea:	b901      	cbnz	r1, 801a6ee <fatfs_find_next_cluster+0xa>
 801a6ec:	2502      	movs	r5, #2
 801a6ee:	f894 302d 	ldrb.w	r3, [r4, #45]	@ 0x2d
 801a6f2:	b9d3      	cbnz	r3, 801a72a <fatfs_find_next_cluster+0x46>
 801a6f4:	0a2e      	lsrs	r6, r5, #8
 801a6f6:	6961      	ldr	r1, [r4, #20]
 801a6f8:	4431      	add	r1, r6
 801a6fa:	4620      	mov	r0, r4
 801a6fc:	f7ff ff66 	bl	801a5cc <fatfs_fat_read_sector>
 801a700:	b380      	cbz	r0, 801a764 <fatfs_find_next_cluster+0x80>
 801a702:	f894 202d 	ldrb.w	r2, [r4, #45]	@ 0x2d
 801a706:	b992      	cbnz	r2, 801a72e <fatfs_find_next_cluster+0x4a>
 801a708:	eba5 2606 	sub.w	r6, r5, r6, lsl #8
 801a70c:	0076      	lsls	r6, r6, #1
 801a70e:	f8d0 3208 	ldr.w	r3, [r0, #520]	@ 0x208
 801a712:	b2b6      	uxth	r6, r6
 801a714:	199a      	adds	r2, r3, r6
 801a716:	7852      	ldrb	r2, [r2, #1]
 801a718:	5d98      	ldrb	r0, [r3, r6]
 801a71a:	eb00 2002 	add.w	r0, r0, r2, lsl #8
 801a71e:	f5a0 437f 	sub.w	r3, r0, #65280	@ 0xff00
 801a722:	3bf8      	subs	r3, #248	@ 0xf8
 801a724:	2b07      	cmp	r3, #7
 801a726:	d920      	bls.n	801a76a <fatfs_find_next_cluster+0x86>
 801a728:	bd70      	pop	{r4, r5, r6, pc}
 801a72a:	09ee      	lsrs	r6, r5, #7
 801a72c:	e7e3      	b.n	801a6f6 <fatfs_find_next_cluster+0x12>
 801a72e:	eba5 15c6 	sub.w	r5, r5, r6, lsl #7
 801a732:	00ad      	lsls	r5, r5, #2
 801a734:	f8d0 1208 	ldr.w	r1, [r0, #520]	@ 0x208
 801a738:	b2ad      	uxth	r5, r5
 801a73a:	194a      	adds	r2, r1, r5
 801a73c:	78d0      	ldrb	r0, [r2, #3]
 801a73e:	7893      	ldrb	r3, [r2, #2]
 801a740:	041b      	lsls	r3, r3, #16
 801a742:	eb03 6300 	add.w	r3, r3, r0, lsl #24
 801a746:	7852      	ldrb	r2, [r2, #1]
 801a748:	eb03 2302 	add.w	r3, r3, r2, lsl #8
 801a74c:	5d4a      	ldrb	r2, [r1, r5]
 801a74e:	4413      	add	r3, r2
 801a750:	f023 4070 	bic.w	r0, r3, #4026531840	@ 0xf0000000
 801a754:	f043 4370 	orr.w	r3, r3, #4026531840	@ 0xf0000000
 801a758:	3308      	adds	r3, #8
 801a75a:	2b07      	cmp	r3, #7
 801a75c:	d8e4      	bhi.n	801a728 <fatfs_find_next_cluster+0x44>
 801a75e:	f04f 30ff 	mov.w	r0, #4294967295	@ 0xffffffff
 801a762:	e7e1      	b.n	801a728 <fatfs_find_next_cluster+0x44>
 801a764:	f04f 30ff 	mov.w	r0, #4294967295	@ 0xffffffff
 801a768:	e7de      	b.n	801a728 <fatfs_find_next_cluster+0x44>
 801a76a:	f04f 30ff 	mov.w	r0, #4294967295	@ 0xffffffff
 801a76e:	e7db      	b.n	801a728 <fatfs_find_next_cluster+0x44>

0801a770 <fatfs_set_fs_info_next_free_cluster>:
 801a770:	f890 302d 	ldrb.w	r3, [r0, #45]	@ 0x2d
 801a774:	b903      	cbnz	r3, 801a778 <fatfs_set_fs_info_next_free_cluster+0x8>
 801a776:	4770      	bx	lr
 801a778:	b570      	push	{r4, r5, r6, lr}
 801a77a:	4604      	mov	r4, r0
 801a77c:	460d      	mov	r5, r1
 801a77e:	69c1      	ldr	r1, [r0, #28]
 801a780:	8b03      	ldrh	r3, [r0, #24]
 801a782:	4419      	add	r1, r3
 801a784:	f7ff ff22 	bl	801a5cc <fatfs_fat_read_sector>
 801a788:	4606      	mov	r6, r0
 801a78a:	b330      	cbz	r0, 801a7da <fatfs_set_fs_info_next_free_cluster+0x6a>
 801a78c:	f8d0 3208 	ldr.w	r3, [r0, #520]	@ 0x208
 801a790:	f883 51ec 	strb.w	r5, [r3, #492]	@ 0x1ec
 801a794:	f8d0 3208 	ldr.w	r3, [r0, #520]	@ 0x208
 801a798:	f3c5 2207 	ubfx	r2, r5, #8, #8
 801a79c:	f883 21ed 	strb.w	r2, [r3, #493]	@ 0x1ed
 801a7a0:	f8d0 3208 	ldr.w	r3, [r0, #520]	@ 0x208
 801a7a4:	f3c5 4207 	ubfx	r2, r5, #16, #8
 801a7a8:	f883 21ee 	strb.w	r2, [r3, #494]	@ 0x1ee
 801a7ac:	f8d0 3208 	ldr.w	r3, [r0, #520]	@ 0x208
 801a7b0:	0e2a      	lsrs	r2, r5, #24
 801a7b2:	f883 21ef 	strb.w	r2, [r3, #495]	@ 0x1ef
 801a7b6:	2301      	movs	r3, #1
 801a7b8:	f8c0 3204 	str.w	r3, [r0, #516]	@ 0x204
 801a7bc:	6265      	str	r5, [r4, #36]	@ 0x24
 801a7be:	6b63      	ldr	r3, [r4, #52]	@ 0x34
 801a7c0:	b123      	cbz	r3, 801a7cc <fatfs_set_fs_info_next_free_cluster+0x5c>
 801a7c2:	2201      	movs	r2, #1
 801a7c4:	4601      	mov	r1, r0
 801a7c6:	f8d0 0200 	ldr.w	r0, [r0, #512]	@ 0x200
 801a7ca:	4798      	blx	r3
 801a7cc:	f04f 33ff 	mov.w	r3, #4294967295	@ 0xffffffff
 801a7d0:	f8c6 3200 	str.w	r3, [r6, #512]	@ 0x200
 801a7d4:	2300      	movs	r3, #0
 801a7d6:	f8c6 3204 	str.w	r3, [r6, #516]	@ 0x204
 801a7da:	bd70      	pop	{r4, r5, r6, pc}

0801a7dc <fatfs_find_blank_cluster>:
 801a7dc:	b5f8      	push	{r3, r4, r5, r6, r7, lr}
 801a7de:	4605      	mov	r5, r0
 801a7e0:	460e      	mov	r6, r1
 801a7e2:	4617      	mov	r7, r2
 801a7e4:	e016      	b.n	801a814 <fatfs_find_blank_cluster+0x38>
 801a7e6:	09f4      	lsrs	r4, r6, #7
 801a7e8:	e019      	b.n	801a81e <fatfs_find_blank_cluster+0x42>
 801a7ea:	eba6 14c4 	sub.w	r4, r6, r4, lsl #7
 801a7ee:	00a4      	lsls	r4, r4, #2
 801a7f0:	f8d0 1208 	ldr.w	r1, [r0, #520]	@ 0x208
 801a7f4:	b2a4      	uxth	r4, r4
 801a7f6:	190a      	adds	r2, r1, r4
 801a7f8:	78d0      	ldrb	r0, [r2, #3]
 801a7fa:	7893      	ldrb	r3, [r2, #2]
 801a7fc:	041b      	lsls	r3, r3, #16
 801a7fe:	eb03 6300 	add.w	r3, r3, r0, lsl #24
 801a802:	7852      	ldrb	r2, [r2, #1]
 801a804:	eb03 2302 	add.w	r3, r3, r2, lsl #8
 801a808:	5d0a      	ldrb	r2, [r1, r4]
 801a80a:	4413      	add	r3, r2
 801a80c:	f023 4370 	bic.w	r3, r3, #4026531840	@ 0xf0000000
 801a810:	e01d      	b.n	801a84e <fatfs_find_blank_cluster+0x72>
 801a812:	b303      	cbz	r3, 801a856 <fatfs_find_blank_cluster+0x7a>
 801a814:	f895 302d 	ldrb.w	r3, [r5, #45]	@ 0x2d
 801a818:	2b00      	cmp	r3, #0
 801a81a:	d1e4      	bne.n	801a7e6 <fatfs_find_blank_cluster+0xa>
 801a81c:	0a34      	lsrs	r4, r6, #8
 801a81e:	6a2b      	ldr	r3, [r5, #32]
 801a820:	42a3      	cmp	r3, r4
 801a822:	d91b      	bls.n	801a85c <fatfs_find_blank_cluster+0x80>
 801a824:	6969      	ldr	r1, [r5, #20]
 801a826:	4421      	add	r1, r4
 801a828:	4628      	mov	r0, r5
 801a82a:	f7ff fecf 	bl	801a5cc <fatfs_fat_read_sector>
 801a82e:	b1b8      	cbz	r0, 801a860 <fatfs_find_blank_cluster+0x84>
 801a830:	f895 202d 	ldrb.w	r2, [r5, #45]	@ 0x2d
 801a834:	2a00      	cmp	r2, #0
 801a836:	d1d8      	bne.n	801a7ea <fatfs_find_blank_cluster+0xe>
 801a838:	eba6 2404 	sub.w	r4, r6, r4, lsl #8
 801a83c:	0064      	lsls	r4, r4, #1
 801a83e:	f8d0 3208 	ldr.w	r3, [r0, #520]	@ 0x208
 801a842:	b2a4      	uxth	r4, r4
 801a844:	191a      	adds	r2, r3, r4
 801a846:	7852      	ldrb	r2, [r2, #1]
 801a848:	5d1b      	ldrb	r3, [r3, r4]
 801a84a:	eb03 2302 	add.w	r3, r3, r2, lsl #8
 801a84e:	2b00      	cmp	r3, #0
 801a850:	d0df      	beq.n	801a812 <fatfs_find_blank_cluster+0x36>
 801a852:	3601      	adds	r6, #1
 801a854:	e7dd      	b.n	801a812 <fatfs_find_blank_cluster+0x36>
 801a856:	603e      	str	r6, [r7, #0]
 801a858:	2001      	movs	r0, #1
 801a85a:	e000      	b.n	801a85e <fatfs_find_blank_cluster+0x82>
 801a85c:	2000      	movs	r0, #0
 801a85e:	bdf8      	pop	{r3, r4, r5, r6, r7, pc}
 801a860:	2000      	movs	r0, #0
 801a862:	e7fc      	b.n	801a85e <fatfs_find_blank_cluster+0x82>

0801a864 <fatfs_fat_set_cluster>:
 801a864:	b5f8      	push	{r3, r4, r5, r6, r7, lr}
 801a866:	4606      	mov	r6, r0
 801a868:	460c      	mov	r4, r1
 801a86a:	4615      	mov	r5, r2
 801a86c:	f890 302d 	ldrb.w	r3, [r0, #45]	@ 0x2d
 801a870:	b9db      	cbnz	r3, 801a8aa <fatfs_fat_set_cluster+0x46>
 801a872:	0a0f      	lsrs	r7, r1, #8
 801a874:	6971      	ldr	r1, [r6, #20]
 801a876:	4439      	add	r1, r7
 801a878:	4630      	mov	r0, r6
 801a87a:	f7ff fea7 	bl	801a5cc <fatfs_fat_read_sector>
 801a87e:	4603      	mov	r3, r0
 801a880:	b388      	cbz	r0, 801a8e6 <fatfs_fat_set_cluster+0x82>
 801a882:	f896 202d 	ldrb.w	r2, [r6, #45]	@ 0x2d
 801a886:	b992      	cbnz	r2, 801a8ae <fatfs_fat_set_cluster+0x4a>
 801a888:	eba4 2707 	sub.w	r7, r4, r7, lsl #8
 801a88c:	007f      	lsls	r7, r7, #1
 801a88e:	f8d0 2208 	ldr.w	r2, [r0, #520]	@ 0x208
 801a892:	b2bf      	uxth	r7, r7
 801a894:	55d5      	strb	r5, [r2, r7]
 801a896:	f8d0 2208 	ldr.w	r2, [r0, #520]	@ 0x208
 801a89a:	3701      	adds	r7, #1
 801a89c:	f3c5 2507 	ubfx	r5, r5, #8, #8
 801a8a0:	55d5      	strb	r5, [r2, r7]
 801a8a2:	2001      	movs	r0, #1
 801a8a4:	f8c3 0204 	str.w	r0, [r3, #516]	@ 0x204
 801a8a8:	bdf8      	pop	{r3, r4, r5, r6, r7, pc}
 801a8aa:	09cf      	lsrs	r7, r1, #7
 801a8ac:	e7e2      	b.n	801a874 <fatfs_fat_set_cluster+0x10>
 801a8ae:	eba4 14c7 	sub.w	r4, r4, r7, lsl #7
 801a8b2:	00a4      	lsls	r4, r4, #2
 801a8b4:	f8d0 2208 	ldr.w	r2, [r0, #520]	@ 0x208
 801a8b8:	b2a4      	uxth	r4, r4
 801a8ba:	5515      	strb	r5, [r2, r4]
 801a8bc:	f8d0 1208 	ldr.w	r1, [r0, #520]	@ 0x208
 801a8c0:	1c62      	adds	r2, r4, #1
 801a8c2:	f3c5 2007 	ubfx	r0, r5, #8, #8
 801a8c6:	5488      	strb	r0, [r1, r2]
 801a8c8:	f8d3 1208 	ldr.w	r1, [r3, #520]	@ 0x208
 801a8cc:	1ca2      	adds	r2, r4, #2
 801a8ce:	f3c5 4007 	ubfx	r0, r5, #16, #8
 801a8d2:	5488      	strb	r0, [r1, r2]
 801a8d4:	f8d3 2208 	ldr.w	r2, [r3, #520]	@ 0x208
 801a8d8:	3403      	adds	r4, #3
 801a8da:	0e2d      	lsrs	r5, r5, #24
 801a8dc:	5515      	strb	r5, [r2, r4]
 801a8de:	2001      	movs	r0, #1
 801a8e0:	f8c3 0204 	str.w	r0, [r3, #516]	@ 0x204
 801a8e4:	e7e0      	b.n	801a8a8 <fatfs_fat_set_cluster+0x44>
 801a8e6:	2000      	movs	r0, #0
 801a8e8:	e7de      	b.n	801a8a8 <fatfs_fat_set_cluster+0x44>

0801a8ea <fatfs_free_cluster_chain>:
 801a8ea:	b570      	push	{r4, r5, r6, lr}
 801a8ec:	4606      	mov	r6, r0
 801a8ee:	460c      	mov	r4, r1
 801a8f0:	e00a      	b.n	801a908 <fatfs_free_cluster_chain+0x1e>
 801a8f2:	4621      	mov	r1, r4
 801a8f4:	4630      	mov	r0, r6
 801a8f6:	f7ff fef5 	bl	801a6e4 <fatfs_find_next_cluster>
 801a8fa:	4605      	mov	r5, r0
 801a8fc:	2200      	movs	r2, #0
 801a8fe:	4621      	mov	r1, r4
 801a900:	4630      	mov	r0, r6
 801a902:	f7ff ffaf 	bl	801a864 <fatfs_fat_set_cluster>
 801a906:	462c      	mov	r4, r5
 801a908:	1e63      	subs	r3, r4, #1
 801a90a:	f113 0f03 	cmn.w	r3, #3
 801a90e:	d9f0      	bls.n	801a8f2 <fatfs_free_cluster_chain+0x8>
 801a910:	2001      	movs	r0, #1
 801a912:	bd70      	pop	{r4, r5, r6, pc}

0801a914 <fatfs_fat_add_cluster_to_chain>:
 801a914:	f1b1 3fff 	cmp.w	r1, #4294967295	@ 0xffffffff
 801a918:	d01e      	beq.n	801a958 <fatfs_fat_add_cluster_to_chain+0x44>
 801a91a:	b570      	push	{r4, r5, r6, lr}
 801a91c:	4605      	mov	r5, r0
 801a91e:	460c      	mov	r4, r1
 801a920:	4616      	mov	r6, r2
 801a922:	f04f 31ff 	mov.w	r1, #4294967295	@ 0xffffffff
 801a926:	f1b4 3fff 	cmp.w	r4, #4294967295	@ 0xffffffff
 801a92a:	d009      	beq.n	801a940 <fatfs_fat_add_cluster_to_chain+0x2c>
 801a92c:	4621      	mov	r1, r4
 801a92e:	4628      	mov	r0, r5
 801a930:	f7ff fed8 	bl	801a6e4 <fatfs_find_next_cluster>
 801a934:	4621      	mov	r1, r4
 801a936:	4604      	mov	r4, r0
 801a938:	2800      	cmp	r0, #0
 801a93a:	d1f4      	bne.n	801a926 <fatfs_fat_add_cluster_to_chain+0x12>
 801a93c:	2000      	movs	r0, #0
 801a93e:	e00a      	b.n	801a956 <fatfs_fat_add_cluster_to_chain+0x42>
 801a940:	4632      	mov	r2, r6
 801a942:	4628      	mov	r0, r5
 801a944:	f7ff ff8e 	bl	801a864 <fatfs_fat_set_cluster>
 801a948:	f04f 32ff 	mov.w	r2, #4294967295	@ 0xffffffff
 801a94c:	4631      	mov	r1, r6
 801a94e:	4628      	mov	r0, r5
 801a950:	f7ff ff88 	bl	801a864 <fatfs_fat_set_cluster>
 801a954:	2001      	movs	r0, #1
 801a956:	bd70      	pop	{r4, r5, r6, pc}
 801a958:	2000      	movs	r0, #0
 801a95a:	4770      	bx	lr

0801a95c <fatfs_count_free_clusters>:
 801a95c:	b5f8      	push	{r3, r4, r5, r6, r7, lr}
 801a95e:	4604      	mov	r4, r0
 801a960:	2500      	movs	r5, #0
 801a962:	462e      	mov	r6, r5
 801a964:	e026      	b.n	801a9b4 <fatfs_count_free_clusters+0x58>
 801a966:	3302      	adds	r3, #2
 801a968:	f5b3 7f00 	cmp.w	r3, #512	@ 0x200
 801a96c:	d221      	bcs.n	801a9b2 <fatfs_count_free_clusters+0x56>
 801a96e:	f894 202d 	ldrb.w	r2, [r4, #45]	@ 0x2d
 801a972:	b95a      	cbnz	r2, 801a98c <fatfs_count_free_clusters+0x30>
 801a974:	f8dc 1208 	ldr.w	r1, [ip, #520]	@ 0x208
 801a978:	b29a      	uxth	r2, r3
 801a97a:	1888      	adds	r0, r1, r2
 801a97c:	7840      	ldrb	r0, [r0, #1]
 801a97e:	5c8a      	ldrb	r2, [r1, r2]
 801a980:	eb02 2200 	add.w	r2, r2, r0, lsl #8
 801a984:	2a00      	cmp	r2, #0
 801a986:	d1ee      	bne.n	801a966 <fatfs_count_free_clusters+0xa>
 801a988:	3501      	adds	r5, #1
 801a98a:	e7ec      	b.n	801a966 <fatfs_count_free_clusters+0xa>
 801a98c:	f8dc 7208 	ldr.w	r7, [ip, #520]	@ 0x208
 801a990:	b298      	uxth	r0, r3
 801a992:	1839      	adds	r1, r7, r0
 801a994:	f891 e003 	ldrb.w	lr, [r1, #3]
 801a998:	788a      	ldrb	r2, [r1, #2]
 801a99a:	0412      	lsls	r2, r2, #16
 801a99c:	eb02 620e 	add.w	r2, r2, lr, lsl #24
 801a9a0:	7849      	ldrb	r1, [r1, #1]
 801a9a2:	eb02 2201 	add.w	r2, r2, r1, lsl #8
 801a9a6:	5c39      	ldrb	r1, [r7, r0]
 801a9a8:	42ca      	cmn	r2, r1
 801a9aa:	d100      	bne.n	801a9ae <fatfs_count_free_clusters+0x52>
 801a9ac:	3501      	adds	r5, #1
 801a9ae:	3304      	adds	r3, #4
 801a9b0:	e7da      	b.n	801a968 <fatfs_count_free_clusters+0xc>
 801a9b2:	3601      	adds	r6, #1
 801a9b4:	6a23      	ldr	r3, [r4, #32]
 801a9b6:	42b3      	cmp	r3, r6
 801a9b8:	d908      	bls.n	801a9cc <fatfs_count_free_clusters+0x70>
 801a9ba:	6961      	ldr	r1, [r4, #20]
 801a9bc:	4431      	add	r1, r6
 801a9be:	4620      	mov	r0, r4
 801a9c0:	f7ff fe04 	bl	801a5cc <fatfs_fat_read_sector>
 801a9c4:	4684      	mov	ip, r0
 801a9c6:	b108      	cbz	r0, 801a9cc <fatfs_count_free_clusters+0x70>
 801a9c8:	2300      	movs	r3, #0
 801a9ca:	e7cd      	b.n	801a968 <fatfs_count_free_clusters+0xc>
 801a9cc:	4628      	mov	r0, r5
 801a9ce:	bdf8      	pop	{r3, r4, r5, r6, r7, pc}

0801a9d0 <fatfs_find_free_dir_offset>:
 801a9d0:	e92d 4ff0 	stmdb	sp!, {r4, r5, r6, r7, r8, r9, sl, fp, lr}
 801a9d4:	b087      	sub	sp, #28
 801a9d6:	9103      	str	r1, [sp, #12]
 801a9d8:	f8dd a040 	ldr.w	sl, [sp, #64]	@ 0x40
 801a9dc:	4693      	mov	fp, r2
 801a9de:	2a00      	cmp	r2, #0
 801a9e0:	d073      	beq.n	801aaca <fatfs_find_free_dir_offset+0xfa>
 801a9e2:	4607      	mov	r7, r0
 801a9e4:	4699      	mov	r9, r3
 801a9e6:	2300      	movs	r3, #0
 801a9e8:	461e      	mov	r6, r3
 801a9ea:	9301      	str	r3, [sp, #4]
 801a9ec:	461d      	mov	r5, r3
 801a9ee:	e037      	b.n	801aa60 <fatfs_find_free_dir_offset+0x90>
 801a9f0:	3501      	adds	r5, #1
 801a9f2:	3401      	adds	r4, #1
 801a9f4:	b2e4      	uxtb	r4, r4
 801a9f6:	2c0f      	cmp	r4, #15
 801a9f8:	d831      	bhi.n	801aa5e <fatfs_find_free_dir_offset+0x8e>
 801a9fa:	0166      	lsls	r6, r4, #5
 801a9fc:	f107 0040 	add.w	r0, r7, #64	@ 0x40
 801aa00:	eb00 1044 	add.w	r0, r0, r4, lsl #5
 801aa04:	f7ff fa67 	bl	8019ed6 <fatfs_entry_lfn_text>
 801aa08:	b140      	cbz	r0, 801aa1c <fatfs_find_free_dir_offset+0x4c>
 801aa0a:	2d00      	cmp	r5, #0
 801aa0c:	d1f0      	bne.n	801a9f0 <fatfs_find_free_dir_offset+0x20>
 801aa0e:	f8c9 8000 	str.w	r8, [r9]
 801aa12:	f88a 4000 	strb.w	r4, [sl]
 801aa16:	2301      	movs	r3, #1
 801aa18:	9301      	str	r3, [sp, #4]
 801aa1a:	e7e9      	b.n	801a9f0 <fatfs_find_free_dir_offset+0x20>
 801aa1c:	443e      	add	r6, r7
 801aa1e:	f896 2040 	ldrb.w	r2, [r6, #64]	@ 0x40
 801aa22:	2ae5      	cmp	r2, #229	@ 0xe5
 801aa24:	d00c      	beq.n	801aa40 <fatfs_find_free_dir_offset+0x70>
 801aa26:	b9ba      	cbnz	r2, 801aa58 <fatfs_find_free_dir_offset+0x88>
 801aa28:	b92d      	cbnz	r5, 801aa36 <fatfs_find_free_dir_offset+0x66>
 801aa2a:	f8c9 8000 	str.w	r8, [r9]
 801aa2e:	f88a 4000 	strb.w	r4, [sl]
 801aa32:	2301      	movs	r3, #1
 801aa34:	9301      	str	r3, [sp, #4]
 801aa36:	3501      	adds	r5, #1
 801aa38:	45ab      	cmp	fp, r5
 801aa3a:	dcda      	bgt.n	801a9f2 <fatfs_find_free_dir_offset+0x22>
 801aa3c:	2001      	movs	r0, #1
 801aa3e:	e045      	b.n	801aacc <fatfs_find_free_dir_offset+0xfc>
 801aa40:	b92d      	cbnz	r5, 801aa4e <fatfs_find_free_dir_offset+0x7e>
 801aa42:	f8c9 8000 	str.w	r8, [r9]
 801aa46:	f88a 4000 	strb.w	r4, [sl]
 801aa4a:	2301      	movs	r3, #1
 801aa4c:	9301      	str	r3, [sp, #4]
 801aa4e:	3501      	adds	r5, #1
 801aa50:	45ab      	cmp	fp, r5
 801aa52:	dcce      	bgt.n	801a9f2 <fatfs_find_free_dir_offset+0x22>
 801aa54:	2001      	movs	r0, #1
 801aa56:	e039      	b.n	801aacc <fatfs_find_free_dir_offset+0xfc>
 801aa58:	9001      	str	r0, [sp, #4]
 801aa5a:	4605      	mov	r5, r0
 801aa5c:	e7c9      	b.n	801a9f2 <fatfs_find_free_dir_offset+0x22>
 801aa5e:	9e02      	ldr	r6, [sp, #8]
 801aa60:	46b0      	mov	r8, r6
 801aa62:	3601      	adds	r6, #1
 801aa64:	2300      	movs	r3, #0
 801aa66:	4642      	mov	r2, r8
 801aa68:	9903      	ldr	r1, [sp, #12]
 801aa6a:	4638      	mov	r0, r7
 801aa6c:	f7fd fb02 	bl	8018074 <fatfs_sector_reader>
 801aa70:	b110      	cbz	r0, 801aa78 <fatfs_find_free_dir_offset+0xa8>
 801aa72:	2400      	movs	r4, #0
 801aa74:	9602      	str	r6, [sp, #8]
 801aa76:	e7be      	b.n	801a9f6 <fatfs_find_free_dir_offset+0x26>
 801aa78:	aa05      	add	r2, sp, #20
 801aa7a:	68b9      	ldr	r1, [r7, #8]
 801aa7c:	4638      	mov	r0, r7
 801aa7e:	f7ff fead 	bl	801a7dc <fatfs_find_blank_cluster>
 801aa82:	b318      	cbz	r0, 801aacc <fatfs_find_free_dir_offset+0xfc>
 801aa84:	9a05      	ldr	r2, [sp, #20]
 801aa86:	9903      	ldr	r1, [sp, #12]
 801aa88:	4638      	mov	r0, r7
 801aa8a:	f7ff ff43 	bl	801a914 <fatfs_fat_add_cluster_to_chain>
 801aa8e:	b1e8      	cbz	r0, 801aacc <fatfs_find_free_dir_offset+0xfc>
 801aa90:	f44f 7200 	mov.w	r2, #512	@ 0x200
 801aa94:	2100      	movs	r1, #0
 801aa96:	f107 0040 	add.w	r0, r7, #64	@ 0x40
 801aa9a:	f7f7 ffc4 	bl	8012a26 <memset>
 801aa9e:	2400      	movs	r4, #0
 801aaa0:	783b      	ldrb	r3, [r7, #0]
 801aaa2:	42a3      	cmp	r3, r4
 801aaa4:	d909      	bls.n	801aaba <fatfs_find_free_dir_offset+0xea>
 801aaa6:	2300      	movs	r3, #0
 801aaa8:	4622      	mov	r2, r4
 801aaaa:	9905      	ldr	r1, [sp, #20]
 801aaac:	4638      	mov	r0, r7
 801aaae:	f7fd fb56 	bl	801815e <fatfs_write_sector>
 801aab2:	b158      	cbz	r0, 801aacc <fatfs_find_free_dir_offset+0xfc>
 801aab4:	3401      	adds	r4, #1
 801aab6:	b2e4      	uxtb	r4, r4
 801aab8:	e7f2      	b.n	801aaa0 <fatfs_find_free_dir_offset+0xd0>
 801aaba:	9b01      	ldr	r3, [sp, #4]
 801aabc:	b91b      	cbnz	r3, 801aac6 <fatfs_find_free_dir_offset+0xf6>
 801aabe:	f8c9 8000 	str.w	r8, [r9]
 801aac2:	f88a 3000 	strb.w	r3, [sl]
 801aac6:	2001      	movs	r0, #1
 801aac8:	e000      	b.n	801aacc <fatfs_find_free_dir_offset+0xfc>
 801aaca:	4610      	mov	r0, r2
 801aacc:	b007      	add	sp, #28
 801aace:	e8bd 8ff0 	ldmia.w	sp!, {r4, r5, r6, r7, r8, r9, sl, fp, pc}

0801aad2 <fatfs_add_free_space>:
 801aad2:	e92d 41f0 	stmdb	sp!, {r4, r5, r6, r7, r8, lr}
 801aad6:	b082      	sub	sp, #8
 801aad8:	4604      	mov	r4, r0
 801aada:	4688      	mov	r8, r1
 801aadc:	4617      	mov	r7, r2
 801aade:	680e      	ldr	r6, [r1, #0]
 801aae0:	6a43      	ldr	r3, [r0, #36]	@ 0x24
 801aae2:	f1b3 3fff 	cmp.w	r3, #4294967295	@ 0xffffffff
 801aae6:	d101      	bne.n	801aaec <fatfs_add_free_space+0x1a>
 801aae8:	2500      	movs	r5, #0
 801aaea:	e005      	b.n	801aaf8 <fatfs_add_free_space+0x26>
 801aaec:	f04f 31ff 	mov.w	r1, #4294967295	@ 0xffffffff
 801aaf0:	f7ff fe3e 	bl	801a770 <fatfs_set_fs_info_next_free_cluster>
 801aaf4:	e7f8      	b.n	801aae8 <fatfs_add_free_space+0x16>
 801aaf6:	3501      	adds	r5, #1
 801aaf8:	42bd      	cmp	r5, r7
 801aafa:	d217      	bcs.n	801ab2c <fatfs_add_free_space+0x5a>
 801aafc:	aa01      	add	r2, sp, #4
 801aafe:	68a1      	ldr	r1, [r4, #8]
 801ab00:	4620      	mov	r0, r4
 801ab02:	f7ff fe6b 	bl	801a7dc <fatfs_find_blank_cluster>
 801ab06:	4603      	mov	r3, r0
 801ab08:	b188      	cbz	r0, 801ab2e <fatfs_add_free_space+0x5c>
 801ab0a:	9a01      	ldr	r2, [sp, #4]
 801ab0c:	4631      	mov	r1, r6
 801ab0e:	4620      	mov	r0, r4
 801ab10:	f7ff fea8 	bl	801a864 <fatfs_fat_set_cluster>
 801ab14:	f04f 32ff 	mov.w	r2, #4294967295	@ 0xffffffff
 801ab18:	9901      	ldr	r1, [sp, #4]
 801ab1a:	4620      	mov	r0, r4
 801ab1c:	f7ff fea2 	bl	801a864 <fatfs_fat_set_cluster>
 801ab20:	9e01      	ldr	r6, [sp, #4]
 801ab22:	2d00      	cmp	r5, #0
 801ab24:	d1e7      	bne.n	801aaf6 <fatfs_add_free_space+0x24>
 801ab26:	f8c8 6000 	str.w	r6, [r8]
 801ab2a:	e7e4      	b.n	801aaf6 <fatfs_add_free_space+0x24>
 801ab2c:	2301      	movs	r3, #1
 801ab2e:	4618      	mov	r0, r3
 801ab30:	b002      	add	sp, #8
 801ab32:	e8bd 81f0 	ldmia.w	sp!, {r4, r5, r6, r7, r8, pc}

0801ab36 <fatfs_allocate_free_space>:
 801ab36:	2b00      	cmp	r3, #0
 801ab38:	d03a      	beq.n	801abb0 <fatfs_allocate_free_space+0x7a>
 801ab3a:	e92d 41f0 	stmdb	sp!, {r4, r5, r6, r7, r8, lr}
 801ab3e:	b082      	sub	sp, #8
 801ab40:	4604      	mov	r4, r0
 801ab42:	460d      	mov	r5, r1
 801ab44:	4616      	mov	r6, r2
 801ab46:	461f      	mov	r7, r3
 801ab48:	6a43      	ldr	r3, [r0, #36]	@ 0x24
 801ab4a:	f1b3 3fff 	cmp.w	r3, #4294967295	@ 0xffffffff
 801ab4e:	d116      	bne.n	801ab7e <fatfs_allocate_free_space+0x48>
 801ab50:	7823      	ldrb	r3, [r4, #0]
 801ab52:	025b      	lsls	r3, r3, #9
 801ab54:	fbb7 f8f3 	udiv	r8, r7, r3
 801ab58:	fb08 f303 	mul.w	r3, r8, r3
 801ab5c:	42bb      	cmp	r3, r7
 801ab5e:	d001      	beq.n	801ab64 <fatfs_allocate_free_space+0x2e>
 801ab60:	f108 0801 	add.w	r8, r8, #1
 801ab64:	b985      	cbnz	r5, 801ab88 <fatfs_allocate_free_space+0x52>
 801ab66:	6833      	ldr	r3, [r6, #0]
 801ab68:	9301      	str	r3, [sp, #4]
 801ab6a:	4642      	mov	r2, r8
 801ab6c:	a901      	add	r1, sp, #4
 801ab6e:	4620      	mov	r0, r4
 801ab70:	f7ff ffaf 	bl	801aad2 <fatfs_add_free_space>
 801ab74:	b100      	cbz	r0, 801ab78 <fatfs_allocate_free_space+0x42>
 801ab76:	2001      	movs	r0, #1
 801ab78:	b002      	add	sp, #8
 801ab7a:	e8bd 81f0 	ldmia.w	sp!, {r4, r5, r6, r7, r8, pc}
 801ab7e:	f04f 31ff 	mov.w	r1, #4294967295	@ 0xffffffff
 801ab82:	f7ff fdf5 	bl	801a770 <fatfs_set_fs_info_next_free_cluster>
 801ab86:	e7e3      	b.n	801ab50 <fatfs_allocate_free_space+0x1a>
 801ab88:	aa01      	add	r2, sp, #4
 801ab8a:	68a1      	ldr	r1, [r4, #8]
 801ab8c:	4620      	mov	r0, r4
 801ab8e:	f7ff fe25 	bl	801a7dc <fatfs_find_blank_cluster>
 801ab92:	2800      	cmp	r0, #0
 801ab94:	d0f0      	beq.n	801ab78 <fatfs_allocate_free_space+0x42>
 801ab96:	f1b8 0f01 	cmp.w	r8, #1
 801ab9a:	d1e6      	bne.n	801ab6a <fatfs_allocate_free_space+0x34>
 801ab9c:	f04f 32ff 	mov.w	r2, #4294967295	@ 0xffffffff
 801aba0:	9901      	ldr	r1, [sp, #4]
 801aba2:	4620      	mov	r0, r4
 801aba4:	f7ff fe5e 	bl	801a864 <fatfs_fat_set_cluster>
 801aba8:	9b01      	ldr	r3, [sp, #4]
 801abaa:	6033      	str	r3, [r6, #0]
 801abac:	2001      	movs	r0, #1
 801abae:	e7e3      	b.n	801ab78 <fatfs_allocate_free_space+0x42>
 801abb0:	2000      	movs	r0, #0
 801abb2:	4770      	bx	lr

0801abb4 <fatfs_add_file_entry>:
 801abb4:	e92d 4ff0 	stmdb	sp!, {r4, r5, r6, r7, r8, r9, sl, fp, lr}
 801abb8:	b091      	sub	sp, #68	@ 0x44
 801abba:	9102      	str	r1, [sp, #8]
 801abbc:	461d      	mov	r5, r3
 801abbe:	9303      	str	r3, [sp, #12]
 801abc0:	2300      	movs	r3, #0
 801abc2:	9307      	str	r3, [sp, #28]
 801abc4:	f88d 301b 	strb.w	r3, [sp, #27]
 801abc8:	6b43      	ldr	r3, [r0, #52]	@ 0x34
 801abca:	2b00      	cmp	r3, #0
 801abcc:	f000 8086 	beq.w	801acdc <fatfs_add_file_entry+0x128>
 801abd0:	4680      	mov	r8, r0
 801abd2:	460c      	mov	r4, r1
 801abd4:	4693      	mov	fp, r2
 801abd6:	4610      	mov	r0, r2
 801abd8:	f7ff f9df 	bl	8019f9a <fatfs_lfn_entries_required>
 801abdc:	4607      	mov	r7, r0
 801abde:	b918      	cbnz	r0, 801abe8 <fatfs_add_file_entry+0x34>
 801abe0:	4638      	mov	r0, r7
 801abe2:	b011      	add	sp, #68	@ 0x44
 801abe4:	e8bd 8ff0 	ldmia.w	sp!, {r4, r5, r6, r7, r8, r9, sl, fp, pc}
 801abe8:	f10d 031b 	add.w	r3, sp, #27
 801abec:	9300      	str	r3, [sp, #0]
 801abee:	ab07      	add	r3, sp, #28
 801abf0:	1c42      	adds	r2, r0, #1
 801abf2:	4621      	mov	r1, r4
 801abf4:	4640      	mov	r0, r8
 801abf6:	f7ff feeb 	bl	801a9d0 <fatfs_find_free_dir_offset>
 801abfa:	2800      	cmp	r0, #0
 801abfc:	d070      	beq.n	801ace0 <fatfs_add_file_entry+0x12c>
 801abfe:	462b      	mov	r3, r5
 801ac00:	2600      	movs	r6, #0
 801ac02:	220b      	movs	r2, #11
 801ac04:	4631      	mov	r1, r6
 801ac06:	e009      	b.n	801ac1c <fatfs_add_file_entry+0x68>
 801ac08:	084e      	lsrs	r6, r1, #1
 801ac0a:	eb06 16c1 	add.w	r6, r6, r1, lsl #7
 801ac0e:	f813 1b01 	ldrb.w	r1, [r3], #1
 801ac12:	fa51 f686 	uxtab	r6, r1, r6
 801ac16:	b2f1      	uxtb	r1, r6
 801ac18:	3a01      	subs	r2, #1
 801ac1a:	b2d2      	uxtb	r2, r2
 801ac1c:	2a00      	cmp	r2, #0
 801ac1e:	d1f3      	bne.n	801ac08 <fatfs_add_file_entry+0x54>
 801ac20:	f8dd a01c 	ldr.w	sl, [sp, #28]
 801ac24:	f04f 0900 	mov.w	r9, #0
 801ac28:	464b      	mov	r3, r9
 801ac2a:	464d      	mov	r5, r9
 801ac2c:	9205      	str	r2, [sp, #20]
 801ac2e:	4689      	mov	r9, r1
 801ac30:	461e      	mov	r6, r3
 801ac32:	e044      	b.n	801acbe <fatfs_add_file_entry+0x10a>
 801ac34:	4607      	mov	r7, r0
 801ac36:	e7d3      	b.n	801abe0 <fatfs_add_file_entry+0x2c>
 801ac38:	b1cf      	cbz	r7, 801ac6e <fatfs_add_file_entry+0xba>
 801ac3a:	3f01      	subs	r7, #1
 801ac3c:	3140      	adds	r1, #64	@ 0x40
 801ac3e:	464b      	mov	r3, r9
 801ac40:	463a      	mov	r2, r7
 801ac42:	4441      	add	r1, r8
 801ac44:	4658      	mov	r0, fp
 801ac46:	f7ff f9b7 	bl	8019fb8 <fatfs_filename_to_lfn>
 801ac4a:	2601      	movs	r6, #1
 801ac4c:	3401      	adds	r4, #1
 801ac4e:	b2e4      	uxtb	r4, r4
 801ac50:	2c0f      	cmp	r4, #15
 801ac52:	d827      	bhi.n	801aca4 <fatfs_add_file_entry+0xf0>
 801ac54:	0161      	lsls	r1, r4, #5
 801ac56:	b289      	uxth	r1, r1
 801ac58:	2d00      	cmp	r5, #0
 801ac5a:	d1ed      	bne.n	801ac38 <fatfs_add_file_entry+0x84>
 801ac5c:	9b07      	ldr	r3, [sp, #28]
 801ac5e:	4553      	cmp	r3, sl
 801ac60:	d1f4      	bne.n	801ac4c <fatfs_add_file_entry+0x98>
 801ac62:	f89d 301b 	ldrb.w	r3, [sp, #27]
 801ac66:	42a3      	cmp	r3, r4
 801ac68:	d1f0      	bne.n	801ac4c <fatfs_add_file_entry+0x98>
 801ac6a:	2501      	movs	r5, #1
 801ac6c:	e7e4      	b.n	801ac38 <fatfs_add_file_entry+0x84>
 801ac6e:	460d      	mov	r5, r1
 801ac70:	9b1c      	ldr	r3, [sp, #112]	@ 0x70
 801ac72:	9300      	str	r3, [sp, #0]
 801ac74:	ab08      	add	r3, sp, #32
 801ac76:	9a1a      	ldr	r2, [sp, #104]	@ 0x68
 801ac78:	991b      	ldr	r1, [sp, #108]	@ 0x6c
 801ac7a:	9803      	ldr	r0, [sp, #12]
 801ac7c:	f7ff f9fa 	bl	801a074 <fatfs_sfn_create_entry>
 801ac80:	f105 0040 	add.w	r0, r5, #64	@ 0x40
 801ac84:	2220      	movs	r2, #32
 801ac86:	eb0d 0102 	add.w	r1, sp, r2
 801ac8a:	4440      	add	r0, r8
 801ac8c:	f7f7 fed2 	bl	8012a34 <memcpy>
 801ac90:	f8d8 3034 	ldr.w	r3, [r8, #52]	@ 0x34
 801ac94:	2201      	movs	r2, #1
 801ac96:	f108 0140 	add.w	r1, r8, #64	@ 0x40
 801ac9a:	f8d8 0240 	ldr.w	r0, [r8, #576]	@ 0x240
 801ac9e:	4798      	blx	r3
 801aca0:	4607      	mov	r7, r0
 801aca2:	e79d      	b.n	801abe0 <fatfs_add_file_entry+0x2c>
 801aca4:	b14e      	cbz	r6, 801acba <fatfs_add_file_entry+0x106>
 801aca6:	f8d8 3034 	ldr.w	r3, [r8, #52]	@ 0x34
 801acaa:	2201      	movs	r2, #1
 801acac:	f108 0140 	add.w	r1, r8, #64	@ 0x40
 801acb0:	f8d8 0240 	ldr.w	r0, [r8, #576]	@ 0x240
 801acb4:	4798      	blx	r3
 801acb6:	b178      	cbz	r0, 801acd8 <fatfs_add_file_entry+0x124>
 801acb8:	2600      	movs	r6, #0
 801acba:	f8dd a010 	ldr.w	sl, [sp, #16]
 801acbe:	f10a 0301 	add.w	r3, sl, #1
 801acc2:	9304      	str	r3, [sp, #16]
 801acc4:	2300      	movs	r3, #0
 801acc6:	4652      	mov	r2, sl
 801acc8:	9902      	ldr	r1, [sp, #8]
 801acca:	4640      	mov	r0, r8
 801accc:	f7fd f9d2 	bl	8018074 <fatfs_sector_reader>
 801acd0:	2800      	cmp	r0, #0
 801acd2:	d0af      	beq.n	801ac34 <fatfs_add_file_entry+0x80>
 801acd4:	9c05      	ldr	r4, [sp, #20]
 801acd6:	e7bb      	b.n	801ac50 <fatfs_add_file_entry+0x9c>
 801acd8:	4607      	mov	r7, r0
 801acda:	e781      	b.n	801abe0 <fatfs_add_file_entry+0x2c>
 801acdc:	2700      	movs	r7, #0
 801acde:	e77f      	b.n	801abe0 <fatfs_add_file_entry+0x2c>
 801ace0:	4607      	mov	r7, r0
 801ace2:	e77d      	b.n	801abe0 <fatfs_add_file_entry+0x2c>

0801ace4 <HandleOtherReturnSyscall>:
 801ace4:	3901      	subs	r1, #1
 801ace6:	2914      	cmp	r1, #20
 801ace8:	d835      	bhi.n	801ad56 <HandleOtherReturnSyscall+0x72>
 801acea:	e8df f001 	tbb	[pc, r1]
 801acee:	360b      	.short	0x360b
 801acf0:	1613100d 	.word	0x1613100d
 801acf4:	341f1c19 	.word	0x341f1c19
 801acf8:	34343434 	.word	0x34343434
 801acfc:	28252234 	.word	0x28252234
 801ad00:	2e2b      	.short	0x2e2b
 801ad02:	31          	.byte	0x31
 801ad03:	00          	.byte	0x00
 801ad04:	207b      	movs	r0, #123	@ 0x7b
 801ad06:	4770      	bx	lr
 801ad08:	f240 3015 	movw	r0, #789	@ 0x315
 801ad0c:	4770      	bx	lr
 801ad0e:	f44f 70e4 	mov.w	r0, #456	@ 0x1c8
 801ad12:	4770      	bx	lr
 801ad14:	f240 1041 	movw	r0, #321	@ 0x141
 801ad18:	4770      	bx	lr
 801ad1a:	f240 208e 	movw	r0, #654	@ 0x28e
 801ad1e:	4770      	bx	lr
 801ad20:	f240 30db 	movw	r0, #987	@ 0x3db
 801ad24:	4770      	bx	lr
 801ad26:	f240 30e9 	movw	r0, #1001	@ 0x3e9
 801ad2a:	4770      	bx	lr
 801ad2c:	f240 70d2 	movw	r0, #2002	@ 0x7d2
 801ad30:	4770      	bx	lr
 801ad32:	f640 30d6 	movw	r0, #3030	@ 0xbd6
 801ad36:	4770      	bx	lr
 801ad38:	f640 70c8 	movw	r0, #4040	@ 0xfc8
 801ad3c:	4770      	bx	lr
 801ad3e:	f241 30ba 	movw	r0, #5050	@ 0x13ba
 801ad42:	4770      	bx	lr
 801ad44:	f241 70ac 	movw	r0, #6060	@ 0x17ac
 801ad48:	4770      	bx	lr
 801ad4a:	f641 309e 	movw	r0, #7070	@ 0x1b9e
 801ad4e:	4770      	bx	lr
 801ad50:	f641 7090 	movw	r0, #8080	@ 0x1f90
 801ad54:	4770      	bx	lr
 801ad56:	2000      	movs	r0, #0
 801ad58:	4770      	bx	lr
 801ad5a:	f240 202b 	movw	r0, #555	@ 0x22b
 801ad5e:	4770      	bx	lr

0801ad60 <HandleControlLoad>:
 801ad60:	2000      	movs	r0, #0
 801ad62:	4770      	bx	lr

0801ad64 <HandleOtherCSRWrite>:
 801ad64:	b508      	push	{r3, lr}
 801ad66:	460b      	mov	r3, r1
 801ad68:	f240 4102 	movw	r1, #1026	@ 0x402
 801ad6c:	428b      	cmp	r3, r1
 801ad6e:	d00b      	beq.n	801ad88 <HandleOtherCSRWrite+0x24>
 801ad70:	f5b3 7f9b 	cmp.w	r3, #310	@ 0x136
 801ad74:	d00d      	beq.n	801ad92 <HandleOtherCSRWrite+0x2e>
 801ad76:	f240 1137 	movw	r1, #311	@ 0x137
 801ad7a:	428b      	cmp	r3, r1
 801ad7c:	d00e      	beq.n	801ad9c <HandleOtherCSRWrite+0x38>
 801ad7e:	f240 4101 	movw	r1, #1025	@ 0x401
 801ad82:	428b      	cmp	r3, r1
 801ad84:	d00f      	beq.n	801ada6 <HandleOtherCSRWrite+0x42>
 801ad86:	bd08      	pop	{r3, pc}
 801ad88:	4611      	mov	r1, r2
 801ad8a:	480a      	ldr	r0, [pc, #40]	@ (801adb4 <HandleOtherCSRWrite+0x50>)
 801ad8c:	f7f7 fb4a 	bl	8012424 <printf>
 801ad90:	e7f9      	b.n	801ad86 <HandleOtherCSRWrite+0x22>
 801ad92:	4611      	mov	r1, r2
 801ad94:	4808      	ldr	r0, [pc, #32]	@ (801adb8 <HandleOtherCSRWrite+0x54>)
 801ad96:	f7f7 fb45 	bl	8012424 <printf>
 801ad9a:	e7f4      	b.n	801ad86 <HandleOtherCSRWrite+0x22>
 801ad9c:	4611      	mov	r1, r2
 801ad9e:	4807      	ldr	r0, [pc, #28]	@ (801adbc <HandleOtherCSRWrite+0x58>)
 801ada0:	f7f7 fb40 	bl	8012424 <printf>
 801ada4:	e7ef      	b.n	801ad86 <HandleOtherCSRWrite+0x22>
 801ada6:	f102 4100 	add.w	r1, r2, #2147483648	@ 0x80000000
 801adaa:	4805      	ldr	r0, [pc, #20]	@ (801adc0 <HandleOtherCSRWrite+0x5c>)
 801adac:	f7f7 fb3a 	bl	8012424 <printf>
 801adb0:	e7e9      	b.n	801ad86 <HandleOtherCSRWrite+0x22>
 801adb2:	bf00      	nop
 801adb4:	0801d204 	.word	0x0801d204
 801adb8:	0801d4f8 	.word	0x0801d4f8
 801adbc:	0801d4fc 	.word	0x0801d4fc
 801adc0:	0801d1fc 	.word	0x0801d1fc

0801adc4 <MINIRV32_LOAD1>:
 801adc4:	b500      	push	{lr}
 801adc6:	b083      	sub	sp, #12
 801adc8:	2201      	movs	r2, #1
 801adca:	f10d 0107 	add.w	r1, sp, #7
 801adce:	f7f9 fe31 	bl	8014a34 <cache_read>
 801add2:	f89d 0007 	ldrb.w	r0, [sp, #7]
 801add6:	b003      	add	sp, #12
 801add8:	f85d fb04 	ldr.w	pc, [sp], #4

0801addc <MINIRV32_LOAD2>:
 801addc:	b500      	push	{lr}
 801adde:	b083      	sub	sp, #12
 801ade0:	2202      	movs	r2, #2
 801ade2:	f10d 0106 	add.w	r1, sp, #6
 801ade6:	f7f9 fe25 	bl	8014a34 <cache_read>
 801adea:	f8bd 0006 	ldrh.w	r0, [sp, #6]
 801adee:	b003      	add	sp, #12
 801adf0:	f85d fb04 	ldr.w	pc, [sp], #4

0801adf4 <MINIRV32_LOAD4>:
 801adf4:	b500      	push	{lr}
 801adf6:	b083      	sub	sp, #12
 801adf8:	2204      	movs	r2, #4
 801adfa:	eb0d 0102 	add.w	r1, sp, r2
 801adfe:	f7f9 fe19 	bl	8014a34 <cache_read>
 801ae02:	9801      	ldr	r0, [sp, #4]
 801ae04:	b003      	add	sp, #12
 801ae06:	f85d fb04 	ldr.w	pc, [sp], #4

0801ae0a <HandleControlStore>:
 801ae0a:	f1b0 5f80 	cmp.w	r0, #268435456	@ 0x10000000
 801ae0e:	d001      	beq.n	801ae14 <HandleControlStore+0xa>
 801ae10:	2000      	movs	r0, #0
 801ae12:	4770      	bx	lr
 801ae14:	b508      	push	{r3, lr}
 801ae16:	4608      	mov	r0, r1
 801ae18:	f7f7 fb24 	bl	8012464 <putchar>
 801ae1c:	2000      	movs	r0, #0
 801ae1e:	bd08      	pop	{r3, pc}

0801ae20 <MINIRV32_STORE1>:
 801ae20:	b500      	push	{lr}
 801ae22:	b083      	sub	sp, #12
 801ae24:	f88d 1007 	strb.w	r1, [sp, #7]
 801ae28:	2201      	movs	r2, #1
 801ae2a:	f10d 0107 	add.w	r1, sp, #7
 801ae2e:	f7f9 fd55 	bl	80148dc <cache_write>
 801ae32:	b003      	add	sp, #12
 801ae34:	f85d fb04 	ldr.w	pc, [sp], #4

0801ae38 <MINIRV32_STORE2>:
 801ae38:	b500      	push	{lr}
 801ae3a:	b083      	sub	sp, #12
 801ae3c:	f8ad 1006 	strh.w	r1, [sp, #6]
 801ae40:	2202      	movs	r2, #2
 801ae42:	f10d 0106 	add.w	r1, sp, #6
 801ae46:	f7f9 fd49 	bl	80148dc <cache_write>
 801ae4a:	b003      	add	sp, #12
 801ae4c:	f85d fb04 	ldr.w	pc, [sp], #4

0801ae50 <MINIRV32_STORE4>:
 801ae50:	b500      	push	{lr}
 801ae52:	b083      	sub	sp, #12
 801ae54:	9101      	str	r1, [sp, #4]
 801ae56:	2204      	movs	r2, #4
 801ae58:	eb0d 0102 	add.w	r1, sp, r2
 801ae5c:	f7f9 fd3e 	bl	80148dc <cache_write>
 801ae60:	b003      	add	sp, #12
 801ae62:	f85d fb04 	ldr.w	pc, [sp], #4

0801ae66 <MiniRV32IMAStep>:
 801ae66:	e92d 4ff0 	stmdb	sp!, {r4, r5, r6, r7, r8, r9, sl, fp, lr}
 801ae6a:	b087      	sub	sp, #28
 801ae6c:	4683      	mov	fp, r0
 801ae6e:	9101      	str	r1, [sp, #4]
 801ae70:	f8d0 2090 	ldr.w	r2, [r0, #144]	@ 0x90
 801ae74:	18d2      	adds	r2, r2, r3
 801ae76:	d304      	bcc.n	801ae82 <MiniRV32IMAStep+0x1c>
 801ae78:	f8d0 3094 	ldr.w	r3, [r0, #148]	@ 0x94
 801ae7c:	3301      	adds	r3, #1
 801ae7e:	f8c0 3094 	str.w	r3, [r0, #148]	@ 0x94
 801ae82:	f8cb 2090 	str.w	r2, [fp, #144]	@ 0x90
 801ae86:	f8db 1094 	ldr.w	r1, [fp, #148]	@ 0x94
 801ae8a:	f8db 309c 	ldr.w	r3, [fp, #156]	@ 0x9c
 801ae8e:	4299      	cmp	r1, r3
 801ae90:	d82a      	bhi.n	801aee8 <MiniRV32IMAStep+0x82>
 801ae92:	d025      	beq.n	801aee0 <MiniRV32IMAStep+0x7a>
 801ae94:	f8db 30ac 	ldr.w	r3, [fp, #172]	@ 0xac
 801ae98:	f023 0380 	bic.w	r3, r3, #128	@ 0x80
 801ae9c:	f8cb 30ac 	str.w	r3, [fp, #172]	@ 0xac
 801aea0:	f8db 30bc 	ldr.w	r3, [fp, #188]	@ 0xbc
 801aea4:	f013 0a04 	ands.w	sl, r3, #4
 801aea8:	f040 84f9 	bne.w	801b89e <MiniRV32IMAStep+0xa38>
 801aeac:	f8db 6080 	ldr.w	r6, [fp, #128]	@ 0x80
 801aeb0:	f8db 9088 	ldr.w	r9, [fp, #136]	@ 0x88
 801aeb4:	f8db 30ac 	ldr.w	r3, [fp, #172]	@ 0xac
 801aeb8:	f013 0780 	ands.w	r7, r3, #128	@ 0x80
 801aebc:	f000 8493 	beq.w	801b7e6 <MiniRV32IMAStep+0x980>
 801aec0:	f8db 30a8 	ldr.w	r3, [fp, #168]	@ 0xa8
 801aec4:	f013 0780 	ands.w	r7, r3, #128	@ 0x80
 801aec8:	f000 8495 	beq.w	801b7f6 <MiniRV32IMAStep+0x990>
 801aecc:	f8db 3084 	ldr.w	r3, [fp, #132]	@ 0x84
 801aed0:	f013 0708 	ands.w	r7, r3, #8
 801aed4:	f000 8497 	beq.w	801b806 <MiniRV32IMAStep+0x9a0>
 801aed8:	3e04      	subs	r6, #4
 801aeda:	4fb3      	ldr	r7, [pc, #716]	@ (801b1a8 <MiniRV32IMAStep+0x342>)
 801aedc:	f000 bc9c 	b.w	801b818 <MiniRV32IMAStep+0x9b2>
 801aee0:	f8db 1098 	ldr.w	r1, [fp, #152]	@ 0x98
 801aee4:	4291      	cmp	r1, r2
 801aee6:	d2d5      	bcs.n	801ae94 <MiniRV32IMAStep+0x2e>
 801aee8:	b91b      	cbnz	r3, 801aef2 <MiniRV32IMAStep+0x8c>
 801aeea:	f8db 3098 	ldr.w	r3, [fp, #152]	@ 0x98
 801aeee:	2b00      	cmp	r3, #0
 801aef0:	d0d0      	beq.n	801ae94 <MiniRV32IMAStep+0x2e>
 801aef2:	f8db 30bc 	ldr.w	r3, [fp, #188]	@ 0xbc
 801aef6:	f023 0304 	bic.w	r3, r3, #4
 801aefa:	f8cb 30bc 	str.w	r3, [fp, #188]	@ 0xbc
 801aefe:	f8db 30ac 	ldr.w	r3, [fp, #172]	@ 0xac
 801af02:	f043 0380 	orr.w	r3, r3, #128	@ 0x80
 801af06:	f8cb 30ac 	str.w	r3, [fp, #172]	@ 0xac
 801af0a:	e7c9      	b.n	801aea0 <MiniRV32IMAStep+0x3a>
 801af0c:	2703      	movs	r7, #3
 801af0e:	e3a0      	b.n	801b652 <MiniRV32IMAStep+0x7ec>
 801af10:	4625      	mov	r5, r4
 801af12:	e39e      	b.n	801b652 <MiniRV32IMAStep+0x7ec>
 801af14:	2b73      	cmp	r3, #115	@ 0x73
 801af16:	f200 8431 	bhi.w	801b77c <MiniRV32IMAStep+0x916>
 801af1a:	2b63      	cmp	r3, #99	@ 0x63
 801af1c:	d316      	bcc.n	801af4c <MiniRV32IMAStep+0xe6>
 801af1e:	3b63      	subs	r3, #99	@ 0x63
 801af20:	2b10      	cmp	r3, #16
 801af22:	f200 8393 	bhi.w	801b64c <MiniRV32IMAStep+0x7e6>
 801af26:	e8df f013 	tbh	[pc, r3, lsl #1]
 801af2a:	0049      	.short	0x0049
 801af2c:	03910391 	.word	0x03910391
 801af30:	00390391 	.word	0x00390391
 801af34:	03910391 	.word	0x03910391
 801af38:	03910391 	.word	0x03910391
 801af3c:	03910391 	.word	0x03910391
 801af40:	001e0391 	.word	0x001e0391
 801af44:	03910391 	.word	0x03910391
 801af48:	01f20391 	.word	0x01f20391
 801af4c:	2703      	movs	r7, #3
 801af4e:	e380      	b.n	801b652 <MiniRV32IMAStep+0x7ec>
 801af50:	f420 647f 	bic.w	r4, r0, #4080	@ 0xff0
 801af54:	f024 040f 	bic.w	r4, r4, #15
 801af58:	e37b      	b.n	801b652 <MiniRV32IMAStep+0x7ec>
 801af5a:	f420 607f 	bic.w	r0, r0, #4080	@ 0xff0
 801af5e:	f020 000f 	bic.w	r0, r0, #15
 801af62:	1984      	adds	r4, r0, r6
 801af64:	e375      	b.n	801b652 <MiniRV32IMAStep+0x7ec>
 801af66:	0ac3      	lsrs	r3, r0, #11
 801af68:	f403 1380 	and.w	r3, r3, #1048576	@ 0x100000
 801af6c:	f240 72fe 	movw	r2, #2046	@ 0x7fe
 801af70:	ea02 5210 	and.w	r2, r2, r0, lsr #20
 801af74:	4313      	orrs	r3, r2
 801af76:	0a42      	lsrs	r2, r0, #9
 801af78:	f402 6200 	and.w	r2, r2, #2048	@ 0x800
 801af7c:	4313      	orrs	r3, r2
 801af7e:	f400 207f 	and.w	r0, r0, #1044480	@ 0xff000
 801af82:	4303      	orrs	r3, r0
 801af84:	461a      	mov	r2, r3
 801af86:	f413 1f80 	tst.w	r3, #1048576	@ 0x100000
 801af8a:	d003      	beq.n	801af94 <MiniRV32IMAStep+0x12e>
 801af8c:	ea6f 22c3 	mvn.w	r2, r3, lsl #11
 801af90:	ea6f 22d2 	mvn.w	r2, r2, lsr #11
 801af94:	1d34      	adds	r4, r6, #4
 801af96:	4432      	add	r2, r6
 801af98:	1f16      	subs	r6, r2, #4
 801af9a:	e35a      	b.n	801b652 <MiniRV32IMAStep+0x7ec>
 801af9c:	0d02      	lsrs	r2, r0, #20
 801af9e:	f412 6300 	ands.w	r3, r2, #2048	@ 0x800
 801afa2:	d000      	beq.n	801afa6 <MiniRV32IMAStep+0x140>
 801afa4:	4b81      	ldr	r3, [pc, #516]	@ (801b1ac <MiniRV32IMAStep+0x346>)
 801afa6:	4313      	orrs	r3, r2
 801afa8:	1d34      	adds	r4, r6, #4
 801afaa:	f3c0 30c4 	ubfx	r0, r0, #15, #5
 801afae:	f85b 2020 	ldr.w	r2, [fp, r0, lsl #2]
 801afb2:	4413      	add	r3, r2
 801afb4:	f023 0301 	bic.w	r3, r3, #1
 801afb8:	1f1e      	subs	r6, r3, #4
 801afba:	e34a      	b.n	801b652 <MiniRV32IMAStep+0x7ec>
 801afbc:	f002 031e 	and.w	r3, r2, #30
 801afc0:	0d02      	lsrs	r2, r0, #20
 801afc2:	f402 61fc 	and.w	r1, r2, #2016	@ 0x7e0
 801afc6:	430b      	orrs	r3, r1
 801afc8:	0101      	lsls	r1, r0, #4
 801afca:	f401 6100 	and.w	r1, r1, #2048	@ 0x800
 801afce:	430b      	orrs	r3, r1
 801afd0:	0fc1      	lsrs	r1, r0, #31
 801afd2:	ea43 3301 	orr.w	r3, r3, r1, lsl #12
 801afd6:	b119      	cbz	r1, 801afe0 <MiniRV32IMAStep+0x17a>
 801afd8:	ea6f 43c3 	mvn.w	r3, r3, lsl #19
 801afdc:	ea6f 43d3 	mvn.w	r3, r3, lsr #19
 801afe0:	f3c0 31c4 	ubfx	r1, r0, #15, #5
 801afe4:	f85b 1021 	ldr.w	r1, [fp, r1, lsl #2]
 801afe8:	f002 021f 	and.w	r2, r2, #31
 801afec:	f85b 2022 	ldr.w	r2, [fp, r2, lsl #2]
 801aff0:	4433      	add	r3, r6
 801aff2:	3b04      	subs	r3, #4
 801aff4:	f3c0 3502 	ubfx	r5, r0, #12, #3
 801aff8:	2d07      	cmp	r5, #7
 801affa:	f200 83c1 	bhi.w	801b780 <MiniRV32IMAStep+0x91a>
 801affe:	e8df f015 	tbh	[pc, r5, lsl #1]
 801b002:	0008      	.short	0x0008
 801b004:	03bf000d 	.word	0x03bf000d
 801b008:	001403bf 	.word	0x001403bf
 801b00c:	001e0019 	.word	0x001e0019
 801b010:	0023      	.short	0x0023
 801b012:	4291      	cmp	r1, r2
 801b014:	f000 83b7 	beq.w	801b786 <MiniRV32IMAStep+0x920>
 801b018:	462c      	mov	r4, r5
 801b01a:	e31a      	b.n	801b652 <MiniRV32IMAStep+0x7ec>
 801b01c:	4291      	cmp	r1, r2
 801b01e:	d002      	beq.n	801b026 <MiniRV32IMAStep+0x1c0>
 801b020:	4625      	mov	r5, r4
 801b022:	461e      	mov	r6, r3
 801b024:	e315      	b.n	801b652 <MiniRV32IMAStep+0x7ec>
 801b026:	4625      	mov	r5, r4
 801b028:	e313      	b.n	801b652 <MiniRV32IMAStep+0x7ec>
 801b02a:	4291      	cmp	r1, r2
 801b02c:	f2c0 83ae 	blt.w	801b78c <MiniRV32IMAStep+0x926>
 801b030:	4625      	mov	r5, r4
 801b032:	e30e      	b.n	801b652 <MiniRV32IMAStep+0x7ec>
 801b034:	4291      	cmp	r1, r2
 801b036:	f280 83ac 	bge.w	801b792 <MiniRV32IMAStep+0x92c>
 801b03a:	4625      	mov	r5, r4
 801b03c:	e309      	b.n	801b652 <MiniRV32IMAStep+0x7ec>
 801b03e:	4291      	cmp	r1, r2
 801b040:	f0c0 83aa 	bcc.w	801b798 <MiniRV32IMAStep+0x932>
 801b044:	4625      	mov	r5, r4
 801b046:	e304      	b.n	801b652 <MiniRV32IMAStep+0x7ec>
 801b048:	4291      	cmp	r1, r2
 801b04a:	f080 83a8 	bcs.w	801b79e <MiniRV32IMAStep+0x938>
 801b04e:	4625      	mov	r5, r4
 801b050:	e2ff      	b.n	801b652 <MiniRV32IMAStep+0x7ec>
 801b052:	f3c0 32c4 	ubfx	r2, r0, #15, #5
 801b056:	f85b c022 	ldr.w	ip, [fp, r2, lsl #2]
 801b05a:	0d01      	lsrs	r1, r0, #20
 801b05c:	f411 6200 	ands.w	r2, r1, #2048	@ 0x800
 801b060:	d000      	beq.n	801b064 <MiniRV32IMAStep+0x1fe>
 801b062:	4a52      	ldr	r2, [pc, #328]	@ (801b1ac <MiniRV32IMAStep+0x346>)
 801b064:	430a      	orrs	r2, r1
 801b066:	4462      	add	r2, ip
 801b068:	f102 4100 	add.w	r1, r2, #2147483648	@ 0x80000000
 801b06c:	f8df c148 	ldr.w	ip, [pc, #328]	@ 801b1b8 <MiniRV32IMAStep+0x352>
 801b070:	4561      	cmp	r1, ip
 801b072:	d916      	bls.n	801b0a2 <MiniRV32IMAStep+0x23c>
 801b074:	f102 4370 	add.w	r3, r2, #4026531840	@ 0xf0000000
 801b078:	f1b3 7f00 	cmp.w	r3, #33554432	@ 0x2000000
 801b07c:	f080 8392 	bcs.w	801b7a4 <MiniRV32IMAStep+0x93e>
 801b080:	4b4b      	ldr	r3, [pc, #300]	@ (801b1b0 <MiniRV32IMAStep+0x34a>)
 801b082:	429a      	cmp	r2, r3
 801b084:	d007      	beq.n	801b096 <MiniRV32IMAStep+0x230>
 801b086:	4b4b      	ldr	r3, [pc, #300]	@ (801b1b4 <MiniRV32IMAStep+0x34e>)
 801b088:	429a      	cmp	r2, r3
 801b08a:	d007      	beq.n	801b09c <MiniRV32IMAStep+0x236>
 801b08c:	4610      	mov	r0, r2
 801b08e:	f7ff fe67 	bl	801ad60 <HandleControlLoad>
 801b092:	4604      	mov	r4, r0
 801b094:	e2dd      	b.n	801b652 <MiniRV32IMAStep+0x7ec>
 801b096:	f8db 4094 	ldr.w	r4, [fp, #148]	@ 0x94
 801b09a:	e2da      	b.n	801b652 <MiniRV32IMAStep+0x7ec>
 801b09c:	f8db 4090 	ldr.w	r4, [fp, #144]	@ 0x90
 801b0a0:	e2d7      	b.n	801b652 <MiniRV32IMAStep+0x7ec>
 801b0a2:	f3c0 3002 	ubfx	r0, r0, #12, #3
 801b0a6:	2805      	cmp	r0, #5
 801b0a8:	f200 837f 	bhi.w	801b7aa <MiniRV32IMAStep+0x944>
 801b0ac:	e8df f010 	tbh	[pc, r0, lsl #1]
 801b0b0:	000b0006 	.word	0x000b0006
 801b0b4:	037d0010 	.word	0x037d0010
 801b0b8:	001a0015 	.word	0x001a0015
 801b0bc:	4608      	mov	r0, r1
 801b0be:	f7ff fe81 	bl	801adc4 <MINIRV32_LOAD1>
 801b0c2:	b244      	sxtb	r4, r0
 801b0c4:	e2c5      	b.n	801b652 <MiniRV32IMAStep+0x7ec>
 801b0c6:	4608      	mov	r0, r1
 801b0c8:	f7ff fe88 	bl	801addc <MINIRV32_LOAD2>
 801b0cc:	b204      	sxth	r4, r0
 801b0ce:	e2c0      	b.n	801b652 <MiniRV32IMAStep+0x7ec>
 801b0d0:	4608      	mov	r0, r1
 801b0d2:	f7ff fe8f 	bl	801adf4 <MINIRV32_LOAD4>
 801b0d6:	4604      	mov	r4, r0
 801b0d8:	e2bb      	b.n	801b652 <MiniRV32IMAStep+0x7ec>
 801b0da:	4608      	mov	r0, r1
 801b0dc:	f7ff fe72 	bl	801adc4 <MINIRV32_LOAD1>
 801b0e0:	4604      	mov	r4, r0
 801b0e2:	e2b6      	b.n	801b652 <MiniRV32IMAStep+0x7ec>
 801b0e4:	4608      	mov	r0, r1
 801b0e6:	f7ff fe79 	bl	801addc <MINIRV32_LOAD2>
 801b0ea:	4604      	mov	r4, r0
 801b0ec:	e2b1      	b.n	801b652 <MiniRV32IMAStep+0x7ec>
 801b0ee:	f3c0 33c4 	ubfx	r3, r0, #15, #5
 801b0f2:	f85b 2023 	ldr.w	r2, [fp, r3, lsl #2]
 801b0f6:	0d03      	lsrs	r3, r0, #20
 801b0f8:	f3c0 5104 	ubfx	r1, r0, #20, #5
 801b0fc:	f85b 1021 	ldr.w	r1, [fp, r1, lsl #2]
 801b100:	9100      	str	r1, [sp, #0]
 801b102:	f403 637e 	and.w	r3, r3, #4064	@ 0xfe0
 801b106:	432b      	orrs	r3, r5
 801b108:	f413 6f00 	tst.w	r3, #2048	@ 0x800
 801b10c:	d003      	beq.n	801b116 <MiniRV32IMAStep+0x2b0>
 801b10e:	ea6f 5303 	mvn.w	r3, r3, lsl #20
 801b112:	ea6f 5313 	mvn.w	r3, r3, lsr #20
 801b116:	4413      	add	r3, r2
 801b118:	f103 4200 	add.w	r2, r3, #2147483648	@ 0x80000000
 801b11c:	4926      	ldr	r1, [pc, #152]	@ (801b1b8 <MiniRV32IMAStep+0x352>)
 801b11e:	428a      	cmp	r2, r1
 801b120:	d929      	bls.n	801b176 <MiniRV32IMAStep+0x310>
 801b122:	f103 4270 	add.w	r2, r3, #4026531840	@ 0xf0000000
 801b126:	f1b2 7f00 	cmp.w	r2, #33554432	@ 0x2000000
 801b12a:	f080 8340 	bcs.w	801b7ae <MiniRV32IMAStep+0x948>
 801b12e:	4a23      	ldr	r2, [pc, #140]	@ (801b1bc <MiniRV32IMAStep+0x356>)
 801b130:	4293      	cmp	r3, r2
 801b132:	d00d      	beq.n	801b150 <MiniRV32IMAStep+0x2ea>
 801b134:	4a22      	ldr	r2, [pc, #136]	@ (801b1c0 <MiniRV32IMAStep+0x35a>)
 801b136:	4293      	cmp	r3, r2
 801b138:	d00f      	beq.n	801b15a <MiniRV32IMAStep+0x2f4>
 801b13a:	4a22      	ldr	r2, [pc, #136]	@ (801b1c4 <MiniRV32IMAStep+0x35e>)
 801b13c:	4293      	cmp	r3, r2
 801b13e:	d011      	beq.n	801b164 <MiniRV32IMAStep+0x2fe>
 801b140:	9900      	ldr	r1, [sp, #0]
 801b142:	4618      	mov	r0, r3
 801b144:	f7ff fe61 	bl	801ae0a <HandleControlStore>
 801b148:	4604      	mov	r4, r0
 801b14a:	b988      	cbnz	r0, 801b170 <MiniRV32IMAStep+0x30a>
 801b14c:	4605      	mov	r5, r0
 801b14e:	e280      	b.n	801b652 <MiniRV32IMAStep+0x7ec>
 801b150:	9b00      	ldr	r3, [sp, #0]
 801b152:	f8cb 309c 	str.w	r3, [fp, #156]	@ 0x9c
 801b156:	4625      	mov	r5, r4
 801b158:	e27b      	b.n	801b652 <MiniRV32IMAStep+0x7ec>
 801b15a:	9b00      	ldr	r3, [sp, #0]
 801b15c:	f8cb 3098 	str.w	r3, [fp, #152]	@ 0x98
 801b160:	4625      	mov	r5, r4
 801b162:	e276      	b.n	801b652 <MiniRV32IMAStep+0x7ec>
 801b164:	9d00      	ldr	r5, [sp, #0]
 801b166:	3604      	adds	r6, #4
 801b168:	f8cb 6080 	str.w	r6, [fp, #128]	@ 0x80
 801b16c:	4628      	mov	r0, r5
 801b16e:	e382      	b.n	801b876 <MiniRV32IMAStep+0xa10>
 801b170:	9d00      	ldr	r5, [sp, #0]
 801b172:	4628      	mov	r0, r5
 801b174:	e37f      	b.n	801b876 <MiniRV32IMAStep+0xa10>
 801b176:	f3c0 3502 	ubfx	r5, r0, #12, #3
 801b17a:	2d01      	cmp	r5, #1
 801b17c:	d00c      	beq.n	801b198 <MiniRV32IMAStep+0x332>
 801b17e:	2d02      	cmp	r5, #2
 801b180:	d022      	beq.n	801b1c8 <MiniRV32IMAStep+0x362>
 801b182:	b115      	cbz	r5, 801b18a <MiniRV32IMAStep+0x324>
 801b184:	4625      	mov	r5, r4
 801b186:	2703      	movs	r7, #3
 801b188:	e263      	b.n	801b652 <MiniRV32IMAStep+0x7ec>
 801b18a:	f89d 1000 	ldrb.w	r1, [sp]
 801b18e:	4610      	mov	r0, r2
 801b190:	f7ff fe46 	bl	801ae20 <MINIRV32_STORE1>
 801b194:	462c      	mov	r4, r5
 801b196:	e25c      	b.n	801b652 <MiniRV32IMAStep+0x7ec>
 801b198:	f8bd 1000 	ldrh.w	r1, [sp]
 801b19c:	4610      	mov	r0, r2
 801b19e:	f7ff fe4b 	bl	801ae38 <MINIRV32_STORE2>
 801b1a2:	4625      	mov	r5, r4
 801b1a4:	e255      	b.n	801b652 <MiniRV32IMAStep+0x7ec>
 801b1a6:	bf00      	nop
 801b1a8:	80000007 	.word	0x80000007
 801b1ac:	fffff000 	.word	0xfffff000
 801b1b0:	1100bffc 	.word	0x1100bffc
 801b1b4:	1100bff8 	.word	0x1100bff8
 801b1b8:	0005fffc 	.word	0x0005fffc
 801b1bc:	11004004 	.word	0x11004004
 801b1c0:	11004000 	.word	0x11004000
 801b1c4:	11100000 	.word	0x11100000
 801b1c8:	9900      	ldr	r1, [sp, #0]
 801b1ca:	4610      	mov	r0, r2
 801b1cc:	f7ff fe40 	bl	801ae50 <MINIRV32_STORE4>
 801b1d0:	4625      	mov	r5, r4
 801b1d2:	e23e      	b.n	801b652 <MiniRV32IMAStep+0x7ec>
 801b1d4:	0d02      	lsrs	r2, r0, #20
 801b1d6:	f412 6300 	ands.w	r3, r2, #2048	@ 0x800
 801b1da:	d000      	beq.n	801b1de <MiniRV32IMAStep+0x378>
 801b1dc:	4b82      	ldr	r3, [pc, #520]	@ (801b3e8 <MiniRV32IMAStep+0x582>)
 801b1de:	4313      	orrs	r3, r2
 801b1e0:	f3c0 32c4 	ubfx	r2, r0, #15, #5
 801b1e4:	f85b 1022 	ldr.w	r1, [fp, r2, lsl #2]
 801b1e8:	f010 0c20 	ands.w	ip, r0, #32
 801b1ec:	d055      	beq.n	801b29a <MiniRV32IMAStep+0x434>
 801b1ee:	f003 031f 	and.w	r3, r3, #31
 801b1f2:	f85b 3023 	ldr.w	r3, [fp, r3, lsl #2]
 801b1f6:	f1bc 0f00 	cmp.w	ip, #0
 801b1fa:	d04e      	beq.n	801b29a <MiniRV32IMAStep+0x434>
 801b1fc:	f010 7f00 	tst.w	r0, #33554432	@ 0x2000000
 801b200:	d04b      	beq.n	801b29a <MiniRV32IMAStep+0x434>
 801b202:	f3c0 3002 	ubfx	r0, r0, #12, #3
 801b206:	2807      	cmp	r0, #7
 801b208:	f200 8223 	bhi.w	801b652 <MiniRV32IMAStep+0x7ec>
 801b20c:	e8df f000 	tbb	[pc, r0]
 801b210:	17110704 	.word	0x17110704
 801b214:	3d2e281a 	.word	0x3d2e281a
 801b218:	fb03 f401 	mul.w	r4, r3, r1
 801b21c:	e219      	b.n	801b652 <MiniRV32IMAStep+0x7ec>
 801b21e:	17ca      	asrs	r2, r1, #31
 801b220:	17dc      	asrs	r4, r3, #31
 801b222:	fb01 f404 	mul.w	r4, r1, r4
 801b226:	fb03 4402 	mla	r4, r3, r2, r4
 801b22a:	fba1 1303 	umull	r1, r3, r1, r3
 801b22e:	441c      	add	r4, r3
 801b230:	e20f      	b.n	801b652 <MiniRV32IMAStep+0x7ec>
 801b232:	17ca      	asrs	r2, r1, #31
 801b234:	fba1 1403 	umull	r1, r4, r1, r3
 801b238:	fb03 4402 	mla	r4, r3, r2, r4
 801b23c:	e209      	b.n	801b652 <MiniRV32IMAStep+0x7ec>
 801b23e:	fba1 1403 	umull	r1, r4, r1, r3
 801b242:	e206      	b.n	801b652 <MiniRV32IMAStep+0x7ec>
 801b244:	2b00      	cmp	r3, #0
 801b246:	f000 82b6 	beq.w	801b7b6 <MiniRV32IMAStep+0x950>
 801b24a:	f1b1 4f00 	cmp.w	r1, #2147483648	@ 0x80000000
 801b24e:	d002      	beq.n	801b256 <MiniRV32IMAStep+0x3f0>
 801b250:	fb91 f4f3 	sdiv	r4, r1, r3
 801b254:	e1fd      	b.n	801b652 <MiniRV32IMAStep+0x7ec>
 801b256:	f1b3 3fff 	cmp.w	r3, #4294967295	@ 0xffffffff
 801b25a:	d1f9      	bne.n	801b250 <MiniRV32IMAStep+0x3ea>
 801b25c:	460c      	mov	r4, r1
 801b25e:	e1f8      	b.n	801b652 <MiniRV32IMAStep+0x7ec>
 801b260:	2b00      	cmp	r3, #0
 801b262:	f000 82ab 	beq.w	801b7bc <MiniRV32IMAStep+0x956>
 801b266:	fbb1 f4f3 	udiv	r4, r1, r3
 801b26a:	e1f2      	b.n	801b652 <MiniRV32IMAStep+0x7ec>
 801b26c:	2b00      	cmp	r3, #0
 801b26e:	f000 82a8 	beq.w	801b7c2 <MiniRV32IMAStep+0x95c>
 801b272:	f1b1 4f00 	cmp.w	r1, #2147483648	@ 0x80000000
 801b276:	d004      	beq.n	801b282 <MiniRV32IMAStep+0x41c>
 801b278:	fb91 f4f3 	sdiv	r4, r1, r3
 801b27c:	fb03 1414 	mls	r4, r3, r4, r1
 801b280:	e1e7      	b.n	801b652 <MiniRV32IMAStep+0x7ec>
 801b282:	f1b3 3fff 	cmp.w	r3, #4294967295	@ 0xffffffff
 801b286:	d1f7      	bne.n	801b278 <MiniRV32IMAStep+0x412>
 801b288:	e1e3      	b.n	801b652 <MiniRV32IMAStep+0x7ec>
 801b28a:	2b00      	cmp	r3, #0
 801b28c:	f000 829b 	beq.w	801b7c6 <MiniRV32IMAStep+0x960>
 801b290:	fbb1 f4f3 	udiv	r4, r1, r3
 801b294:	fb03 1414 	mls	r4, r3, r4, r1
 801b298:	e1db      	b.n	801b652 <MiniRV32IMAStep+0x7ec>
 801b29a:	f3c0 3202 	ubfx	r2, r0, #12, #3
 801b29e:	2a07      	cmp	r2, #7
 801b2a0:	f200 81d7 	bhi.w	801b652 <MiniRV32IMAStep+0x7ec>
 801b2a4:	e8df f002 	tbb	[pc, r2]
 801b2a8:	18130e04 	.word	0x18130e04
 801b2ac:	302d201d 	.word	0x302d201d
 801b2b0:	f1bc 0f00 	cmp.w	ip, #0
 801b2b4:	d004      	beq.n	801b2c0 <MiniRV32IMAStep+0x45a>
 801b2b6:	f010 4f80 	tst.w	r0, #1073741824	@ 0x40000000
 801b2ba:	d001      	beq.n	801b2c0 <MiniRV32IMAStep+0x45a>
 801b2bc:	1acc      	subs	r4, r1, r3
 801b2be:	e1c8      	b.n	801b652 <MiniRV32IMAStep+0x7ec>
 801b2c0:	185c      	adds	r4, r3, r1
 801b2c2:	e1c6      	b.n	801b652 <MiniRV32IMAStep+0x7ec>
 801b2c4:	f003 031f 	and.w	r3, r3, #31
 801b2c8:	fa01 f403 	lsl.w	r4, r1, r3
 801b2cc:	e1c1      	b.n	801b652 <MiniRV32IMAStep+0x7ec>
 801b2ce:	4299      	cmp	r1, r3
 801b2d0:	bfac      	ite	ge
 801b2d2:	2400      	movge	r4, #0
 801b2d4:	2401      	movlt	r4, #1
 801b2d6:	e1bc      	b.n	801b652 <MiniRV32IMAStep+0x7ec>
 801b2d8:	428b      	cmp	r3, r1
 801b2da:	bf94      	ite	ls
 801b2dc:	2400      	movls	r4, #0
 801b2de:	2401      	movhi	r4, #1
 801b2e0:	e1b7      	b.n	801b652 <MiniRV32IMAStep+0x7ec>
 801b2e2:	ea83 0401 	eor.w	r4, r3, r1
 801b2e6:	e1b4      	b.n	801b652 <MiniRV32IMAStep+0x7ec>
 801b2e8:	f010 4f80 	tst.w	r0, #1073741824	@ 0x40000000
 801b2ec:	d004      	beq.n	801b2f8 <MiniRV32IMAStep+0x492>
 801b2ee:	f003 031f 	and.w	r3, r3, #31
 801b2f2:	fa41 f403 	asr.w	r4, r1, r3
 801b2f6:	e1ac      	b.n	801b652 <MiniRV32IMAStep+0x7ec>
 801b2f8:	f003 031f 	and.w	r3, r3, #31
 801b2fc:	fa21 f403 	lsr.w	r4, r1, r3
 801b300:	e1a7      	b.n	801b652 <MiniRV32IMAStep+0x7ec>
 801b302:	ea43 0401 	orr.w	r4, r3, r1
 801b306:	e1a4      	b.n	801b652 <MiniRV32IMAStep+0x7ec>
 801b308:	ea03 0401 	and.w	r4, r3, r1
 801b30c:	e1a1      	b.n	801b652 <MiniRV32IMAStep+0x7ec>
 801b30e:	0d01      	lsrs	r1, r0, #20
 801b310:	9100      	str	r1, [sp, #0]
 801b312:	f3c0 3302 	ubfx	r3, r0, #12, #3
 801b316:	f3c0 3201 	ubfx	r2, r0, #12, #2
 801b31a:	f410 5f40 	tst.w	r0, #12288	@ 0x3000
 801b31e:	f000 80ae 	beq.w	801b47e <MiniRV32IMAStep+0x618>
 801b322:	f3c0 32c4 	ubfx	r2, r0, #15, #5
 801b326:	4694      	mov	ip, r2
 801b328:	f85b 0022 	ldr.w	r0, [fp, r2, lsl #2]
 801b32c:	9002      	str	r0, [sp, #8]
 801b32e:	f5b1 7f51 	cmp.w	r1, #836	@ 0x344
 801b332:	d82d      	bhi.n	801b390 <MiniRV32IMAStep+0x52a>
 801b334:	f5b1 7f40 	cmp.w	r1, #768	@ 0x300
 801b338:	d333      	bcc.n	801b3a2 <MiniRV32IMAStep+0x53c>
 801b33a:	f5a1 7140 	sub.w	r1, r1, #768	@ 0x300
 801b33e:	2944      	cmp	r1, #68	@ 0x44
 801b340:	d82f      	bhi.n	801b3a2 <MiniRV32IMAStep+0x53c>
 801b342:	e8df f001 	tbb	[pc, r1]
 801b346:	2345      	.short	0x2345
 801b348:	393c2e2e 	.word	0x393c2e2e
 801b34c:	2e2e2e2e 	.word	0x2e2e2e2e
 801b350:	2e2e2e2e 	.word	0x2e2e2e2e
 801b354:	2e2e2e2e 	.word	0x2e2e2e2e
 801b358:	2e2e2e2e 	.word	0x2e2e2e2e
 801b35c:	2e2e2e2e 	.word	0x2e2e2e2e
 801b360:	2e2e2e2e 	.word	0x2e2e2e2e
 801b364:	2e2e2e2e 	.word	0x2e2e2e2e
 801b368:	2e2e2e2e 	.word	0x2e2e2e2e
 801b36c:	2e2e2e2e 	.word	0x2e2e2e2e
 801b370:	2e2e2e2e 	.word	0x2e2e2e2e
 801b374:	2e2e2e2e 	.word	0x2e2e2e2e
 801b378:	2e2e2e2e 	.word	0x2e2e2e2e
 801b37c:	2e2e2e2e 	.word	0x2e2e2e2e
 801b380:	2e2e2e2e 	.word	0x2e2e2e2e
 801b384:	42362e2e 	.word	0x42362e2e
 801b388:	4b48      	.short	0x4b48
 801b38a:	3f          	.byte	0x3f
 801b38b:	00          	.byte	0x00
 801b38c:	4c17      	ldr	r4, [pc, #92]	@ (801b3ec <MiniRV32IMAStep+0x586>)
 801b38e:	e008      	b.n	801b3a2 <MiniRV32IMAStep+0x53c>
 801b390:	9800      	ldr	r0, [sp, #0]
 801b392:	f5b0 6f40 	cmp.w	r0, #3072	@ 0xc00
 801b396:	d024      	beq.n	801b3e2 <MiniRV32IMAStep+0x57c>
 801b398:	f640 7111 	movw	r1, #3857	@ 0xf11
 801b39c:	4288      	cmp	r0, r1
 801b39e:	d100      	bne.n	801b3a2 <MiniRV32IMAStep+0x53c>
 801b3a0:	4c13      	ldr	r4, [pc, #76]	@ (801b3f0 <MiniRV32IMAStep+0x58a>)
 801b3a2:	3b02      	subs	r3, #2
 801b3a4:	2b05      	cmp	r3, #5
 801b3a6:	d825      	bhi.n	801b3f4 <MiniRV32IMAStep+0x58e>
 801b3a8:	e8df f003 	tbb	[pc, r3]
 801b3ac:	25243936 	.word	0x25243936
 801b3b0:	3f3d      	.short	0x3f3d
 801b3b2:	f8db 40a0 	ldr.w	r4, [fp, #160]	@ 0xa0
 801b3b6:	e7f4      	b.n	801b3a2 <MiniRV32IMAStep+0x53c>
 801b3b8:	f8db 40a4 	ldr.w	r4, [fp, #164]	@ 0xa4
 801b3bc:	e7f1      	b.n	801b3a2 <MiniRV32IMAStep+0x53c>
 801b3be:	f8db 40a8 	ldr.w	r4, [fp, #168]	@ 0xa8
 801b3c2:	e7ee      	b.n	801b3a2 <MiniRV32IMAStep+0x53c>
 801b3c4:	f8db 40ac 	ldr.w	r4, [fp, #172]	@ 0xac
 801b3c8:	e7eb      	b.n	801b3a2 <MiniRV32IMAStep+0x53c>
 801b3ca:	f8db 40b0 	ldr.w	r4, [fp, #176]	@ 0xb0
 801b3ce:	e7e8      	b.n	801b3a2 <MiniRV32IMAStep+0x53c>
 801b3d0:	f8db 4084 	ldr.w	r4, [fp, #132]	@ 0x84
 801b3d4:	e7e5      	b.n	801b3a2 <MiniRV32IMAStep+0x53c>
 801b3d6:	f8db 40b8 	ldr.w	r4, [fp, #184]	@ 0xb8
 801b3da:	e7e2      	b.n	801b3a2 <MiniRV32IMAStep+0x53c>
 801b3dc:	f8db 40b4 	ldr.w	r4, [fp, #180]	@ 0xb4
 801b3e0:	e7df      	b.n	801b3a2 <MiniRV32IMAStep+0x53c>
 801b3e2:	464c      	mov	r4, r9
 801b3e4:	e7dd      	b.n	801b3a2 <MiniRV32IMAStep+0x53c>
 801b3e6:	bf00      	nop
 801b3e8:	fffff000 	.word	0xfffff000
 801b3ec:	40401101 	.word	0x40401101
 801b3f0:	ff0ff0ff 	.word	0xff0ff0ff
 801b3f4:	9a02      	ldr	r2, [sp, #8]
 801b3f6:	9900      	ldr	r1, [sp, #0]
 801b3f8:	f5b1 7f51 	cmp.w	r1, #836	@ 0x344
 801b3fc:	d83a      	bhi.n	801b474 <MiniRV32IMAStep+0x60e>
 801b3fe:	f5b1 7f50 	cmp.w	r1, #832	@ 0x340
 801b402:	d315      	bcc.n	801b430 <MiniRV32IMAStep+0x5ca>
 801b404:	9b00      	ldr	r3, [sp, #0]
 801b406:	f5a3 7350 	sub.w	r3, r3, #832	@ 0x340
 801b40a:	2b04      	cmp	r3, #4
 801b40c:	d832      	bhi.n	801b474 <MiniRV32IMAStep+0x60e>
 801b40e:	e8df f003 	tbb	[pc, r3]
 801b412:	281f      	.short	0x281f
 801b414:	2e2b      	.short	0x2e2b
 801b416:	25          	.byte	0x25
 801b417:	00          	.byte	0x00
 801b418:	9a02      	ldr	r2, [sp, #8]
 801b41a:	4322      	orrs	r2, r4
 801b41c:	e7eb      	b.n	801b3f6 <MiniRV32IMAStep+0x590>
 801b41e:	9b02      	ldr	r3, [sp, #8]
 801b420:	ea24 0203 	bic.w	r2, r4, r3
 801b424:	e7e7      	b.n	801b3f6 <MiniRV32IMAStep+0x590>
 801b426:	4322      	orrs	r2, r4
 801b428:	e7e5      	b.n	801b3f6 <MiniRV32IMAStep+0x590>
 801b42a:	ea24 020c 	bic.w	r2, r4, ip
 801b42e:	e7e2      	b.n	801b3f6 <MiniRV32IMAStep+0x590>
 801b430:	f5b1 7f41 	cmp.w	r1, #772	@ 0x304
 801b434:	d00f      	beq.n	801b456 <MiniRV32IMAStep+0x5f0>
 801b436:	f240 3305 	movw	r3, #773	@ 0x305
 801b43a:	4299      	cmp	r1, r3
 801b43c:	d102      	bne.n	801b444 <MiniRV32IMAStep+0x5de>
 801b43e:	f8cb 20a4 	str.w	r2, [fp, #164]	@ 0xa4
 801b442:	e106      	b.n	801b652 <MiniRV32IMAStep+0x7ec>
 801b444:	f5b1 7f40 	cmp.w	r1, #768	@ 0x300
 801b448:	d114      	bne.n	801b474 <MiniRV32IMAStep+0x60e>
 801b44a:	f8cb 2084 	str.w	r2, [fp, #132]	@ 0x84
 801b44e:	e100      	b.n	801b652 <MiniRV32IMAStep+0x7ec>
 801b450:	f8cb 20a0 	str.w	r2, [fp, #160]	@ 0xa0
 801b454:	e0fd      	b.n	801b652 <MiniRV32IMAStep+0x7ec>
 801b456:	f8cb 20a8 	str.w	r2, [fp, #168]	@ 0xa8
 801b45a:	e0fa      	b.n	801b652 <MiniRV32IMAStep+0x7ec>
 801b45c:	f8cb 20ac 	str.w	r2, [fp, #172]	@ 0xac
 801b460:	e0f7      	b.n	801b652 <MiniRV32IMAStep+0x7ec>
 801b462:	f8cb 20b0 	str.w	r2, [fp, #176]	@ 0xb0
 801b466:	e0f4      	b.n	801b652 <MiniRV32IMAStep+0x7ec>
 801b468:	f8cb 20b8 	str.w	r2, [fp, #184]	@ 0xb8
 801b46c:	e0f1      	b.n	801b652 <MiniRV32IMAStep+0x7ec>
 801b46e:	f8cb 20b4 	str.w	r2, [fp, #180]	@ 0xb4
 801b472:	e0ee      	b.n	801b652 <MiniRV32IMAStep+0x7ec>
 801b474:	9900      	ldr	r1, [sp, #0]
 801b476:	9801      	ldr	r0, [sp, #4]
 801b478:	f7ff fc74 	bl	801ad64 <HandleOtherCSRWrite>
 801b47c:	e0e9      	b.n	801b652 <MiniRV32IMAStep+0x7ec>
 801b47e:	2b00      	cmp	r3, #0
 801b480:	f040 81a3 	bne.w	801b7ca <MiniRV32IMAStep+0x964>
 801b484:	f240 1305 	movw	r3, #261	@ 0x105
 801b488:	9900      	ldr	r1, [sp, #0]
 801b48a:	4299      	cmp	r1, r3
 801b48c:	d00c      	beq.n	801b4a8 <MiniRV32IMAStep+0x642>
 801b48e:	f89d 3000 	ldrb.w	r3, [sp]
 801b492:	2b02      	cmp	r3, #2
 801b494:	d019      	beq.n	801b4ca <MiniRV32IMAStep+0x664>
 801b496:	9b00      	ldr	r3, [sp, #0]
 801b498:	b39b      	cbz	r3, 801b502 <MiniRV32IMAStep+0x69c>
 801b49a:	2b01      	cmp	r3, #1
 801b49c:	f040 819c 	bne.w	801b7d8 <MiniRV32IMAStep+0x972>
 801b4a0:	4615      	mov	r5, r2
 801b4a2:	4614      	mov	r4, r2
 801b4a4:	2704      	movs	r7, #4
 801b4a6:	e0d4      	b.n	801b652 <MiniRV32IMAStep+0x7ec>
 801b4a8:	f8db 3084 	ldr.w	r3, [fp, #132]	@ 0x84
 801b4ac:	f043 0308 	orr.w	r3, r3, #8
 801b4b0:	f8cb 3084 	str.w	r3, [fp, #132]	@ 0x84
 801b4b4:	f8db 30bc 	ldr.w	r3, [fp, #188]	@ 0xbc
 801b4b8:	f043 0304 	orr.w	r3, r3, #4
 801b4bc:	f8cb 30bc 	str.w	r3, [fp, #188]	@ 0xbc
 801b4c0:	3604      	adds	r6, #4
 801b4c2:	f8cb 6080 	str.w	r6, [fp, #128]	@ 0x80
 801b4c6:	2001      	movs	r0, #1
 801b4c8:	e1d5      	b.n	801b876 <MiniRV32IMAStep+0xa10>
 801b4ca:	f8db 0084 	ldr.w	r0, [fp, #132]	@ 0x84
 801b4ce:	f8db 10bc 	ldr.w	r1, [fp, #188]	@ 0xbc
 801b4d2:	0903      	lsrs	r3, r0, #4
 801b4d4:	f003 0308 	and.w	r3, r3, #8
 801b4d8:	02cc      	lsls	r4, r1, #11
 801b4da:	f404 54c0 	and.w	r4, r4, #6144	@ 0x1800
 801b4de:	4323      	orrs	r3, r4
 801b4e0:	f043 0380 	orr.w	r3, r3, #128	@ 0x80
 801b4e4:	f8cb 3084 	str.w	r3, [fp, #132]	@ 0x84
 801b4e8:	f021 0303 	bic.w	r3, r1, #3
 801b4ec:	f3c0 20c1 	ubfx	r0, r0, #11, #2
 801b4f0:	4303      	orrs	r3, r0
 801b4f2:	f8cb 30bc 	str.w	r3, [fp, #188]	@ 0xbc
 801b4f6:	f8db 60b0 	ldr.w	r6, [fp, #176]	@ 0xb0
 801b4fa:	3e04      	subs	r6, #4
 801b4fc:	4615      	mov	r5, r2
 801b4fe:	4614      	mov	r4, r2
 801b500:	e0a7      	b.n	801b652 <MiniRV32IMAStep+0x7ec>
 801b502:	f8db 1044 	ldr.w	r1, [fp, #68]	@ 0x44
 801b506:	0c0b      	lsrs	r3, r1, #16
 801b508:	041b      	lsls	r3, r3, #16
 801b50a:	4ab1      	ldr	r2, [pc, #708]	@ (801b7d0 <MiniRV32IMAStep+0x96a>)
 801b50c:	4293      	cmp	r3, r2
 801b50e:	d009      	beq.n	801b524 <MiniRV32IMAStep+0x6be>
 801b510:	f8db 40bc 	ldr.w	r4, [fp, #188]	@ 0xbc
 801b514:	f014 0403 	ands.w	r4, r4, #3
 801b518:	f000 8162 	beq.w	801b7e0 <MiniRV32IMAStep+0x97a>
 801b51c:	9c00      	ldr	r4, [sp, #0]
 801b51e:	4625      	mov	r5, r4
 801b520:	270c      	movs	r7, #12
 801b522:	e096      	b.n	801b652 <MiniRV32IMAStep+0x7ec>
 801b524:	465a      	mov	r2, fp
 801b526:	b289      	uxth	r1, r1
 801b528:	9801      	ldr	r0, [sp, #4]
 801b52a:	f7ff fbdb 	bl	801ace4 <HandleOtherReturnSyscall>
 801b52e:	f8cb 0028 	str.w	r0, [fp, #40]	@ 0x28
 801b532:	9c00      	ldr	r4, [sp, #0]
 801b534:	4625      	mov	r5, r4
 801b536:	e08c      	b.n	801b652 <MiniRV32IMAStep+0x7ec>
 801b538:	f3c0 33c4 	ubfx	r3, r0, #15, #5
 801b53c:	f85b 3023 	ldr.w	r3, [fp, r3, lsl #2]
 801b540:	f3c0 5204 	ubfx	r2, r0, #20, #5
 801b544:	f85b 2022 	ldr.w	r2, [fp, r2, lsl #2]
 801b548:	9200      	str	r2, [sp, #0]
 801b54a:	0ec2      	lsrs	r2, r0, #27
 801b54c:	9204      	str	r2, [sp, #16]
 801b54e:	f103 4200 	add.w	r2, r3, #2147483648	@ 0x80000000
 801b552:	4611      	mov	r1, r2
 801b554:	9202      	str	r2, [sp, #8]
 801b556:	4a9f      	ldr	r2, [pc, #636]	@ (801b7d4 <MiniRV32IMAStep+0x96e>)
 801b558:	4291      	cmp	r1, r2
 801b55a:	d902      	bls.n	801b562 <MiniRV32IMAStep+0x6fc>
 801b55c:	461c      	mov	r4, r3
 801b55e:	2708      	movs	r7, #8
 801b560:	e077      	b.n	801b652 <MiniRV32IMAStep+0x7ec>
 801b562:	4608      	mov	r0, r1
 801b564:	f7ff fc46 	bl	801adf4 <MINIRV32_LOAD4>
 801b568:	9005      	str	r0, [sp, #20]
 801b56a:	9a04      	ldr	r2, [sp, #16]
 801b56c:	2a1c      	cmp	r2, #28
 801b56e:	d863      	bhi.n	801b638 <MiniRV32IMAStep+0x7d2>
 801b570:	e8df f002 	tbb	[pc, r2]
 801b574:	1b110f2a 	.word	0x1b110f2a
 801b578:	62626230 	.word	0x62626230
 801b57c:	6262623c 	.word	0x6262623c
 801b580:	62626236 	.word	0x62626236
 801b584:	62626242 	.word	0x62626242
 801b588:	6262624a 	.word	0x6262624a
 801b58c:	62626252 	.word	0x62626252
 801b590:	5a          	.byte	0x5a
 801b591:	00          	.byte	0x00
 801b592:	9c04      	ldr	r4, [sp, #16]
 801b594:	e051      	b.n	801b63a <MiniRV32IMAStep+0x7d4>
 801b596:	f8db 30bc 	ldr.w	r3, [fp, #188]	@ 0xbc
 801b59a:	f003 0307 	and.w	r3, r3, #7
 801b59e:	9a02      	ldr	r2, [sp, #8]
 801b5a0:	ea43 03c2 	orr.w	r3, r3, r2, lsl #3
 801b5a4:	f8cb 30bc 	str.w	r3, [fp, #188]	@ 0xbc
 801b5a8:	e047      	b.n	801b63a <MiniRV32IMAStep+0x7d4>
 801b5aa:	f8db 30bc 	ldr.w	r3, [fp, #188]	@ 0xbc
 801b5ae:	08db      	lsrs	r3, r3, #3
 801b5b0:	9a02      	ldr	r2, [sp, #8]
 801b5b2:	f022 4260 	bic.w	r2, r2, #3758096384	@ 0xe0000000
 801b5b6:	4293      	cmp	r3, r2
 801b5b8:	bf14      	ite	ne
 801b5ba:	2301      	movne	r3, #1
 801b5bc:	2300      	moveq	r3, #0
 801b5be:	9305      	str	r3, [sp, #20]
 801b5c0:	bf0c      	ite	eq
 801b5c2:	2401      	moveq	r4, #1
 801b5c4:	2400      	movne	r4, #0
 801b5c6:	e038      	b.n	801b63a <MiniRV32IMAStep+0x7d4>
 801b5c8:	9b00      	ldr	r3, [sp, #0]
 801b5ca:	9a05      	ldr	r2, [sp, #20]
 801b5cc:	4413      	add	r3, r2
 801b5ce:	9300      	str	r3, [sp, #0]
 801b5d0:	2401      	movs	r4, #1
 801b5d2:	e032      	b.n	801b63a <MiniRV32IMAStep+0x7d4>
 801b5d4:	9b00      	ldr	r3, [sp, #0]
 801b5d6:	9a05      	ldr	r2, [sp, #20]
 801b5d8:	4053      	eors	r3, r2
 801b5da:	9300      	str	r3, [sp, #0]
 801b5dc:	2401      	movs	r4, #1
 801b5de:	e02c      	b.n	801b63a <MiniRV32IMAStep+0x7d4>
 801b5e0:	9b00      	ldr	r3, [sp, #0]
 801b5e2:	9a05      	ldr	r2, [sp, #20]
 801b5e4:	4013      	ands	r3, r2
 801b5e6:	9300      	str	r3, [sp, #0]
 801b5e8:	2401      	movs	r4, #1
 801b5ea:	e026      	b.n	801b63a <MiniRV32IMAStep+0x7d4>
 801b5ec:	9b00      	ldr	r3, [sp, #0]
 801b5ee:	9a05      	ldr	r2, [sp, #20]
 801b5f0:	4313      	orrs	r3, r2
 801b5f2:	9300      	str	r3, [sp, #0]
 801b5f4:	2401      	movs	r4, #1
 801b5f6:	e020      	b.n	801b63a <MiniRV32IMAStep+0x7d4>
 801b5f8:	9b00      	ldr	r3, [sp, #0]
 801b5fa:	9a05      	ldr	r2, [sp, #20]
 801b5fc:	4293      	cmp	r3, r2
 801b5fe:	bfa8      	it	ge
 801b600:	4613      	movge	r3, r2
 801b602:	9300      	str	r3, [sp, #0]
 801b604:	2401      	movs	r4, #1
 801b606:	e018      	b.n	801b63a <MiniRV32IMAStep+0x7d4>
 801b608:	9b00      	ldr	r3, [sp, #0]
 801b60a:	9a05      	ldr	r2, [sp, #20]
 801b60c:	4293      	cmp	r3, r2
 801b60e:	bfb8      	it	lt
 801b610:	4613      	movlt	r3, r2
 801b612:	9300      	str	r3, [sp, #0]
 801b614:	2401      	movs	r4, #1
 801b616:	e010      	b.n	801b63a <MiniRV32IMAStep+0x7d4>
 801b618:	9b00      	ldr	r3, [sp, #0]
 801b61a:	9a05      	ldr	r2, [sp, #20]
 801b61c:	4293      	cmp	r3, r2
 801b61e:	bf28      	it	cs
 801b620:	4613      	movcs	r3, r2
 801b622:	9300      	str	r3, [sp, #0]
 801b624:	2401      	movs	r4, #1
 801b626:	e008      	b.n	801b63a <MiniRV32IMAStep+0x7d4>
 801b628:	9b00      	ldr	r3, [sp, #0]
 801b62a:	9a05      	ldr	r2, [sp, #20]
 801b62c:	4293      	cmp	r3, r2
 801b62e:	bf38      	it	cc
 801b630:	4613      	movcc	r3, r2
 801b632:	9300      	str	r3, [sp, #0]
 801b634:	2401      	movs	r4, #1
 801b636:	e000      	b.n	801b63a <MiniRV32IMAStep+0x7d4>
 801b638:	2703      	movs	r7, #3
 801b63a:	b90c      	cbnz	r4, 801b640 <MiniRV32IMAStep+0x7da>
 801b63c:	9c05      	ldr	r4, [sp, #20]
 801b63e:	e008      	b.n	801b652 <MiniRV32IMAStep+0x7ec>
 801b640:	9900      	ldr	r1, [sp, #0]
 801b642:	9802      	ldr	r0, [sp, #8]
 801b644:	f7ff fc04 	bl	801ae50 <MINIRV32_STORE4>
 801b648:	9c05      	ldr	r4, [sp, #20]
 801b64a:	e002      	b.n	801b652 <MiniRV32IMAStep+0x7ec>
 801b64c:	2703      	movs	r7, #3
 801b64e:	e000      	b.n	801b652 <MiniRV32IMAStep+0x7ec>
 801b650:	2703      	movs	r7, #3
 801b652:	2f00      	cmp	r7, #0
 801b654:	f040 811a 	bne.w	801b88c <MiniRV32IMAStep+0xa26>
 801b658:	b10d      	cbz	r5, 801b65e <MiniRV32IMAStep+0x7f8>
 801b65a:	f84b 4025 	str.w	r4, [fp, r5, lsl #2]
 801b65e:	3604      	adds	r6, #4
 801b660:	f108 0801 	add.w	r8, r8, #1
 801b664:	45d0      	cmp	r8, sl
 801b666:	f280 80d6 	bge.w	801b816 <MiniRV32IMAStep+0x9b0>
 801b66a:	f109 0901 	add.w	r9, r9, #1
 801b66e:	f106 4000 	add.w	r0, r6, #2147483648	@ 0x80000000
 801b672:	f5b0 2fc0 	cmp.w	r0, #393216	@ 0x60000
 801b676:	f080 8101 	bcs.w	801b87c <MiniRV32IMAStep+0xa16>
 801b67a:	f010 0403 	ands.w	r4, r0, #3
 801b67e:	f040 8101 	bne.w	801b884 <MiniRV32IMAStep+0xa1e>
 801b682:	f7ff fbb7 	bl	801adf4 <MINIRV32_LOAD4>
 801b686:	09c2      	lsrs	r2, r0, #7
 801b688:	f3c0 15c4 	ubfx	r5, r0, #7, #5
 801b68c:	f000 037f 	and.w	r3, r0, #127	@ 0x7f
 801b690:	2b37      	cmp	r3, #55	@ 0x37
 801b692:	f63f ac3f 	bhi.w	801af14 <MiniRV32IMAStep+0xae>
 801b696:	2b03      	cmp	r3, #3
 801b698:	f4ff ac38 	bcc.w	801af0c <MiniRV32IMAStep+0xa6>
 801b69c:	1eda      	subs	r2, r3, #3
 801b69e:	2a34      	cmp	r2, #52	@ 0x34
 801b6a0:	d8d6      	bhi.n	801b650 <MiniRV32IMAStep+0x7ea>
 801b6a2:	a101      	add	r1, pc, #4	@ (adr r1, 801b6a8 <MiniRV32IMAStep+0x842>)
 801b6a4:	f851 f022 	ldr.w	pc, [r1, r2, lsl #2]
 801b6a8:	0801b053 	.word	0x0801b053
 801b6ac:	0801b651 	.word	0x0801b651
 801b6b0:	0801b651 	.word	0x0801b651
 801b6b4:	0801b651 	.word	0x0801b651
 801b6b8:	0801b651 	.word	0x0801b651
 801b6bc:	0801b651 	.word	0x0801b651
 801b6c0:	0801b651 	.word	0x0801b651
 801b6c4:	0801b651 	.word	0x0801b651
 801b6c8:	0801b651 	.word	0x0801b651
 801b6cc:	0801b651 	.word	0x0801b651
 801b6d0:	0801b651 	.word	0x0801b651
 801b6d4:	0801b651 	.word	0x0801b651
 801b6d8:	0801af11 	.word	0x0801af11
 801b6dc:	0801b651 	.word	0x0801b651
 801b6e0:	0801b651 	.word	0x0801b651
 801b6e4:	0801b651 	.word	0x0801b651
 801b6e8:	0801b1d5 	.word	0x0801b1d5
 801b6ec:	0801b651 	.word	0x0801b651
 801b6f0:	0801b651 	.word	0x0801b651
 801b6f4:	0801b651 	.word	0x0801b651
 801b6f8:	0801af5b 	.word	0x0801af5b
 801b6fc:	0801b651 	.word	0x0801b651
 801b700:	0801b651 	.word	0x0801b651
 801b704:	0801b651 	.word	0x0801b651
 801b708:	0801b651 	.word	0x0801b651
 801b70c:	0801b651 	.word	0x0801b651
 801b710:	0801b651 	.word	0x0801b651
 801b714:	0801b651 	.word	0x0801b651
 801b718:	0801b651 	.word	0x0801b651
 801b71c:	0801b651 	.word	0x0801b651
 801b720:	0801b651 	.word	0x0801b651
 801b724:	0801b651 	.word	0x0801b651
 801b728:	0801b0ef 	.word	0x0801b0ef
 801b72c:	0801b651 	.word	0x0801b651
 801b730:	0801b651 	.word	0x0801b651
 801b734:	0801b651 	.word	0x0801b651
 801b738:	0801b651 	.word	0x0801b651
 801b73c:	0801b651 	.word	0x0801b651
 801b740:	0801b651 	.word	0x0801b651
 801b744:	0801b651 	.word	0x0801b651
 801b748:	0801b651 	.word	0x0801b651
 801b74c:	0801b651 	.word	0x0801b651
 801b750:	0801b651 	.word	0x0801b651
 801b754:	0801b651 	.word	0x0801b651
 801b758:	0801b539 	.word	0x0801b539
 801b75c:	0801b651 	.word	0x0801b651
 801b760:	0801b651 	.word	0x0801b651
 801b764:	0801b651 	.word	0x0801b651
 801b768:	0801b1d5 	.word	0x0801b1d5
 801b76c:	0801b651 	.word	0x0801b651
 801b770:	0801b651 	.word	0x0801b651
 801b774:	0801b651 	.word	0x0801b651
 801b778:	0801af51 	.word	0x0801af51
 801b77c:	2703      	movs	r7, #3
 801b77e:	e768      	b.n	801b652 <MiniRV32IMAStep+0x7ec>
 801b780:	4625      	mov	r5, r4
 801b782:	2703      	movs	r7, #3
 801b784:	e765      	b.n	801b652 <MiniRV32IMAStep+0x7ec>
 801b786:	461e      	mov	r6, r3
 801b788:	462c      	mov	r4, r5
 801b78a:	e762      	b.n	801b652 <MiniRV32IMAStep+0x7ec>
 801b78c:	4625      	mov	r5, r4
 801b78e:	461e      	mov	r6, r3
 801b790:	e75f      	b.n	801b652 <MiniRV32IMAStep+0x7ec>
 801b792:	4625      	mov	r5, r4
 801b794:	461e      	mov	r6, r3
 801b796:	e75c      	b.n	801b652 <MiniRV32IMAStep+0x7ec>
 801b798:	4625      	mov	r5, r4
 801b79a:	461e      	mov	r6, r3
 801b79c:	e759      	b.n	801b652 <MiniRV32IMAStep+0x7ec>
 801b79e:	4625      	mov	r5, r4
 801b7a0:	461e      	mov	r6, r3
 801b7a2:	e756      	b.n	801b652 <MiniRV32IMAStep+0x7ec>
 801b7a4:	4614      	mov	r4, r2
 801b7a6:	2706      	movs	r7, #6
 801b7a8:	e753      	b.n	801b652 <MiniRV32IMAStep+0x7ec>
 801b7aa:	461f      	mov	r7, r3
 801b7ac:	e751      	b.n	801b652 <MiniRV32IMAStep+0x7ec>
 801b7ae:	4625      	mov	r5, r4
 801b7b0:	461c      	mov	r4, r3
 801b7b2:	2708      	movs	r7, #8
 801b7b4:	e74d      	b.n	801b652 <MiniRV32IMAStep+0x7ec>
 801b7b6:	f04f 34ff 	mov.w	r4, #4294967295	@ 0xffffffff
 801b7ba:	e74a      	b.n	801b652 <MiniRV32IMAStep+0x7ec>
 801b7bc:	f04f 34ff 	mov.w	r4, #4294967295	@ 0xffffffff
 801b7c0:	e747      	b.n	801b652 <MiniRV32IMAStep+0x7ec>
 801b7c2:	460c      	mov	r4, r1
 801b7c4:	e745      	b.n	801b652 <MiniRV32IMAStep+0x7ec>
 801b7c6:	460c      	mov	r4, r1
 801b7c8:	e743      	b.n	801b652 <MiniRV32IMAStep+0x7ec>
 801b7ca:	4614      	mov	r4, r2
 801b7cc:	2703      	movs	r7, #3
 801b7ce:	e740      	b.n	801b652 <MiniRV32IMAStep+0x7ec>
 801b7d0:	cafe0000 	.word	0xcafe0000
 801b7d4:	0005fffc 	.word	0x0005fffc
 801b7d8:	4615      	mov	r5, r2
 801b7da:	4614      	mov	r4, r2
 801b7dc:	2703      	movs	r7, #3
 801b7de:	e738      	b.n	801b652 <MiniRV32IMAStep+0x7ec>
 801b7e0:	4625      	mov	r5, r4
 801b7e2:	2709      	movs	r7, #9
 801b7e4:	e735      	b.n	801b652 <MiniRV32IMAStep+0x7ec>
 801b7e6:	463c      	mov	r4, r7
 801b7e8:	f04f 0800 	mov.w	r8, #0
 801b7ec:	f8cd a00c 	str.w	sl, [sp, #12]
 801b7f0:	f8dd a040 	ldr.w	sl, [sp, #64]	@ 0x40
 801b7f4:	e736      	b.n	801b664 <MiniRV32IMAStep+0x7fe>
 801b7f6:	463c      	mov	r4, r7
 801b7f8:	f04f 0800 	mov.w	r8, #0
 801b7fc:	f8cd a00c 	str.w	sl, [sp, #12]
 801b800:	f8dd a040 	ldr.w	sl, [sp, #64]	@ 0x40
 801b804:	e72e      	b.n	801b664 <MiniRV32IMAStep+0x7fe>
 801b806:	463c      	mov	r4, r7
 801b808:	f04f 0800 	mov.w	r8, #0
 801b80c:	f8cd a00c 	str.w	sl, [sp, #12]
 801b810:	f8dd a040 	ldr.w	sl, [sp, #64]	@ 0x40
 801b814:	e726      	b.n	801b664 <MiniRV32IMAStep+0x7fe>
 801b816:	46a2      	mov	sl, r4
 801b818:	b1ff      	cbz	r7, 801b85a <MiniRV32IMAStep+0x9f4>
 801b81a:	2f00      	cmp	r7, #0
 801b81c:	db38      	blt.n	801b890 <MiniRV32IMAStep+0xa2a>
 801b81e:	1e7a      	subs	r2, r7, #1
 801b820:	f8cb 20b8 	str.w	r2, [fp, #184]	@ 0xb8
 801b824:	1fbb      	subs	r3, r7, #6
 801b826:	2b02      	cmp	r3, #2
 801b828:	d900      	bls.n	801b82c <MiniRV32IMAStep+0x9c6>
 801b82a:	46b2      	mov	sl, r6
 801b82c:	f8cb a0b4 	str.w	sl, [fp, #180]	@ 0xb4
 801b830:	f8cb 60b0 	str.w	r6, [fp, #176]	@ 0xb0
 801b834:	f8db 3084 	ldr.w	r3, [fp, #132]	@ 0x84
 801b838:	011b      	lsls	r3, r3, #4
 801b83a:	f003 0380 	and.w	r3, r3, #128	@ 0x80
 801b83e:	f8db 20bc 	ldr.w	r2, [fp, #188]	@ 0xbc
 801b842:	02d1      	lsls	r1, r2, #11
 801b844:	f401 51c0 	and.w	r1, r1, #6144	@ 0x1800
 801b848:	430b      	orrs	r3, r1
 801b84a:	f8cb 3084 	str.w	r3, [fp, #132]	@ 0x84
 801b84e:	f8db 60a4 	ldr.w	r6, [fp, #164]	@ 0xa4
 801b852:	f042 0203 	orr.w	r2, r2, #3
 801b856:	f8cb 20bc 	str.w	r2, [fp, #188]	@ 0xbc
 801b85a:	f8db 3088 	ldr.w	r3, [fp, #136]	@ 0x88
 801b85e:	454b      	cmp	r3, r9
 801b860:	d904      	bls.n	801b86c <MiniRV32IMAStep+0xa06>
 801b862:	f8db 308c 	ldr.w	r3, [fp, #140]	@ 0x8c
 801b866:	3301      	adds	r3, #1
 801b868:	f8cb 308c 	str.w	r3, [fp, #140]	@ 0x8c
 801b86c:	f8cb 9088 	str.w	r9, [fp, #136]	@ 0x88
 801b870:	f8cb 6080 	str.w	r6, [fp, #128]	@ 0x80
 801b874:	2000      	movs	r0, #0
 801b876:	b007      	add	sp, #28
 801b878:	e8bd 8ff0 	ldmia.w	sp!, {r4, r5, r6, r7, r8, r9, sl, fp, pc}
 801b87c:	f8dd a00c 	ldr.w	sl, [sp, #12]
 801b880:	2702      	movs	r7, #2
 801b882:	e7c9      	b.n	801b818 <MiniRV32IMAStep+0x9b2>
 801b884:	f8dd a00c 	ldr.w	sl, [sp, #12]
 801b888:	2701      	movs	r7, #1
 801b88a:	e7c5      	b.n	801b818 <MiniRV32IMAStep+0x9b2>
 801b88c:	46a2      	mov	sl, r4
 801b88e:	e7c3      	b.n	801b818 <MiniRV32IMAStep+0x9b2>
 801b890:	f8cb 70b8 	str.w	r7, [fp, #184]	@ 0xb8
 801b894:	2300      	movs	r3, #0
 801b896:	f8cb 30b4 	str.w	r3, [fp, #180]	@ 0xb4
 801b89a:	3604      	adds	r6, #4
 801b89c:	e7c8      	b.n	801b830 <MiniRV32IMAStep+0x9ca>
 801b89e:	2001      	movs	r0, #1
 801b8a0:	e7e9      	b.n	801b876 <MiniRV32IMAStep+0xa10>

0801b8a2 <riscv_emu>:
 801b8a2:	b530      	push	{r4, r5, lr}
 801b8a4:	b087      	sub	sp, #28
 801b8a6:	4c32      	ldr	r4, [pc, #200]	@ (801b970 <riscv_emu+0xce>)
 801b8a8:	ad02      	add	r5, sp, #8
 801b8aa:	4932      	ldr	r1, [pc, #200]	@ (801b974 <riscv_emu+0xd2>)
 801b8ac:	4628      	mov	r0, r5
 801b8ae:	f000 f8ec 	bl	801ba8a <create_memory>
 801b8b2:	e895 0007 	ldmia.w	r5, {r0, r1, r2}
 801b8b6:	e884 0007 	stmia.w	r4, {r0, r1, r2}
 801b8ba:	2300      	movs	r3, #0
 801b8bc:	6363      	str	r3, [r4, #52]	@ 0x34
 801b8be:	63a3      	str	r3, [r4, #56]	@ 0x38
 801b8c0:	f8d4 30c8 	ldr.w	r3, [r4, #200]	@ 0xc8
 801b8c4:	f043 0303 	orr.w	r3, r3, #3
 801b8c8:	f8c4 30c8 	str.w	r3, [r4, #200]	@ 0xc8
 801b8cc:	f04f 4300 	mov.w	r3, #2147483648	@ 0x80000000
 801b8d0:	f8c4 308c 	str.w	r3, [r4, #140]	@ 0x8c
 801b8d4:	f7fa fbe6 	bl	80160a4 <cycleCount>
 801b8d8:	4604      	mov	r4, r0
 801b8da:	460d      	mov	r5, r1
 801b8dc:	e001      	b.n	801b8e2 <riscv_emu+0x40>
 801b8de:	2803      	cmp	r0, #3
 801b8e0:	d11c      	bne.n	801b91c <riscv_emu+0x7a>
 801b8e2:	f7fa fbdf 	bl	80160a4 <cycleCount>
 801b8e6:	4622      	mov	r2, r4
 801b8e8:	462b      	mov	r3, r5
 801b8ea:	f000 fc33 	bl	801c154 <__aeabi_uldivmod>
 801b8ee:	4603      	mov	r3, r0
 801b8f0:	2100      	movs	r1, #0
 801b8f2:	18e4      	adds	r4, r4, r3
 801b8f4:	f145 0500 	adc.w	r5, r5, #0
 801b8f8:	f44f 6280 	mov.w	r2, #1024	@ 0x400
 801b8fc:	9200      	str	r2, [sp, #0]
 801b8fe:	460a      	mov	r2, r1
 801b900:	481d      	ldr	r0, [pc, #116]	@ (801b978 <riscv_emu+0xd6>)
 801b902:	f7ff fab0 	bl	801ae66 <MiniRV32IMAStep>
 801b906:	f245 5355 	movw	r3, #21845	@ 0x5555
 801b90a:	4298      	cmp	r0, r3
 801b90c:	d023      	beq.n	801b956 <riscv_emu+0xb4>
 801b90e:	dc10      	bgt.n	801b932 <riscv_emu+0x90>
 801b910:	2801      	cmp	r0, #1
 801b912:	d1e4      	bne.n	801b8de <riscv_emu+0x3c>
 801b914:	2001      	movs	r0, #1
 801b916:	f7f9 fdb1 	bl	801547c <sleepms>
 801b91a:	e7e2      	b.n	801b8e2 <riscv_emu+0x40>
 801b91c:	2800      	cmp	r0, #0
 801b91e:	d0e0      	beq.n	801b8e2 <riscv_emu+0x40>
 801b920:	4816      	ldr	r0, [pc, #88]	@ (801b97c <riscv_emu+0xda>)
 801b922:	f7f6 fd7f 	bl	8012424 <printf>
 801b926:	4b12      	ldr	r3, [pc, #72]	@ (801b970 <riscv_emu+0xce>)
 801b928:	6898      	ldr	r0, [r3, #8]
 801b92a:	f7f5 fef1 	bl	8011710 <free>
 801b92e:	2002      	movs	r0, #2
 801b930:	e00f      	b.n	801b952 <riscv_emu+0xb0>
 801b932:	f247 7377 	movw	r3, #30583	@ 0x7777
 801b936:	4298      	cmp	r0, r3
 801b938:	d1f2      	bne.n	801b920 <riscv_emu+0x7e>
 801b93a:	4c0d      	ldr	r4, [pc, #52]	@ (801b970 <riscv_emu+0xce>)
 801b93c:	f8d4 2094 	ldr.w	r2, [r4, #148]	@ 0x94
 801b940:	f8d4 1098 	ldr.w	r1, [r4, #152]	@ 0x98
 801b944:	480e      	ldr	r0, [pc, #56]	@ (801b980 <riscv_emu+0xde>)
 801b946:	f7f6 fd6d 	bl	8012424 <printf>
 801b94a:	68a0      	ldr	r0, [r4, #8]
 801b94c:	f7f5 fee0 	bl	8011710 <free>
 801b950:	2001      	movs	r0, #1
 801b952:	b007      	add	sp, #28
 801b954:	bd30      	pop	{r4, r5, pc}
 801b956:	4c06      	ldr	r4, [pc, #24]	@ (801b970 <riscv_emu+0xce>)
 801b958:	f8d4 2094 	ldr.w	r2, [r4, #148]	@ 0x94
 801b95c:	f8d4 1098 	ldr.w	r1, [r4, #152]	@ 0x98
 801b960:	4808      	ldr	r0, [pc, #32]	@ (801b984 <riscv_emu+0xe2>)
 801b962:	f7f6 fd5f 	bl	8012424 <printf>
 801b966:	68a0      	ldr	r0, [r4, #8]
 801b968:	f7f5 fed2 	bl	8011710 <free>
 801b96c:	2000      	movs	r0, #0
 801b96e:	e7f0      	b.n	801b952 <riscv_emu+0xb0>
 801b970:	20002af4 	.word	0x20002af4
 801b974:	0801d504 	.word	0x0801d504
 801b978:	20002b00 	.word	0x20002b00
 801b97c:	0801d548 	.word	0x0801d548
 801b980:	0801d518 	.word	0x0801d518
 801b984:	0801d530 	.word	0x0801d530

0801b988 <load_sd_file>:
 801b988:	e92d 43f8 	stmdb	sp!, {r3, r4, r5, r6, r7, r8, r9, lr}
 801b98c:	4681      	mov	r9, r0
 801b98e:	4608      	mov	r0, r1
 801b990:	f7f7 fac6 	bl	8012f20 <full_path>
 801b994:	2800      	cmp	r0, #0
 801b996:	d055      	beq.n	801ba44 <load_sd_file+0xbc>
 801b998:	4604      	mov	r4, r0
 801b99a:	492c      	ldr	r1, [pc, #176]	@ (801ba4c <load_sd_file+0xc4>)
 801b99c:	f7fd fa82 	bl	8018ea4 <fl_fopen>
 801b9a0:	4680      	mov	r8, r0
 801b9a2:	b1d8      	cbz	r0, 801b9dc <load_sd_file+0x54>
 801b9a4:	f240 4001 	movw	r0, #1025	@ 0x401
 801b9a8:	f7f5 fea0 	bl	80116ec <malloc>
 801b9ac:	4606      	mov	r6, r0
 801b9ae:	2202      	movs	r2, #2
 801b9b0:	2100      	movs	r1, #0
 801b9b2:	4640      	mov	r0, r8
 801b9b4:	f7fd fc81 	bl	80192ba <fl_fseek>
 801b9b8:	4640      	mov	r0, r8
 801b9ba:	f7fd fce9 	bl	8019390 <fl_ftell>
 801b9be:	4607      	mov	r7, r0
 801b9c0:	2200      	movs	r2, #0
 801b9c2:	4611      	mov	r1, r2
 801b9c4:	4640      	mov	r0, r8
 801b9c6:	f7fd fc78 	bl	80192ba <fl_fseek>
 801b9ca:	4639      	mov	r1, r7
 801b9cc:	4820      	ldr	r0, [pc, #128]	@ (801ba50 <load_sd_file+0xc8>)
 801b9ce:	f7f6 fd29 	bl	8012424 <printf>
 801b9d2:	4820      	ldr	r0, [pc, #128]	@ (801ba54 <load_sd_file+0xcc>)
 801b9d4:	f7f6 fd26 	bl	8012424 <printf>
 801b9d8:	2500      	movs	r5, #0
 801b9da:	e023      	b.n	801ba24 <load_sd_file+0x9c>
 801b9dc:	4621      	mov	r1, r4
 801b9de:	481e      	ldr	r0, [pc, #120]	@ (801ba58 <load_sd_file+0xd0>)
 801b9e0:	f7f6 fd20 	bl	8012424 <printf>
 801b9e4:	f04f 30ff 	mov.w	r0, #4294967295	@ 0xffffffff
 801b9e8:	e02a      	b.n	801ba40 <load_sd_file+0xb8>
 801b9ea:	4643      	mov	r3, r8
 801b9ec:	2201      	movs	r2, #1
 801b9ee:	f44f 6180 	mov.w	r1, #1024	@ 0x400
 801b9f2:	4630      	mov	r0, r6
 801b9f4:	f7fd fbaa 	bl	801914c <fl_fread>
 801b9f8:	4604      	mov	r4, r0
 801b9fa:	b282      	uxth	r2, r0
 801b9fc:	eb05 0109 	add.w	r1, r5, r9
 801ba00:	4630      	mov	r0, r6
 801ba02:	f000 fa6c 	bl	801bede <SPI_Flash_Write>
 801ba06:	4622      	mov	r2, r4
 801ba08:	2100      	movs	r1, #0
 801ba0a:	4630      	mov	r0, r6
 801ba0c:	f7f7 f80b 	bl	8012a26 <memset>
 801ba10:	463a      	mov	r2, r7
 801ba12:	4629      	mov	r1, r5
 801ba14:	4811      	ldr	r0, [pc, #68]	@ (801ba5c <load_sd_file+0xd4>)
 801ba16:	f7f6 fd05 	bl	8012424 <printf>
 801ba1a:	4425      	add	r5, r4
 801ba1c:	210d      	movs	r1, #13
 801ba1e:	4810      	ldr	r0, [pc, #64]	@ (801ba60 <load_sd_file+0xd8>)
 801ba20:	f7fb fc56 	bl	80172d0 <hw_toggle_pin>
 801ba24:	42bd      	cmp	r5, r7
 801ba26:	d3e0      	bcc.n	801b9ea <load_sd_file+0x62>
 801ba28:	4630      	mov	r0, r6
 801ba2a:	f7f5 fe71 	bl	8011710 <free>
 801ba2e:	4640      	mov	r0, r8
 801ba30:	f7fd fb54 	bl	80190dc <fl_fclose>
 801ba34:	f7f7 fa6a 	bl	8012f0c <update_path>
 801ba38:	480a      	ldr	r0, [pc, #40]	@ (801ba64 <load_sd_file+0xdc>)
 801ba3a:	f7f6 fcf3 	bl	8012424 <printf>
 801ba3e:	2000      	movs	r0, #0
 801ba40:	e8bd 83f8 	ldmia.w	sp!, {r3, r4, r5, r6, r7, r8, r9, pc}
 801ba44:	f04f 30ff 	mov.w	r0, #4294967295	@ 0xffffffff
 801ba48:	e7fa      	b.n	801ba40 <load_sd_file+0xb8>
 801ba4a:	bf00      	nop
 801ba4c:	0801c9d4 	.word	0x0801c9d4
 801ba50:	0801cae4 	.word	0x0801cae4
 801ba54:	0801d55c 	.word	0x0801d55c
 801ba58:	0801c904 	.word	0x0801c904
 801ba5c:	0801d578 	.word	0x0801d578
 801ba60:	40020800 	.word	0x40020800
 801ba64:	0801d580 	.word	0x0801d580

0801ba68 <get_file_size>:
 801ba68:	b538      	push	{r3, r4, r5, lr}
 801ba6a:	4604      	mov	r4, r0
 801ba6c:	2202      	movs	r2, #2
 801ba6e:	2100      	movs	r1, #0
 801ba70:	f7fd fc23 	bl	80192ba <fl_fseek>
 801ba74:	4620      	mov	r0, r4
 801ba76:	f7fd fc8b 	bl	8019390 <fl_ftell>
 801ba7a:	4605      	mov	r5, r0
 801ba7c:	2200      	movs	r2, #0
 801ba7e:	4611      	mov	r1, r2
 801ba80:	4620      	mov	r0, r4
 801ba82:	f7fd fc1a 	bl	80192ba <fl_fseek>
 801ba86:	4628      	mov	r0, r5
 801ba88:	bd38      	pop	{r3, r4, r5, pc}

0801ba8a <create_memory>:
 801ba8a:	b570      	push	{r4, r5, r6, lr}
 801ba8c:	b082      	sub	sp, #8
 801ba8e:	4606      	mov	r6, r0
 801ba90:	4608      	mov	r0, r1
 801ba92:	f7f7 fa45 	bl	8012f20 <full_path>
 801ba96:	4928      	ldr	r1, [pc, #160]	@ (801bb38 <create_memory+0xae>)
 801ba98:	f7fd fa04 	bl	8018ea4 <fl_fopen>
 801ba9c:	4605      	mov	r5, r0
 801ba9e:	6030      	str	r0, [r6, #0]
 801baa0:	b150      	cbz	r0, 801bab8 <create_memory+0x2e>
 801baa2:	4628      	mov	r0, r5
 801baa4:	f7ff ffe0 	bl	801ba68 <get_file_size>
 801baa8:	6070      	str	r0, [r6, #4]
 801baaa:	f44f 21c0 	mov.w	r1, #393216	@ 0x60000
 801baae:	4823      	ldr	r0, [pc, #140]	@ (801bb3c <create_memory+0xb2>)
 801bab0:	f7f6 fcb8 	bl	8012424 <printf>
 801bab4:	2400      	movs	r4, #0
 801bab6:	e00d      	b.n	801bad4 <create_memory+0x4a>
 801bab8:	4821      	ldr	r0, [pc, #132]	@ (801bb40 <create_memory+0xb6>)
 801baba:	f7f6 fcb3 	bl	8012424 <printf>
 801babe:	f04f 30ff 	mov.w	r0, #4294967295	@ 0xffffffff
 801bac2:	f7f9 fe37 	bl	8015734 <exit>
 801bac6:	e7ec      	b.n	801baa2 <create_memory+0x18>
 801bac8:	2201      	movs	r2, #1
 801baca:	2100      	movs	r1, #0
 801bacc:	4620      	mov	r0, r4
 801bace:	f7f8 ff05 	bl	80148dc <cache_write>
 801bad2:	3401      	adds	r4, #1
 801bad4:	f5b4 2fc0 	cmp.w	r4, #393216	@ 0x60000
 801bad8:	dbf6      	blt.n	801bac8 <create_memory+0x3e>
 801bada:	481a      	ldr	r0, [pc, #104]	@ (801bb44 <create_memory+0xba>)
 801badc:	f7f6 fca2 	bl	8012424 <printf>
 801bae0:	2400      	movs	r4, #0
 801bae2:	4628      	mov	r0, r5
 801bae4:	f7fd fc5f 	bl	80193a6 <fl_feof>
 801bae8:	b9e0      	cbnz	r0, 801bb24 <create_memory+0x9a>
 801baea:	4628      	mov	r0, r5
 801baec:	f7fd fbb2 	bl	8019254 <fl_fgetc>
 801baf0:	f88d 0006 	strb.w	r0, [sp, #6]
 801baf4:	2201      	movs	r2, #1
 801baf6:	f10d 0106 	add.w	r1, sp, #6
 801bafa:	4620      	mov	r0, r4
 801bafc:	f7f8 feee 	bl	80148dc <cache_write>
 801bb00:	2201      	movs	r2, #1
 801bb02:	f10d 0107 	add.w	r1, sp, #7
 801bb06:	4620      	mov	r0, r4
 801bb08:	f7f8 ff94 	bl	8014a34 <cache_read>
 801bb0c:	f89d 3007 	ldrb.w	r3, [sp, #7]
 801bb10:	f89d 2006 	ldrb.w	r2, [sp, #6]
 801bb14:	4293      	cmp	r3, r2
 801bb16:	d101      	bne.n	801bb1c <create_memory+0x92>
 801bb18:	3401      	adds	r4, #1
 801bb1a:	e7e2      	b.n	801bae2 <create_memory+0x58>
 801bb1c:	4621      	mov	r1, r4
 801bb1e:	480a      	ldr	r0, [pc, #40]	@ (801bb48 <create_memory+0xbe>)
 801bb20:	f7f6 fc80 	bl	8012424 <printf>
 801bb24:	4628      	mov	r0, r5
 801bb26:	f7fd fad9 	bl	80190dc <fl_fclose>
 801bb2a:	4808      	ldr	r0, [pc, #32]	@ (801bb4c <create_memory+0xc2>)
 801bb2c:	f7f6 fc7a 	bl	8012424 <printf>
 801bb30:	4630      	mov	r0, r6
 801bb32:	b002      	add	sp, #8
 801bb34:	bd70      	pop	{r4, r5, r6, pc}
 801bb36:	bf00      	nop
 801bb38:	0801d58c 	.word	0x0801d58c
 801bb3c:	0801d5b8 	.word	0x0801d5b8
 801bb40:	0801d590 	.word	0x0801d590
 801bb44:	0801d5cc 	.word	0x0801d5cc
 801bb48:	0801d5e0 	.word	0x0801d5e0
 801bb4c:	0801d5f4 	.word	0x0801d5f4

0801bb50 <Memory_Init>:
 801bb50:	b500      	push	{lr}
 801bb52:	b085      	sub	sp, #20
 801bb54:	4a06      	ldr	r2, [pc, #24]	@ (801bb70 <Memory_Init+0x20>)
 801bb56:	ab01      	add	r3, sp, #4
 801bb58:	ca07      	ldmia	r2, {r0, r1, r2}
 801bb5a:	e883 0007 	stmia.w	r3, {r0, r1, r2}
 801bb5e:	220c      	movs	r2, #12
 801bb60:	4619      	mov	r1, r3
 801bb62:	2000      	movs	r0, #0
 801bb64:	f000 faa3 	bl	801c0ae <sramwrite>
 801bb68:	b005      	add	sp, #20
 801bb6a:	f85d fb04 	ldr.w	pc, [sp], #4
 801bb6e:	bf00      	nop
 801bb70:	0801c67c 	.word	0x0801c67c

0801bb74 <Memory_Allocate>:
 801bb74:	b570      	push	{r4, r5, r6, lr}
 801bb76:	b086      	sub	sp, #24
 801bb78:	4606      	mov	r6, r0
 801bb7a:	2400      	movs	r4, #0
 801bb7c:	e011      	b.n	801bba2 <Memory_Allocate+0x2e>
 801bb7e:	9300      	str	r3, [sp, #0]
 801bb80:	2301      	movs	r3, #1
 801bb82:	f88d 3004 	strb.w	r3, [sp, #4]
 801bb86:	9b05      	ldr	r3, [sp, #20]
 801bb88:	9302      	str	r3, [sp, #8]
 801bb8a:	4426      	add	r6, r4
 801bb8c:	360c      	adds	r6, #12
 801bb8e:	220c      	movs	r2, #12
 801bb90:	4669      	mov	r1, sp
 801bb92:	4630      	mov	r0, r6
 801bb94:	f000 fa8b 	bl	801c0ae <sramwrite>
 801bb98:	9503      	str	r5, [sp, #12]
 801bb9a:	9605      	str	r6, [sp, #20]
 801bb9c:	e017      	b.n	801bbce <Memory_Allocate+0x5a>
 801bb9e:	9c05      	ldr	r4, [sp, #20]
 801bba0:	b30c      	cbz	r4, 801bbe6 <Memory_Allocate+0x72>
 801bba2:	f5b4 2fc0 	cmp.w	r4, #393216	@ 0x60000
 801bba6:	d21d      	bcs.n	801bbe4 <Memory_Allocate+0x70>
 801bba8:	220c      	movs	r2, #12
 801bbaa:	eb0d 0102 	add.w	r1, sp, r2
 801bbae:	4620      	mov	r0, r4
 801bbb0:	f000 faa6 	bl	801c100 <sramread>
 801bbb4:	f89d 3010 	ldrb.w	r3, [sp, #16]
 801bbb8:	2b00      	cmp	r3, #0
 801bbba:	d0f0      	beq.n	801bb9e <Memory_Allocate+0x2a>
 801bbbc:	9b03      	ldr	r3, [sp, #12]
 801bbbe:	f106 050c 	add.w	r5, r6, #12
 801bbc2:	42ab      	cmp	r3, r5
 801bbc4:	d3eb      	bcc.n	801bb9e <Memory_Allocate+0x2a>
 801bbc6:	1b9b      	subs	r3, r3, r6
 801bbc8:	3b0c      	subs	r3, #12
 801bbca:	2b0c      	cmp	r3, #12
 801bbcc:	d8d7      	bhi.n	801bb7e <Memory_Allocate+0xa>
 801bbce:	2300      	movs	r3, #0
 801bbd0:	f88d 3010 	strb.w	r3, [sp, #16]
 801bbd4:	220c      	movs	r2, #12
 801bbd6:	eb0d 0102 	add.w	r1, sp, r2
 801bbda:	4620      	mov	r0, r4
 801bbdc:	f000 fa67 	bl	801c0ae <sramwrite>
 801bbe0:	340c      	adds	r4, #12
 801bbe2:	e000      	b.n	801bbe6 <Memory_Allocate+0x72>
 801bbe4:	2400      	movs	r4, #0
 801bbe6:	4620      	mov	r0, r4
 801bbe8:	b006      	add	sp, #24
 801bbea:	bd70      	pop	{r4, r5, r6, pc}

0801bbec <Memory_Free>:
 801bbec:	b510      	push	{r4, lr}
 801bbee:	b086      	sub	sp, #24
 801bbf0:	f1a0 040c 	sub.w	r4, r0, #12
 801bbf4:	220c      	movs	r2, #12
 801bbf6:	eb0d 0102 	add.w	r1, sp, r2
 801bbfa:	4620      	mov	r0, r4
 801bbfc:	f000 fa80 	bl	801c100 <sramread>
 801bc00:	2301      	movs	r3, #1
 801bc02:	f88d 3010 	strb.w	r3, [sp, #16]
 801bc06:	220c      	movs	r2, #12
 801bc08:	eb0d 0102 	add.w	r1, sp, r2
 801bc0c:	4620      	mov	r0, r4
 801bc0e:	f000 fa4e 	bl	801c0ae <sramwrite>
 801bc12:	9805      	ldr	r0, [sp, #20]
 801bc14:	b908      	cbnz	r0, 801bc1a <Memory_Free+0x2e>
 801bc16:	b006      	add	sp, #24
 801bc18:	bd10      	pop	{r4, pc}
 801bc1a:	220c      	movs	r2, #12
 801bc1c:	4669      	mov	r1, sp
 801bc1e:	f000 fa6f 	bl	801c100 <sramread>
 801bc22:	f89d 3004 	ldrb.w	r3, [sp, #4]
 801bc26:	2b00      	cmp	r3, #0
 801bc28:	d0f5      	beq.n	801bc16 <Memory_Free+0x2a>
 801bc2a:	9b03      	ldr	r3, [sp, #12]
 801bc2c:	9a00      	ldr	r2, [sp, #0]
 801bc2e:	4413      	add	r3, r2
 801bc30:	9303      	str	r3, [sp, #12]
 801bc32:	9b02      	ldr	r3, [sp, #8]
 801bc34:	9305      	str	r3, [sp, #20]
 801bc36:	220c      	movs	r2, #12
 801bc38:	eb0d 0102 	add.w	r1, sp, r2
 801bc3c:	4620      	mov	r0, r4
 801bc3e:	f000 fa36 	bl	801c0ae <sramwrite>
 801bc42:	e7e8      	b.n	801bc16 <Memory_Free+0x2a>

0801bc44 <Memory_GetFreeSize>:
 801bc44:	b510      	push	{r4, lr}
 801bc46:	b084      	sub	sp, #16
 801bc48:	2400      	movs	r4, #0
 801bc4a:	4620      	mov	r0, r4
 801bc4c:	e001      	b.n	801bc52 <Memory_GetFreeSize+0xe>
 801bc4e:	9803      	ldr	r0, [sp, #12]
 801bc50:	b168      	cbz	r0, 801bc6e <Memory_GetFreeSize+0x2a>
 801bc52:	f5b0 2fc0 	cmp.w	r0, #393216	@ 0x60000
 801bc56:	d20a      	bcs.n	801bc6e <Memory_GetFreeSize+0x2a>
 801bc58:	220c      	movs	r2, #12
 801bc5a:	a901      	add	r1, sp, #4
 801bc5c:	f000 fa50 	bl	801c100 <sramread>
 801bc60:	f89d 3008 	ldrb.w	r3, [sp, #8]
 801bc64:	2b00      	cmp	r3, #0
 801bc66:	d0f2      	beq.n	801bc4e <Memory_GetFreeSize+0xa>
 801bc68:	9b01      	ldr	r3, [sp, #4]
 801bc6a:	441c      	add	r4, r3
 801bc6c:	e7ef      	b.n	801bc4e <Memory_GetFreeSize+0xa>
 801bc6e:	4620      	mov	r0, r4
 801bc70:	b004      	add	sp, #16
 801bc72:	bd10      	pop	{r4, pc}

0801bc74 <Memory_Write>:
 801bc74:	b508      	push	{r3, lr}
 801bc76:	f000 fa1a 	bl	801c0ae <sramwrite>
 801bc7a:	bd08      	pop	{r3, pc}

0801bc7c <Memory_Read>:
 801bc7c:	b508      	push	{r3, lr}
 801bc7e:	f000 fa3f 	bl	801c100 <sramread>
 801bc82:	bd08      	pop	{r3, pc}

0801bc84 <flash_spi_getcardinfo>:
 801bc84:	4800      	ldr	r0, [pc, #0]	@ (801bc88 <flash_spi_getcardinfo+0x4>)
 801bc86:	4770      	bx	lr
 801bc88:	20002bc0 	.word	0x20002bc0

0801bc8c <SPI_Flash_ReadSR>:
 801bc8c:	b510      	push	{r4, lr}
 801bc8e:	f7fb fef3 	bl	8017a78 <hal_w25q_spi_select>
 801bc92:	2005      	movs	r0, #5
 801bc94:	f7fb ff04 	bl	8017aa0 <hal_w25q_spi_txrx>
 801bc98:	20ff      	movs	r0, #255	@ 0xff
 801bc9a:	f7fb ff01 	bl	8017aa0 <hal_w25q_spi_txrx>
 801bc9e:	4604      	mov	r4, r0
 801bca0:	f7fb fef4 	bl	8017a8c <hal_w25q_spi_release>
 801bca4:	4620      	mov	r0, r4
 801bca6:	bd10      	pop	{r4, pc}

0801bca8 <SPI_FLASH_Write_SR>:
 801bca8:	b510      	push	{r4, lr}
 801bcaa:	4604      	mov	r4, r0
 801bcac:	f7fb fee4 	bl	8017a78 <hal_w25q_spi_select>
 801bcb0:	2001      	movs	r0, #1
 801bcb2:	f7fb fef5 	bl	8017aa0 <hal_w25q_spi_txrx>
 801bcb6:	4620      	mov	r0, r4
 801bcb8:	f7fb fef2 	bl	8017aa0 <hal_w25q_spi_txrx>
 801bcbc:	f7fb fee6 	bl	8017a8c <hal_w25q_spi_release>
 801bcc0:	bd10      	pop	{r4, pc}

0801bcc2 <SPI_FLASH_Write_Enable>:
 801bcc2:	b508      	push	{r3, lr}
 801bcc4:	f7fb fed8 	bl	8017a78 <hal_w25q_spi_select>
 801bcc8:	2006      	movs	r0, #6
 801bcca:	f7fb fee9 	bl	8017aa0 <hal_w25q_spi_txrx>
 801bcce:	f7fb fedd 	bl	8017a8c <hal_w25q_spi_release>
 801bcd2:	bd08      	pop	{r3, pc}

0801bcd4 <SPI_FLASH_Write_Disable>:
 801bcd4:	b508      	push	{r3, lr}
 801bcd6:	f7fb fecf 	bl	8017a78 <hal_w25q_spi_select>
 801bcda:	2004      	movs	r0, #4
 801bcdc:	f7fb fee0 	bl	8017aa0 <hal_w25q_spi_txrx>
 801bce0:	f7fb fed4 	bl	8017a8c <hal_w25q_spi_release>
 801bce4:	bd08      	pop	{r3, pc}

0801bce6 <SPI_Flash_ReadID>:
 801bce6:	b510      	push	{r4, lr}
 801bce8:	f7fb fec6 	bl	8017a78 <hal_w25q_spi_select>
 801bcec:	2090      	movs	r0, #144	@ 0x90
 801bcee:	f7fb fed7 	bl	8017aa0 <hal_w25q_spi_txrx>
 801bcf2:	2000      	movs	r0, #0
 801bcf4:	f7fb fed4 	bl	8017aa0 <hal_w25q_spi_txrx>
 801bcf8:	2000      	movs	r0, #0
 801bcfa:	f7fb fed1 	bl	8017aa0 <hal_w25q_spi_txrx>
 801bcfe:	2000      	movs	r0, #0
 801bd00:	f7fb fece 	bl	8017aa0 <hal_w25q_spi_txrx>
 801bd04:	20ff      	movs	r0, #255	@ 0xff
 801bd06:	f7fb fecb 	bl	8017aa0 <hal_w25q_spi_txrx>
 801bd0a:	0204      	lsls	r4, r0, #8
 801bd0c:	b2a4      	uxth	r4, r4
 801bd0e:	20ff      	movs	r0, #255	@ 0xff
 801bd10:	f7fb fec6 	bl	8017aa0 <hal_w25q_spi_txrx>
 801bd14:	4304      	orrs	r4, r0
 801bd16:	b2a4      	uxth	r4, r4
 801bd18:	f7fb feb8 	bl	8017a8c <hal_w25q_spi_release>
 801bd1c:	4620      	mov	r0, r4
 801bd1e:	bd10      	pop	{r4, pc}

0801bd20 <SPI_Flash_Init>:
 801bd20:	b508      	push	{r3, lr}
 801bd22:	f7fb fe71 	bl	8017a08 <hal_w25q_spi_init>
 801bd26:	f7fb feb1 	bl	8017a8c <hal_w25q_spi_release>
 801bd2a:	f7ff ffdc 	bl	801bce6 <SPI_Flash_ReadID>
 801bd2e:	4b05      	ldr	r3, [pc, #20]	@ (801bd44 <SPI_Flash_Init+0x24>)
 801bd30:	8018      	strh	r0, [r3, #0]
 801bd32:	4b05      	ldr	r3, [pc, #20]	@ (801bd48 <SPI_Flash_Init+0x28>)
 801bd34:	f44f 7200 	mov.w	r2, #512	@ 0x200
 801bd38:	605a      	str	r2, [r3, #4]
 801bd3a:	f647 2212 	movw	r2, #31250	@ 0x7a12
 801bd3e:	601a      	str	r2, [r3, #0]
 801bd40:	bd08      	pop	{r3, pc}
 801bd42:	bf00      	nop
 801bd44:	20000394 	.word	0x20000394
 801bd48:	20002bc0 	.word	0x20002bc0

0801bd4c <SPI_Flash_Read>:
 801bd4c:	b570      	push	{r4, r5, r6, lr}
 801bd4e:	4606      	mov	r6, r0
 801bd50:	460c      	mov	r4, r1
 801bd52:	4615      	mov	r5, r2
 801bd54:	f7fb fe90 	bl	8017a78 <hal_w25q_spi_select>
 801bd58:	2003      	movs	r0, #3
 801bd5a:	f7fb fea1 	bl	8017aa0 <hal_w25q_spi_txrx>
 801bd5e:	f3c4 4007 	ubfx	r0, r4, #16, #8
 801bd62:	f7fb fe9d 	bl	8017aa0 <hal_w25q_spi_txrx>
 801bd66:	f3c4 2007 	ubfx	r0, r4, #8, #8
 801bd6a:	f7fb fe99 	bl	8017aa0 <hal_w25q_spi_txrx>
 801bd6e:	b2e0      	uxtb	r0, r4
 801bd70:	f7fb fe96 	bl	8017aa0 <hal_w25q_spi_txrx>
 801bd74:	2400      	movs	r4, #0
 801bd76:	e005      	b.n	801bd84 <SPI_Flash_Read+0x38>
 801bd78:	20ff      	movs	r0, #255	@ 0xff
 801bd7a:	f7fb fe91 	bl	8017aa0 <hal_w25q_spi_txrx>
 801bd7e:	5530      	strb	r0, [r6, r4]
 801bd80:	3401      	adds	r4, #1
 801bd82:	b2a4      	uxth	r4, r4
 801bd84:	42ac      	cmp	r4, r5
 801bd86:	d3f7      	bcc.n	801bd78 <SPI_Flash_Read+0x2c>
 801bd88:	f7fb fe80 	bl	8017a8c <hal_w25q_spi_release>
 801bd8c:	bd70      	pop	{r4, r5, r6, pc}

0801bd8e <disk_read4K>:
 801bd8e:	b570      	push	{r4, r5, r6, lr}
 801bd90:	4606      	mov	r6, r0
 801bd92:	460d      	mov	r5, r1
 801bd94:	4614      	mov	r4, r2
 801bd96:	e009      	b.n	801bdac <disk_read4K+0x1e>
 801bd98:	f44f 5280 	mov.w	r2, #4096	@ 0x1000
 801bd9c:	0329      	lsls	r1, r5, #12
 801bd9e:	4630      	mov	r0, r6
 801bda0:	f7ff ffd4 	bl	801bd4c <SPI_Flash_Read>
 801bda4:	3501      	adds	r5, #1
 801bda6:	f506 5680 	add.w	r6, r6, #4096	@ 0x1000
 801bdaa:	3c01      	subs	r4, #1
 801bdac:	2c00      	cmp	r4, #0
 801bdae:	d1f3      	bne.n	801bd98 <disk_read4K+0xa>
 801bdb0:	210d      	movs	r1, #13
 801bdb2:	4802      	ldr	r0, [pc, #8]	@ (801bdbc <disk_read4K+0x2e>)
 801bdb4:	f7fb fa8c 	bl	80172d0 <hw_toggle_pin>
 801bdb8:	2000      	movs	r0, #0
 801bdba:	bd70      	pop	{r4, r5, r6, pc}
 801bdbc:	40020800 	.word	0x40020800

0801bdc0 <disk_read>:
 801bdc0:	b570      	push	{r4, r5, r6, lr}
 801bdc2:	4606      	mov	r6, r0
 801bdc4:	460d      	mov	r5, r1
 801bdc6:	4614      	mov	r4, r2
 801bdc8:	e009      	b.n	801bdde <disk_read+0x1e>
 801bdca:	f44f 7200 	mov.w	r2, #512	@ 0x200
 801bdce:	0269      	lsls	r1, r5, #9
 801bdd0:	4630      	mov	r0, r6
 801bdd2:	f7ff ffbb 	bl	801bd4c <SPI_Flash_Read>
 801bdd6:	3501      	adds	r5, #1
 801bdd8:	f506 7600 	add.w	r6, r6, #512	@ 0x200
 801bddc:	3c01      	subs	r4, #1
 801bdde:	2c00      	cmp	r4, #0
 801bde0:	d1f3      	bne.n	801bdca <disk_read+0xa>
 801bde2:	210d      	movs	r1, #13
 801bde4:	4802      	ldr	r0, [pc, #8]	@ (801bdf0 <disk_read+0x30>)
 801bde6:	f7fb fa73 	bl	80172d0 <hw_toggle_pin>
 801bdea:	2000      	movs	r0, #0
 801bdec:	bd70      	pop	{r4, r5, r6, pc}
 801bdee:	bf00      	nop
 801bdf0:	40020800 	.word	0x40020800

0801bdf4 <SPI_Flash_Wait_Busy>:
 801bdf4:	b508      	push	{r3, lr}
 801bdf6:	f7ff ff49 	bl	801bc8c <SPI_Flash_ReadSR>
 801bdfa:	f010 0f01 	tst.w	r0, #1
 801bdfe:	d1fa      	bne.n	801bdf6 <SPI_Flash_Wait_Busy+0x2>
 801be00:	bd08      	pop	{r3, pc}

0801be02 <SPI_Flash_Write_Page>:
 801be02:	b570      	push	{r4, r5, r6, lr}
 801be04:	4606      	mov	r6, r0
 801be06:	460c      	mov	r4, r1
 801be08:	4615      	mov	r5, r2
 801be0a:	f7ff ff5a 	bl	801bcc2 <SPI_FLASH_Write_Enable>
 801be0e:	f7fb fe33 	bl	8017a78 <hal_w25q_spi_select>
 801be12:	2002      	movs	r0, #2
 801be14:	f7fb fe44 	bl	8017aa0 <hal_w25q_spi_txrx>
 801be18:	f3c4 4007 	ubfx	r0, r4, #16, #8
 801be1c:	f7fb fe40 	bl	8017aa0 <hal_w25q_spi_txrx>
 801be20:	f3c4 2007 	ubfx	r0, r4, #8, #8
 801be24:	f7fb fe3c 	bl	8017aa0 <hal_w25q_spi_txrx>
 801be28:	b2e0      	uxtb	r0, r4
 801be2a:	f7fb fe39 	bl	8017aa0 <hal_w25q_spi_txrx>
 801be2e:	2400      	movs	r4, #0
 801be30:	e004      	b.n	801be3c <SPI_Flash_Write_Page+0x3a>
 801be32:	5d30      	ldrb	r0, [r6, r4]
 801be34:	f7fb fe34 	bl	8017aa0 <hal_w25q_spi_txrx>
 801be38:	3401      	adds	r4, #1
 801be3a:	b2a4      	uxth	r4, r4
 801be3c:	42ac      	cmp	r4, r5
 801be3e:	d3f8      	bcc.n	801be32 <SPI_Flash_Write_Page+0x30>
 801be40:	f7fb fe24 	bl	8017a8c <hal_w25q_spi_release>
 801be44:	f7ff ffd6 	bl	801bdf4 <SPI_Flash_Wait_Busy>
 801be48:	bd70      	pop	{r4, r5, r6, pc}

0801be4a <SPI_Flash_Write_NoCheck>:
 801be4a:	b5f8      	push	{r3, r4, r5, r6, r7, lr}
 801be4c:	4607      	mov	r7, r0
 801be4e:	460e      	mov	r6, r1
 801be50:	4614      	mov	r4, r2
 801be52:	b2cd      	uxtb	r5, r1
 801be54:	f5c5 7580 	rsb	r5, r5, #256	@ 0x100
 801be58:	b2ad      	uxth	r5, r5
 801be5a:	4295      	cmp	r5, r2
 801be5c:	d303      	bcc.n	801be66 <SPI_Flash_Write_NoCheck+0x1c>
 801be5e:	4615      	mov	r5, r2
 801be60:	e001      	b.n	801be66 <SPI_Flash_Write_NoCheck+0x1c>
 801be62:	f44f 7580 	mov.w	r5, #256	@ 0x100
 801be66:	462a      	mov	r2, r5
 801be68:	4631      	mov	r1, r6
 801be6a:	4638      	mov	r0, r7
 801be6c:	f7ff ffc9 	bl	801be02 <SPI_Flash_Write_Page>
 801be70:	42ac      	cmp	r4, r5
 801be72:	d008      	beq.n	801be86 <SPI_Flash_Write_NoCheck+0x3c>
 801be74:	442f      	add	r7, r5
 801be76:	442e      	add	r6, r5
 801be78:	1b64      	subs	r4, r4, r5
 801be7a:	b2a4      	uxth	r4, r4
 801be7c:	f5b4 7f80 	cmp.w	r4, #256	@ 0x100
 801be80:	d8ef      	bhi.n	801be62 <SPI_Flash_Write_NoCheck+0x18>
 801be82:	4625      	mov	r5, r4
 801be84:	e7ef      	b.n	801be66 <SPI_Flash_Write_NoCheck+0x1c>
 801be86:	bdf8      	pop	{r3, r4, r5, r6, r7, pc}

0801be88 <SPI_Flash_Erase_Chip>:
 801be88:	b508      	push	{r3, lr}
 801be8a:	f7ff ff1a 	bl	801bcc2 <SPI_FLASH_Write_Enable>
 801be8e:	f7ff ffb1 	bl	801bdf4 <SPI_Flash_Wait_Busy>
 801be92:	f7fb fdf1 	bl	8017a78 <hal_w25q_spi_select>
 801be96:	20c7      	movs	r0, #199	@ 0xc7
 801be98:	f7fb fe02 	bl	8017aa0 <hal_w25q_spi_txrx>
 801be9c:	f7fb fdf6 	bl	8017a8c <hal_w25q_spi_release>
 801bea0:	f7ff ffa8 	bl	801bdf4 <SPI_Flash_Wait_Busy>
 801bea4:	bd08      	pop	{r3, pc}

0801bea6 <SPI_Flash_Erase_Sector>:
 801bea6:	b510      	push	{r4, lr}
 801bea8:	0304      	lsls	r4, r0, #12
 801beaa:	f7ff ff0a 	bl	801bcc2 <SPI_FLASH_Write_Enable>
 801beae:	f7ff ffa1 	bl	801bdf4 <SPI_Flash_Wait_Busy>
 801beb2:	f7fb fde1 	bl	8017a78 <hal_w25q_spi_select>
 801beb6:	2020      	movs	r0, #32
 801beb8:	f7fb fdf2 	bl	8017aa0 <hal_w25q_spi_txrx>
 801bebc:	f3c4 4007 	ubfx	r0, r4, #16, #8
 801bec0:	f7fb fdee 	bl	8017aa0 <hal_w25q_spi_txrx>
 801bec4:	0a20      	lsrs	r0, r4, #8
 801bec6:	f000 00f0 	and.w	r0, r0, #240	@ 0xf0
 801beca:	f7fb fde9 	bl	8017aa0 <hal_w25q_spi_txrx>
 801bece:	2000      	movs	r0, #0
 801bed0:	f7fb fde6 	bl	8017aa0 <hal_w25q_spi_txrx>
 801bed4:	f7fb fdda 	bl	8017a8c <hal_w25q_spi_release>
 801bed8:	f7ff ff8c 	bl	801bdf4 <SPI_Flash_Wait_Busy>
 801bedc:	bd10      	pop	{r4, pc}

0801bede <SPI_Flash_Write>:
 801bede:	e92d 47f0 	stmdb	sp!, {r4, r5, r6, r7, r8, r9, sl, lr}
 801bee2:	4606      	mov	r6, r0
 801bee4:	4689      	mov	r9, r1
 801bee6:	4617      	mov	r7, r2
 801bee8:	ea4f 3811 	mov.w	r8, r1, lsr #12
 801beec:	f3c1 050b 	ubfx	r5, r1, #0, #12
 801bef0:	f5c5 5480 	rsb	r4, r5, #4096	@ 0x1000
 801bef4:	b2a4      	uxth	r4, r4
 801bef6:	4294      	cmp	r4, r2
 801bef8:	d304      	bcc.n	801bf04 <SPI_Flash_Write+0x26>
 801befa:	4614      	mov	r4, r2
 801befc:	e002      	b.n	801bf04 <SPI_Flash_Write+0x26>
 801befe:	f44f 5480 	mov.w	r4, #4096	@ 0x1000
 801bf02:	2500      	movs	r5, #0
 801bf04:	ea4f 3a08 	mov.w	sl, r8, lsl #12
 801bf08:	f44f 5280 	mov.w	r2, #4096	@ 0x1000
 801bf0c:	4651      	mov	r1, sl
 801bf0e:	481c      	ldr	r0, [pc, #112]	@ (801bf80 <SPI_Flash_Write+0xa2>)
 801bf10:	f7ff ff1c 	bl	801bd4c <SPI_Flash_Read>
 801bf14:	2300      	movs	r3, #0
 801bf16:	429c      	cmp	r4, r3
 801bf18:	d907      	bls.n	801bf2a <SPI_Flash_Write+0x4c>
 801bf1a:	18ea      	adds	r2, r5, r3
 801bf1c:	4918      	ldr	r1, [pc, #96]	@ (801bf80 <SPI_Flash_Write+0xa2>)
 801bf1e:	5c8a      	ldrb	r2, [r1, r2]
 801bf20:	2aff      	cmp	r2, #255	@ 0xff
 801bf22:	d102      	bne.n	801bf2a <SPI_Flash_Write+0x4c>
 801bf24:	3301      	adds	r3, #1
 801bf26:	b29b      	uxth	r3, r3
 801bf28:	e7f5      	b.n	801bf16 <SPI_Flash_Write+0x38>
 801bf2a:	429c      	cmp	r4, r3
 801bf2c:	d811      	bhi.n	801bf52 <SPI_Flash_Write+0x74>
 801bf2e:	4622      	mov	r2, r4
 801bf30:	4649      	mov	r1, r9
 801bf32:	4630      	mov	r0, r6
 801bf34:	f7ff ff89 	bl	801be4a <SPI_Flash_Write_NoCheck>
 801bf38:	42a7      	cmp	r7, r4
 801bf3a:	d01e      	beq.n	801bf7a <SPI_Flash_Write+0x9c>
 801bf3c:	f108 0801 	add.w	r8, r8, #1
 801bf40:	4426      	add	r6, r4
 801bf42:	44a1      	add	r9, r4
 801bf44:	1b3c      	subs	r4, r7, r4
 801bf46:	b2a7      	uxth	r7, r4
 801bf48:	f5b7 5f80 	cmp.w	r7, #4096	@ 0x1000
 801bf4c:	d8d7      	bhi.n	801befe <SPI_Flash_Write+0x20>
 801bf4e:	463c      	mov	r4, r7
 801bf50:	e7d7      	b.n	801bf02 <SPI_Flash_Write+0x24>
 801bf52:	4640      	mov	r0, r8
 801bf54:	f7ff ffa7 	bl	801bea6 <SPI_Flash_Erase_Sector>
 801bf58:	2300      	movs	r3, #0
 801bf5a:	e005      	b.n	801bf68 <SPI_Flash_Write+0x8a>
 801bf5c:	195a      	adds	r2, r3, r5
 801bf5e:	5cf0      	ldrb	r0, [r6, r3]
 801bf60:	4907      	ldr	r1, [pc, #28]	@ (801bf80 <SPI_Flash_Write+0xa2>)
 801bf62:	5488      	strb	r0, [r1, r2]
 801bf64:	3301      	adds	r3, #1
 801bf66:	b29b      	uxth	r3, r3
 801bf68:	429c      	cmp	r4, r3
 801bf6a:	d8f7      	bhi.n	801bf5c <SPI_Flash_Write+0x7e>
 801bf6c:	f44f 5280 	mov.w	r2, #4096	@ 0x1000
 801bf70:	4651      	mov	r1, sl
 801bf72:	4803      	ldr	r0, [pc, #12]	@ (801bf80 <SPI_Flash_Write+0xa2>)
 801bf74:	f7ff ff69 	bl	801be4a <SPI_Flash_Write_NoCheck>
 801bf78:	e7de      	b.n	801bf38 <SPI_Flash_Write+0x5a>
 801bf7a:	e8bd 87f0 	ldmia.w	sp!, {r4, r5, r6, r7, r8, r9, sl, pc}
 801bf7e:	bf00      	nop
 801bf80:	20002bc8 	.word	0x20002bc8

0801bf84 <disk_write4K>:
 801bf84:	b570      	push	{r4, r5, r6, lr}
 801bf86:	4606      	mov	r6, r0
 801bf88:	460d      	mov	r5, r1
 801bf8a:	4614      	mov	r4, r2
 801bf8c:	e009      	b.n	801bfa2 <disk_write4K+0x1e>
 801bf8e:	f44f 5280 	mov.w	r2, #4096	@ 0x1000
 801bf92:	0329      	lsls	r1, r5, #12
 801bf94:	4630      	mov	r0, r6
 801bf96:	f7ff ffa2 	bl	801bede <SPI_Flash_Write>
 801bf9a:	3501      	adds	r5, #1
 801bf9c:	f506 5680 	add.w	r6, r6, #4096	@ 0x1000
 801bfa0:	3c01      	subs	r4, #1
 801bfa2:	2c00      	cmp	r4, #0
 801bfa4:	d1f3      	bne.n	801bf8e <disk_write4K+0xa>
 801bfa6:	210d      	movs	r1, #13
 801bfa8:	4802      	ldr	r0, [pc, #8]	@ (801bfb4 <disk_write4K+0x30>)
 801bfaa:	f7fb f991 	bl	80172d0 <hw_toggle_pin>
 801bfae:	2000      	movs	r0, #0
 801bfb0:	bd70      	pop	{r4, r5, r6, pc}
 801bfb2:	bf00      	nop
 801bfb4:	40020800 	.word	0x40020800

0801bfb8 <disk_write>:
 801bfb8:	b570      	push	{r4, r5, r6, lr}
 801bfba:	4606      	mov	r6, r0
 801bfbc:	460d      	mov	r5, r1
 801bfbe:	4614      	mov	r4, r2
 801bfc0:	e009      	b.n	801bfd6 <disk_write+0x1e>
 801bfc2:	f44f 7200 	mov.w	r2, #512	@ 0x200
 801bfc6:	0269      	lsls	r1, r5, #9
 801bfc8:	4630      	mov	r0, r6
 801bfca:	f7ff ff88 	bl	801bede <SPI_Flash_Write>
 801bfce:	3501      	adds	r5, #1
 801bfd0:	f506 7600 	add.w	r6, r6, #512	@ 0x200
 801bfd4:	3c01      	subs	r4, #1
 801bfd6:	2c00      	cmp	r4, #0
 801bfd8:	d1f3      	bne.n	801bfc2 <disk_write+0xa>
 801bfda:	210d      	movs	r1, #13
 801bfdc:	4802      	ldr	r0, [pc, #8]	@ (801bfe8 <disk_write+0x30>)
 801bfde:	f7fb f977 	bl	80172d0 <hw_toggle_pin>
 801bfe2:	2000      	movs	r0, #0
 801bfe4:	bd70      	pop	{r4, r5, r6, pc}
 801bfe6:	bf00      	nop
 801bfe8:	40020800 	.word	0x40020800

0801bfec <SPI_Flash_PowerDown>:
 801bfec:	b508      	push	{r3, lr}
 801bfee:	f7fb fd43 	bl	8017a78 <hal_w25q_spi_select>
 801bff2:	20b9      	movs	r0, #185	@ 0xb9
 801bff4:	f7fb fd54 	bl	8017aa0 <hal_w25q_spi_txrx>
 801bff8:	f7fb fd48 	bl	8017a8c <hal_w25q_spi_release>
 801bffc:	2003      	movs	r0, #3
 801bffe:	f7fa f863 	bl	80160c8 <delay>
 801c002:	bd08      	pop	{r3, pc}

0801c004 <SPI_Flash_WAKEUP>:
 801c004:	b508      	push	{r3, lr}
 801c006:	f7fb fd37 	bl	8017a78 <hal_w25q_spi_select>
 801c00a:	20ab      	movs	r0, #171	@ 0xab
 801c00c:	f7fb fd48 	bl	8017aa0 <hal_w25q_spi_txrx>
 801c010:	f7fb fd3c 	bl	8017a8c <hal_w25q_spi_release>
 801c014:	2003      	movs	r0, #3
 801c016:	f7fa f857 	bl	80160c8 <delay>
 801c01a:	bd08      	pop	{r3, pc}

0801c01c <select_memory>:
 801c01c:	b510      	push	{r4, lr}
 801c01e:	4604      	mov	r4, r0
 801c020:	2001      	movs	r0, #1
 801c022:	f7fb fe39 	bl	8017c98 <hal_23lc1024_spi_select1_set>
 801c026:	2001      	movs	r0, #1
 801c028:	f7fb fe40 	bl	8017cac <hal_23lc1024_spi_select2_set>
 801c02c:	2001      	movs	r0, #1
 801c02e:	f7fb fe47 	bl	8017cc0 <hal_23lc1024_spi_select3_set>
 801c032:	2c01      	cmp	r4, #1
 801c034:	d007      	beq.n	801c046 <select_memory+0x2a>
 801c036:	2c02      	cmp	r4, #2
 801c038:	d009      	beq.n	801c04e <select_memory+0x32>
 801c03a:	b104      	cbz	r4, 801c03e <select_memory+0x22>
 801c03c:	bd10      	pop	{r4, pc}
 801c03e:	2000      	movs	r0, #0
 801c040:	f7fb fe2a 	bl	8017c98 <hal_23lc1024_spi_select1_set>
 801c044:	e7fa      	b.n	801c03c <select_memory+0x20>
 801c046:	2000      	movs	r0, #0
 801c048:	f7fb fe30 	bl	8017cac <hal_23lc1024_spi_select2_set>
 801c04c:	e7f6      	b.n	801c03c <select_memory+0x20>
 801c04e:	2000      	movs	r0, #0
 801c050:	f7fb fe36 	bl	8017cc0 <hal_23lc1024_spi_select3_set>
 801c054:	e7f2      	b.n	801c03c <select_memory+0x20>

0801c056 <release>:
 801c056:	b508      	push	{r3, lr}
 801c058:	2801      	cmp	r0, #1
 801c05a:	d007      	beq.n	801c06c <release+0x16>
 801c05c:	2802      	cmp	r0, #2
 801c05e:	d009      	beq.n	801c074 <release+0x1e>
 801c060:	b100      	cbz	r0, 801c064 <release+0xe>
 801c062:	bd08      	pop	{r3, pc}
 801c064:	2001      	movs	r0, #1
 801c066:	f7fb fe17 	bl	8017c98 <hal_23lc1024_spi_select1_set>
 801c06a:	e7fa      	b.n	801c062 <release+0xc>
 801c06c:	2001      	movs	r0, #1
 801c06e:	f7fb fe1d 	bl	8017cac <hal_23lc1024_spi_select2_set>
 801c072:	e7f6      	b.n	801c062 <release+0xc>
 801c074:	2001      	movs	r0, #1
 801c076:	f7fb fe23 	bl	8017cc0 <hal_23lc1024_spi_select3_set>
 801c07a:	e7f2      	b.n	801c062 <release+0xc>

0801c07c <SRAM_SPI_WRITE>:
 801c07c:	b538      	push	{r3, r4, r5, lr}
 801c07e:	4604      	mov	r4, r0
 801c080:	e004      	b.n	801c08c <SRAM_SPI_WRITE+0x10>
 801c082:	f814 0b01 	ldrb.w	r0, [r4], #1
 801c086:	f7fb fe7b 	bl	8017d80 <hal_23lc1024_spi_txrx>
 801c08a:	4629      	mov	r1, r5
 801c08c:	1e4d      	subs	r5, r1, #1
 801c08e:	2900      	cmp	r1, #0
 801c090:	d1f7      	bne.n	801c082 <SRAM_SPI_WRITE+0x6>
 801c092:	bd38      	pop	{r3, r4, r5, pc}

0801c094 <SRAM_SPI_READ>:
 801c094:	b538      	push	{r3, r4, r5, lr}
 801c096:	4604      	mov	r4, r0
 801c098:	e005      	b.n	801c0a6 <SRAM_SPI_READ+0x12>
 801c09a:	2000      	movs	r0, #0
 801c09c:	f7fb fe70 	bl	8017d80 <hal_23lc1024_spi_txrx>
 801c0a0:	f804 0b01 	strb.w	r0, [r4], #1
 801c0a4:	4629      	mov	r1, r5
 801c0a6:	1e4d      	subs	r5, r1, #1
 801c0a8:	2900      	cmp	r1, #0
 801c0aa:	d1f6      	bne.n	801c09a <SRAM_SPI_READ+0x6>
 801c0ac:	bd38      	pop	{r3, r4, r5, pc}

0801c0ae <sramwrite>:
 801c0ae:	b570      	push	{r4, r5, r6, lr}
 801c0b0:	b082      	sub	sp, #8
 801c0b2:	460c      	mov	r4, r1
 801c0b4:	b672      	cpsid	i
 801c0b6:	f3c0 4647 	ubfx	r6, r0, #17, #8
 801c0ba:	f3c0 0010 	ubfx	r0, r0, #0, #17
 801c0be:	f5c0 3500 	rsb	r5, r0, #131072	@ 0x20000
 801c0c2:	4295      	cmp	r5, r2
 801c0c4:	bf28      	it	cs
 801c0c6:	4615      	movcs	r5, r2
 801c0c8:	2302      	movs	r3, #2
 801c0ca:	f88d 3000 	strb.w	r3, [sp]
 801c0ce:	0c03      	lsrs	r3, r0, #16
 801c0d0:	f88d 3001 	strb.w	r3, [sp, #1]
 801c0d4:	0a03      	lsrs	r3, r0, #8
 801c0d6:	f88d 3002 	strb.w	r3, [sp, #2]
 801c0da:	f88d 0003 	strb.w	r0, [sp, #3]
 801c0de:	4630      	mov	r0, r6
 801c0e0:	f7ff ff9c 	bl	801c01c <select_memory>
 801c0e4:	2104      	movs	r1, #4
 801c0e6:	4668      	mov	r0, sp
 801c0e8:	f7ff ffc8 	bl	801c07c <SRAM_SPI_WRITE>
 801c0ec:	4629      	mov	r1, r5
 801c0ee:	4620      	mov	r0, r4
 801c0f0:	f7ff ffc4 	bl	801c07c <SRAM_SPI_WRITE>
 801c0f4:	4630      	mov	r0, r6
 801c0f6:	f7ff ffae 	bl	801c056 <release>
 801c0fa:	b662      	cpsie	i
 801c0fc:	b002      	add	sp, #8
 801c0fe:	bd70      	pop	{r4, r5, r6, pc}

0801c100 <sramread>:
 801c100:	b570      	push	{r4, r5, r6, lr}
 801c102:	b082      	sub	sp, #8
 801c104:	460c      	mov	r4, r1
 801c106:	b672      	cpsid	i
 801c108:	f3c0 4647 	ubfx	r6, r0, #17, #8
 801c10c:	f3c0 0010 	ubfx	r0, r0, #0, #17
 801c110:	f5c0 3500 	rsb	r5, r0, #131072	@ 0x20000
 801c114:	4295      	cmp	r5, r2
 801c116:	bf28      	it	cs
 801c118:	4615      	movcs	r5, r2
 801c11a:	2303      	movs	r3, #3
 801c11c:	f88d 3000 	strb.w	r3, [sp]
 801c120:	0c03      	lsrs	r3, r0, #16
 801c122:	f88d 3001 	strb.w	r3, [sp, #1]
 801c126:	0a03      	lsrs	r3, r0, #8
 801c128:	f88d 3002 	strb.w	r3, [sp, #2]
 801c12c:	f88d 0003 	strb.w	r0, [sp, #3]
 801c130:	4630      	mov	r0, r6
 801c132:	f7ff ff73 	bl	801c01c <select_memory>
 801c136:	2104      	movs	r1, #4
 801c138:	4668      	mov	r0, sp
 801c13a:	f7ff ff9f 	bl	801c07c <SRAM_SPI_WRITE>
 801c13e:	4629      	mov	r1, r5
 801c140:	4620      	mov	r0, r4
 801c142:	f7ff ffa7 	bl	801c094 <SRAM_SPI_READ>
 801c146:	4630      	mov	r0, r6
 801c148:	f7ff ff85 	bl	801c056 <release>
 801c14c:	b662      	cpsie	i
 801c14e:	b002      	add	sp, #8
 801c150:	bd70      	pop	{r4, r5, r6, pc}
	...

0801c154 <__aeabi_uldivmod>:
 801c154:	b953      	cbnz	r3, 801c16c <__aeabi_uldivmod+0x18>
 801c156:	b94a      	cbnz	r2, 801c16c <__aeabi_uldivmod+0x18>
 801c158:	2900      	cmp	r1, #0
 801c15a:	bf08      	it	eq
 801c15c:	2800      	cmpeq	r0, #0
 801c15e:	bf1c      	itt	ne
 801c160:	f04f 31ff 	movne.w	r1, #4294967295	@ 0xffffffff
 801c164:	f04f 30ff 	movne.w	r0, #4294967295	@ 0xffffffff
 801c168:	f000 b96a 	b.w	801c440 <__aeabi_idiv0>
 801c16c:	f1ad 0c08 	sub.w	ip, sp, #8
 801c170:	e96d ce04 	strd	ip, lr, [sp, #-16]!
 801c174:	f000 f806 	bl	801c184 <__udivmoddi4>
 801c178:	f8dd e004 	ldr.w	lr, [sp, #4]
 801c17c:	e9dd 2302 	ldrd	r2, r3, [sp, #8]
 801c180:	b004      	add	sp, #16
 801c182:	4770      	bx	lr

0801c184 <__udivmoddi4>:
 801c184:	e92d 47f0 	stmdb	sp!, {r4, r5, r6, r7, r8, r9, sl, lr}
 801c188:	9d08      	ldr	r5, [sp, #32]
 801c18a:	460c      	mov	r4, r1
 801c18c:	2b00      	cmp	r3, #0
 801c18e:	d14e      	bne.n	801c22e <__udivmoddi4+0xaa>
 801c190:	4694      	mov	ip, r2
 801c192:	458c      	cmp	ip, r1
 801c194:	4686      	mov	lr, r0
 801c196:	fab2 f282 	clz	r2, r2
 801c19a:	d962      	bls.n	801c262 <__udivmoddi4+0xde>
 801c19c:	b14a      	cbz	r2, 801c1b2 <__udivmoddi4+0x2e>
 801c19e:	f1c2 0320 	rsb	r3, r2, #32
 801c1a2:	4091      	lsls	r1, r2
 801c1a4:	fa20 f303 	lsr.w	r3, r0, r3
 801c1a8:	fa0c fc02 	lsl.w	ip, ip, r2
 801c1ac:	4319      	orrs	r1, r3
 801c1ae:	fa00 fe02 	lsl.w	lr, r0, r2
 801c1b2:	ea4f 471c 	mov.w	r7, ip, lsr #16
 801c1b6:	fa1f f68c 	uxth.w	r6, ip
 801c1ba:	fbb1 f4f7 	udiv	r4, r1, r7
 801c1be:	ea4f 431e 	mov.w	r3, lr, lsr #16
 801c1c2:	fb07 1114 	mls	r1, r7, r4, r1
 801c1c6:	ea43 4301 	orr.w	r3, r3, r1, lsl #16
 801c1ca:	fb04 f106 	mul.w	r1, r4, r6
 801c1ce:	4299      	cmp	r1, r3
 801c1d0:	d90a      	bls.n	801c1e8 <__udivmoddi4+0x64>
 801c1d2:	eb1c 0303 	adds.w	r3, ip, r3
 801c1d6:	f104 30ff 	add.w	r0, r4, #4294967295	@ 0xffffffff
 801c1da:	f080 8113 	bcs.w	801c404 <__udivmoddi4+0x280>
 801c1de:	4299      	cmp	r1, r3
 801c1e0:	f240 8110 	bls.w	801c404 <__udivmoddi4+0x280>
 801c1e4:	3c02      	subs	r4, #2
 801c1e6:	4463      	add	r3, ip
 801c1e8:	1a59      	subs	r1, r3, r1
 801c1ea:	fa1f f38e 	uxth.w	r3, lr
 801c1ee:	fbb1 f0f7 	udiv	r0, r1, r7
 801c1f2:	fb07 1110 	mls	r1, r7, r0, r1
 801c1f6:	ea43 4301 	orr.w	r3, r3, r1, lsl #16
 801c1fa:	fb00 f606 	mul.w	r6, r0, r6
 801c1fe:	429e      	cmp	r6, r3
 801c200:	d90a      	bls.n	801c218 <__udivmoddi4+0x94>
 801c202:	eb1c 0303 	adds.w	r3, ip, r3
 801c206:	f100 31ff 	add.w	r1, r0, #4294967295	@ 0xffffffff
 801c20a:	f080 80fd 	bcs.w	801c408 <__udivmoddi4+0x284>
 801c20e:	429e      	cmp	r6, r3
 801c210:	f240 80fa 	bls.w	801c408 <__udivmoddi4+0x284>
 801c214:	4463      	add	r3, ip
 801c216:	3802      	subs	r0, #2
 801c218:	1b9b      	subs	r3, r3, r6
 801c21a:	ea40 4004 	orr.w	r0, r0, r4, lsl #16
 801c21e:	2100      	movs	r1, #0
 801c220:	b11d      	cbz	r5, 801c22a <__udivmoddi4+0xa6>
 801c222:	40d3      	lsrs	r3, r2
 801c224:	2200      	movs	r2, #0
 801c226:	e9c5 3200 	strd	r3, r2, [r5]
 801c22a:	e8bd 87f0 	ldmia.w	sp!, {r4, r5, r6, r7, r8, r9, sl, pc}
 801c22e:	428b      	cmp	r3, r1
 801c230:	d905      	bls.n	801c23e <__udivmoddi4+0xba>
 801c232:	b10d      	cbz	r5, 801c238 <__udivmoddi4+0xb4>
 801c234:	e9c5 0100 	strd	r0, r1, [r5]
 801c238:	2100      	movs	r1, #0
 801c23a:	4608      	mov	r0, r1
 801c23c:	e7f5      	b.n	801c22a <__udivmoddi4+0xa6>
 801c23e:	fab3 f183 	clz	r1, r3
 801c242:	2900      	cmp	r1, #0
 801c244:	d146      	bne.n	801c2d4 <__udivmoddi4+0x150>
 801c246:	42a3      	cmp	r3, r4
 801c248:	d302      	bcc.n	801c250 <__udivmoddi4+0xcc>
 801c24a:	4290      	cmp	r0, r2
 801c24c:	f0c0 80f1 	bcc.w	801c432 <__udivmoddi4+0x2ae>
 801c250:	1a86      	subs	r6, r0, r2
 801c252:	eb64 0303 	sbc.w	r3, r4, r3
 801c256:	2001      	movs	r0, #1
 801c258:	2d00      	cmp	r5, #0
 801c25a:	d0e6      	beq.n	801c22a <__udivmoddi4+0xa6>
 801c25c:	e9c5 6300 	strd	r6, r3, [r5]
 801c260:	e7e3      	b.n	801c22a <__udivmoddi4+0xa6>
 801c262:	2a00      	cmp	r2, #0
 801c264:	f040 8091 	bne.w	801c38a <__udivmoddi4+0x206>
 801c268:	eba1 040c 	sub.w	r4, r1, ip
 801c26c:	ea4f 481c 	mov.w	r8, ip, lsr #16
 801c270:	fa1f f78c 	uxth.w	r7, ip
 801c274:	2101      	movs	r1, #1
 801c276:	fbb4 f6f8 	udiv	r6, r4, r8
 801c27a:	ea4f 431e 	mov.w	r3, lr, lsr #16
 801c27e:	fb08 4416 	mls	r4, r8, r6, r4
 801c282:	ea43 4304 	orr.w	r3, r3, r4, lsl #16
 801c286:	fb07 f006 	mul.w	r0, r7, r6
 801c28a:	4298      	cmp	r0, r3
 801c28c:	d908      	bls.n	801c2a0 <__udivmoddi4+0x11c>
 801c28e:	eb1c 0303 	adds.w	r3, ip, r3
 801c292:	f106 34ff 	add.w	r4, r6, #4294967295	@ 0xffffffff
 801c296:	d202      	bcs.n	801c29e <__udivmoddi4+0x11a>
 801c298:	4298      	cmp	r0, r3
 801c29a:	f200 80ce 	bhi.w	801c43a <__udivmoddi4+0x2b6>
 801c29e:	4626      	mov	r6, r4
 801c2a0:	1a1c      	subs	r4, r3, r0
 801c2a2:	fa1f f38e 	uxth.w	r3, lr
 801c2a6:	fbb4 f0f8 	udiv	r0, r4, r8
 801c2aa:	fb08 4410 	mls	r4, r8, r0, r4
 801c2ae:	ea43 4304 	orr.w	r3, r3, r4, lsl #16
 801c2b2:	fb00 f707 	mul.w	r7, r0, r7
 801c2b6:	429f      	cmp	r7, r3
 801c2b8:	d908      	bls.n	801c2cc <__udivmoddi4+0x148>
 801c2ba:	eb1c 0303 	adds.w	r3, ip, r3
 801c2be:	f100 34ff 	add.w	r4, r0, #4294967295	@ 0xffffffff
 801c2c2:	d202      	bcs.n	801c2ca <__udivmoddi4+0x146>
 801c2c4:	429f      	cmp	r7, r3
 801c2c6:	f200 80b1 	bhi.w	801c42c <__udivmoddi4+0x2a8>
 801c2ca:	4620      	mov	r0, r4
 801c2cc:	1bdb      	subs	r3, r3, r7
 801c2ce:	ea40 4006 	orr.w	r0, r0, r6, lsl #16
 801c2d2:	e7a5      	b.n	801c220 <__udivmoddi4+0x9c>
 801c2d4:	f1c1 0620 	rsb	r6, r1, #32
 801c2d8:	408b      	lsls	r3, r1
 801c2da:	fa22 f706 	lsr.w	r7, r2, r6
 801c2de:	431f      	orrs	r7, r3
 801c2e0:	fa20 fc06 	lsr.w	ip, r0, r6
 801c2e4:	fa04 f301 	lsl.w	r3, r4, r1
 801c2e8:	ea43 030c 	orr.w	r3, r3, ip
 801c2ec:	40f4      	lsrs	r4, r6
 801c2ee:	fa00 f801 	lsl.w	r8, r0, r1
 801c2f2:	0c38      	lsrs	r0, r7, #16
 801c2f4:	ea4f 4913 	mov.w	r9, r3, lsr #16
 801c2f8:	fbb4 fef0 	udiv	lr, r4, r0
 801c2fc:	fa1f fc87 	uxth.w	ip, r7
 801c300:	fb00 441e 	mls	r4, r0, lr, r4
 801c304:	ea49 4404 	orr.w	r4, r9, r4, lsl #16
 801c308:	fb0e f90c 	mul.w	r9, lr, ip
 801c30c:	45a1      	cmp	r9, r4
 801c30e:	fa02 f201 	lsl.w	r2, r2, r1
 801c312:	d90a      	bls.n	801c32a <__udivmoddi4+0x1a6>
 801c314:	193c      	adds	r4, r7, r4
 801c316:	f10e 3aff 	add.w	sl, lr, #4294967295	@ 0xffffffff
 801c31a:	f080 8085 	bcs.w	801c428 <__udivmoddi4+0x2a4>
 801c31e:	45a1      	cmp	r9, r4
 801c320:	f240 8082 	bls.w	801c428 <__udivmoddi4+0x2a4>
 801c324:	f1ae 0e02 	sub.w	lr, lr, #2
 801c328:	443c      	add	r4, r7
 801c32a:	eba4 0409 	sub.w	r4, r4, r9
 801c32e:	fa1f f983 	uxth.w	r9, r3
 801c332:	fbb4 f3f0 	udiv	r3, r4, r0
 801c336:	fb00 4413 	mls	r4, r0, r3, r4
 801c33a:	ea49 4404 	orr.w	r4, r9, r4, lsl #16
 801c33e:	fb03 fc0c 	mul.w	ip, r3, ip
 801c342:	45a4      	cmp	ip, r4
 801c344:	d907      	bls.n	801c356 <__udivmoddi4+0x1d2>
 801c346:	193c      	adds	r4, r7, r4
 801c348:	f103 30ff 	add.w	r0, r3, #4294967295	@ 0xffffffff
 801c34c:	d268      	bcs.n	801c420 <__udivmoddi4+0x29c>
 801c34e:	45a4      	cmp	ip, r4
 801c350:	d966      	bls.n	801c420 <__udivmoddi4+0x29c>
 801c352:	3b02      	subs	r3, #2
 801c354:	443c      	add	r4, r7
 801c356:	ea43 400e 	orr.w	r0, r3, lr, lsl #16
 801c35a:	fba0 9302 	umull	r9, r3, r0, r2
 801c35e:	eba4 040c 	sub.w	r4, r4, ip
 801c362:	429c      	cmp	r4, r3
 801c364:	46ce      	mov	lr, r9
 801c366:	469c      	mov	ip, r3
 801c368:	d352      	bcc.n	801c410 <__udivmoddi4+0x28c>
 801c36a:	d04f      	beq.n	801c40c <__udivmoddi4+0x288>
 801c36c:	b155      	cbz	r5, 801c384 <__udivmoddi4+0x200>
 801c36e:	ebb8 030e 	subs.w	r3, r8, lr
 801c372:	eb64 040c 	sbc.w	r4, r4, ip
 801c376:	fa04 f606 	lsl.w	r6, r4, r6
 801c37a:	40cb      	lsrs	r3, r1
 801c37c:	40cc      	lsrs	r4, r1
 801c37e:	431e      	orrs	r6, r3
 801c380:	e9c5 6400 	strd	r6, r4, [r5]
 801c384:	2100      	movs	r1, #0
 801c386:	e8bd 87f0 	ldmia.w	sp!, {r4, r5, r6, r7, r8, r9, sl, pc}
 801c38a:	f1c2 0320 	rsb	r3, r2, #32
 801c38e:	fa20 f103 	lsr.w	r1, r0, r3
 801c392:	fa0c fc02 	lsl.w	ip, ip, r2
 801c396:	fa24 f303 	lsr.w	r3, r4, r3
 801c39a:	4094      	lsls	r4, r2
 801c39c:	430c      	orrs	r4, r1
 801c39e:	ea4f 481c 	mov.w	r8, ip, lsr #16
 801c3a2:	fa00 fe02 	lsl.w	lr, r0, r2
 801c3a6:	fa1f f78c 	uxth.w	r7, ip
 801c3aa:	fbb3 f0f8 	udiv	r0, r3, r8
 801c3ae:	fb08 3110 	mls	r1, r8, r0, r3
 801c3b2:	0c23      	lsrs	r3, r4, #16
 801c3b4:	ea43 4301 	orr.w	r3, r3, r1, lsl #16
 801c3b8:	fb00 f107 	mul.w	r1, r0, r7
 801c3bc:	4299      	cmp	r1, r3
 801c3be:	d908      	bls.n	801c3d2 <__udivmoddi4+0x24e>
 801c3c0:	eb1c 0303 	adds.w	r3, ip, r3
 801c3c4:	f100 36ff 	add.w	r6, r0, #4294967295	@ 0xffffffff
 801c3c8:	d22c      	bcs.n	801c424 <__udivmoddi4+0x2a0>
 801c3ca:	4299      	cmp	r1, r3
 801c3cc:	d92a      	bls.n	801c424 <__udivmoddi4+0x2a0>
 801c3ce:	3802      	subs	r0, #2
 801c3d0:	4463      	add	r3, ip
 801c3d2:	1a5b      	subs	r3, r3, r1
 801c3d4:	b2a4      	uxth	r4, r4
 801c3d6:	fbb3 f1f8 	udiv	r1, r3, r8
 801c3da:	fb08 3311 	mls	r3, r8, r1, r3
 801c3de:	ea44 4403 	orr.w	r4, r4, r3, lsl #16
 801c3e2:	fb01 f307 	mul.w	r3, r1, r7
 801c3e6:	42a3      	cmp	r3, r4
 801c3e8:	d908      	bls.n	801c3fc <__udivmoddi4+0x278>
 801c3ea:	eb1c 0404 	adds.w	r4, ip, r4
 801c3ee:	f101 36ff 	add.w	r6, r1, #4294967295	@ 0xffffffff
 801c3f2:	d213      	bcs.n	801c41c <__udivmoddi4+0x298>
 801c3f4:	42a3      	cmp	r3, r4
 801c3f6:	d911      	bls.n	801c41c <__udivmoddi4+0x298>
 801c3f8:	3902      	subs	r1, #2
 801c3fa:	4464      	add	r4, ip
 801c3fc:	1ae4      	subs	r4, r4, r3
 801c3fe:	ea41 4100 	orr.w	r1, r1, r0, lsl #16
 801c402:	e738      	b.n	801c276 <__udivmoddi4+0xf2>
 801c404:	4604      	mov	r4, r0
 801c406:	e6ef      	b.n	801c1e8 <__udivmoddi4+0x64>
 801c408:	4608      	mov	r0, r1
 801c40a:	e705      	b.n	801c218 <__udivmoddi4+0x94>
 801c40c:	45c8      	cmp	r8, r9
 801c40e:	d2ad      	bcs.n	801c36c <__udivmoddi4+0x1e8>
 801c410:	ebb9 0e02 	subs.w	lr, r9, r2
 801c414:	eb63 0c07 	sbc.w	ip, r3, r7
 801c418:	3801      	subs	r0, #1
 801c41a:	e7a7      	b.n	801c36c <__udivmoddi4+0x1e8>
 801c41c:	4631      	mov	r1, r6
 801c41e:	e7ed      	b.n	801c3fc <__udivmoddi4+0x278>
 801c420:	4603      	mov	r3, r0
 801c422:	e798      	b.n	801c356 <__udivmoddi4+0x1d2>
 801c424:	4630      	mov	r0, r6
 801c426:	e7d4      	b.n	801c3d2 <__udivmoddi4+0x24e>
 801c428:	46d6      	mov	lr, sl
 801c42a:	e77e      	b.n	801c32a <__udivmoddi4+0x1a6>
 801c42c:	4463      	add	r3, ip
 801c42e:	3802      	subs	r0, #2
 801c430:	e74c      	b.n	801c2cc <__udivmoddi4+0x148>
 801c432:	4606      	mov	r6, r0
 801c434:	4623      	mov	r3, r4
 801c436:	4608      	mov	r0, r1
 801c438:	e70e      	b.n	801c258 <__udivmoddi4+0xd4>
 801c43a:	3e02      	subs	r6, #2
 801c43c:	4463      	add	r3, ip
 801c43e:	e72f      	b.n	801c2a0 <__udivmoddi4+0x11c>

0801c440 <__aeabi_idiv0>:
 801c440:	4770      	bx	lr
 801c442:	bf00      	nop

0801c444 <_ctype_>:
 801c444:	2000 2020 2020 2020 2020 0808 0808 2008     .         ..... 
 801c454:	2020 2020 2020 2020 2020 2020 2020 2020                     
 801c464:	0820 1010 1010 1010 1010 1010 1010 1010      ...............
 801c474:	0410 0404 0404 0404 0404 1004 1010 1010     ................
 801c484:	1010 4141 4141 4141 0101 0101 0101 0101     ..AAAAAA........
 801c494:	0101 0101 0101 0101 0101 0101 1010 1010     ................
 801c4a4:	1010 4242 4242 4242 0202 0202 0202 0202     ..BBBBBB........
 801c4b4:	0202 0202 0202 0202 0202 0202 1010 1010     ................
 801c4c4:	0020 0000                                    ...

0801c4c8 <a>:
 801c4c8:	0000 0000 0a92 3f06 0fdb 3fc9 0a92 3f86     .......?...?...?

0801c4d8 <a>:
 801c4d8:	0000 0000 0fdb 3f49                         ......I?

0801c4e0 <b>:
 801c4e0:	0fdb 3fc9 0fdb 3f49                         ...?..I?

0801c4e8 <cmdtab>:
 801c4e8:	c96c 0801 0000 0000 3cd5 0801 c974 0801     l........<..t...
 801c4f8:	0000 0000 347d 0801 c97c 0801 0001 0000     ....}4..|.......
 801c508:	357d 0801 c984 0801 0001 0000 35bd 0801     }5...........5..
 801c518:	c98c 0801 0000 0000 3605 0801 c994 0801     .........6......
 801c528:	0001 0000 37e9 0801 c99c 0801 0000 0000     .....7..........
 801c538:	397d 0801 c9a4 0801 0001 0000 3a05 0801     }9...........:..
 801c548:	c9ac 0801 0000 0000 3b15 0801 c9b0 0801     .........;......
 801c558:	0000 0000 3605 0801 c9b4 0801 0000 0000     .....6..........
 801c568:	3239 0801 c9bc 0801 0001 0000 3331 0801     92..........13..
 801c578:	c9c0 0801 0001 0000 3929 0801 c9c4 0801     ........)9......
 801c588:	0000 0000 325d 0801 c9c8 0801 0000 0000     ....]2..........
 801c598:	34e9 0801 c9d0 0801 0001 0000 3ad5 0801     .4...........:..
 801c5a8:	c9d8 0801 0001 0000 3c95 0801 c9dc 0801     .........<......
 801c5b8:	0001 0000 3cdd 0801 c9e0 0801 0001 0000     .....<..........
 801c5c8:	3ec1 0801 c9e8 0801 0000 0000 3d2d 0801     .>..........-=..
 801c5d8:	c9ec 0801 0000 0000 35c5 0801 c9f4 0801     .........5......
 801c5e8:	0000 0000 3e99 0801 c9fc 0801 0000 0000     .....>..........
 801c5f8:	3471 0801 d020 0801 d028 0801 d030 0801     q4.. ...(...0...
 801c608:	d038 0801 d040 0801 d048 0801 d050 0801     8...@...H...P...
 801c618:	d058 0801                                   X...

0801c61c <AHBPrescTable>:
	...
 801c624:	0201 0403 0706 0908                         ........

0801c62c <APBPrescTable>:
 801c62c:	0000 0000 0201 0403                         ........

0801c634 <sd_card_drv>:
 801c634:	7b31 0801 79e5 0801 76d9 0801 7895 0801     1{...y...v...x..
 801c644:	7375 0801 0001 0000 0003 0000 0005 0000     us..............
 801c654:	0007 0000 0009 0000 000e 0000 0010 0000     ................
 801c664:	0012 0000 0014 0000 0016 0000 0018 0000     ................
 801c674:	001c 0000 001e 0000 0000 0006 0001 0000     ................
 801c684:	0000 0000                                   ....

0801c688 <w25qxxx_drv>:
 801c688:	bd21 0801 bdc1 0801 bfb9 0801 bc85 0801     !...............

0801c698 <w25qxxx_drv4K>:
 801c698:	bd8f 0801 bf85 0801 3130 3332 3534 3736     ........01234567
 801c6a8:	3938 6261 6463 6665 0000 0000 3130 3332     89abcdef....0123
 801c6b8:	3534 3736 3938 4241 4443 4645 0000 0000     456789ABCDEF....
 801c6c8:	6e28 6c75 296c 0000 6f6e 2074 6f66 6e75     (null)..not foun
 801c6d8:	2064 7325 000a 0000 622e 7373 0000 0000     d %s.....bss....
 801c6e8:	672e 746f 0000 0000 692e 696e 5f74 7261     .got.....init_ar
 801c6f8:	6172 0079 0920 0a0d 0000 0000 3130 3332     ray. .......0123
 801c708:	3534 3736 3938 4241 4443 4645 4847 4a49     456789ABCDEFGHIJ
 801c718:	4c4b 4e4d 504f 5251 5453 5655 5857 0059     KLMNOPQRSTUVWXY.
 801c728:	2f2e 0000 2e2e 002f 2d2d 2d2d 2d2d 2d2d     ./..../.--------
 801c738:	2d2d 2d2d 2d2d 2d2d 2d2d 2d2d 2d2d 2d2d     ----------------
 801c748:	2d2d 2d2d 2d2d 2d2d 2d2d 2d2d 2d2d 2d2d     ----------------
 801c758:	2d2d 0000 5b1b 3133 313b 006d 0a0a 7325     --...[31;1m...%s
 801c768:	7325 250a 0a73 7325 250a 0a73 7325 250a     %s.%s.%s.%s.%s.%
 801c778:	0a73 7325 250a 0a73 7325 250a 0a73 0000     s.%s.%s.%s.%s...
 801c788:	5b1b 6d30 000a 0000 2020 2020 2020 5320     .[0m....       S
 801c798:	4d54 3233 5620 7265 6973 6e6f 6220 2079     TM32 Version by 
 801c7a8:	6144 696e 6c65 5120 6975 746e 7265 096f     Daniel Quintero.
 801c7b8:	2020 0020 2020 2d20 202d 2020 2d20 202d        .   --    -- 
 801c7c8:	2020 2d2d 2d2d 202d 2020 2d20 2020 2d20       -----    -   -
 801c7d8:	2020 2020 2d20 2d2d 202d 2020 2020 0000          ----     ..
 801c7e8:	2020 2f20 2f20 2020 205c 205c 7c20 2020        / /  \ \  |  
 801c7f8:	2020 7c20 2020 207c 207c 205c 207c 5c20        |  | | \ |  \
 801c808:	2020 2d2d 2020 202f 2020 0000 2020 2020       --  /   ..    
 801c818:	202f 5c2f 5c20 2020 2020 7c5f 7c20 205f     / /\ \    _| |_ 
 801c828:	2020 207c 205c 2020 207c 7c20 7c20 2020       | \   |  | |  
 801c838:	207c 207c 2020 0000 2020 2020 205c 2f5c     | |   ..    \ \/
 801c848:	2f20 2020 2020 7c20 7c20 2020 2020 207c      /     | |    | 
 801c858:	5c20 207c 207c 7c20 7c20 2020 207c 207c      \| |  | |  | | 
 801c868:	2020 0000 2020 5c20 5c20 2020 202f 202f       ..   \ \  / / 
 801c878:	7c20 5f5f 5f20 7c5f 2020 207c 205c 207c      |__ __|  | \ | 
 801c888:	207c 7c20 7c20 2020 207c 207c 2020 0000     |  | |  | |   ..
 801c898:	2020 5f20 205f 2020 5f20 205f 2020 5f5f        __    __   __
 801c8a8:	5f5f 205f 2020 5f20 2020 5f20 2020 2020     ___    _   _    
 801c8b8:	205f 2020 5f20 2020 2020 0000 6557 636c     _    _    ..Welc
 801c8c8:	6d6f 2065 6f74 5820 6e69 2175 000a 0000     ome to Xinu!....
 801c8d8:	7325 0a0a 0000 0000 7378 2068 2024 0000     %s......xsh $ ..
 801c8e8:	7953 746e 7861 6520 7272 726f 000a 0000     Syntax error....
 801c8f8:	7325 000a 6f63 6d6d 6e61 2064 7325 6e20     %s..command %s n
 801c908:	746f 6620 756f 646e 000a 0000 6143 6e6e     ot found....Cann
 801c918:	746f 7220 6465 7269 6365 2074 2f49 204f     ot redirect I/O 
 801c928:	726f 6220 6361 676b 6f72 6e75 2064 2061     or background a 
 801c938:	7562 6c69 6974 0a6e 0000 0000 6143 6e6e     builtin.....Cann
 801c948:	746f 6320 6572 7461 2065 7270 636f 7365     ot create proces
 801c958:	0a73 0000 6853 6c65 206c 6c63 736f 6465     s...Shell closed
 801c968:	000a 0000 6572 6f62 746f 0000 6564 6476     ....reboot..devd
 801c978:	6d75 0070 6365 6f68 0000 0000 7865 7469     ump.echo....exit
 801c988:	0000 0000 6568 706c 0000 0000 696b 6c6c     ....help....kill
 801c998:	0000 0000 656d 646d 6d75 0070 656d 736d     ....memdump.mems
 801c9a8:	6174 0074 7370 0000 003f 0000 6c62 6e69     tat.ps..?...blin
 801c9b8:	006b 0000 6463 0000 736c 0000 6163 0074     k...cd..ls..cat.
 801c9c8:	7564 706d 0000 0000 6b6d 6964 0072 0000     dump....mkdir...
 801c9d8:	7770 0064 6d72 0000 6f74 6375 0068 0000     pwd.rm..touch...
 801c9e8:	7572 006e 6f66 6d72 7461 0000 6574 7473     run.format..test
 801c9f8:	0000 0000 7063 0075 003e 0000 0077 0000     ....cpu.>...w...
 801ca08:	7325 6620 756f 646e 0a21 0000 002e 0000     %s found!.......
 801ca18:	6f6e 2074 2061 6964 6572 7463 726f 0a79     not a directory.
 801ca28:	0000 0000 7325 6e20 746f 6620 756f 646e     ....%s not found
 801ca38:	0a21 0000 654d 7361 7275 6d65 6e65 2074     !...Measurement 
 801ca48:	6425 203a 6f74 6174 3a6c 2520 2c64 6920     %d: total: %d, i
 801ca58:	6c64 3a65 2520 0a64 0000 0000 7641 7265     dle: %d.....Aver
 801ca68:	6761 2065 5043 2055 7355 6761 3a65 2520     age CPU Usage: %
 801ca78:	2564 0a25 0000 0000 6f4e 6120 6772 6d75     d%%.....No argum
 801ca88:	6e65 7374 6120 6c6c 776f 6465 000a 0000     ents allowed....
 801ca98:	6544 6976 6563 2020 2020 4e20 6d61 2065     Device     Name 
 801caa8:	2020 2020 694d 6f6e 0a72 0000 2d2d 2d2d         Minor...----
 801cab8:	2d2d 2d20 2d2d 2d2d 2d2d 2d2d 2d2d 202d     -- ------------ 
 801cac8:	2d2d 2d2d 0a2d 0000 3425 2064 2020 2d25     -----...%4d   %-
 801cad8:	3231 2073 3325 0a64 0000 0000 6973 657a     12s %3d.....size
 801cae8:	6620 6c69 2065 6425 000a 0000 7325 0000      file %d....%s..
 801caf8:	2520 0073 6f66 6d72 7461 6e69 2e67 2e2e      %s.formating...
 801cb08:	0000 0000 6f66 6d72 7461 6f20 0a6b 0000     ....format ok...
 801cb18:	7265 6f72 2072 6f66 6d72 7461 6e69 2e67     error formating.
 801cb28:	2e2e 0000 2d2d 6568 706c 0000 7355 3a65     ....--help..Use:
 801cb38:	000a 0000 2509 2073 635b 6d6f 616d 646e     .....%s [command
 801cb48:	0a5d 0000 6544 6373 6972 7470 6f69 3a6e     ]...Description:
 801cb58:	000a 0000 5009 6f72 6976 6564 2073 2061     .....Provides a 
 801cb68:	696c 7473 6f20 2066 6873 6c65 206c 6f63     list of shell co
 801cb78:	6d6d 6e61 7364 6f20 0a72 0000 6809 6c65     mmands or....hel
 801cb88:	2070 6e69 6f66 6d72 7461 6f69 206e 6f66     p information fo
 801cb98:	2072 2061 7073 6365 6669 6369 6320 6d6f     r a specific com
 801cba8:	616d 646e 000a 0000 704f 6974 6e6f 3a73     mand....Options:
 801cbb8:	000a 0000 6309 6d6f 616d 646e 7309 6570     .....command.spe
 801cbc8:	6963 6966 2063 6f63 6d6d 6e61 2064 6f66     cific command fo
 801cbd8:	2072 6877 6369 2068 6f74 000a 0909 6964     r which to....di
 801cbe8:	7073 616c 2079 6568 706c 6920 666e 726f     splay help infor
 801cbf8:	616d 6974 6e6f 000a 2d09 682d 6c65 0970     mation...--help.
 801cc08:	6964 7073 616c 2079 6874 7369 6820 6c65     display this hel
 801cc18:	2070 6e61 2064 7865 7469 000a 7325 203a     p and exit..%s: 
 801cc28:	6f74 206f 616d 796e 6120 6772 6d75 6e65     too many argumen
 801cc38:	7374 000a 7254 2079 2527 2073 2d2d 6568     ts..Try '%s --he
 801cc48:	706c 2027 6f66 2072 6f6d 6572 6920 666e     lp' for more inf
 801cc58:	726f 616d 6974 6e6f 000a 0000 7325 203a     ormation....%s: 
 801cc68:	6f6e 7320 6375 2068 6f63 6d6d 6e61 2064     no such command 
 801cc78:	7361 2720 7325 0a27 0000 0000 730a 6568     as '%s'......she
 801cc88:	6c6c 6320 6d6f 616d 646e 2073 7261 3a65     ll commands are:
 801cc98:	0a0a 0000 7355 6761 3a65 2520 2073 4950     ....Usage: %s PI
 801cca8:	0a44 000a 7409 7265 696d 616e 6574 2073     D....terminates 
 801ccb8:	2061 7270 636f 7365 0a73 0000 5009 4449     a process....PID
 801ccc8:	0920 6874 2065 4449 6f20 2066 2061 7270      .the ID of a pr
 801ccd8:	636f 7365 2073 6f74 7420 7265 696d 616e     ocess to termina
 801cce8:	6574 000a 7325 203a 6e69 6f63 7272 6365     te..%s: incorrec
 801ccf8:	2074 7261 7567 656d 746e 000a 7325 203a     t argument..%s: 
 801cd08:	6f6e 2d6e 6964 6967 2074 6e69 7020 6f72     non-digit in pro
 801cd18:	6563 7373 4920 0a44 0000 0000 7325 203a     cess ID.....%s: 
 801cd28:	6163 6e6e 746f 6b20 6c69 206c 6874 2065     cannot kill the 
 801cd38:	756e 6c6c 7020 6f72 6563 7373 000a 0000     null process....
 801cd48:	7325 203a 6163 6e6e 746f 6b20 6c69 206c     %s: cannot kill 
 801cd58:	7270 636f 7365 2073 6425 000a 7325 3c20     process %d..%s <
 801cd68:	4944 3e52 0a0d 0000 7325 5b20 6425 6220     DIR>....%s [%d b
 801cd78:	7479 7365 0d5d 000a 7355 6761 3a65 2520     ytes]...Usage: %
 801cd88:	2073 656d 646d 6d75 2070 745b 7865 2c74     s memdump [text,
 801cd98:	6164 6174 622c 7373 0a5d 000a 7246 6565     data,bss]...Free
 801cda8:	4c20 7369 3a74 000a 6c42 636f 206b 6461      List:..Block ad
 801cdb8:	7264 7365 2073 4c20 6e65 7467 2068 6428     dress  Length (d
 801cdc8:	6365 2029 4c20 6e65 7467 2068 6828 7865     ec)  Length (hex
 801cdd8:	0a29 0000 2d2d 2d2d 2d2d 2d2d 2d2d 2d2d     )...------------
 801cde8:	202d 2d20 2d2d 2d2d 2d2d 2d2d 2d2d 202d     -  ------------ 
 801cdf8:	2d20 2d2d 2d2d 2d2d 2d2d 2d2d 0a2d 0000      ------------...
 801ce08:	2020 7830 3025 7838 2020 2020 3925 2064       0x%08x    %9d 
 801ce18:	2020 2020 7830 3025 7838 000a 7375 3a65         0x%08x..use:
 801ce28:	2520 2073 0a0a 0000 4409 7369 6c70 7961      %s .....Display
 801ce38:	2073 6874 2065 7563 7272 6e65 2074 656d     s the current me
 801ce48:	6f6d 7972 7520 6573 6120 646e 7020 6972     mory use and pri
 801ce58:	746e 2073 6874 0a65 0000 0000 6609 6572     nts the......fre
 801ce68:	2065 696c 7473 0a2e 0000 0000 2d09 682d     e list.......--h
 801ce78:	6c65 0970 6409 7369 6c70 7961 7420 6968     elp..display thi
 801ce88:	2073 6568 706c 6120 646e 6520 6978 0a74     s help and exit.
 801ce98:	0000 0000 6220 7479 7365 6f20 2066 7266     .... bytes of fr
 801cea8:	6565 6d20 6d65 726f 2e79 2020 7246 6565     ee memory.  Free
 801ceb8:	6c20 7369 3a74 2520 3031 0a64 0000 0000      list: %10d.....
 801cec8:	6220 7479 7365 6f20 2066 7266 6565 6d20      bytes of free m
 801ced8:	6d65 726f 2e79 2020 7246 6565 6c20 7369     emory.  Free lis
 801cee8:	3274 203a 3125 6430 000a 0000 6964 2072     t2: %10d....dir 
 801cef8:	6f66 6e75 2064 7325 000a 0000 7355 3a65     found %s....Use:
 801cf08:	2520 0a73 000a 0000 4409 7369 6c70 7961      %s......Display
 801cf18:	2073 6e69 6f66 6d72 7461 6f69 206e 6261     s information ab
 801cf28:	756f 2074 7572 6e6e 6e69 2067 7270 636f     out running proc
 801cf38:	7365 6573 0a73 0000 2d09 682d 6c65 0970     esses....--help.
 801cf48:	6420 7369 6c70 7961 7420 6968 2073 6568      display this he
 801cf58:	706c 6120 646e 6520 6978 0a74 0000 0000     lp and exit.....
 801cf68:	7453 7461 0065 0000 614e 656d 0000 0000     State...Name....
 801cf78:	6950 0064 3325 2073 2d25 3631 2073 3525     Pid.%3s %-16s %5
 801cf88:	2073 3425 2073 3425 2073 3125 7330 2520     s %4s %4s %10s %
 801cf98:	312d 7330 2520 3031 0a73 0000 7453 6361     -10s %10s...Stac
 801cfa8:	206b 6953 657a 0000 7453 6361 206b 7450     k Size..Stack Pt
 801cfb8:	0072 0000 7453 6361 206b 6142 6573 0000     r...Stack Base..
 801cfc8:	7050 6469 0000 0000 7250 6f69 0000 0000     Ppid....Prio....
 801cfd8:	2d2d 2d2d 002d 0000 2d2d 2d2d 2d2d 2d2d     -----...--------
 801cfe8:	2d2d 2d2d 2d2d 2d2d 0000 0000 2d2d 002d     --------....---.
 801cff8:	3325 2064 2d25 3631 2073 7325 2520 6434     %3d %-16s %s %4d
 801d008:	2520 6434 3020 2578 3830 2058 7830 3025      %4d 0x%08X 0x%0
 801d018:	5838 2520 6438 000a 7266 6565 0020 0000     8X %8d..free ...
 801d028:	7563 7272 0020 0000 6572 6461 0079 0000     curr ...ready...
 801d038:	6572 7663 0020 0000 6c73 6565 0070 0000     recv ...sleep...
 801d048:	7573 7073 0020 0000 6177 7469 0020 0000     susp ...wait ...
 801d058:	7472 6d69 0065 0000 7265 6f72 2072 6572     rtime...error re
 801d068:	6f6d 6576 0a20 0000 6970 3a64 2520 0a64     move ...pid: %d.
 801d078:	0000 0000 7265 6f72 2072 6f6c 6461 6e69     ....error loadin
 801d088:	2067 6c65 2066 7270 636f 7365 2073 2520     g elf process  %
 801d098:	2064 7325 000a 0000 6620 6572 3a65 2520     d %s.... free: %
 801d0a8:	2064 7962 6574 0a73 0000 0000 6572 6461     d bytes.....read
 801d0b8:	7542 6666 7265 255b 5d64 3d20 2520 0a64     Buffer[%d] = %d.
 801d0c8:	0000 0000 7245 6f72 3a72 4e20 206f 6573     ....Error: No se
 801d0d8:	7020 6475 206f 6c61 636f 7261 6d20 6d65      pudo alocar mem
 801d0e8:	726f 6169 000a 0000 530a 6174 7472 6e69     oria.....Startin
 801d0f8:	2067 4952 4353 562d 5620 0a4d 0d0a 0000     g RISC-V VM.....
 801d108:	6966 656c 6620 756f 646e 2520 0a73 0000     file found %s...
 801d118:	2020 7325 0909 6920 3a64 2520 0a64 0000       %s.. id: %d...
 801d128:	616e 656d 7073 6361 3a65 6420 7665 6369     namespace: devic
 801d138:	2065 616e 656d 2520 2073 6f74 206f 6f6c     e name %s too lo
 801d148:	676e 0a0d 0000 0000 616e 656d 7073 6361     ng......namespac
 801d158:	3a65 6320 6e61 6f6e 2074 6f6d 6e75 2074     e: cannot mount 
 801d168:	6564 6976 6563 2520 0d64 000a 642f 7665     device %d.../dev
 801d178:	002f 0000 7277 7469 2065 7263 736f 2073     /...write cross 
 801d188:	6f62 6e75 6164 7972 202c 666f 3a73 7825     boundary, ofs:%x
 801d198:	7320 7a69 3a65 7825 000a 0000 6572 6461      size:%x....read
 801d1a8:	6320 6f72 7373 6220 756f 646e 7261 2c79      cross boundary,
 801d1b8:	6f20 7366 253a 2078 6973 657a 253a 0a78      ofs:%x size:%x.
 801d1c8:	0000 0000 4f43 534e 4c4f 0045 554e 4c4c     ....CONSOLE.NULL
 801d1d8:	4544 0056 414e 454d 5053 4341 0045 0000     DEV.NAMESPACE...
 801d1e8:	454c 0044 3257 5135 3231 0038 666f 7366     LED.W25Q128.offs
 801d1f8:	7465 203a 3025 7838 000a 0000 6325 0000     et: %08x....%c..
 801d208:	3025 7832 0020 0000 3025 7838 0020 0000     %02x ...%08x ...
 801d218:	7c20 0000 007c 0000 2020 7325 000a 0000      |..|...  %s....
 801d228:	2020 3025 7834 0020 2520 3230 0078 0000       %04x . %02x...
 801d238:	6c62 6e69 326b 000a 5245 4f52 3a52 4620     blink2..ERROR: F
 801d248:	6961 656c 2064 6f74 6920 696e 2074 6966     ailed to init fi
 801d258:	656c 7320 7379 6574 0a6d 0000 6166 3374     le system...fat3
 801d268:	0032 0000 6873 6c65 006c 0000 6c62 6e69     2...shell...blin
 801d278:	316b 000a 6c62 6e69 326b 0000 656b 6e72     k1..blink2..kern
 801d288:	6c65 0000 7571 6e69 6574 6f72 0000 0000     el..quintero....
 801d298:	6164 696e 6c65 0000 700a 6f72 6563 7373     daniel...process
 801d2a8:	6820 7361 6320 6d6f 6c70 7465 6465 0a2e      has completed..
 801d2b8:	0000 0000 3431 303a 3a34 3332 0000 0000     ....14:04:23....
 801d2c8:	614a 206e 3431 3220 3230 0035 7542 6c69     Jan 14 2025.Buil
 801d2d8:	2064 6164 6574 203a 7325 2520 0a73 000a     d date: %s %s...
 801d2e8:	3125 6430 6220 7479 7365 6f20 2066 7266     %10d bytes of fr
 801d2f8:	6565 6d20 6d65 726f 2e79 2020 7246 6565     ee memory.  Free
 801d308:	6c20 7369 3a74 000a 2020 2020 2020 2020      list:..        
 801d318:	2020 5b20 7830 3025 5838 7420 206f 7830        [0x%08X to 0x
 801d328:	3025 5838 0a5d 0000 3125 6430 6220 7479     %08X]...%10d byt
 801d338:	7365 6f20 2066 6958 756e 6320 646f 2e65     es of Xinu code.
 801d348:	000a 0000 3125 6430 6220 7479 7365 6f20     ....%10d bytes o
 801d358:	2066 6164 6174 0a2e 0000 0000 2020 2020     f data......    
 801d368:	2020 2020 2020 5b20 7830 3025 5838 7420            [0x%08X t
 801d378:	206f 7830 3025 5838 0a5d 000a 754e 6c6c     o 0x%08X]...Null
 801d388:	7020 6f72 6563 7373 0000 0000 6f6c 706f      process....loop
 801d398:	6e69 2e67 2e2e 7020 6572 7373 7220 7365     ing... press res
 801d3a8:	7465 000a 0a0a 700d 6e61 6369 203a 7325     et.....panic: %s
 801d3b8:	0a0a 0000 7953 6373 6c61 206c 6f6e 2074     ....Syscall not 
 801d3c8:	6d69 6c70 6d65 6e65 6574 3a64 2520 0a64     implemented: %d.
 801d3d8:	0000 0000 5453 4341 5b4b 6425 3a5d 2520     ....STACK[%d]: %
 801d3e8:	0a78 0000 0a0a 6c41 206c 7375 7265 7020     x.....All user p
 801d3f8:	6f72 6563 7373 7365 6820 7661 2065 6f63     rocesses have co
 801d408:	706d 656c 6574 2e64 0a0a 0000 4146 3354     mpleted.....FAT3
 801d418:	0032 0000 4146 3154 0036 0000 4146 2054     2...FAT16...FAT 
 801d428:	6564 6174 6c69 3a73 0a0d 0000 5420 7079     details:.... Typ
 801d438:	2065 253d 0073 0000 5220 6f6f 2074 6944     e =%s... Root Di
 801d448:	2072 6946 7372 2074 6c43 7375 6574 2072     r First Cluster 
 801d458:	203d 7825 0a0d 0000 4620 5441 4220 6765     = %x.... FAT Beg
 801d468:	6e69 4c20 4142 3d20 3020 2578 0d78 000a     in LBA = 0x%x...
 801d478:	4320 756c 7473 7265 4220 6765 6e69 4c20      Cluster Begin L
 801d488:	4142 3d20 3020 2578 0d78 000a 5320 6365     BA = 0x%x... Sec
 801d498:	6f74 7372 5020 7265 4320 756c 7473 7265     tors Per Cluster
 801d4a8:	3d20 2520 0d64 000a 4146 5f54 5346 203a      = %d...FAT_FS: 
 801d4b8:	7245 6f72 2072 6f63 6c75 2064 6f6e 2074     Error could not 
 801d4c8:	6f6c 6461 4620 5441 6420 7465 6961 736c     load FAT details
 801d4d8:	2820 6425 2129 0a0d 0000 0000 0a0d 6944      (%d)!........Di
 801d4e8:	6572 7463 726f 2079 7325 0a0d 0000 0000     rectory %s......
 801d4f8:	6425 0000 3025 7838 0000 0000 6972 6373     %d..%08x....risc
 801d508:	2f76 656b 6e72 6c65 622e 6e69 0000 0000     v/kernel.bin....
 801d518:	0d0a 4552 4f42 544f 3040 2578 3830 2578     ..REBOOT@0x%08x%
 801d528:	3830 0a78 000d 0000 0d0a 4f50 4557 4f52     08x.......POWERO
 801d538:	4646 3040 2578 3830 2578 3830 0a78 000d     FF@0x%08x%08x...
 801d548:	0d0a 6e55 6e6b 776f 206e 6166 6c69 7275     ..Unknown failur
 801d558:	0a65 0000 6f4c 6461 6e69 2067 6d69 6761     e...Loading imag
 801d568:	2065 6e69 6f74 5220 4d41 0d0a 0000 0000     e into RAM......
 801d578:	6425 3e2d 6425 000a 6e65 2064 6f6c 6461     %d->%d..end load
 801d588:	000a 0000 6272 0000 7245 6f72 3a72 4e20     ....rb..Error: N
 801d598:	206f 6573 7020 6475 206f 6261 6972 2072     o se pudo abrir 
 801d5a8:	6c65 6120 6372 6968 6f76 0a2e 0000 0000     el archivo......
 801d5b8:	6c63 6165 2072 6172 2e6d 2e2e 202e 6425     clear ram.... %d
 801d5c8:	000a 0000 6f6c 6461 6b20 7265 656e 2e6c     ....load kernel.
 801d5d8:	2e2e 0a2e 0000 0000 7265 6f72 2072 7277     ........error wr
 801d5e8:	7469 2065 253a 2064 7825 000a 4e45 0a44     ite :%d %x..END.
 801d5f8:	0000 0000                                   ....
