
kernel.elf:     file format elf32-littlearm


Disassembly of section .text:

08010000 <vector_table>:
 8010000:	00 00 02 20 c5 7d 01 08 79 7e 01 08 79 7e 01 08     ... .}..y~..y~..
 8010010:	79 7e 01 08 79 7e 01 08 79 7e 01 08 79 7e 01 08     y~..y~..y~..y~..
 8010020:	79 7e 01 08 79 7e 01 08 79 7e 01 08 79 7e 01 08     y~..y~..y~..y~..
 8010030:	79 7e 01 08 79 7e 01 08 79 7e 01 08 4d 7b 01 08     y~..y~..y~..M{..
 8010040:	79 7e 01 08 79 7e 01 08 79 7e 01 08 79 7e 01 08     y~..y~..y~..y~..
 8010050:	79 7e 01 08 79 7e 01 08 79 7e 01 08 79 7e 01 08     y~..y~..y~..y~..
 8010060:	79 7e 01 08 79 7e 01 08 79 7e 01 08 79 7e 01 08     y~..y~..y~..y~..
 8010070:	79 7e 01 08 79 7e 01 08 79 7e 01 08 79 7e 01 08     y~..y~..y~..y~..
 8010080:	79 7e 01 08 79 7e 01 08 79 7e 01 08 79 7e 01 08     y~..y~..y~..y~..
 8010090:	79 7e 01 08 79 7e 01 08 79 7e 01 08 79 7e 01 08     y~..y~..y~..y~..
 80100a0:	79 7e 01 08 79 7e 01 08 79 7e 01 08 79 7e 01 08     y~..y~..y~..y~..
 80100b0:	79 7e 01 08 79 7e 01 08 79 7e 01 08 79 7e 01 08     y~..y~..y~..y~..
 80100c0:	79 7e 01 08 79 7e 01 08 79 7e 01 08 79 7e 01 08     y~..y~..y~..y~..
 80100d0:	79 7e 01 08 11 86 01 08 79 7e 01 08 79 7e 01 08     y~......y~..y~..
 80100e0:	79 7e 01 08 79 7e 01 08 79 7e 01 08 79 7e 01 08     y~..y~..y~..y~..
 80100f0:	79 7e 01 08 79 7e 01 08 79 7e 01 08 79 7e 01 08     y~..y~..y~..y~..
 8010100:	79 7e 01 08 79 7e 01 08 79 7e 01 08 79 7e 01 08     y~..y~..y~..y~..
 8010110:	79 7e 01 08 79 7e 01 08 79 7e 01 08 79 7e 01 08     y~..y~..y~..y~..
 8010120:	79 7e 01 08 79 7e 01 08 79 7e 01 08 79 7e 01 08     y~..y~..y~..y~..
 8010130:	79 7e 01 08 79 7e 01 08 79 7e 01 08 79 7e 01 08     y~..y~..y~..y~..
 8010140:	79 7e 01 08 79 7e 01 08 79 7e 01 08 4d 3e 01 08     y~..y~..y~..M>..
 8010150:	79 7e 01 08 79 7e 01 08 79 7e 01 08 79 7e 01 08     y~..y~..y~..y~..
 8010160:	79 7e 01 08 79 7e 01 08 79 7e 01 08 79 7e 01 08     y~..y~..y~..y~..
 8010170:	79 7e 01 08 79 7e 01 08 79 7e 01 08 79 7e 01 08     y~..y~..y~..y~..
 8010180:	79 7e 01 08 79 7e 01 08 79 7e 01 08 79 7e 01 08     y~..y~..y~..y~..
 8010190:	79 7e 01 08 79 7e 01 08                             y~..y~..

08010198 <__popcountsi2>:
 8010198:	0843      	lsrs	r3, r0, #1
 801019a:	f003 3355 	and.w	r3, r3, #1431655765	; 0x55555555
 801019e:	1ac3      	subs	r3, r0, r3
 80101a0:	0898      	lsrs	r0, r3, #2
 80101a2:	f000 3033 	and.w	r0, r0, #858993459	; 0x33333333
 80101a6:	f003 3333 	and.w	r3, r3, #858993459	; 0x33333333
 80101aa:	4418      	add	r0, r3
 80101ac:	eb00 1010 	add.w	r0, r0, r0, lsr #4
 80101b0:	f000 300f 	and.w	r0, r0, #252645135	; 0xf0f0f0f
 80101b4:	eb00 4010 	add.w	r0, r0, r0, lsr #16
 80101b8:	eb00 2010 	add.w	r0, r0, r0, lsr #8
 80101bc:	f000 003f 	and.w	r0, r0, #63	; 0x3f
 80101c0:	4770      	bx	lr
	...

080101c4 <sinef>:
 80101c4:	b538      	push	{r3, r4, r5, lr}
 80101c6:	ed2d 8b02 	vpush	{d8}
 80101ca:	eeb0 8a40 	vmov.f32	s16, s0
 80101ce:	4604      	mov	r4, r0
 80101d0:	f001 ff32 	bl	8012038 <numtestf>
 80101d4:	2801      	cmp	r0, #1
 80101d6:	f000 8085 	beq.w	80102e4 <sinef+0x120>
 80101da:	2802      	cmp	r0, #2
 80101dc:	f000 8084 	beq.w	80102e8 <sinef+0x124>
 80101e0:	2c00      	cmp	r4, #0
 80101e2:	d165      	bne.n	80102b0 <sinef+0xec>
 80101e4:	eeb5 8ac0 	vcmpe.f32	s16, #0.0
 80101e8:	eef1 fa10 	vmrs	APSR_nzcv, fpscr
 80101ec:	d46a      	bmi.n	80102c4 <sinef+0x100>
 80101ee:	eeb0 0a48 	vmov.f32	s0, s16
 80101f2:	2501      	movs	r5, #1
 80101f4:	eddf 7a3f 	vldr	s15, [pc, #252]	; 80102f4 <sinef+0x130>
 80101f8:	eeb4 0ae7 	vcmpe.f32	s0, s15
 80101fc:	eef1 fa10 	vmrs	APSR_nzcv, fpscr
 8010200:	dc72      	bgt.n	80102e8 <sinef+0x124>
 8010202:	eeb5 0ac0 	vcmpe.f32	s0, #0.0
 8010206:	eef1 fa10 	vmrs	APSR_nzcv, fpscr
 801020a:	d460      	bmi.n	80102ce <sinef+0x10a>
 801020c:	eddf 7a3a 	vldr	s15, [pc, #232]	; 80102f8 <sinef+0x134>
 8010210:	ee20 0a27 	vmul.f32	s0, s0, s15
 8010214:	eef6 7a00 	vmov.f32	s15, #96	; 0x3f000000  0.5
 8010218:	ee30 0a27 	vadd.f32	s0, s0, s15
 801021c:	eebd 0ac0 	vcvt.s32.f32	s0, s0
 8010220:	eef8 8ac0 	vcvt.f32.s32	s17, s0
 8010224:	ee10 3a10 	vmov	r3, s0
 8010228:	f013 0f01 	tst.w	r3, #1
 801022c:	d000      	beq.n	8010230 <sinef+0x6c>
 801022e:	426d      	negs	r5, r5
 8010230:	b11c      	cbz	r4, 801023a <sinef+0x76>
 8010232:	eef6 7a00 	vmov.f32	s15, #96	; 0x3f000000  0.5
 8010236:	ee78 8ae7 	vsub.f32	s17, s17, s15
 801023a:	eeb0 0a48 	vmov.f32	s0, s16
 801023e:	f001 fcf2 	bl	8011c26 <fabsf>
 8010242:	ed9f 8a2e 	vldr	s16, [pc, #184]	; 80102fc <sinef+0x138>
 8010246:	ee28 8a88 	vmul.f32	s16, s17, s16
 801024a:	ee30 0a48 	vsub.f32	s0, s0, s16
 801024e:	eddf 7a2c 	vldr	s15, [pc, #176]	; 8010300 <sinef+0x13c>
 8010252:	eeb4 0ae7 	vcmpe.f32	s0, s15
 8010256:	eef1 fa10 	vmrs	APSR_nzcv, fpscr
 801025a:	dd06      	ble.n	801026a <sinef+0xa6>
 801025c:	eddf 7a29 	vldr	s15, [pc, #164]	; 8010304 <sinef+0x140>
 8010260:	eeb4 0ae7 	vcmpe.f32	s0, s15
 8010264:	eef1 fa10 	vmrs	APSR_nzcv, fpscr
 8010268:	d41b      	bmi.n	80102a2 <sinef+0xde>
 801026a:	ee20 7a00 	vmul.f32	s14, s0, s0
 801026e:	eddf 7a26 	vldr	s15, [pc, #152]	; 8010308 <sinef+0x144>
 8010272:	ee67 7a27 	vmul.f32	s15, s14, s15
 8010276:	eddf 6a25 	vldr	s13, [pc, #148]	; 801030c <sinef+0x148>
 801027a:	ee77 7ae6 	vsub.f32	s15, s15, s13
 801027e:	ee67 7a87 	vmul.f32	s15, s15, s14
 8010282:	eddf 6a23 	vldr	s13, [pc, #140]	; 8010310 <sinef+0x14c>
 8010286:	ee77 7aa6 	vadd.f32	s15, s15, s13
 801028a:	ee67 7a87 	vmul.f32	s15, s15, s14
 801028e:	eddf 6a21 	vldr	s13, [pc, #132]	; 8010314 <sinef+0x150>
 8010292:	ee77 7ae6 	vsub.f32	s15, s15, s13
 8010296:	ee67 7a87 	vmul.f32	s15, s15, s14
 801029a:	ee60 7a27 	vmul.f32	s15, s0, s15
 801029e:	ee30 0a27 	vadd.f32	s0, s0, s15
 80102a2:	ee07 5a90 	vmov	s15, r5
 80102a6:	eeb8 8ae7 	vcvt.f32.s32	s16, s15
 80102aa:	ee28 8a00 	vmul.f32	s16, s16, s0
 80102ae:	e01b      	b.n	80102e8 <sinef+0x124>
 80102b0:	eeb0 0a48 	vmov.f32	s0, s16
 80102b4:	f001 fcb7 	bl	8011c26 <fabsf>
 80102b8:	eddf 7a17 	vldr	s15, [pc, #92]	; 8010318 <sinef+0x154>
 80102bc:	ee30 0a27 	vadd.f32	s0, s0, s15
 80102c0:	2501      	movs	r5, #1
 80102c2:	e797      	b.n	80101f4 <sinef+0x30>
 80102c4:	eeb1 0a48 	vneg.f32	s0, s16
 80102c8:	f04f 35ff 	mov.w	r5, #4294967295	; 0xffffffff
 80102cc:	e792      	b.n	80101f4 <sinef+0x30>
 80102ce:	eddf 7a0a 	vldr	s15, [pc, #40]	; 80102f8 <sinef+0x134>
 80102d2:	ee20 0a27 	vmul.f32	s0, s0, s15
 80102d6:	eef6 7a00 	vmov.f32	s15, #96	; 0x3f000000  0.5
 80102da:	ee30 0a67 	vsub.f32	s0, s0, s15
 80102de:	eebd 0ac0 	vcvt.s32.f32	s0, s0
 80102e2:	e79d      	b.n	8010220 <sinef+0x5c>
 80102e4:	ed9f 8a0d 	vldr	s16, [pc, #52]	; 801031c <sinef+0x158>
 80102e8:	eeb0 0a48 	vmov.f32	s0, s16
 80102ec:	ecbd 8b02 	vpop	{d8}
 80102f0:	bd38      	pop	{r3, r4, r5, pc}
 80102f2:	bf00      	nop
 80102f4:	4d490fdb 	.word	0x4d490fdb
 80102f8:	3ea2f983 	.word	0x3ea2f983
 80102fc:	40490fdb 	.word	0x40490fdb
 8010300:	b93504f3 	.word	0xb93504f3
 8010304:	393504f3 	.word	0x393504f3
 8010308:	362e9c5b 	.word	0x362e9c5b
 801030c:	394fb222 	.word	0x394fb222
 8010310:	3c08873e 	.word	0x3c08873e
 8010314:	3e2aaaa4 	.word	0x3e2aaaa4
 8010318:	3fc90fdb 	.word	0x3fc90fdb
 801031c:	4f7fd000 	.word	0x4f7fd000

08010320 <asinef>:
 8010320:	b538      	push	{r3, r4, r5, lr}
 8010322:	ed2d 8b02 	vpush	{d8}
 8010326:	eeb0 8a40 	vmov.f32	s16, s0
 801032a:	4604      	mov	r4, r0
 801032c:	f001 fe84 	bl	8012038 <numtestf>
 8010330:	1e43      	subs	r3, r0, #1
 8010332:	2b01      	cmp	r3, #1
 8010334:	d809      	bhi.n	801034a <asinef+0x2a>
 8010336:	2802      	cmp	r0, #2
 8010338:	d004      	beq.n	8010344 <asinef+0x24>
 801033a:	ed9f 0a49 	vldr	s0, [pc, #292]	; 8010460 <asinef+0x140>
 801033e:	ecbd 8b02 	vpop	{d8}
 8010342:	bd38      	pop	{r3, r4, r5, pc}
 8010344:	eeb0 0a48 	vmov.f32	s0, s16
 8010348:	e7f9      	b.n	801033e <asinef+0x1e>
 801034a:	eeb0 0a48 	vmov.f32	s0, s16
 801034e:	f001 fc6a 	bl	8011c26 <fabsf>
 8010352:	eef6 7a00 	vmov.f32	s15, #96	; 0x3f000000  0.5
 8010356:	eeb4 0ae7 	vcmpe.f32	s0, s15
 801035a:	eef1 fa10 	vmrs	APSR_nzcv, fpscr
 801035e:	dd1d      	ble.n	801039c <asinef+0x7c>
 8010360:	f1c4 0501 	rsb	r5, r4, #1
 8010364:	eef7 7a00 	vmov.f32	s15, #112	; 0x3f800000  1.0
 8010368:	eeb4 0ae7 	vcmpe.f32	s0, s15
 801036c:	eef1 fa10 	vmrs	APSR_nzcv, fpscr
 8010370:	dd02      	ble.n	8010378 <asinef+0x58>
 8010372:	ed9f 0a3c 	vldr	s0, [pc, #240]	; 8010464 <asinef+0x144>
 8010376:	e7e2      	b.n	801033e <asinef+0x1e>
 8010378:	ee37 0ac0 	vsub.f32	s0, s15, s0
 801037c:	eef6 7a00 	vmov.f32	s15, #96	; 0x3f000000  0.5
 8010380:	ee60 8a27 	vmul.f32	s17, s0, s15
 8010384:	eeb0 0a68 	vmov.f32	s0, s17
 8010388:	f002 f8fa 	bl	8012580 <sqrtf>
 801038c:	eef8 7a00 	vmov.f32	s15, #128	; 0xc0000000 -2.0
 8010390:	ee20 0a27 	vmul.f32	s0, s0, s15
 8010394:	ed9f 7a34 	vldr	s14, [pc, #208]	; 8010468 <asinef+0x148>
 8010398:	2301      	movs	r3, #1
 801039a:	e00c      	b.n	80103b6 <asinef+0x96>
 801039c:	eddf 7a33 	vldr	s15, [pc, #204]	; 801046c <asinef+0x14c>
 80103a0:	eeb4 0ae7 	vcmpe.f32	s0, s15
 80103a4:	eef1 fa10 	vmrs	APSR_nzcv, fpscr
 80103a8:	d439      	bmi.n	801041e <asinef+0xfe>
 80103aa:	ee60 8a00 	vmul.f32	s17, s0, s0
 80103ae:	4625      	mov	r5, r4
 80103b0:	ed9f 7a2d 	vldr	s14, [pc, #180]	; 8010468 <asinef+0x148>
 80103b4:	2300      	movs	r3, #0
 80103b6:	eddf 7a2d 	vldr	s15, [pc, #180]	; 801046c <asinef+0x14c>
 80103ba:	eeb4 0ae7 	vcmpe.f32	s0, s15
 80103be:	eef1 fa10 	vmrs	APSR_nzcv, fpscr
 80103c2:	da00      	bge.n	80103c6 <asinef+0xa6>
 80103c4:	b1cb      	cbz	r3, 80103fa <asinef+0xda>
 80103c6:	eddf 6a2a 	vldr	s13, [pc, #168]	; 8010470 <asinef+0x150>
 80103ca:	ee68 6aa6 	vmul.f32	s13, s17, s13
 80103ce:	eddf 7a29 	vldr	s15, [pc, #164]	; 8010474 <asinef+0x154>
 80103d2:	ee76 6aa7 	vadd.f32	s13, s13, s15
 80103d6:	ee66 6aa8 	vmul.f32	s13, s13, s17
 80103da:	eddf 7a27 	vldr	s15, [pc, #156]	; 8010478 <asinef+0x158>
 80103de:	ee78 7ae7 	vsub.f32	s15, s17, s15
 80103e2:	ee67 7aa8 	vmul.f32	s15, s15, s17
 80103e6:	ed9f 7a25 	vldr	s14, [pc, #148]	; 801047c <asinef+0x15c>
 80103ea:	ee77 7a87 	vadd.f32	s15, s15, s14
 80103ee:	ee86 7aa7 	vdiv.f32	s14, s13, s15
 80103f2:	ee20 7a07 	vmul.f32	s14, s0, s14
 80103f6:	ee37 7a00 	vadd.f32	s14, s14, s0
 80103fa:	b9bc      	cbnz	r4, 801042c <asinef+0x10c>
 80103fc:	4b20      	ldr	r3, [pc, #128]	; (8010480 <asinef+0x160>)
 80103fe:	eb03 0585 	add.w	r5, r3, r5, lsl #2
 8010402:	edd5 7a00 	vldr	s15, [r5]
 8010406:	ee37 7a87 	vadd.f32	s14, s15, s14
 801040a:	ee37 0a87 	vadd.f32	s0, s15, s14
 801040e:	eeb5 8ac0 	vcmpe.f32	s16, #0.0
 8010412:	eef1 fa10 	vmrs	APSR_nzcv, fpscr
 8010416:	d592      	bpl.n	801033e <asinef+0x1e>
 8010418:	eeb1 0a40 	vneg.f32	s0, s0
 801041c:	e78f      	b.n	801033e <asinef+0x1e>
 801041e:	eeb0 7a40 	vmov.f32	s14, s0
 8010422:	4625      	mov	r5, r4
 8010424:	eddf 8a10 	vldr	s17, [pc, #64]	; 8010468 <asinef+0x148>
 8010428:	2300      	movs	r3, #0
 801042a:	e7c4      	b.n	80103b6 <asinef+0x96>
 801042c:	eeb5 8ac0 	vcmpe.f32	s16, #0.0
 8010430:	eef1 fa10 	vmrs	APSR_nzcv, fpscr
 8010434:	d409      	bmi.n	801044a <asinef+0x12a>
 8010436:	4b12      	ldr	r3, [pc, #72]	; (8010480 <asinef+0x160>)
 8010438:	eb03 0585 	add.w	r5, r3, r5, lsl #2
 801043c:	ed95 0a00 	vldr	s0, [r5]
 8010440:	ee30 7a47 	vsub.f32	s14, s0, s14
 8010444:	ee30 0a07 	vadd.f32	s0, s0, s14
 8010448:	e779      	b.n	801033e <asinef+0x1e>
 801044a:	4b0d      	ldr	r3, [pc, #52]	; (8010480 <asinef+0x160>)
 801044c:	eb03 0585 	add.w	r5, r3, r5, lsl #2
 8010450:	edd5 7a02 	vldr	s15, [r5, #8]
 8010454:	ee37 0a87 	vadd.f32	s0, s15, s14
 8010458:	ee37 0a80 	vadd.f32	s0, s15, s0
 801045c:	e76f      	b.n	801033e <asinef+0x1e>
 801045e:	bf00      	nop
 8010460:	4eff0000 	.word	0x4eff0000
 8010464:	4f7fd000 	.word	0x4f7fd000
 8010468:	00000000 	.word	0x00000000
 801046c:	393504f3 	.word	0x393504f3
 8010470:	bf012065 	.word	0xbf012065
 8010474:	3f6f166b 	.word	0x3f6f166b
 8010478:	40b18d0b 	.word	0x40b18d0b
 801047c:	40b350f0 	.word	0x40b350f0
 8010480:	080186f8 	.word	0x080186f8

08010484 <sprntf>:
 8010484:	4603      	mov	r3, r0
 8010486:	b2c8      	uxtb	r0, r1
 8010488:	681a      	ldr	r2, [r3, #0]
 801048a:	1c51      	adds	r1, r2, #1
 801048c:	6019      	str	r1, [r3, #0]
 801048e:	7010      	strb	r0, [r2, #0]
 8010490:	4770      	bx	lr

08010492 <skip_atoi>:
 8010492:	4601      	mov	r1, r0
 8010494:	2000      	movs	r0, #0
 8010496:	680a      	ldr	r2, [r1, #0]
 8010498:	7813      	ldrb	r3, [r2, #0]
 801049a:	3b30      	subs	r3, #48	; 0x30
 801049c:	b2db      	uxtb	r3, r3
 801049e:	2b09      	cmp	r3, #9
 80104a0:	d808      	bhi.n	80104b4 <skip_atoi+0x22>
 80104a2:	eb00 0080 	add.w	r0, r0, r0, lsl #2
 80104a6:	1c53      	adds	r3, r2, #1
 80104a8:	600b      	str	r3, [r1, #0]
 80104aa:	7813      	ldrb	r3, [r2, #0]
 80104ac:	eb03 0040 	add.w	r0, r3, r0, lsl #1
 80104b0:	3830      	subs	r0, #48	; 0x30
 80104b2:	e7f0      	b.n	8010496 <skip_atoi+0x4>
 80104b4:	4770      	bx	lr

080104b6 <number>:
 80104b6:	e92d 4ff0 	stmdb	sp!, {r4, r5, r6, r7, r8, r9, sl, fp, lr}
 80104ba:	b093      	sub	sp, #76	; 0x4c
 80104bc:	9d1c      	ldr	r5, [sp, #112]	; 0x70
 80104be:	9f1d      	ldr	r7, [sp, #116]	; 0x74
 80104c0:	f017 0f40 	tst.w	r7, #64	; 0x40
 80104c4:	d11c      	bne.n	8010500 <number+0x4a>
 80104c6:	f8df b150 	ldr.w	fp, [pc, #336]	; 8010618 <number+0x162>
 80104ca:	f017 0f10 	tst.w	r7, #16
 80104ce:	d001      	beq.n	80104d4 <number+0x1e>
 80104d0:	f027 0701 	bic.w	r7, r7, #1
 80104d4:	4694      	mov	ip, r2
 80104d6:	1e94      	subs	r4, r2, #2
 80104d8:	2c22      	cmp	r4, #34	; 0x22
 80104da:	f200 809b 	bhi.w	8010614 <number+0x15e>
 80104de:	f017 0f01 	tst.w	r7, #1
 80104e2:	d010      	beq.n	8010506 <number+0x50>
 80104e4:	f04f 0e30 	mov.w	lr, #48	; 0x30
 80104e8:	f017 0f02 	tst.w	r7, #2
 80104ec:	d01a      	beq.n	8010524 <number+0x6e>
 80104ee:	2900      	cmp	r1, #0
 80104f0:	db0c      	blt.n	801050c <number+0x56>
 80104f2:	f017 0f04 	tst.w	r7, #4
 80104f6:	d00e      	beq.n	8010516 <number+0x60>
 80104f8:	3b01      	subs	r3, #1
 80104fa:	f04f 082b 	mov.w	r8, #43	; 0x2b
 80104fe:	e013      	b.n	8010528 <number+0x72>
 8010500:	f8df b118 	ldr.w	fp, [pc, #280]	; 801061c <number+0x166>
 8010504:	e7e1      	b.n	80104ca <number+0x14>
 8010506:	f04f 0e20 	mov.w	lr, #32
 801050a:	e7ed      	b.n	80104e8 <number+0x32>
 801050c:	4249      	negs	r1, r1
 801050e:	3b01      	subs	r3, #1
 8010510:	f04f 082d 	mov.w	r8, #45	; 0x2d
 8010514:	e008      	b.n	8010528 <number+0x72>
 8010516:	f017 0f08 	tst.w	r7, #8
 801051a:	d02f      	beq.n	801057c <number+0xc6>
 801051c:	3b01      	subs	r3, #1
 801051e:	f04f 0820 	mov.w	r8, #32
 8010522:	e001      	b.n	8010528 <number+0x72>
 8010524:	f04f 0800 	mov.w	r8, #0
 8010528:	f017 0920 	ands.w	r9, r7, #32
 801052c:	d003      	beq.n	8010536 <number+0x80>
 801052e:	2a10      	cmp	r2, #16
 8010530:	d027      	beq.n	8010582 <number+0xcc>
 8010532:	2a08      	cmp	r2, #8
 8010534:	d027      	beq.n	8010586 <number+0xd0>
 8010536:	bbc1      	cbnz	r1, 80105aa <number+0xf4>
 8010538:	2130      	movs	r1, #48	; 0x30
 801053a:	f88d 1004 	strb.w	r1, [sp, #4]
 801053e:	2401      	movs	r4, #1
 8010540:	42ac      	cmp	r4, r5
 8010542:	dd00      	ble.n	8010546 <number+0x90>
 8010544:	4625      	mov	r5, r4
 8010546:	1b59      	subs	r1, r3, r5
 8010548:	f017 0f11 	tst.w	r7, #17
 801054c:	d02f      	beq.n	80105ae <number+0xf8>
 801054e:	f1b8 0f00 	cmp.w	r8, #0
 8010552:	d001      	beq.n	8010558 <number+0xa2>
 8010554:	f800 8b01 	strb.w	r8, [r0], #1
 8010558:	f1b9 0f00 	cmp.w	r9, #0
 801055c:	d003      	beq.n	8010566 <number+0xb0>
 801055e:	2a08      	cmp	r2, #8
 8010560:	d02f      	beq.n	80105c2 <number+0x10c>
 8010562:	2a10      	cmp	r2, #16
 8010564:	d031      	beq.n	80105ca <number+0x114>
 8010566:	f017 0f10 	tst.w	r7, #16
 801056a:	d039      	beq.n	80105e0 <number+0x12a>
 801056c:	1e6b      	subs	r3, r5, #1
 801056e:	42a5      	cmp	r5, r4
 8010570:	dd3b      	ble.n	80105ea <number+0x134>
 8010572:	2230      	movs	r2, #48	; 0x30
 8010574:	f800 2b01 	strb.w	r2, [r0], #1
 8010578:	461d      	mov	r5, r3
 801057a:	e7f7      	b.n	801056c <number+0xb6>
 801057c:	f04f 0800 	mov.w	r8, #0
 8010580:	e7d2      	b.n	8010528 <number+0x72>
 8010582:	3b02      	subs	r3, #2
 8010584:	e7d7      	b.n	8010536 <number+0x80>
 8010586:	3b01      	subs	r3, #1
 8010588:	e7d5      	b.n	8010536 <number+0x80>
 801058a:	fbb1 f6fc 	udiv	r6, r1, ip
 801058e:	fb0c 1116 	mls	r1, ip, r6, r1
 8010592:	f81b 1001 	ldrb.w	r1, [fp, r1]
 8010596:	f10d 0a48 	add.w	sl, sp, #72	; 0x48
 801059a:	44a2      	add	sl, r4
 801059c:	f80a 1c44 	strb.w	r1, [sl, #-68]
 80105a0:	4631      	mov	r1, r6
 80105a2:	3401      	adds	r4, #1
 80105a4:	2900      	cmp	r1, #0
 80105a6:	d1f0      	bne.n	801058a <number+0xd4>
 80105a8:	e7ca      	b.n	8010540 <number+0x8a>
 80105aa:	2400      	movs	r4, #0
 80105ac:	e7fa      	b.n	80105a4 <number+0xee>
 80105ae:	1e4b      	subs	r3, r1, #1
 80105b0:	2900      	cmp	r1, #0
 80105b2:	dd04      	ble.n	80105be <number+0x108>
 80105b4:	2120      	movs	r1, #32
 80105b6:	f800 1b01 	strb.w	r1, [r0], #1
 80105ba:	4619      	mov	r1, r3
 80105bc:	e7f7      	b.n	80105ae <number+0xf8>
 80105be:	4619      	mov	r1, r3
 80105c0:	e7c5      	b.n	801054e <number+0x98>
 80105c2:	2330      	movs	r3, #48	; 0x30
 80105c4:	f800 3b01 	strb.w	r3, [r0], #1
 80105c8:	e7cd      	b.n	8010566 <number+0xb0>
 80105ca:	4603      	mov	r3, r0
 80105cc:	2230      	movs	r2, #48	; 0x30
 80105ce:	f803 2b02 	strb.w	r2, [r3], #2
 80105d2:	2278      	movs	r2, #120	; 0x78
 80105d4:	7042      	strb	r2, [r0, #1]
 80105d6:	4618      	mov	r0, r3
 80105d8:	e7c5      	b.n	8010566 <number+0xb0>
 80105da:	f800 eb01 	strb.w	lr, [r0], #1
 80105de:	4619      	mov	r1, r3
 80105e0:	1e4b      	subs	r3, r1, #1
 80105e2:	2900      	cmp	r1, #0
 80105e4:	dcf9      	bgt.n	80105da <number+0x124>
 80105e6:	4619      	mov	r1, r3
 80105e8:	e7c0      	b.n	801056c <number+0xb6>
 80105ea:	1e63      	subs	r3, r4, #1
 80105ec:	2c00      	cmp	r4, #0
 80105ee:	dd0b      	ble.n	8010608 <number+0x152>
 80105f0:	aa12      	add	r2, sp, #72	; 0x48
 80105f2:	441a      	add	r2, r3
 80105f4:	f812 2c44 	ldrb.w	r2, [r2, #-68]
 80105f8:	f800 2b01 	strb.w	r2, [r0], #1
 80105fc:	461c      	mov	r4, r3
 80105fe:	e7f4      	b.n	80105ea <number+0x134>
 8010600:	2220      	movs	r2, #32
 8010602:	f800 2b01 	strb.w	r2, [r0], #1
 8010606:	4619      	mov	r1, r3
 8010608:	1e4b      	subs	r3, r1, #1
 801060a:	2900      	cmp	r1, #0
 801060c:	dcf8      	bgt.n	8010600 <number+0x14a>
 801060e:	b013      	add	sp, #76	; 0x4c
 8010610:	e8bd 8ff0 	ldmia.w	sp!, {r4, r5, r6, r7, r8, r9, sl, fp, pc}
 8010614:	2000      	movs	r0, #0
 8010616:	e7fa      	b.n	801060e <number+0x158>
 8010618:	08018990 	.word	0x08018990
 801061c:	08018968 	.word	0x08018968

08010620 <eaddr>:
 8010620:	e92d 41f0 	stmdb	sp!, {r4, r5, r6, r7, r8, lr}
 8010624:	b086      	sub	sp, #24
 8010626:	f8dd e030 	ldr.w	lr, [sp, #48]	; 0x30
 801062a:	f01e 0f40 	tst.w	lr, #64	; 0x40
 801062e:	d103      	bne.n	8010638 <eaddr+0x18>
 8010630:	4f23      	ldr	r7, [pc, #140]	; (80106c0 <eaddr+0xa0>)
 8010632:	2400      	movs	r4, #0
 8010634:	4625      	mov	r5, r4
 8010636:	e016      	b.n	8010666 <eaddr+0x46>
 8010638:	4f22      	ldr	r7, [pc, #136]	; (80106c4 <eaddr+0xa4>)
 801063a:	e7fa      	b.n	8010632 <eaddr+0x12>
 801063c:	5d4e      	ldrb	r6, [r1, r5]
 801063e:	ea4f 1c16 	mov.w	ip, r6, lsr #4
 8010642:	1c63      	adds	r3, r4, #1
 8010644:	f817 800c 	ldrb.w	r8, [r7, ip]
 8010648:	f10d 0c18 	add.w	ip, sp, #24
 801064c:	44a4      	add	ip, r4
 801064e:	f80c 8c18 	strb.w	r8, [ip, #-24]
 8010652:	f006 060f 	and.w	r6, r6, #15
 8010656:	5dbe      	ldrb	r6, [r7, r6]
 8010658:	f10d 0c18 	add.w	ip, sp, #24
 801065c:	4463      	add	r3, ip
 801065e:	3402      	adds	r4, #2
 8010660:	f803 6c18 	strb.w	r6, [r3, #-24]
 8010664:	3501      	adds	r5, #1
 8010666:	2d05      	cmp	r5, #5
 8010668:	dc08      	bgt.n	801067c <eaddr+0x5c>
 801066a:	2d00      	cmp	r5, #0
 801066c:	d0e6      	beq.n	801063c <eaddr+0x1c>
 801066e:	ab06      	add	r3, sp, #24
 8010670:	4423      	add	r3, r4
 8010672:	263a      	movs	r6, #58	; 0x3a
 8010674:	f803 6c18 	strb.w	r6, [r3, #-24]
 8010678:	3401      	adds	r4, #1
 801067a:	e7df      	b.n	801063c <eaddr+0x1c>
 801067c:	f01e 0f10 	tst.w	lr, #16
 8010680:	d005      	beq.n	801068e <eaddr+0x6e>
 8010682:	2300      	movs	r3, #0
 8010684:	e00f      	b.n	80106a6 <eaddr+0x86>
 8010686:	2220      	movs	r2, #32
 8010688:	f800 2b01 	strb.w	r2, [r0], #1
 801068c:	461a      	mov	r2, r3
 801068e:	1e53      	subs	r3, r2, #1
 8010690:	42a2      	cmp	r2, r4
 8010692:	dcf8      	bgt.n	8010686 <eaddr+0x66>
 8010694:	461a      	mov	r2, r3
 8010696:	e7f4      	b.n	8010682 <eaddr+0x62>
 8010698:	a906      	add	r1, sp, #24
 801069a:	4419      	add	r1, r3
 801069c:	f811 1c18 	ldrb.w	r1, [r1, #-24]
 80106a0:	f800 1b01 	strb.w	r1, [r0], #1
 80106a4:	3301      	adds	r3, #1
 80106a6:	42a3      	cmp	r3, r4
 80106a8:	dbf6      	blt.n	8010698 <eaddr+0x78>
 80106aa:	e003      	b.n	80106b4 <eaddr+0x94>
 80106ac:	2220      	movs	r2, #32
 80106ae:	f800 2b01 	strb.w	r2, [r0], #1
 80106b2:	461a      	mov	r2, r3
 80106b4:	1e53      	subs	r3, r2, #1
 80106b6:	42a2      	cmp	r2, r4
 80106b8:	dcf8      	bgt.n	80106ac <eaddr+0x8c>
 80106ba:	b006      	add	sp, #24
 80106bc:	e8bd 81f0 	ldmia.w	sp!, {r4, r5, r6, r7, r8, pc}
 80106c0:	08018990 	.word	0x08018990
 80106c4:	08018968 	.word	0x08018968

080106c8 <iaddr>:
 80106c8:	e92d 41f0 	stmdb	sp!, {r4, r5, r6, r7, r8, lr}
 80106cc:	b086      	sub	sp, #24
 80106ce:	2400      	movs	r4, #0
 80106d0:	4627      	mov	r7, r4
 80106d2:	e02f      	b.n	8010734 <iaddr+0x6c>
 80106d4:	2b63      	cmp	r3, #99	; 0x63
 80106d6:	dd40      	ble.n	801075a <iaddr+0x92>
 80106d8:	4e3e      	ldr	r6, [pc, #248]	; (80107d4 <iaddr+0x10c>)
 80106da:	fb86 5603 	smull	r5, r6, r6, r3
 80106de:	17dd      	asrs	r5, r3, #31
 80106e0:	ebc5 1566 	rsb	r5, r5, r6, asr #5
 80106e4:	f104 0e01 	add.w	lr, r4, #1
 80106e8:	f8df 80f0 	ldr.w	r8, [pc, #240]	; 80107dc <iaddr+0x114>
 80106ec:	f815 c008 	ldrb.w	ip, [r5, r8]
 80106f0:	ae06      	add	r6, sp, #24
 80106f2:	4426      	add	r6, r4
 80106f4:	f806 cc18 	strb.w	ip, [r6, #-24]
 80106f8:	2664      	movs	r6, #100	; 0x64
 80106fa:	fb06 3515 	mls	r5, r6, r5, r3
 80106fe:	4b36      	ldr	r3, [pc, #216]	; (80107d8 <iaddr+0x110>)
 8010700:	fb83 6305 	smull	r6, r3, r3, r5
 8010704:	17ee      	asrs	r6, r5, #31
 8010706:	ebc6 06a3 	rsb	r6, r6, r3, asr #2
 801070a:	f104 0c02 	add.w	ip, r4, #2
 801070e:	f816 4008 	ldrb.w	r4, [r6, r8]
 8010712:	ab06      	add	r3, sp, #24
 8010714:	4473      	add	r3, lr
 8010716:	f803 4c18 	strb.w	r4, [r3, #-24]
 801071a:	eb06 0686 	add.w	r6, r6, r6, lsl #2
 801071e:	eba5 0346 	sub.w	r3, r5, r6, lsl #1
 8010722:	f10c 0401 	add.w	r4, ip, #1
 8010726:	4d2d      	ldr	r5, [pc, #180]	; (80107dc <iaddr+0x114>)
 8010728:	5d5d      	ldrb	r5, [r3, r5]
 801072a:	ab06      	add	r3, sp, #24
 801072c:	4463      	add	r3, ip
 801072e:	f803 5c18 	strb.w	r5, [r3, #-24]
 8010732:	3701      	adds	r7, #1
 8010734:	2f03      	cmp	r7, #3
 8010736:	dc28      	bgt.n	801078a <iaddr+0xc2>
 8010738:	b12f      	cbz	r7, 8010746 <iaddr+0x7e>
 801073a:	ab06      	add	r3, sp, #24
 801073c:	4423      	add	r3, r4
 801073e:	252e      	movs	r5, #46	; 0x2e
 8010740:	f803 5c18 	strb.w	r5, [r3, #-24]
 8010744:	3401      	adds	r4, #1
 8010746:	5dcb      	ldrb	r3, [r1, r7]
 8010748:	2b00      	cmp	r3, #0
 801074a:	d1c3      	bne.n	80106d4 <iaddr+0xc>
 801074c:	ab06      	add	r3, sp, #24
 801074e:	4423      	add	r3, r4
 8010750:	2530      	movs	r5, #48	; 0x30
 8010752:	f803 5c18 	strb.w	r5, [r3, #-24]
 8010756:	3401      	adds	r4, #1
 8010758:	e7eb      	b.n	8010732 <iaddr+0x6a>
 801075a:	2b09      	cmp	r3, #9
 801075c:	dd13      	ble.n	8010786 <iaddr+0xbe>
 801075e:	4e1e      	ldr	r6, [pc, #120]	; (80107d8 <iaddr+0x110>)
 8010760:	fb86 5603 	smull	r5, r6, r6, r3
 8010764:	17dd      	asrs	r5, r3, #31
 8010766:	ebc5 05a6 	rsb	r5, r5, r6, asr #2
 801076a:	f104 0c01 	add.w	ip, r4, #1
 801076e:	4e1b      	ldr	r6, [pc, #108]	; (80107dc <iaddr+0x114>)
 8010770:	5dae      	ldrb	r6, [r5, r6]
 8010772:	f10d 0e18 	add.w	lr, sp, #24
 8010776:	4474      	add	r4, lr
 8010778:	f804 6c18 	strb.w	r6, [r4, #-24]
 801077c:	eb05 0585 	add.w	r5, r5, r5, lsl #2
 8010780:	eba3 0345 	sub.w	r3, r3, r5, lsl #1
 8010784:	e7cd      	b.n	8010722 <iaddr+0x5a>
 8010786:	46a4      	mov	ip, r4
 8010788:	e7cb      	b.n	8010722 <iaddr+0x5a>
 801078a:	9b0c      	ldr	r3, [sp, #48]	; 0x30
 801078c:	f013 0f10 	tst.w	r3, #16
 8010790:	d001      	beq.n	8010796 <iaddr+0xce>
 8010792:	2300      	movs	r3, #0
 8010794:	e010      	b.n	80107b8 <iaddr+0xf0>
 8010796:	1e53      	subs	r3, r2, #1
 8010798:	42a2      	cmp	r2, r4
 801079a:	dd04      	ble.n	80107a6 <iaddr+0xde>
 801079c:	2220      	movs	r2, #32
 801079e:	f800 2b01 	strb.w	r2, [r0], #1
 80107a2:	461a      	mov	r2, r3
 80107a4:	e7f7      	b.n	8010796 <iaddr+0xce>
 80107a6:	461a      	mov	r2, r3
 80107a8:	e7f3      	b.n	8010792 <iaddr+0xca>
 80107aa:	a906      	add	r1, sp, #24
 80107ac:	4419      	add	r1, r3
 80107ae:	f811 1c18 	ldrb.w	r1, [r1, #-24]
 80107b2:	f800 1b01 	strb.w	r1, [r0], #1
 80107b6:	3301      	adds	r3, #1
 80107b8:	42a3      	cmp	r3, r4
 80107ba:	dbf6      	blt.n	80107aa <iaddr+0xe2>
 80107bc:	e003      	b.n	80107c6 <iaddr+0xfe>
 80107be:	2220      	movs	r2, #32
 80107c0:	f800 2b01 	strb.w	r2, [r0], #1
 80107c4:	461a      	mov	r2, r3
 80107c6:	1e53      	subs	r3, r2, #1
 80107c8:	42a2      	cmp	r2, r4
 80107ca:	dcf8      	bgt.n	80107be <iaddr+0xf6>
 80107cc:	b006      	add	sp, #24
 80107ce:	e8bd 81f0 	ldmia.w	sp!, {r4, r5, r6, r7, r8, pc}
 80107d2:	bf00      	nop
 80107d4:	51eb851f 	.word	0x51eb851f
 80107d8:	66666667 	.word	0x66666667
 80107dc:	08018990 	.word	0x08018990

080107e0 <sprintf>:
 80107e0:	b40e      	push	{r1, r2, r3}
 80107e2:	b510      	push	{r4, lr}
 80107e4:	b083      	sub	sp, #12
 80107e6:	4604      	mov	r4, r0
 80107e8:	a905      	add	r1, sp, #20
 80107ea:	f851 0b04 	ldr.w	r0, [r1], #4
 80107ee:	9400      	str	r4, [sp, #0]
 80107f0:	9101      	str	r1, [sp, #4]
 80107f2:	466b      	mov	r3, sp
 80107f4:	4a05      	ldr	r2, [pc, #20]	; (801080c <sprintf+0x2c>)
 80107f6:	f000 fc5d 	bl	80110b4 <_fdoprnt>
 80107fa:	9b00      	ldr	r3, [sp, #0]
 80107fc:	2200      	movs	r2, #0
 80107fe:	701a      	strb	r2, [r3, #0]
 8010800:	4620      	mov	r0, r4
 8010802:	b003      	add	sp, #12
 8010804:	e8bd 4010 	ldmia.w	sp!, {r4, lr}
 8010808:	b003      	add	sp, #12
 801080a:	4770      	bx	lr
 801080c:	08010485 	.word	0x08010485

08010810 <vsprintf>:
 8010810:	e92d 41f0 	stmdb	sp!, {r4, r5, r6, r7, r8, lr}
 8010814:	b084      	sub	sp, #16
 8010816:	4605      	mov	r5, r0
 8010818:	9103      	str	r1, [sp, #12]
 801081a:	9202      	str	r2, [sp, #8]
 801081c:	4604      	mov	r4, r0
 801081e:	e175      	b.n	8010b0c <vsprintf+0x2fc>
 8010820:	2600      	movs	r6, #0
 8010822:	e001      	b.n	8010828 <vsprintf+0x18>
 8010824:	f046 0610 	orr.w	r6, r6, #16
 8010828:	9b03      	ldr	r3, [sp, #12]
 801082a:	1c59      	adds	r1, r3, #1
 801082c:	9103      	str	r1, [sp, #12]
 801082e:	785a      	ldrb	r2, [r3, #1]
 8010830:	f1a2 0320 	sub.w	r3, r2, #32
 8010834:	2b10      	cmp	r3, #16
 8010836:	d831      	bhi.n	801089c <vsprintf+0x8c>
 8010838:	a001      	add	r0, pc, #4	; (adr r0, 8010840 <vsprintf+0x30>)
 801083a:	f850 f023 	ldr.w	pc, [r0, r3, lsl #2]
 801083e:	bf00      	nop
 8010840:	0801088b 	.word	0x0801088b
 8010844:	0801089d 	.word	0x0801089d
 8010848:	0801089d 	.word	0x0801089d
 801084c:	08010891 	.word	0x08010891
 8010850:	0801089d 	.word	0x0801089d
 8010854:	0801089d 	.word	0x0801089d
 8010858:	0801089d 	.word	0x0801089d
 801085c:	0801089d 	.word	0x0801089d
 8010860:	0801089d 	.word	0x0801089d
 8010864:	0801089d 	.word	0x0801089d
 8010868:	0801089d 	.word	0x0801089d
 801086c:	08010885 	.word	0x08010885
 8010870:	0801089d 	.word	0x0801089d
 8010874:	08010825 	.word	0x08010825
 8010878:	0801089d 	.word	0x0801089d
 801087c:	0801089d 	.word	0x0801089d
 8010880:	08010897 	.word	0x08010897
 8010884:	f046 0604 	orr.w	r6, r6, #4
 8010888:	e7ce      	b.n	8010828 <vsprintf+0x18>
 801088a:	f046 0608 	orr.w	r6, r6, #8
 801088e:	e7cb      	b.n	8010828 <vsprintf+0x18>
 8010890:	f046 0620 	orr.w	r6, r6, #32
 8010894:	e7c8      	b.n	8010828 <vsprintf+0x18>
 8010896:	f046 0601 	orr.w	r6, r6, #1
 801089a:	e7c5      	b.n	8010828 <vsprintf+0x18>
 801089c:	f1a2 0330 	sub.w	r3, r2, #48	; 0x30
 80108a0:	b2db      	uxtb	r3, r3
 80108a2:	2b09      	cmp	r3, #9
 80108a4:	d914      	bls.n	80108d0 <vsprintf+0xc0>
 80108a6:	2a2a      	cmp	r2, #42	; 0x2a
 80108a8:	d017      	beq.n	80108da <vsprintf+0xca>
 80108aa:	f04f 37ff 	mov.w	r7, #4294967295	; 0xffffffff
 80108ae:	9b03      	ldr	r3, [sp, #12]
 80108b0:	781a      	ldrb	r2, [r3, #0]
 80108b2:	2a2e      	cmp	r2, #46	; 0x2e
 80108b4:	d01d      	beq.n	80108f2 <vsprintf+0xe2>
 80108b6:	f04f 33ff 	mov.w	r3, #4294967295	; 0xffffffff
 80108ba:	9803      	ldr	r0, [sp, #12]
 80108bc:	7802      	ldrb	r2, [r0, #0]
 80108be:	2a68      	cmp	r2, #104	; 0x68
 80108c0:	d032      	beq.n	8010928 <vsprintf+0x118>
 80108c2:	2a6c      	cmp	r2, #108	; 0x6c
 80108c4:	d030      	beq.n	8010928 <vsprintf+0x118>
 80108c6:	2a4c      	cmp	r2, #76	; 0x4c
 80108c8:	d02e      	beq.n	8010928 <vsprintf+0x118>
 80108ca:	f04f 31ff 	mov.w	r1, #4294967295	; 0xffffffff
 80108ce:	e02e      	b.n	801092e <vsprintf+0x11e>
 80108d0:	a803      	add	r0, sp, #12
 80108d2:	f7ff fdde 	bl	8010492 <skip_atoi>
 80108d6:	4607      	mov	r7, r0
 80108d8:	e7e9      	b.n	80108ae <vsprintf+0x9e>
 80108da:	3101      	adds	r1, #1
 80108dc:	9103      	str	r1, [sp, #12]
 80108de:	9b02      	ldr	r3, [sp, #8]
 80108e0:	1d1a      	adds	r2, r3, #4
 80108e2:	9202      	str	r2, [sp, #8]
 80108e4:	681f      	ldr	r7, [r3, #0]
 80108e6:	2f00      	cmp	r7, #0
 80108e8:	dae1      	bge.n	80108ae <vsprintf+0x9e>
 80108ea:	427f      	negs	r7, r7
 80108ec:	f046 0610 	orr.w	r6, r6, #16
 80108f0:	e7dd      	b.n	80108ae <vsprintf+0x9e>
 80108f2:	1c59      	adds	r1, r3, #1
 80108f4:	9103      	str	r1, [sp, #12]
 80108f6:	785a      	ldrb	r2, [r3, #1]
 80108f8:	f1a2 0330 	sub.w	r3, r2, #48	; 0x30
 80108fc:	b2db      	uxtb	r3, r3
 80108fe:	2b09      	cmp	r3, #9
 8010900:	d903      	bls.n	801090a <vsprintf+0xfa>
 8010902:	2a2a      	cmp	r2, #42	; 0x2a
 8010904:	d009      	beq.n	801091a <vsprintf+0x10a>
 8010906:	2300      	movs	r3, #0
 8010908:	e7d7      	b.n	80108ba <vsprintf+0xaa>
 801090a:	a803      	add	r0, sp, #12
 801090c:	f7ff fdc1 	bl	8010492 <skip_atoi>
 8010910:	4603      	mov	r3, r0
 8010912:	2b00      	cmp	r3, #0
 8010914:	dad1      	bge.n	80108ba <vsprintf+0xaa>
 8010916:	2300      	movs	r3, #0
 8010918:	e7cf      	b.n	80108ba <vsprintf+0xaa>
 801091a:	3101      	adds	r1, #1
 801091c:	9103      	str	r1, [sp, #12]
 801091e:	9b02      	ldr	r3, [sp, #8]
 8010920:	1d1a      	adds	r2, r3, #4
 8010922:	9202      	str	r2, [sp, #8]
 8010924:	681b      	ldr	r3, [r3, #0]
 8010926:	e7f4      	b.n	8010912 <vsprintf+0x102>
 8010928:	4611      	mov	r1, r2
 801092a:	3001      	adds	r0, #1
 801092c:	9003      	str	r0, [sp, #12]
 801092e:	9a03      	ldr	r2, [sp, #12]
 8010930:	7810      	ldrb	r0, [r2, #0]
 8010932:	f1a0 0241 	sub.w	r2, r0, #65	; 0x41
 8010936:	2a37      	cmp	r2, #55	; 0x37
 8010938:	f200 80c4 	bhi.w	8010ac4 <vsprintf+0x2b4>
 801093c:	e8df f002 	tbb	[pc, r2]
 8010940:	c2c2c293 	.word	0xc2c2c293
 8010944:	c2c2c2c2 	.word	0xc2c2c2c2
 8010948:	c2c2c2c2 	.word	0xc2c2c2c2
 801094c:	c2c2c2c2 	.word	0xc2c2c2c2
 8010950:	c2c2c2c2 	.word	0xc2c2c2c2
 8010954:	bac2c2c2 	.word	0xbac2c2c2
 8010958:	c2c2c2c2 	.word	0xc2c2c2c2
 801095c:	c2c2c2c2 	.word	0xc2c2c2c2
 8010960:	be1cc295 	.word	0xbe1cc295
 8010964:	c2c2c2c2 	.word	0xc2c2c2c2
 8010968:	c2c2c2be 	.word	0xc2c2c2be
 801096c:	6fad83c2 	.word	0x6fad83c2
 8010970:	c23ac2c2 	.word	0xc23ac2c2
 8010974:	d6c2c2d4 	.word	0xd6c2c2d4
 8010978:	f016 0f10 	tst.w	r6, #16
 801097c:	d00d      	beq.n	801099a <vsprintf+0x18a>
 801097e:	9b02      	ldr	r3, [sp, #8]
 8010980:	1d1a      	adds	r2, r3, #4
 8010982:	9202      	str	r2, [sp, #8]
 8010984:	4620      	mov	r0, r4
 8010986:	781b      	ldrb	r3, [r3, #0]
 8010988:	f800 3b01 	strb.w	r3, [r0], #1
 801098c:	4604      	mov	r4, r0
 801098e:	e00d      	b.n	80109ac <vsprintf+0x19c>
 8010990:	4620      	mov	r0, r4
 8010992:	2320      	movs	r3, #32
 8010994:	f800 3b01 	strb.w	r3, [r0], #1
 8010998:	4604      	mov	r4, r0
 801099a:	3f01      	subs	r7, #1
 801099c:	2f00      	cmp	r7, #0
 801099e:	dcf7      	bgt.n	8010990 <vsprintf+0x180>
 80109a0:	e7ed      	b.n	801097e <vsprintf+0x16e>
 80109a2:	4620      	mov	r0, r4
 80109a4:	2320      	movs	r3, #32
 80109a6:	f800 3b01 	strb.w	r3, [r0], #1
 80109aa:	4604      	mov	r4, r0
 80109ac:	3f01      	subs	r7, #1
 80109ae:	2f00      	cmp	r7, #0
 80109b0:	dcf7      	bgt.n	80109a2 <vsprintf+0x192>
 80109b2:	e0a8      	b.n	8010b06 <vsprintf+0x2f6>
 80109b4:	9b02      	ldr	r3, [sp, #8]
 80109b6:	1d1a      	adds	r2, r3, #4
 80109b8:	9202      	str	r2, [sp, #8]
 80109ba:	f8d3 8000 	ldr.w	r8, [r3]
 80109be:	f1b8 0f00 	cmp.w	r8, #0
 80109c2:	d008      	beq.n	80109d6 <vsprintf+0x1c6>
 80109c4:	4640      	mov	r0, r8
 80109c6:	f000 fff5 	bl	80119b4 <strlen>
 80109ca:	4601      	mov	r1, r0
 80109cc:	f016 0f10 	tst.w	r6, #16
 80109d0:	d00a      	beq.n	80109e8 <vsprintf+0x1d8>
 80109d2:	2200      	movs	r2, #0
 80109d4:	e016      	b.n	8010a04 <vsprintf+0x1f4>
 80109d6:	f8df 8168 	ldr.w	r8, [pc, #360]	; 8010b40 <vsprintf+0x330>
 80109da:	e7f3      	b.n	80109c4 <vsprintf+0x1b4>
 80109dc:	4620      	mov	r0, r4
 80109de:	2220      	movs	r2, #32
 80109e0:	f800 2b01 	strb.w	r2, [r0], #1
 80109e4:	461f      	mov	r7, r3
 80109e6:	4604      	mov	r4, r0
 80109e8:	1e7b      	subs	r3, r7, #1
 80109ea:	428f      	cmp	r7, r1
 80109ec:	dcf6      	bgt.n	80109dc <vsprintf+0x1cc>
 80109ee:	461f      	mov	r7, r3
 80109f0:	e7ef      	b.n	80109d2 <vsprintf+0x1c2>
 80109f2:	4643      	mov	r3, r8
 80109f4:	4620      	mov	r0, r4
 80109f6:	f813 4b01 	ldrb.w	r4, [r3], #1
 80109fa:	f800 4b01 	strb.w	r4, [r0], #1
 80109fe:	3201      	adds	r2, #1
 8010a00:	4698      	mov	r8, r3
 8010a02:	4604      	mov	r4, r0
 8010a04:	428a      	cmp	r2, r1
 8010a06:	dbf4      	blt.n	80109f2 <vsprintf+0x1e2>
 8010a08:	e005      	b.n	8010a16 <vsprintf+0x206>
 8010a0a:	4620      	mov	r0, r4
 8010a0c:	2220      	movs	r2, #32
 8010a0e:	f800 2b01 	strb.w	r2, [r0], #1
 8010a12:	461f      	mov	r7, r3
 8010a14:	4604      	mov	r4, r0
 8010a16:	1e7b      	subs	r3, r7, #1
 8010a18:	428f      	cmp	r7, r1
 8010a1a:	dcf6      	bgt.n	8010a0a <vsprintf+0x1fa>
 8010a1c:	e073      	b.n	8010b06 <vsprintf+0x2f6>
 8010a1e:	f1b7 3fff 	cmp.w	r7, #4294967295	; 0xffffffff
 8010a22:	d00c      	beq.n	8010a3e <vsprintf+0x22e>
 8010a24:	9a02      	ldr	r2, [sp, #8]
 8010a26:	1d11      	adds	r1, r2, #4
 8010a28:	9102      	str	r1, [sp, #8]
 8010a2a:	6811      	ldr	r1, [r2, #0]
 8010a2c:	9601      	str	r6, [sp, #4]
 8010a2e:	9300      	str	r3, [sp, #0]
 8010a30:	463b      	mov	r3, r7
 8010a32:	2210      	movs	r2, #16
 8010a34:	4620      	mov	r0, r4
 8010a36:	f7ff fd3e 	bl	80104b6 <number>
 8010a3a:	4604      	mov	r4, r0
 8010a3c:	e063      	b.n	8010b06 <vsprintf+0x2f6>
 8010a3e:	f046 0601 	orr.w	r6, r6, #1
 8010a42:	2708      	movs	r7, #8
 8010a44:	e7ee      	b.n	8010a24 <vsprintf+0x214>
 8010a46:	296c      	cmp	r1, #108	; 0x6c
 8010a48:	d006      	beq.n	8010a58 <vsprintf+0x248>
 8010a4a:	9b02      	ldr	r3, [sp, #8]
 8010a4c:	1d1a      	adds	r2, r3, #4
 8010a4e:	9202      	str	r2, [sp, #8]
 8010a50:	681b      	ldr	r3, [r3, #0]
 8010a52:	1b62      	subs	r2, r4, r5
 8010a54:	601a      	str	r2, [r3, #0]
 8010a56:	e056      	b.n	8010b06 <vsprintf+0x2f6>
 8010a58:	9b02      	ldr	r3, [sp, #8]
 8010a5a:	1d1a      	adds	r2, r3, #4
 8010a5c:	9202      	str	r2, [sp, #8]
 8010a5e:	681b      	ldr	r3, [r3, #0]
 8010a60:	1b62      	subs	r2, r4, r5
 8010a62:	601a      	str	r2, [r3, #0]
 8010a64:	e04f      	b.n	8010b06 <vsprintf+0x2f6>
 8010a66:	f046 0640 	orr.w	r6, r6, #64	; 0x40
 8010a6a:	296c      	cmp	r1, #108	; 0x6c
 8010a6c:	d00a      	beq.n	8010a84 <vsprintf+0x274>
 8010a6e:	9a02      	ldr	r2, [sp, #8]
 8010a70:	1d11      	adds	r1, r2, #4
 8010a72:	9102      	str	r1, [sp, #8]
 8010a74:	6811      	ldr	r1, [r2, #0]
 8010a76:	9600      	str	r6, [sp, #0]
 8010a78:	463a      	mov	r2, r7
 8010a7a:	4620      	mov	r0, r4
 8010a7c:	f7ff fe24 	bl	80106c8 <iaddr>
 8010a80:	4604      	mov	r4, r0
 8010a82:	e040      	b.n	8010b06 <vsprintf+0x2f6>
 8010a84:	9a02      	ldr	r2, [sp, #8]
 8010a86:	1d11      	adds	r1, r2, #4
 8010a88:	9102      	str	r1, [sp, #8]
 8010a8a:	6811      	ldr	r1, [r2, #0]
 8010a8c:	9600      	str	r6, [sp, #0]
 8010a8e:	463a      	mov	r2, r7
 8010a90:	4620      	mov	r0, r4
 8010a92:	f7ff fdc5 	bl	8010620 <eaddr>
 8010a96:	4604      	mov	r4, r0
 8010a98:	e035      	b.n	8010b06 <vsprintf+0x2f6>
 8010a9a:	2208      	movs	r2, #8
 8010a9c:	296c      	cmp	r1, #108	; 0x6c
 8010a9e:	d027      	beq.n	8010af0 <vsprintf+0x2e0>
 8010aa0:	2968      	cmp	r1, #104	; 0x68
 8010aa2:	d03e      	beq.n	8010b22 <vsprintf+0x312>
 8010aa4:	f016 0f02 	tst.w	r6, #2
 8010aa8:	d040      	beq.n	8010b2c <vsprintf+0x31c>
 8010aaa:	9902      	ldr	r1, [sp, #8]
 8010aac:	1d08      	adds	r0, r1, #4
 8010aae:	9002      	str	r0, [sp, #8]
 8010ab0:	6809      	ldr	r1, [r1, #0]
 8010ab2:	e021      	b.n	8010af8 <vsprintf+0x2e8>
 8010ab4:	f046 0640 	orr.w	r6, r6, #64	; 0x40
 8010ab8:	2210      	movs	r2, #16
 8010aba:	e7ef      	b.n	8010a9c <vsprintf+0x28c>
 8010abc:	f046 0602 	orr.w	r6, r6, #2
 8010ac0:	220a      	movs	r2, #10
 8010ac2:	e7eb      	b.n	8010a9c <vsprintf+0x28c>
 8010ac4:	2825      	cmp	r0, #37	; 0x25
 8010ac6:	d004      	beq.n	8010ad2 <vsprintf+0x2c2>
 8010ac8:	4620      	mov	r0, r4
 8010aca:	2325      	movs	r3, #37	; 0x25
 8010acc:	f800 3b01 	strb.w	r3, [r0], #1
 8010ad0:	4604      	mov	r4, r0
 8010ad2:	9b03      	ldr	r3, [sp, #12]
 8010ad4:	781a      	ldrb	r2, [r3, #0]
 8010ad6:	b122      	cbz	r2, 8010ae2 <vsprintf+0x2d2>
 8010ad8:	4620      	mov	r0, r4
 8010ada:	f800 2b01 	strb.w	r2, [r0], #1
 8010ade:	4604      	mov	r4, r0
 8010ae0:	e011      	b.n	8010b06 <vsprintf+0x2f6>
 8010ae2:	3b01      	subs	r3, #1
 8010ae4:	9303      	str	r3, [sp, #12]
 8010ae6:	e00e      	b.n	8010b06 <vsprintf+0x2f6>
 8010ae8:	220a      	movs	r2, #10
 8010aea:	e7d7      	b.n	8010a9c <vsprintf+0x28c>
 8010aec:	2210      	movs	r2, #16
 8010aee:	e7d5      	b.n	8010a9c <vsprintf+0x28c>
 8010af0:	9902      	ldr	r1, [sp, #8]
 8010af2:	1d08      	adds	r0, r1, #4
 8010af4:	9002      	str	r0, [sp, #8]
 8010af6:	6809      	ldr	r1, [r1, #0]
 8010af8:	9601      	str	r6, [sp, #4]
 8010afa:	9300      	str	r3, [sp, #0]
 8010afc:	463b      	mov	r3, r7
 8010afe:	4620      	mov	r0, r4
 8010b00:	f7ff fcd9 	bl	80104b6 <number>
 8010b04:	4604      	mov	r4, r0
 8010b06:	9b03      	ldr	r3, [sp, #12]
 8010b08:	3301      	adds	r3, #1
 8010b0a:	9303      	str	r3, [sp, #12]
 8010b0c:	9b03      	ldr	r3, [sp, #12]
 8010b0e:	781b      	ldrb	r3, [r3, #0]
 8010b10:	b18b      	cbz	r3, 8010b36 <vsprintf+0x326>
 8010b12:	2b25      	cmp	r3, #37	; 0x25
 8010b14:	f43f ae84 	beq.w	8010820 <vsprintf+0x10>
 8010b18:	4620      	mov	r0, r4
 8010b1a:	f800 3b01 	strb.w	r3, [r0], #1
 8010b1e:	4604      	mov	r4, r0
 8010b20:	e7f1      	b.n	8010b06 <vsprintf+0x2f6>
 8010b22:	f016 0f02 	tst.w	r6, #2
 8010b26:	d000      	beq.n	8010b2a <vsprintf+0x31a>
 8010b28:	deff      	udf	#255	; 0xff
 8010b2a:	deff      	udf	#255	; 0xff
 8010b2c:	9902      	ldr	r1, [sp, #8]
 8010b2e:	1d08      	adds	r0, r1, #4
 8010b30:	9002      	str	r0, [sp, #8]
 8010b32:	6809      	ldr	r1, [r1, #0]
 8010b34:	e7e0      	b.n	8010af8 <vsprintf+0x2e8>
 8010b36:	7023      	strb	r3, [r4, #0]
 8010b38:	1b60      	subs	r0, r4, r5
 8010b3a:	b004      	add	sp, #16
 8010b3c:	e8bd 81f0 	ldmia.w	sp!, {r4, r5, r6, r7, r8, pc}
 8010b40:	080189b8 	.word	0x080189b8

08010b44 <sprintf2>:
 8010b44:	b40e      	push	{r1, r2, r3}
 8010b46:	b510      	push	{r4, lr}
 8010b48:	b083      	sub	sp, #12
 8010b4a:	4604      	mov	r4, r0
 8010b4c:	aa05      	add	r2, sp, #20
 8010b4e:	f852 1b04 	ldr.w	r1, [r2], #4
 8010b52:	9201      	str	r2, [sp, #4]
 8010b54:	f7ff fe5c 	bl	8010810 <vsprintf>
 8010b58:	4620      	mov	r0, r4
 8010b5a:	b003      	add	sp, #12
 8010b5c:	e8bd 4010 	ldmia.w	sp!, {r4, lr}
 8010b60:	b003      	add	sp, #12
 8010b62:	4770      	bx	lr

08010b64 <int_abs>:
 8010b64:	2800      	cmp	r0, #0
 8010b66:	dd00      	ble.n	8010b6a <int_abs+0x6>
 8010b68:	4770      	bx	lr
 8010b6a:	4240      	negs	r0, r0
 8010b6c:	e7fc      	b.n	8010b68 <int_abs+0x4>

08010b6e <strndup>:
 8010b6e:	b570      	push	{r4, r5, r6, lr}
 8010b70:	4605      	mov	r5, r0
 8010b72:	f000 fff7 	bl	8011b64 <strnlen>
 8010b76:	4604      	mov	r4, r0
 8010b78:	3001      	adds	r0, #1
 8010b7a:	f001 fa3d 	bl	8011ff8 <malloc>
 8010b7e:	4606      	mov	r6, r0
 8010b80:	b128      	cbz	r0, 8010b8e <strndup+0x20>
 8010b82:	4622      	mov	r2, r4
 8010b84:	4629      	mov	r1, r5
 8010b86:	f000 ff61 	bl	8011a4c <strncpy>
 8010b8a:	2300      	movs	r3, #0
 8010b8c:	5533      	strb	r3, [r6, r4]
 8010b8e:	4630      	mov	r0, r6
 8010b90:	bd70      	pop	{r4, r5, r6, pc}

08010b92 <strdup>:
 8010b92:	b510      	push	{r4, lr}
 8010b94:	4604      	mov	r4, r0
 8010b96:	f000 ff0d 	bl	80119b4 <strlen>
 8010b9a:	4601      	mov	r1, r0
 8010b9c:	4620      	mov	r0, r4
 8010b9e:	f7ff ffe6 	bl	8010b6e <strndup>
 8010ba2:	bd10      	pop	{r4, pc}

08010ba4 <atoi>:
 8010ba4:	b570      	push	{r4, r5, r6, lr}
 8010ba6:	4605      	mov	r5, r0
 8010ba8:	2400      	movs	r4, #0
 8010baa:	192e      	adds	r6, r5, r4
 8010bac:	4913      	ldr	r1, [pc, #76]	; (8010bfc <atoi+0x58>)
 8010bae:	5d28      	ldrb	r0, [r5, r4]
 8010bb0:	f000 ff63 	bl	8011a7a <chrnlst>
 8010bb4:	4603      	mov	r3, r0
 8010bb6:	b108      	cbz	r0, 8010bbc <atoi+0x18>
 8010bb8:	3401      	adds	r4, #1
 8010bba:	e7f6      	b.n	8010baa <atoi+0x6>
 8010bbc:	7832      	ldrb	r2, [r6, #0]
 8010bbe:	2a2d      	cmp	r2, #45	; 0x2d
 8010bc0:	d003      	beq.n	8010bca <atoi+0x26>
 8010bc2:	2a2b      	cmp	r2, #43	; 0x2b
 8010bc4:	d004      	beq.n	8010bd0 <atoi+0x2c>
 8010bc6:	4618      	mov	r0, r3
 8010bc8:	e00a      	b.n	8010be0 <atoi+0x3c>
 8010bca:	3401      	adds	r4, #1
 8010bcc:	2001      	movs	r0, #1
 8010bce:	e007      	b.n	8010be0 <atoi+0x3c>
 8010bd0:	3401      	adds	r4, #1
 8010bd2:	e005      	b.n	8010be0 <atoi+0x3c>
 8010bd4:	eb03 0383 	add.w	r3, r3, r3, lsl #2
 8010bd8:	3a30      	subs	r2, #48	; 0x30
 8010bda:	eb02 0343 	add.w	r3, r2, r3, lsl #1
 8010bde:	3401      	adds	r4, #1
 8010be0:	5d2a      	ldrb	r2, [r5, r4]
 8010be2:	f1a2 0130 	sub.w	r1, r2, #48	; 0x30
 8010be6:	b2c9      	uxtb	r1, r1
 8010be8:	2909      	cmp	r1, #9
 8010bea:	d9f3      	bls.n	8010bd4 <atoi+0x30>
 8010bec:	b120      	cbz	r0, 8010bf8 <atoi+0x54>
 8010bee:	f04f 30ff 	mov.w	r0, #4294967295	; 0xffffffff
 8010bf2:	fb00 f003 	mul.w	r0, r0, r3
 8010bf6:	bd70      	pop	{r4, r5, r6, pc}
 8010bf8:	2001      	movs	r0, #1
 8010bfa:	e7fa      	b.n	8010bf2 <atoi+0x4e>
 8010bfc:	080189c0 	.word	0x080189c0

08010c00 <uitoa>:
 8010c00:	b5f0      	push	{r4, r5, r6, r7, lr}
 8010c02:	b08b      	sub	sp, #44	; 0x2c
 8010c04:	4604      	mov	r4, r0
 8010c06:	460e      	mov	r6, r1
 8010c08:	4696      	mov	lr, r2
 8010c0a:	461d      	mov	r5, r3
 8010c0c:	af01      	add	r7, sp, #4
 8010c0e:	f8df c068 	ldr.w	ip, [pc, #104]	; 8010c78 <uitoa+0x78>
 8010c12:	e8bc 000f 	ldmia.w	ip!, {r0, r1, r2, r3}
 8010c16:	c70f      	stmia	r7!, {r0, r1, r2, r3}
 8010c18:	e8bc 000f 	ldmia.w	ip!, {r0, r1, r2, r3}
 8010c1c:	c70f      	stmia	r7!, {r0, r1, r2, r3}
 8010c1e:	f8dc 3000 	ldr.w	r3, [ip]
 8010c22:	603b      	str	r3, [r7, #0]
 8010c24:	f1be 0f00 	cmp.w	lr, #0
 8010c28:	d01f      	beq.n	8010c6a <uitoa+0x6a>
 8010c2a:	4671      	mov	r1, lr
 8010c2c:	1eab      	subs	r3, r5, #2
 8010c2e:	2b22      	cmp	r3, #34	; 0x22
 8010c30:	d81d      	bhi.n	8010c6e <uitoa+0x6e>
 8010c32:	2000      	movs	r0, #0
 8010c34:	e000      	b.n	8010c38 <uitoa+0x38>
 8010c36:	461c      	mov	r4, r3
 8010c38:	fbb4 f2f5 	udiv	r2, r4, r5
 8010c3c:	fb05 4212 	mls	r2, r5, r2, r4
 8010c40:	af0a      	add	r7, sp, #40	; 0x28
 8010c42:	443a      	add	r2, r7
 8010c44:	f812 2c24 	ldrb.w	r2, [r2, #-36]
 8010c48:	5432      	strb	r2, [r6, r0]
 8010c4a:	3001      	adds	r0, #1
 8010c4c:	3901      	subs	r1, #1
 8010c4e:	d003      	beq.n	8010c58 <uitoa+0x58>
 8010c50:	fbb4 f3f5 	udiv	r3, r4, r5
 8010c54:	42ac      	cmp	r4, r5
 8010c56:	d2ee      	bcs.n	8010c36 <uitoa+0x36>
 8010c58:	b159      	cbz	r1, 8010c72 <uitoa+0x72>
 8010c5a:	2300      	movs	r3, #0
 8010c5c:	5433      	strb	r3, [r6, r0]
 8010c5e:	4630      	mov	r0, r6
 8010c60:	f000 feb0 	bl	80119c4 <strreverse>
 8010c64:	4630      	mov	r0, r6
 8010c66:	b00b      	add	sp, #44	; 0x2c
 8010c68:	bdf0      	pop	{r4, r5, r6, r7, pc}
 8010c6a:	2000      	movs	r0, #0
 8010c6c:	e7fb      	b.n	8010c66 <uitoa+0x66>
 8010c6e:	2000      	movs	r0, #0
 8010c70:	e7f9      	b.n	8010c66 <uitoa+0x66>
 8010c72:	2000      	movs	r0, #0
 8010c74:	e7f7      	b.n	8010c66 <uitoa+0x66>
 8010c76:	bf00      	nop
 8010c78:	080189c8 	.word	0x080189c8

08010c7c <itoa>:
 8010c7c:	b1b2      	cbz	r2, 8010cac <itoa+0x30>
 8010c7e:	b5f8      	push	{r3, r4, r5, r6, r7, lr}
 8010c80:	460e      	mov	r6, r1
 8010c82:	461c      	mov	r4, r3
 8010c84:	4615      	mov	r5, r2
 8010c86:	3b02      	subs	r3, #2
 8010c88:	2b22      	cmp	r3, #34	; 0x22
 8010c8a:	d811      	bhi.n	8010cb0 <itoa+0x34>
 8010c8c:	2800      	cmp	r0, #0
 8010c8e:	db08      	blt.n	8010ca2 <itoa+0x26>
 8010c90:	2700      	movs	r7, #0
 8010c92:	f7ff ff67 	bl	8010b64 <int_abs>
 8010c96:	4623      	mov	r3, r4
 8010c98:	462a      	mov	r2, r5
 8010c9a:	19f1      	adds	r1, r6, r7
 8010c9c:	f7ff ffb0 	bl	8010c00 <uitoa>
 8010ca0:	bdf8      	pop	{r3, r4, r5, r6, r7, pc}
 8010ca2:	232d      	movs	r3, #45	; 0x2d
 8010ca4:	700b      	strb	r3, [r1, #0]
 8010ca6:	1e55      	subs	r5, r2, #1
 8010ca8:	2701      	movs	r7, #1
 8010caa:	e7f2      	b.n	8010c92 <itoa+0x16>
 8010cac:	2000      	movs	r0, #0
 8010cae:	4770      	bx	lr
 8010cb0:	2000      	movs	r0, #0
 8010cb2:	e7f5      	b.n	8010ca0 <itoa+0x24>

08010cb4 <ftoa>:
 8010cb4:	b570      	push	{r4, r5, r6, lr}
 8010cb6:	ed2d 8b04 	vpush	{d8-d9}
 8010cba:	4606      	mov	r6, r0
 8010cbc:	460d      	mov	r5, r1
 8010cbe:	ee10 2a10 	vmov	r2, s0
 8010cc2:	f022 4300 	bic.w	r3, r2, #2147483648	; 0x80000000
 8010cc6:	f1b3 4fff 	cmp.w	r3, #2139095040	; 0x7f800000
 8010cca:	d81e      	bhi.n	8010d0a <ftoa+0x56>
 8010ccc:	eeb0 8a40 	vmov.f32	s16, s0
 8010cd0:	eeb0 9a60 	vmov.f32	s18, s1
 8010cd4:	f1b3 4fff 	cmp.w	r3, #2139095040	; 0x7f800000
 8010cd8:	d034      	beq.n	8010d44 <ftoa+0x90>
 8010cda:	eeb5 0ac0 	vcmpe.f32	s0, #0.0
 8010cde:	eef1 fa10 	vmrs	APSR_nzcv, fpscr
 8010ce2:	d476      	bmi.n	8010dd2 <ftoa+0x11e>
 8010ce4:	2001      	movs	r0, #1
 8010ce6:	eeb0 0a48 	vmov.f32	s0, s16
 8010cea:	f001 f9c6 	bl	801207a <logarithm>
 8010cee:	eefd 7ac0 	vcvt.s32.f32	s15, s0
 8010cf2:	ee17 4a90 	vmov	r4, s15
 8010cf6:	2c00      	cmp	r4, #0
 8010cf8:	da75      	bge.n	8010de6 <ftoa+0x132>
 8010cfa:	4633      	mov	r3, r6
 8010cfc:	2230      	movs	r2, #48	; 0x30
 8010cfe:	f803 2b02 	strb.w	r2, [r3], #2
 8010d02:	222e      	movs	r2, #46	; 0x2e
 8010d04:	7072      	strb	r2, [r6, #1]
 8010d06:	461e      	mov	r6, r3
 8010d08:	e06d      	b.n	8010de6 <ftoa+0x132>
 8010d0a:	226e      	movs	r2, #110	; 0x6e
 8010d0c:	7002      	strb	r2, [r0, #0]
 8010d0e:	2301      	movs	r3, #1
 8010d10:	fbb3 f3f1 	udiv	r3, r3, r1
 8010d14:	fb01 f303 	mul.w	r3, r1, r3
 8010d18:	f1c3 0301 	rsb	r3, r3, #1
 8010d1c:	2161      	movs	r1, #97	; 0x61
 8010d1e:	54c1      	strb	r1, [r0, r3]
 8010d20:	2302      	movs	r3, #2
 8010d22:	fbb3 f3f5 	udiv	r3, r3, r5
 8010d26:	fb05 f303 	mul.w	r3, r5, r3
 8010d2a:	f1c3 0302 	rsb	r3, r3, #2
 8010d2e:	54c2      	strb	r2, [r0, r3]
 8010d30:	2303      	movs	r3, #3
 8010d32:	fbb3 f3f5 	udiv	r3, r3, r5
 8010d36:	fb05 f503 	mul.w	r5, r5, r3
 8010d3a:	f1c5 0503 	rsb	r5, r5, #3
 8010d3e:	2300      	movs	r3, #0
 8010d40:	5543      	strb	r3, [r0, r5]
 8010d42:	e089      	b.n	8010e58 <ftoa+0x1a4>
 8010d44:	2a00      	cmp	r2, #0
 8010d46:	db1d      	blt.n	8010d84 <ftoa+0xd0>
 8010d48:	2369      	movs	r3, #105	; 0x69
 8010d4a:	7003      	strb	r3, [r0, #0]
 8010d4c:	2301      	movs	r3, #1
 8010d4e:	fbb3 f3f1 	udiv	r3, r3, r1
 8010d52:	fb01 f303 	mul.w	r3, r1, r3
 8010d56:	f1c3 0301 	rsb	r3, r3, #1
 8010d5a:	226e      	movs	r2, #110	; 0x6e
 8010d5c:	54c2      	strb	r2, [r0, r3]
 8010d5e:	2302      	movs	r3, #2
 8010d60:	fbb3 f3f1 	udiv	r3, r3, r1
 8010d64:	fb01 f303 	mul.w	r3, r1, r3
 8010d68:	f1c3 0302 	rsb	r3, r3, #2
 8010d6c:	2266      	movs	r2, #102	; 0x66
 8010d6e:	54c2      	strb	r2, [r0, r3]
 8010d70:	2303      	movs	r3, #3
 8010d72:	fbb3 f3f1 	udiv	r3, r3, r1
 8010d76:	fb05 f503 	mul.w	r5, r5, r3
 8010d7a:	f1c5 0503 	rsb	r5, r5, #3
 8010d7e:	2300      	movs	r3, #0
 8010d80:	5543      	strb	r3, [r0, r5]
 8010d82:	e069      	b.n	8010e58 <ftoa+0x1a4>
 8010d84:	232d      	movs	r3, #45	; 0x2d
 8010d86:	7003      	strb	r3, [r0, #0]
 8010d88:	2301      	movs	r3, #1
 8010d8a:	fbb3 f3f1 	udiv	r3, r3, r1
 8010d8e:	fb01 f303 	mul.w	r3, r1, r3
 8010d92:	f1c3 0301 	rsb	r3, r3, #1
 8010d96:	2269      	movs	r2, #105	; 0x69
 8010d98:	54c2      	strb	r2, [r0, r3]
 8010d9a:	2302      	movs	r3, #2
 8010d9c:	fbb3 f3f1 	udiv	r3, r3, r1
 8010da0:	fb01 f303 	mul.w	r3, r1, r3
 8010da4:	f1c3 0302 	rsb	r3, r3, #2
 8010da8:	226e      	movs	r2, #110	; 0x6e
 8010daa:	54c2      	strb	r2, [r0, r3]
 8010dac:	2303      	movs	r3, #3
 8010dae:	fbb3 f3f1 	udiv	r3, r3, r1
 8010db2:	fb01 f303 	mul.w	r3, r1, r3
 8010db6:	f1c3 0303 	rsb	r3, r3, #3
 8010dba:	2266      	movs	r2, #102	; 0x66
 8010dbc:	54c2      	strb	r2, [r0, r3]
 8010dbe:	2304      	movs	r3, #4
 8010dc0:	fbb3 f3f1 	udiv	r3, r3, r1
 8010dc4:	fb05 f503 	mul.w	r5, r5, r3
 8010dc8:	f1c5 0504 	rsb	r5, r5, #4
 8010dcc:	2300      	movs	r3, #0
 8010dce:	5543      	strb	r3, [r0, r5]
 8010dd0:	e042      	b.n	8010e58 <ftoa+0x1a4>
 8010dd2:	232d      	movs	r3, #45	; 0x2d
 8010dd4:	f806 3b01 	strb.w	r3, [r6], #1
 8010dd8:	1e4d      	subs	r5, r1, #1
 8010dda:	eeb1 8a40 	vneg.f32	s16, s0
 8010dde:	e781      	b.n	8010ce4 <ftoa+0x30>
 8010de0:	3c01      	subs	r4, #1
 8010de2:	461d      	mov	r5, r3
 8010de4:	4616      	mov	r6, r2
 8010de6:	eddf 7a21 	vldr	s15, [pc, #132]	; 8010e6c <ftoa+0x1b8>
 8010dea:	ee79 7a27 	vadd.f32	s15, s18, s15
 8010dee:	eef4 7ac8 	vcmpe.f32	s15, s16
 8010df2:	eef1 fa10 	vmrs	APSR_nzcv, fpscr
 8010df6:	d401      	bmi.n	8010dfc <ftoa+0x148>
 8010df8:	2c00      	cmp	r4, #0
 8010dfa:	db27      	blt.n	8010e4c <ftoa+0x198>
 8010dfc:	2d01      	cmp	r5, #1
 8010dfe:	d925      	bls.n	8010e4c <ftoa+0x198>
 8010e00:	ee07 4a90 	vmov	s15, r4
 8010e04:	eef8 0ae7 	vcvt.f32.s32	s1, s15
 8010e08:	eeb2 0a04 	vmov.f32	s0, #36	; 0x41200000  10.0
 8010e0c:	f001 faf6 	bl	80123fc <powf>
 8010e10:	eef0 8a40 	vmov.f32	s17, s0
 8010e14:	ee88 0a28 	vdiv.f32	s0, s16, s17
 8010e18:	f001 f9ea 	bl	80121f0 <floorf>
 8010e1c:	eefd 7ac0 	vcvt.s32.f32	s15, s0
 8010e20:	eeb8 0ae7 	vcvt.f32.s32	s0, s15
 8010e24:	ee60 8a28 	vmul.f32	s17, s0, s17
 8010e28:	ee38 8a68 	vsub.f32	s16, s16, s17
 8010e2c:	4632      	mov	r2, r6
 8010e2e:	ee17 3a90 	vmov	r3, s15
 8010e32:	3330      	adds	r3, #48	; 0x30
 8010e34:	f802 3b01 	strb.w	r3, [r2], #1
 8010e38:	1e6b      	subs	r3, r5, #1
 8010e3a:	2c00      	cmp	r4, #0
 8010e3c:	d1d0      	bne.n	8010de0 <ftoa+0x12c>
 8010e3e:	2b01      	cmp	r3, #1
 8010e40:	d9ce      	bls.n	8010de0 <ftoa+0x12c>
 8010e42:	1cb2      	adds	r2, r6, #2
 8010e44:	232e      	movs	r3, #46	; 0x2e
 8010e46:	7073      	strb	r3, [r6, #1]
 8010e48:	1eab      	subs	r3, r5, #2
 8010e4a:	e7c9      	b.n	8010de0 <ftoa+0x12c>
 8010e4c:	f816 3c01 	ldrb.w	r3, [r6, #-1]
 8010e50:	2b2e      	cmp	r3, #46	; 0x2e
 8010e52:	d004      	beq.n	8010e5e <ftoa+0x1aa>
 8010e54:	2300      	movs	r3, #0
 8010e56:	7033      	strb	r3, [r6, #0]
 8010e58:	ecbd 8b04 	vpop	{d8-d9}
 8010e5c:	bd70      	pop	{r4, r5, r6, pc}
 8010e5e:	2d01      	cmp	r5, #1
 8010e60:	d9f8      	bls.n	8010e54 <ftoa+0x1a0>
 8010e62:	2330      	movs	r3, #48	; 0x30
 8010e64:	f806 3b01 	strb.w	r3, [r6], #1
 8010e68:	e7f4      	b.n	8010e54 <ftoa+0x1a0>
 8010e6a:	bf00      	nop
 8010e6c:	00000000 	.word	0x00000000

08010e70 <bzero>:
 8010e70:	2900      	cmp	r1, #0
 8010e72:	dd04      	ble.n	8010e7e <bzero+0xe>
 8010e74:	2200      	movs	r2, #0
 8010e76:	7002      	strb	r2, [r0, #0]
 8010e78:	3001      	adds	r0, #1
 8010e7a:	3901      	subs	r1, #1
 8010e7c:	d1fa      	bne.n	8010e74 <bzero+0x4>
 8010e7e:	4770      	bx	lr

08010e80 <_prtl10>:
 8010e80:	b410      	push	{r4}
 8010e82:	b085      	sub	sp, #20
 8010e84:	2300      	movs	r3, #0
 8010e86:	f88d 3004 	strb.w	r3, [sp, #4]
 8010e8a:	2800      	cmp	r0, #0
 8010e8c:	db15      	blt.n	8010eba <_prtl10+0x3a>
 8010e8e:	4a2a      	ldr	r2, [pc, #168]	; (8010f38 <_prtl10+0xb8>)
 8010e90:	fb82 3200 	smull	r3, r2, r2, r0
 8010e94:	17c3      	asrs	r3, r0, #31
 8010e96:	ebc3 03a2 	rsb	r3, r3, r2, asr #2
 8010e9a:	eb03 0383 	add.w	r3, r3, r3, lsl #2
 8010e9e:	eba0 0343 	sub.w	r3, r0, r3, lsl #1
 8010ea2:	b2db      	uxtb	r3, r3
 8010ea4:	3330      	adds	r3, #48	; 0x30
 8010ea6:	b2db      	uxtb	r3, r3
 8010ea8:	f88d 3005 	strb.w	r3, [sp, #5]
 8010eac:	2800      	cmp	r0, #0
 8010eae:	db13      	blt.n	8010ed8 <_prtl10+0x58>
 8010eb0:	230a      	movs	r3, #10
 8010eb2:	fb90 f0f3 	sdiv	r0, r0, r3
 8010eb6:	2202      	movs	r2, #2
 8010eb8:	e023      	b.n	8010f02 <_prtl10+0x82>
 8010eba:	4a1f      	ldr	r2, [pc, #124]	; (8010f38 <_prtl10+0xb8>)
 8010ebc:	fb82 3200 	smull	r3, r2, r2, r0
 8010ec0:	17c3      	asrs	r3, r0, #31
 8010ec2:	ebc3 03a2 	rsb	r3, r3, r2, asr #2
 8010ec6:	eb03 0383 	add.w	r3, r3, r3, lsl #2
 8010eca:	eba0 0343 	sub.w	r3, r0, r3, lsl #1
 8010ece:	b2db      	uxtb	r3, r3
 8010ed0:	f1c3 0330 	rsb	r3, r3, #48	; 0x30
 8010ed4:	b2db      	uxtb	r3, r3
 8010ed6:	e7e7      	b.n	8010ea8 <_prtl10+0x28>
 8010ed8:	f06f 0309 	mvn.w	r3, #9
 8010edc:	e7e9      	b.n	8010eb2 <_prtl10+0x32>
 8010ede:	4c16      	ldr	r4, [pc, #88]	; (8010f38 <_prtl10+0xb8>)
 8010ee0:	fb84 3400 	smull	r3, r4, r4, r0
 8010ee4:	17c3      	asrs	r3, r0, #31
 8010ee6:	ebc3 03a4 	rsb	r3, r3, r4, asr #2
 8010eea:	461c      	mov	r4, r3
 8010eec:	eb03 0383 	add.w	r3, r3, r3, lsl #2
 8010ef0:	eba0 0343 	sub.w	r3, r0, r3, lsl #1
 8010ef4:	3330      	adds	r3, #48	; 0x30
 8010ef6:	a804      	add	r0, sp, #16
 8010ef8:	4410      	add	r0, r2
 8010efa:	f800 3c0c 	strb.w	r3, [r0, #-12]
 8010efe:	4620      	mov	r0, r4
 8010f00:	3201      	adds	r2, #1
 8010f02:	2a0a      	cmp	r2, #10
 8010f04:	ddeb      	ble.n	8010ede <_prtl10+0x5e>
 8010f06:	230a      	movs	r3, #10
 8010f08:	aa04      	add	r2, sp, #16
 8010f0a:	441a      	add	r2, r3
 8010f0c:	f812 2c0c 	ldrb.w	r2, [r2, #-12]
 8010f10:	2a30      	cmp	r2, #48	; 0x30
 8010f12:	d101      	bne.n	8010f18 <_prtl10+0x98>
 8010f14:	3b01      	subs	r3, #1
 8010f16:	e7f7      	b.n	8010f08 <_prtl10+0x88>
 8010f18:	b903      	cbnz	r3, 8010f1c <_prtl10+0x9c>
 8010f1a:	3301      	adds	r3, #1
 8010f1c:	2b00      	cmp	r3, #0
 8010f1e:	db07      	blt.n	8010f30 <_prtl10+0xb0>
 8010f20:	aa04      	add	r2, sp, #16
 8010f22:	441a      	add	r2, r3
 8010f24:	f812 2c0c 	ldrb.w	r2, [r2, #-12]
 8010f28:	f801 2b01 	strb.w	r2, [r1], #1
 8010f2c:	3b01      	subs	r3, #1
 8010f2e:	e7f5      	b.n	8010f1c <_prtl10+0x9c>
 8010f30:	b005      	add	sp, #20
 8010f32:	f85d 4b04 	ldr.w	r4, [sp], #4
 8010f36:	4770      	bx	lr
 8010f38:	66666667 	.word	0x66666667

08010f3c <_prtl8>:
 8010f3c:	b410      	push	{r4}
 8010f3e:	b085      	sub	sp, #20
 8010f40:	2300      	movs	r3, #0
 8010f42:	f88d 3004 	strb.w	r3, [sp, #4]
 8010f46:	2301      	movs	r3, #1
 8010f48:	e008      	b.n	8010f5c <_prtl8+0x20>
 8010f4a:	f000 0207 	and.w	r2, r0, #7
 8010f4e:	3230      	adds	r2, #48	; 0x30
 8010f50:	ac04      	add	r4, sp, #16
 8010f52:	441c      	add	r4, r3
 8010f54:	f804 2c0c 	strb.w	r2, [r4, #-12]
 8010f58:	10c0      	asrs	r0, r0, #3
 8010f5a:	3301      	adds	r3, #1
 8010f5c:	2b0b      	cmp	r3, #11
 8010f5e:	ddf4      	ble.n	8010f4a <_prtl8+0xe>
 8010f60:	f89d 300f 	ldrb.w	r3, [sp, #15]
 8010f64:	f003 0333 	and.w	r3, r3, #51	; 0x33
 8010f68:	f88d 300f 	strb.w	r3, [sp, #15]
 8010f6c:	230b      	movs	r3, #11
 8010f6e:	aa04      	add	r2, sp, #16
 8010f70:	441a      	add	r2, r3
 8010f72:	f812 2c0c 	ldrb.w	r2, [r2, #-12]
 8010f76:	2a30      	cmp	r2, #48	; 0x30
 8010f78:	d101      	bne.n	8010f7e <_prtl8+0x42>
 8010f7a:	3b01      	subs	r3, #1
 8010f7c:	e7f7      	b.n	8010f6e <_prtl8+0x32>
 8010f7e:	b903      	cbnz	r3, 8010f82 <_prtl8+0x46>
 8010f80:	3301      	adds	r3, #1
 8010f82:	2b00      	cmp	r3, #0
 8010f84:	db07      	blt.n	8010f96 <_prtl8+0x5a>
 8010f86:	aa04      	add	r2, sp, #16
 8010f88:	441a      	add	r2, r3
 8010f8a:	f812 2c0c 	ldrb.w	r2, [r2, #-12]
 8010f8e:	f801 2b01 	strb.w	r2, [r1], #1
 8010f92:	3b01      	subs	r3, #1
 8010f94:	e7f5      	b.n	8010f82 <_prtl8+0x46>
 8010f96:	b005      	add	sp, #20
 8010f98:	f85d 4b04 	ldr.w	r4, [sp], #4
 8010f9c:	4770      	bx	lr

08010f9e <_prtl16>:
 8010f9e:	b410      	push	{r4}
 8010fa0:	b085      	sub	sp, #20
 8010fa2:	2300      	movs	r3, #0
 8010fa4:	f88d 3004 	strb.w	r3, [sp, #4]
 8010fa8:	2301      	movs	r3, #1
 8010faa:	e009      	b.n	8010fc0 <_prtl16+0x22>
 8010fac:	f000 020f 	and.w	r2, r0, #15
 8010fb0:	4c11      	ldr	r4, [pc, #68]	; (8010ff8 <_prtl16+0x5a>)
 8010fb2:	5ca4      	ldrb	r4, [r4, r2]
 8010fb4:	aa04      	add	r2, sp, #16
 8010fb6:	441a      	add	r2, r3
 8010fb8:	f802 4c0c 	strb.w	r4, [r2, #-12]
 8010fbc:	1100      	asrs	r0, r0, #4
 8010fbe:	3301      	adds	r3, #1
 8010fc0:	2b08      	cmp	r3, #8
 8010fc2:	ddf3      	ble.n	8010fac <_prtl16+0xe>
 8010fc4:	2308      	movs	r3, #8
 8010fc6:	aa04      	add	r2, sp, #16
 8010fc8:	441a      	add	r2, r3
 8010fca:	f812 2c0c 	ldrb.w	r2, [r2, #-12]
 8010fce:	2a30      	cmp	r2, #48	; 0x30
 8010fd0:	d101      	bne.n	8010fd6 <_prtl16+0x38>
 8010fd2:	3b01      	subs	r3, #1
 8010fd4:	e7f7      	b.n	8010fc6 <_prtl16+0x28>
 8010fd6:	b943      	cbnz	r3, 8010fea <_prtl16+0x4c>
 8010fd8:	3301      	adds	r3, #1
 8010fda:	e006      	b.n	8010fea <_prtl16+0x4c>
 8010fdc:	aa04      	add	r2, sp, #16
 8010fde:	441a      	add	r2, r3
 8010fe0:	f812 2c0c 	ldrb.w	r2, [r2, #-12]
 8010fe4:	f801 2b01 	strb.w	r2, [r1], #1
 8010fe8:	3b01      	subs	r3, #1
 8010fea:	2b00      	cmp	r3, #0
 8010fec:	daf6      	bge.n	8010fdc <_prtl16+0x3e>
 8010fee:	b005      	add	sp, #20
 8010ff0:	f85d 4b04 	ldr.w	r4, [sp], #4
 8010ff4:	4770      	bx	lr
 8010ff6:	bf00      	nop
 8010ff8:	080189ec 	.word	0x080189ec

08010ffc <_prtX16>:
 8010ffc:	b410      	push	{r4}
 8010ffe:	b085      	sub	sp, #20
 8011000:	2300      	movs	r3, #0
 8011002:	f88d 3004 	strb.w	r3, [sp, #4]
 8011006:	2301      	movs	r3, #1
 8011008:	e009      	b.n	801101e <_prtX16+0x22>
 801100a:	f000 020f 	and.w	r2, r0, #15
 801100e:	4c11      	ldr	r4, [pc, #68]	; (8011054 <_prtX16+0x58>)
 8011010:	5ca4      	ldrb	r4, [r4, r2]
 8011012:	aa04      	add	r2, sp, #16
 8011014:	441a      	add	r2, r3
 8011016:	f802 4c0c 	strb.w	r4, [r2, #-12]
 801101a:	1100      	asrs	r0, r0, #4
 801101c:	3301      	adds	r3, #1
 801101e:	2b08      	cmp	r3, #8
 8011020:	ddf3      	ble.n	801100a <_prtX16+0xe>
 8011022:	2308      	movs	r3, #8
 8011024:	aa04      	add	r2, sp, #16
 8011026:	441a      	add	r2, r3
 8011028:	f812 2c0c 	ldrb.w	r2, [r2, #-12]
 801102c:	2a30      	cmp	r2, #48	; 0x30
 801102e:	d101      	bne.n	8011034 <_prtX16+0x38>
 8011030:	3b01      	subs	r3, #1
 8011032:	e7f7      	b.n	8011024 <_prtX16+0x28>
 8011034:	b943      	cbnz	r3, 8011048 <_prtX16+0x4c>
 8011036:	3301      	adds	r3, #1
 8011038:	e006      	b.n	8011048 <_prtX16+0x4c>
 801103a:	aa04      	add	r2, sp, #16
 801103c:	441a      	add	r2, r3
 801103e:	f812 2c0c 	ldrb.w	r2, [r2, #-12]
 8011042:	f801 2b01 	strb.w	r2, [r1], #1
 8011046:	3b01      	subs	r3, #1
 8011048:	2b00      	cmp	r3, #0
 801104a:	daf6      	bge.n	801103a <_prtX16+0x3e>
 801104c:	b005      	add	sp, #20
 801104e:	f85d 4b04 	ldr.w	r4, [sp], #4
 8011052:	4770      	bx	lr
 8011054:	08018a00 	.word	0x08018a00

08011058 <_prtl2>:
 8011058:	b410      	push	{r4}
 801105a:	b08b      	sub	sp, #44	; 0x2c
 801105c:	2300      	movs	r3, #0
 801105e:	f88d 3004 	strb.w	r3, [sp, #4]
 8011062:	2301      	movs	r3, #1
 8011064:	e006      	b.n	8011074 <_prtl2+0x1c>
 8011066:	2431      	movs	r4, #49	; 0x31
 8011068:	aa0a      	add	r2, sp, #40	; 0x28
 801106a:	441a      	add	r2, r3
 801106c:	f802 4c24 	strb.w	r4, [r2, #-36]
 8011070:	1040      	asrs	r0, r0, #1
 8011072:	3301      	adds	r3, #1
 8011074:	2b20      	cmp	r3, #32
 8011076:	dc04      	bgt.n	8011082 <_prtl2+0x2a>
 8011078:	f010 0f01 	tst.w	r0, #1
 801107c:	d1f3      	bne.n	8011066 <_prtl2+0xe>
 801107e:	2430      	movs	r4, #48	; 0x30
 8011080:	e7f2      	b.n	8011068 <_prtl2+0x10>
 8011082:	2320      	movs	r3, #32
 8011084:	aa0a      	add	r2, sp, #40	; 0x28
 8011086:	441a      	add	r2, r3
 8011088:	f812 2c24 	ldrb.w	r2, [r2, #-36]
 801108c:	2a30      	cmp	r2, #48	; 0x30
 801108e:	d101      	bne.n	8011094 <_prtl2+0x3c>
 8011090:	3b01      	subs	r3, #1
 8011092:	e7f7      	b.n	8011084 <_prtl2+0x2c>
 8011094:	b943      	cbnz	r3, 80110a8 <_prtl2+0x50>
 8011096:	3301      	adds	r3, #1
 8011098:	e006      	b.n	80110a8 <_prtl2+0x50>
 801109a:	aa0a      	add	r2, sp, #40	; 0x28
 801109c:	441a      	add	r2, r3
 801109e:	f812 2c24 	ldrb.w	r2, [r2, #-36]
 80110a2:	f801 2b01 	strb.w	r2, [r1], #1
 80110a6:	3b01      	subs	r3, #1
 80110a8:	2b00      	cmp	r3, #0
 80110aa:	daf6      	bge.n	801109a <_prtl2+0x42>
 80110ac:	b00b      	add	sp, #44	; 0x2c
 80110ae:	f85d 4b04 	ldr.w	r4, [sp], #4
 80110b2:	4770      	bx	lr

080110b4 <_fdoprnt>:
 80110b4:	e92d 4ff0 	stmdb	sp!, {r4, r5, r6, r7, r8, r9, sl, fp, lr}
 80110b8:	b08b      	sub	sp, #44	; 0x2c
 80110ba:	4604      	mov	r4, r0
 80110bc:	9103      	str	r1, [sp, #12]
 80110be:	4615      	mov	r5, r2
 80110c0:	461e      	mov	r6, r3
 80110c2:	4627      	mov	r7, r4
 80110c4:	f817 1b01 	ldrb.w	r1, [r7], #1
 80110c8:	2925      	cmp	r1, #37	; 0x25
 80110ca:	d006      	beq.n	80110da <_fdoprnt+0x26>
 80110cc:	2900      	cmp	r1, #0
 80110ce:	f000 8087 	beq.w	80111e0 <_fdoprnt+0x12c>
 80110d2:	4630      	mov	r0, r6
 80110d4:	47a8      	blx	r5
 80110d6:	463c      	mov	r4, r7
 80110d8:	e7f3      	b.n	80110c2 <_fdoprnt+0xe>
 80110da:	f897 b000 	ldrb.w	fp, [r7]
 80110de:	f1bb 0f25 	cmp.w	fp, #37	; 0x25
 80110e2:	d043      	beq.n	801116c <_fdoprnt+0xb8>
 80110e4:	f1bb 0f2d 	cmp.w	fp, #45	; 0x2d
 80110e8:	d045      	beq.n	8011176 <_fdoprnt+0xc2>
 80110ea:	783b      	ldrb	r3, [r7, #0]
 80110ec:	9301      	str	r3, [sp, #4]
 80110ee:	2b30      	cmp	r3, #48	; 0x30
 80110f0:	d043      	beq.n	801117a <_fdoprnt+0xc6>
 80110f2:	2320      	movs	r3, #32
 80110f4:	9301      	str	r3, [sp, #4]
 80110f6:	783b      	ldrb	r3, [r7, #0]
 80110f8:	2b2a      	cmp	r3, #42	; 0x2a
 80110fa:	d14e      	bne.n	801119a <_fdoprnt+0xe6>
 80110fc:	9b03      	ldr	r3, [sp, #12]
 80110fe:	1d1a      	adds	r2, r3, #4
 8011100:	9203      	str	r2, [sp, #12]
 8011102:	f8d3 9000 	ldr.w	r9, [r3]
 8011106:	3701      	adds	r7, #1
 8011108:	783b      	ldrb	r3, [r7, #0]
 801110a:	2b2e      	cmp	r3, #46	; 0x2e
 801110c:	d048      	beq.n	80111a0 <_fdoprnt+0xec>
 801110e:	f04f 0800 	mov.w	r8, #0
 8011112:	463c      	mov	r4, r7
 8011114:	f814 1b01 	ldrb.w	r1, [r4], #1
 8011118:	2900      	cmp	r1, #0
 801111a:	d05e      	beq.n	80111da <_fdoprnt+0x126>
 801111c:	f1a1 0358 	sub.w	r3, r1, #88	; 0x58
 8011120:	2b20      	cmp	r3, #32
 8011122:	f200 80e9 	bhi.w	80112f8 <_fdoprnt+0x244>
 8011126:	e8df f013 	tbh	[pc, r3, lsl #1]
 801112a:	00c0      	.short	0x00c0
 801112c:	00e700e7 	.word	0x00e700e7
 8011130:	00e700e7 	.word	0x00e700e7
 8011134:	00e700e7 	.word	0x00e700e7
 8011138:	00e700e7 	.word	0x00e700e7
 801113c:	00da00e7 	.word	0x00da00e7
 8011140:	0083005e 	.word	0x0083005e
 8011144:	00e700e7 	.word	0x00e700e7
 8011148:	00e700e7 	.word	0x00e700e7
 801114c:	00e700e7 	.word	0x00e700e7
 8011150:	00e700e7 	.word	0x00e700e7
 8011154:	00e700e7 	.word	0x00e700e7
 8011158:	00e700b3 	.word	0x00e700b3
 801115c:	00e700e7 	.word	0x00e700e7
 8011160:	00e70076 	.word	0x00e70076
 8011164:	00e70095 	.word	0x00e70095
 8011168:	00cd00e7 	.word	0x00cd00e7
 801116c:	3402      	adds	r4, #2
 801116e:	4659      	mov	r1, fp
 8011170:	4630      	mov	r0, r6
 8011172:	47a8      	blx	r5
 8011174:	e7a5      	b.n	80110c2 <_fdoprnt+0xe>
 8011176:	1ca7      	adds	r7, r4, #2
 8011178:	e7b7      	b.n	80110ea <_fdoprnt+0x36>
 801117a:	3701      	adds	r7, #1
 801117c:	e7bb      	b.n	80110f6 <_fdoprnt+0x42>
 801117e:	eb09 0989 	add.w	r9, r9, r9, lsl #2
 8011182:	3701      	adds	r7, #1
 8011184:	eb03 0949 	add.w	r9, r3, r9, lsl #1
 8011188:	f1a9 0930 	sub.w	r9, r9, #48	; 0x30
 801118c:	783b      	ldrb	r3, [r7, #0]
 801118e:	f1a3 0230 	sub.w	r2, r3, #48	; 0x30
 8011192:	b2d2      	uxtb	r2, r2
 8011194:	2a09      	cmp	r2, #9
 8011196:	d9f2      	bls.n	801117e <_fdoprnt+0xca>
 8011198:	e7b6      	b.n	8011108 <_fdoprnt+0x54>
 801119a:	f04f 0900 	mov.w	r9, #0
 801119e:	e7f5      	b.n	801118c <_fdoprnt+0xd8>
 80111a0:	1c79      	adds	r1, r7, #1
 80111a2:	787b      	ldrb	r3, [r7, #1]
 80111a4:	2b2a      	cmp	r3, #42	; 0x2a
 80111a6:	d115      	bne.n	80111d4 <_fdoprnt+0x120>
 80111a8:	9b03      	ldr	r3, [sp, #12]
 80111aa:	1d1a      	adds	r2, r3, #4
 80111ac:	9203      	str	r2, [sp, #12]
 80111ae:	f8d3 8000 	ldr.w	r8, [r3]
 80111b2:	3702      	adds	r7, #2
 80111b4:	e7ad      	b.n	8011112 <_fdoprnt+0x5e>
 80111b6:	eb08 0888 	add.w	r8, r8, r8, lsl #2
 80111ba:	3101      	adds	r1, #1
 80111bc:	eb03 0848 	add.w	r8, r3, r8, lsl #1
 80111c0:	f1a8 0830 	sub.w	r8, r8, #48	; 0x30
 80111c4:	780b      	ldrb	r3, [r1, #0]
 80111c6:	f1a3 0230 	sub.w	r2, r3, #48	; 0x30
 80111ca:	b2d2      	uxtb	r2, r2
 80111cc:	2a09      	cmp	r2, #9
 80111ce:	d9f2      	bls.n	80111b6 <_fdoprnt+0x102>
 80111d0:	460f      	mov	r7, r1
 80111d2:	e79e      	b.n	8011112 <_fdoprnt+0x5e>
 80111d4:	f04f 0800 	mov.w	r8, #0
 80111d8:	e7f4      	b.n	80111c4 <_fdoprnt+0x110>
 80111da:	2125      	movs	r1, #37	; 0x25
 80111dc:	4630      	mov	r0, r6
 80111de:	47a8      	blx	r5
 80111e0:	b00b      	add	sp, #44	; 0x2c
 80111e2:	e8bd 8ff0 	ldmia.w	sp!, {r4, r5, r6, r7, r8, r9, sl, fp, pc}
 80111e6:	9b03      	ldr	r3, [sp, #12]
 80111e8:	1d1a      	adds	r2, r3, #4
 80111ea:	9203      	str	r2, [sp, #12]
 80111ec:	681b      	ldr	r3, [r3, #0]
 80111ee:	f88d 3014 	strb.w	r3, [sp, #20]
 80111f2:	f04f 0800 	mov.w	r8, #0
 80111f6:	f88d 8015 	strb.w	r8, [sp, #21]
 80111fa:	f8cd 8008 	str.w	r8, [sp, #8]
 80111fe:	2320      	movs	r3, #32
 8011200:	9301      	str	r3, [sp, #4]
 8011202:	f10d 0a14 	add.w	sl, sp, #20
 8011206:	2700      	movs	r7, #0
 8011208:	f81a 3007 	ldrb.w	r3, [sl, r7]
 801120c:	2b00      	cmp	r3, #0
 801120e:	f000 8081 	beq.w	8011314 <_fdoprnt+0x260>
 8011212:	3701      	adds	r7, #1
 8011214:	e7f8      	b.n	8011208 <_fdoprnt+0x154>
 8011216:	9b03      	ldr	r3, [sp, #12]
 8011218:	1d1a      	adds	r2, r3, #4
 801121a:	9203      	str	r2, [sp, #12]
 801121c:	f8d3 a000 	ldr.w	sl, [r3]
 8011220:	f1ba 0f00 	cmp.w	sl, #0
 8011224:	d06f      	beq.n	8011306 <_fdoprnt+0x252>
 8011226:	2300      	movs	r3, #0
 8011228:	9302      	str	r3, [sp, #8]
 801122a:	2320      	movs	r3, #32
 801122c:	9301      	str	r3, [sp, #4]
 801122e:	e7ea      	b.n	8011206 <_fdoprnt+0x152>
 8011230:	9b03      	ldr	r3, [sp, #12]
 8011232:	1d1a      	adds	r2, r3, #4
 8011234:	9203      	str	r2, [sp, #12]
 8011236:	6818      	ldr	r0, [r3, #0]
 8011238:	2800      	cmp	r0, #0
 801123a:	db07      	blt.n	801124c <_fdoprnt+0x198>
 801123c:	2300      	movs	r3, #0
 801123e:	9302      	str	r3, [sp, #8]
 8011240:	a905      	add	r1, sp, #20
 8011242:	f7ff fe1d 	bl	8010e80 <_prtl10>
 8011246:	f10d 0a14 	add.w	sl, sp, #20
 801124a:	e7dc      	b.n	8011206 <_fdoprnt+0x152>
 801124c:	4240      	negs	r0, r0
 801124e:	232d      	movs	r3, #45	; 0x2d
 8011250:	9302      	str	r3, [sp, #8]
 8011252:	e7f5      	b.n	8011240 <_fdoprnt+0x18c>
 8011254:	9b03      	ldr	r3, [sp, #12]
 8011256:	1d1a      	adds	r2, r3, #4
 8011258:	9203      	str	r2, [sp, #12]
 801125a:	6818      	ldr	r0, [r3, #0]
 801125c:	2700      	movs	r7, #0
 801125e:	e007      	b.n	8011270 <_fdoprnt+0x1bc>
 8011260:	f100 4044 	add.w	r0, r0, #3288334336	; 0xc4000000
 8011264:	f500 00ca 	add.w	r0, r0, #6619136	; 0x650000
 8011268:	f500 5058 	add.w	r0, r0, #13824	; 0x3600
 801126c:	3701      	adds	r7, #1
 801126e:	b2ff      	uxtb	r7, r7
 8011270:	2800      	cmp	r0, #0
 8011272:	dbf5      	blt.n	8011260 <_fdoprnt+0x1ac>
 8011274:	a905      	add	r1, sp, #20
 8011276:	f7ff fe03 	bl	8010e80 <_prtl10>
 801127a:	f89d 3014 	ldrb.w	r3, [sp, #20]
 801127e:	441f      	add	r7, r3
 8011280:	f88d 7014 	strb.w	r7, [sp, #20]
 8011284:	2300      	movs	r3, #0
 8011286:	9302      	str	r3, [sp, #8]
 8011288:	4698      	mov	r8, r3
 801128a:	f10d 0a14 	add.w	sl, sp, #20
 801128e:	e7ba      	b.n	8011206 <_fdoprnt+0x152>
 8011290:	9b03      	ldr	r3, [sp, #12]
 8011292:	1d1a      	adds	r2, r3, #4
 8011294:	9203      	str	r2, [sp, #12]
 8011296:	a905      	add	r1, sp, #20
 8011298:	6818      	ldr	r0, [r3, #0]
 801129a:	f7ff fe4f 	bl	8010f3c <_prtl8>
 801129e:	2300      	movs	r3, #0
 80112a0:	9302      	str	r3, [sp, #8]
 80112a2:	4698      	mov	r8, r3
 80112a4:	f10d 0a14 	add.w	sl, sp, #20
 80112a8:	e7ad      	b.n	8011206 <_fdoprnt+0x152>
 80112aa:	9b03      	ldr	r3, [sp, #12]
 80112ac:	1d1a      	adds	r2, r3, #4
 80112ae:	9203      	str	r2, [sp, #12]
 80112b0:	a905      	add	r1, sp, #20
 80112b2:	6818      	ldr	r0, [r3, #0]
 80112b4:	f7ff fea2 	bl	8010ffc <_prtX16>
 80112b8:	2300      	movs	r3, #0
 80112ba:	9302      	str	r3, [sp, #8]
 80112bc:	4698      	mov	r8, r3
 80112be:	f10d 0a14 	add.w	sl, sp, #20
 80112c2:	e7a0      	b.n	8011206 <_fdoprnt+0x152>
 80112c4:	9b03      	ldr	r3, [sp, #12]
 80112c6:	1d1a      	adds	r2, r3, #4
 80112c8:	9203      	str	r2, [sp, #12]
 80112ca:	a905      	add	r1, sp, #20
 80112cc:	6818      	ldr	r0, [r3, #0]
 80112ce:	f7ff fe66 	bl	8010f9e <_prtl16>
 80112d2:	2300      	movs	r3, #0
 80112d4:	9302      	str	r3, [sp, #8]
 80112d6:	4698      	mov	r8, r3
 80112d8:	f10d 0a14 	add.w	sl, sp, #20
 80112dc:	e793      	b.n	8011206 <_fdoprnt+0x152>
 80112de:	9b03      	ldr	r3, [sp, #12]
 80112e0:	1d1a      	adds	r2, r3, #4
 80112e2:	9203      	str	r2, [sp, #12]
 80112e4:	a905      	add	r1, sp, #20
 80112e6:	6818      	ldr	r0, [r3, #0]
 80112e8:	f7ff feb6 	bl	8011058 <_prtl2>
 80112ec:	2300      	movs	r3, #0
 80112ee:	9302      	str	r3, [sp, #8]
 80112f0:	4698      	mov	r8, r3
 80112f2:	f10d 0a14 	add.w	sl, sp, #20
 80112f6:	e786      	b.n	8011206 <_fdoprnt+0x152>
 80112f8:	4630      	mov	r0, r6
 80112fa:	47a8      	blx	r5
 80112fc:	2300      	movs	r3, #0
 80112fe:	9302      	str	r3, [sp, #8]
 8011300:	f10d 0a14 	add.w	sl, sp, #20
 8011304:	e77f      	b.n	8011206 <_fdoprnt+0x152>
 8011306:	2300      	movs	r3, #0
 8011308:	9302      	str	r3, [sp, #8]
 801130a:	2320      	movs	r3, #32
 801130c:	9301      	str	r3, [sp, #4]
 801130e:	f8df a0bc 	ldr.w	sl, [pc, #188]	; 80113cc <_fdoprnt+0x318>
 8011312:	e778      	b.n	8011206 <_fdoprnt+0x152>
 8011314:	f1b9 0f50 	cmp.w	r9, #80	; 0x50
 8011318:	d901      	bls.n	801131e <_fdoprnt+0x26a>
 801131a:	f04f 0900 	mov.w	r9, #0
 801131e:	f1b8 0f50 	cmp.w	r8, #80	; 0x50
 8011322:	d803      	bhi.n	801132c <_fdoprnt+0x278>
 8011324:	f1b8 0f00 	cmp.w	r8, #0
 8011328:	d105      	bne.n	8011336 <_fdoprnt+0x282>
 801132a:	e001      	b.n	8011330 <_fdoprnt+0x27c>
 801132c:	f04f 0800 	mov.w	r8, #0
 8011330:	f1b9 0f00 	cmp.w	r9, #0
 8011334:	d00d      	beq.n	8011352 <_fdoprnt+0x29e>
 8011336:	f1b8 0f00 	cmp.w	r8, #0
 801133a:	d002      	beq.n	8011342 <_fdoprnt+0x28e>
 801133c:	4547      	cmp	r7, r8
 801133e:	dd00      	ble.n	8011342 <_fdoprnt+0x28e>
 8011340:	4647      	mov	r7, r8
 8011342:	f1b9 0f00 	cmp.w	r9, #0
 8011346:	d001      	beq.n	801134c <_fdoprnt+0x298>
 8011348:	eba9 0907 	sub.w	r9, r9, r7
 801134c:	9b02      	ldr	r3, [sp, #8]
 801134e:	2b2d      	cmp	r3, #45	; 0x2d
 8011350:	d013      	beq.n	801137a <_fdoprnt+0x2c6>
 8011352:	9b02      	ldr	r3, [sp, #8]
 8011354:	2b2d      	cmp	r3, #45	; 0x2d
 8011356:	d013      	beq.n	8011380 <_fdoprnt+0x2cc>
 8011358:	f1bb 0f2d 	cmp.w	fp, #45	; 0x2d
 801135c:	d11f      	bne.n	801139e <_fdoprnt+0x2ea>
 801135e:	9b02      	ldr	r3, [sp, #8]
 8011360:	2b2d      	cmp	r3, #45	; 0x2d
 8011362:	d01f      	beq.n	80113a4 <_fdoprnt+0x2f0>
 8011364:	f04f 0800 	mov.w	r8, #0
 8011368:	45b8      	cmp	r8, r7
 801136a:	da22      	bge.n	80113b2 <_fdoprnt+0x2fe>
 801136c:	f81a 1008 	ldrb.w	r1, [sl, r8]
 8011370:	4630      	mov	r0, r6
 8011372:	47a8      	blx	r5
 8011374:	f108 0801 	add.w	r8, r8, #1
 8011378:	e7f6      	b.n	8011368 <_fdoprnt+0x2b4>
 801137a:	f109 39ff 	add.w	r9, r9, #4294967295	; 0xffffffff
 801137e:	e7e8      	b.n	8011352 <_fdoprnt+0x29e>
 8011380:	9b01      	ldr	r3, [sp, #4]
 8011382:	2b30      	cmp	r3, #48	; 0x30
 8011384:	d1e8      	bne.n	8011358 <_fdoprnt+0x2a4>
 8011386:	9902      	ldr	r1, [sp, #8]
 8011388:	4630      	mov	r0, r6
 801138a:	47a8      	blx	r5
 801138c:	e7e4      	b.n	8011358 <_fdoprnt+0x2a4>
 801138e:	9901      	ldr	r1, [sp, #4]
 8011390:	4630      	mov	r0, r6
 8011392:	47a8      	blx	r5
 8011394:	f108 0801 	add.w	r8, r8, #1
 8011398:	45c8      	cmp	r8, r9
 801139a:	dbf8      	blt.n	801138e <_fdoprnt+0x2da>
 801139c:	e7df      	b.n	801135e <_fdoprnt+0x2aa>
 801139e:	f04f 0800 	mov.w	r8, #0
 80113a2:	e7f9      	b.n	8011398 <_fdoprnt+0x2e4>
 80113a4:	9b01      	ldr	r3, [sp, #4]
 80113a6:	2b20      	cmp	r3, #32
 80113a8:	d1dc      	bne.n	8011364 <_fdoprnt+0x2b0>
 80113aa:	9902      	ldr	r1, [sp, #8]
 80113ac:	4630      	mov	r0, r6
 80113ae:	47a8      	blx	r5
 80113b0:	e7d8      	b.n	8011364 <_fdoprnt+0x2b0>
 80113b2:	f1bb 0f2d 	cmp.w	fp, #45	; 0x2d
 80113b6:	f47f ae84 	bne.w	80110c2 <_fdoprnt+0xe>
 80113ba:	2700      	movs	r7, #0
 80113bc:	e003      	b.n	80113c6 <_fdoprnt+0x312>
 80113be:	9901      	ldr	r1, [sp, #4]
 80113c0:	4630      	mov	r0, r6
 80113c2:	47a8      	blx	r5
 80113c4:	3701      	adds	r7, #1
 80113c6:	454f      	cmp	r7, r9
 80113c8:	dbf9      	blt.n	80113be <_fdoprnt+0x30a>
 80113ca:	e67a      	b.n	80110c2 <_fdoprnt+0xe>
 80113cc:	08018a14 	.word	0x08018a14

080113d0 <_doprnt>:
 80113d0:	e92d 4ff0 	stmdb	sp!, {r4, r5, r6, r7, r8, r9, sl, fp, lr}
 80113d4:	b089      	sub	sp, #36	; 0x24
 80113d6:	4604      	mov	r4, r0
 80113d8:	9101      	str	r1, [sp, #4]
 80113da:	4616      	mov	r6, r2
 80113dc:	4625      	mov	r5, r4
 80113de:	f815 0b01 	ldrb.w	r0, [r5], #1
 80113e2:	2825      	cmp	r0, #37	; 0x25
 80113e4:	d005      	beq.n	80113f2 <_doprnt+0x22>
 80113e6:	2800      	cmp	r0, #0
 80113e8:	f000 8094 	beq.w	8011514 <_doprnt+0x144>
 80113ec:	47b0      	blx	r6
 80113ee:	462c      	mov	r4, r5
 80113f0:	e7f4      	b.n	80113dc <_doprnt+0xc>
 80113f2:	f895 b000 	ldrb.w	fp, [r5]
 80113f6:	f1bb 0f25 	cmp.w	fp, #37	; 0x25
 80113fa:	d053      	beq.n	80114a4 <_doprnt+0xd4>
 80113fc:	f1bb 0f2d 	cmp.w	fp, #45	; 0x2d
 8011400:	d054      	beq.n	80114ac <_doprnt+0xdc>
 8011402:	782b      	ldrb	r3, [r5, #0]
 8011404:	9300      	str	r3, [sp, #0]
 8011406:	2b30      	cmp	r3, #48	; 0x30
 8011408:	d052      	beq.n	80114b0 <_doprnt+0xe0>
 801140a:	2320      	movs	r3, #32
 801140c:	9300      	str	r3, [sp, #0]
 801140e:	782b      	ldrb	r3, [r5, #0]
 8011410:	2b2a      	cmp	r3, #42	; 0x2a
 8011412:	d15d      	bne.n	80114d0 <_doprnt+0x100>
 8011414:	9b01      	ldr	r3, [sp, #4]
 8011416:	1d1a      	adds	r2, r3, #4
 8011418:	9201      	str	r2, [sp, #4]
 801141a:	f8d3 9000 	ldr.w	r9, [r3]
 801141e:	3501      	adds	r5, #1
 8011420:	782b      	ldrb	r3, [r5, #0]
 8011422:	2b2e      	cmp	r3, #46	; 0x2e
 8011424:	d057      	beq.n	80114d6 <_doprnt+0x106>
 8011426:	f04f 0a00 	mov.w	sl, #0
 801142a:	462c      	mov	r4, r5
 801142c:	f814 0b01 	ldrb.w	r0, [r4], #1
 8011430:	2800      	cmp	r0, #0
 8011432:	d06d      	beq.n	8011510 <_doprnt+0x140>
 8011434:	f1a0 0348 	sub.w	r3, r0, #72	; 0x48
 8011438:	2b30      	cmp	r3, #48	; 0x30
 801143a:	f200 8104 	bhi.w	8011646 <_doprnt+0x276>
 801143e:	e8df f013 	tbh	[pc, r3, lsl #1]
 8011442:	00d3      	.short	0x00d3
 8011444:	01020102 	.word	0x01020102
 8011448:	01020102 	.word	0x01020102
 801144c:	01020102 	.word	0x01020102
 8011450:	01020102 	.word	0x01020102
 8011454:	01020102 	.word	0x01020102
 8011458:	01020102 	.word	0x01020102
 801145c:	01020102 	.word	0x01020102
 8011460:	00bd0102 	.word	0x00bd0102
 8011464:	01020102 	.word	0x01020102
 8011468:	01020102 	.word	0x01020102
 801146c:	01020102 	.word	0x01020102
 8011470:	01020102 	.word	0x01020102
 8011474:	00f70102 	.word	0x00f70102
 8011478:	0088006c 	.word	0x0088006c
 801147c:	01060102 	.word	0x01060102
 8011480:	00e50102 	.word	0x00e50102
 8011484:	01020102 	.word	0x01020102
 8011488:	01020102 	.word	0x01020102
 801148c:	01020102 	.word	0x01020102
 8011490:	010200b2 	.word	0x010200b2
 8011494:	01020102 	.word	0x01020102
 8011498:	0102007d 	.word	0x0102007d
 801149c:	01020096 	.word	0x01020096
 80114a0:	00c80102 	.word	0x00c80102
 80114a4:	3402      	adds	r4, #2
 80114a6:	4658      	mov	r0, fp
 80114a8:	47b0      	blx	r6
 80114aa:	e797      	b.n	80113dc <_doprnt+0xc>
 80114ac:	1ca5      	adds	r5, r4, #2
 80114ae:	e7a8      	b.n	8011402 <_doprnt+0x32>
 80114b0:	3501      	adds	r5, #1
 80114b2:	e7ac      	b.n	801140e <_doprnt+0x3e>
 80114b4:	eb09 0989 	add.w	r9, r9, r9, lsl #2
 80114b8:	3501      	adds	r5, #1
 80114ba:	eb03 0949 	add.w	r9, r3, r9, lsl #1
 80114be:	f1a9 0930 	sub.w	r9, r9, #48	; 0x30
 80114c2:	782b      	ldrb	r3, [r5, #0]
 80114c4:	f1a3 0230 	sub.w	r2, r3, #48	; 0x30
 80114c8:	b2d2      	uxtb	r2, r2
 80114ca:	2a09      	cmp	r2, #9
 80114cc:	d9f2      	bls.n	80114b4 <_doprnt+0xe4>
 80114ce:	e7a7      	b.n	8011420 <_doprnt+0x50>
 80114d0:	f04f 0900 	mov.w	r9, #0
 80114d4:	e7f5      	b.n	80114c2 <_doprnt+0xf2>
 80114d6:	1c69      	adds	r1, r5, #1
 80114d8:	786b      	ldrb	r3, [r5, #1]
 80114da:	2b2a      	cmp	r3, #42	; 0x2a
 80114dc:	d115      	bne.n	801150a <_doprnt+0x13a>
 80114de:	9b01      	ldr	r3, [sp, #4]
 80114e0:	1d1a      	adds	r2, r3, #4
 80114e2:	9201      	str	r2, [sp, #4]
 80114e4:	f8d3 a000 	ldr.w	sl, [r3]
 80114e8:	3502      	adds	r5, #2
 80114ea:	e79e      	b.n	801142a <_doprnt+0x5a>
 80114ec:	eb0a 0a8a 	add.w	sl, sl, sl, lsl #2
 80114f0:	3101      	adds	r1, #1
 80114f2:	eb03 0a4a 	add.w	sl, r3, sl, lsl #1
 80114f6:	f1aa 0a30 	sub.w	sl, sl, #48	; 0x30
 80114fa:	780b      	ldrb	r3, [r1, #0]
 80114fc:	f1a3 0230 	sub.w	r2, r3, #48	; 0x30
 8011500:	b2d2      	uxtb	r2, r2
 8011502:	2a09      	cmp	r2, #9
 8011504:	d9f2      	bls.n	80114ec <_doprnt+0x11c>
 8011506:	460d      	mov	r5, r1
 8011508:	e78f      	b.n	801142a <_doprnt+0x5a>
 801150a:	f04f 0a00 	mov.w	sl, #0
 801150e:	e7f4      	b.n	80114fa <_doprnt+0x12a>
 8011510:	2025      	movs	r0, #37	; 0x25
 8011512:	47b0      	blx	r6
 8011514:	b009      	add	sp, #36	; 0x24
 8011516:	e8bd 8ff0 	ldmia.w	sp!, {r4, r5, r6, r7, r8, r9, sl, fp, pc}
 801151a:	9b01      	ldr	r3, [sp, #4]
 801151c:	1d1a      	adds	r2, r3, #4
 801151e:	9201      	str	r2, [sp, #4]
 8011520:	681b      	ldr	r3, [r3, #0]
 8011522:	f88d 300c 	strb.w	r3, [sp, #12]
 8011526:	f04f 0a00 	mov.w	sl, #0
 801152a:	f88d a00d 	strb.w	sl, [sp, #13]
 801152e:	4657      	mov	r7, sl
 8011530:	2320      	movs	r3, #32
 8011532:	9300      	str	r3, [sp, #0]
 8011534:	ad03      	add	r5, sp, #12
 8011536:	f04f 0800 	mov.w	r8, #0
 801153a:	e092      	b.n	8011662 <_doprnt+0x292>
 801153c:	9b01      	ldr	r3, [sp, #4]
 801153e:	1d1a      	adds	r2, r3, #4
 8011540:	9201      	str	r2, [sp, #4]
 8011542:	681d      	ldr	r5, [r3, #0]
 8011544:	2d00      	cmp	r5, #0
 8011546:	f000 8085 	beq.w	8011654 <_doprnt+0x284>
 801154a:	2700      	movs	r7, #0
 801154c:	2320      	movs	r3, #32
 801154e:	9300      	str	r3, [sp, #0]
 8011550:	e7f1      	b.n	8011536 <_doprnt+0x166>
 8011552:	9b01      	ldr	r3, [sp, #4]
 8011554:	1d1a      	adds	r2, r3, #4
 8011556:	9201      	str	r2, [sp, #4]
 8011558:	6818      	ldr	r0, [r3, #0]
 801155a:	2800      	cmp	r0, #0
 801155c:	db05      	blt.n	801156a <_doprnt+0x19a>
 801155e:	2700      	movs	r7, #0
 8011560:	a903      	add	r1, sp, #12
 8011562:	f7ff fc8d 	bl	8010e80 <_prtl10>
 8011566:	ad03      	add	r5, sp, #12
 8011568:	e7e5      	b.n	8011536 <_doprnt+0x166>
 801156a:	272d      	movs	r7, #45	; 0x2d
 801156c:	e7f8      	b.n	8011560 <_doprnt+0x190>
 801156e:	9b01      	ldr	r3, [sp, #4]
 8011570:	1d1a      	adds	r2, r3, #4
 8011572:	9201      	str	r2, [sp, #4]
 8011574:	6818      	ldr	r0, [r3, #0]
 8011576:	2500      	movs	r5, #0
 8011578:	e007      	b.n	801158a <_doprnt+0x1ba>
 801157a:	f100 4044 	add.w	r0, r0, #3288334336	; 0xc4000000
 801157e:	f500 00ca 	add.w	r0, r0, #6619136	; 0x650000
 8011582:	f500 5058 	add.w	r0, r0, #13824	; 0x3600
 8011586:	3501      	adds	r5, #1
 8011588:	b2ed      	uxtb	r5, r5
 801158a:	2800      	cmp	r0, #0
 801158c:	dbf5      	blt.n	801157a <_doprnt+0x1aa>
 801158e:	a903      	add	r1, sp, #12
 8011590:	f7ff fc76 	bl	8010e80 <_prtl10>
 8011594:	f89d 300c 	ldrb.w	r3, [sp, #12]
 8011598:	441d      	add	r5, r3
 801159a:	f88d 500c 	strb.w	r5, [sp, #12]
 801159e:	2700      	movs	r7, #0
 80115a0:	46ba      	mov	sl, r7
 80115a2:	ad03      	add	r5, sp, #12
 80115a4:	e7c7      	b.n	8011536 <_doprnt+0x166>
 80115a6:	9b01      	ldr	r3, [sp, #4]
 80115a8:	1d1a      	adds	r2, r3, #4
 80115aa:	9201      	str	r2, [sp, #4]
 80115ac:	a903      	add	r1, sp, #12
 80115ae:	6818      	ldr	r0, [r3, #0]
 80115b0:	f7ff fcc4 	bl	8010f3c <_prtl8>
 80115b4:	2700      	movs	r7, #0
 80115b6:	46ba      	mov	sl, r7
 80115b8:	ad03      	add	r5, sp, #12
 80115ba:	e7bc      	b.n	8011536 <_doprnt+0x166>
 80115bc:	9b01      	ldr	r3, [sp, #4]
 80115be:	1d1a      	adds	r2, r3, #4
 80115c0:	9201      	str	r2, [sp, #4]
 80115c2:	a903      	add	r1, sp, #12
 80115c4:	6818      	ldr	r0, [r3, #0]
 80115c6:	f7ff fd19 	bl	8010ffc <_prtX16>
 80115ca:	2700      	movs	r7, #0
 80115cc:	46ba      	mov	sl, r7
 80115ce:	ad03      	add	r5, sp, #12
 80115d0:	e7b1      	b.n	8011536 <_doprnt+0x166>
 80115d2:	9b01      	ldr	r3, [sp, #4]
 80115d4:	1d1a      	adds	r2, r3, #4
 80115d6:	9201      	str	r2, [sp, #4]
 80115d8:	a903      	add	r1, sp, #12
 80115da:	6818      	ldr	r0, [r3, #0]
 80115dc:	f7ff fcdf 	bl	8010f9e <_prtl16>
 80115e0:	2700      	movs	r7, #0
 80115e2:	46ba      	mov	sl, r7
 80115e4:	ad03      	add	r5, sp, #12
 80115e6:	e7a6      	b.n	8011536 <_doprnt+0x166>
 80115e8:	9b01      	ldr	r3, [sp, #4]
 80115ea:	1d1a      	adds	r2, r3, #4
 80115ec:	9201      	str	r2, [sp, #4]
 80115ee:	a903      	add	r1, sp, #12
 80115f0:	6818      	ldr	r0, [r3, #0]
 80115f2:	f7ff fd03 	bl	8010ffc <_prtX16>
 80115f6:	9b01      	ldr	r3, [sp, #4]
 80115f8:	1d1a      	adds	r2, r3, #4
 80115fa:	9201      	str	r2, [sp, #4]
 80115fc:	a905      	add	r1, sp, #20
 80115fe:	6818      	ldr	r0, [r3, #0]
 8011600:	f7ff fcfc 	bl	8010ffc <_prtX16>
 8011604:	2700      	movs	r7, #0
 8011606:	46ba      	mov	sl, r7
 8011608:	ad03      	add	r5, sp, #12
 801160a:	e794      	b.n	8011536 <_doprnt+0x166>
 801160c:	9b01      	ldr	r3, [sp, #4]
 801160e:	1d1a      	adds	r2, r3, #4
 8011610:	9201      	str	r2, [sp, #4]
 8011612:	a903      	add	r1, sp, #12
 8011614:	6818      	ldr	r0, [r3, #0]
 8011616:	f7ff fcc2 	bl	8010f9e <_prtl16>
 801161a:	9b01      	ldr	r3, [sp, #4]
 801161c:	1d1a      	adds	r2, r3, #4
 801161e:	9201      	str	r2, [sp, #4]
 8011620:	a905      	add	r1, sp, #20
 8011622:	6818      	ldr	r0, [r3, #0]
 8011624:	f7ff fcbb 	bl	8010f9e <_prtl16>
 8011628:	2700      	movs	r7, #0
 801162a:	46ba      	mov	sl, r7
 801162c:	ad03      	add	r5, sp, #12
 801162e:	e782      	b.n	8011536 <_doprnt+0x166>
 8011630:	9b01      	ldr	r3, [sp, #4]
 8011632:	1d1a      	adds	r2, r3, #4
 8011634:	9201      	str	r2, [sp, #4]
 8011636:	a903      	add	r1, sp, #12
 8011638:	6818      	ldr	r0, [r3, #0]
 801163a:	f7ff fd0d 	bl	8011058 <_prtl2>
 801163e:	2700      	movs	r7, #0
 8011640:	46ba      	mov	sl, r7
 8011642:	ad03      	add	r5, sp, #12
 8011644:	e777      	b.n	8011536 <_doprnt+0x166>
 8011646:	47b0      	blx	r6
 8011648:	2700      	movs	r7, #0
 801164a:	ad03      	add	r5, sp, #12
 801164c:	e773      	b.n	8011536 <_doprnt+0x166>
 801164e:	2700      	movs	r7, #0
 8011650:	ad03      	add	r5, sp, #12
 8011652:	e770      	b.n	8011536 <_doprnt+0x166>
 8011654:	2700      	movs	r7, #0
 8011656:	2320      	movs	r3, #32
 8011658:	9300      	str	r3, [sp, #0]
 801165a:	4d2c      	ldr	r5, [pc, #176]	; (801170c <_doprnt+0x33c>)
 801165c:	e76b      	b.n	8011536 <_doprnt+0x166>
 801165e:	f108 0801 	add.w	r8, r8, #1
 8011662:	f815 3008 	ldrb.w	r3, [r5, r8]
 8011666:	2b00      	cmp	r3, #0
 8011668:	d1f9      	bne.n	801165e <_doprnt+0x28e>
 801166a:	f1b9 0f50 	cmp.w	r9, #80	; 0x50
 801166e:	d901      	bls.n	8011674 <_doprnt+0x2a4>
 8011670:	f04f 0900 	mov.w	r9, #0
 8011674:	f1ba 0f50 	cmp.w	sl, #80	; 0x50
 8011678:	d803      	bhi.n	8011682 <_doprnt+0x2b2>
 801167a:	f1ba 0f00 	cmp.w	sl, #0
 801167e:	d105      	bne.n	801168c <_doprnt+0x2bc>
 8011680:	e001      	b.n	8011686 <_doprnt+0x2b6>
 8011682:	f04f 0a00 	mov.w	sl, #0
 8011686:	f1b9 0f00 	cmp.w	r9, #0
 801168a:	d00c      	beq.n	80116a6 <_doprnt+0x2d6>
 801168c:	f1ba 0f00 	cmp.w	sl, #0
 8011690:	d002      	beq.n	8011698 <_doprnt+0x2c8>
 8011692:	45d0      	cmp	r8, sl
 8011694:	dd00      	ble.n	8011698 <_doprnt+0x2c8>
 8011696:	46d0      	mov	r8, sl
 8011698:	f1b9 0f00 	cmp.w	r9, #0
 801169c:	d001      	beq.n	80116a2 <_doprnt+0x2d2>
 801169e:	eba9 0908 	sub.w	r9, r9, r8
 80116a2:	2f2d      	cmp	r7, #45	; 0x2d
 80116a4:	d008      	beq.n	80116b8 <_doprnt+0x2e8>
 80116a6:	2f2d      	cmp	r7, #45	; 0x2d
 80116a8:	d009      	beq.n	80116be <_doprnt+0x2ee>
 80116aa:	f1bb 0f2d 	cmp.w	fp, #45	; 0x2d
 80116ae:	d113      	bne.n	80116d8 <_doprnt+0x308>
 80116b0:	2f2d      	cmp	r7, #45	; 0x2d
 80116b2:	d014      	beq.n	80116de <_doprnt+0x30e>
 80116b4:	2700      	movs	r7, #0
 80116b6:	e01b      	b.n	80116f0 <_doprnt+0x320>
 80116b8:	f109 39ff 	add.w	r9, r9, #4294967295	; 0xffffffff
 80116bc:	e7f3      	b.n	80116a6 <_doprnt+0x2d6>
 80116be:	9b00      	ldr	r3, [sp, #0]
 80116c0:	2b30      	cmp	r3, #48	; 0x30
 80116c2:	d1f2      	bne.n	80116aa <_doprnt+0x2da>
 80116c4:	4638      	mov	r0, r7
 80116c6:	47b0      	blx	r6
 80116c8:	e7ef      	b.n	80116aa <_doprnt+0x2da>
 80116ca:	9800      	ldr	r0, [sp, #0]
 80116cc:	47b0      	blx	r6
 80116ce:	f10a 0a01 	add.w	sl, sl, #1
 80116d2:	45ca      	cmp	sl, r9
 80116d4:	dbf9      	blt.n	80116ca <_doprnt+0x2fa>
 80116d6:	e7eb      	b.n	80116b0 <_doprnt+0x2e0>
 80116d8:	f04f 0a00 	mov.w	sl, #0
 80116dc:	e7f9      	b.n	80116d2 <_doprnt+0x302>
 80116de:	9b00      	ldr	r3, [sp, #0]
 80116e0:	2b20      	cmp	r3, #32
 80116e2:	d1e7      	bne.n	80116b4 <_doprnt+0x2e4>
 80116e4:	4638      	mov	r0, r7
 80116e6:	47b0      	blx	r6
 80116e8:	e7e4      	b.n	80116b4 <_doprnt+0x2e4>
 80116ea:	5de8      	ldrb	r0, [r5, r7]
 80116ec:	47b0      	blx	r6
 80116ee:	3701      	adds	r7, #1
 80116f0:	4547      	cmp	r7, r8
 80116f2:	dbfa      	blt.n	80116ea <_doprnt+0x31a>
 80116f4:	f1bb 0f2d 	cmp.w	fp, #45	; 0x2d
 80116f8:	f47f ae70 	bne.w	80113dc <_doprnt+0xc>
 80116fc:	2500      	movs	r5, #0
 80116fe:	454d      	cmp	r5, r9
 8011700:	f6bf ae6c 	bge.w	80113dc <_doprnt+0xc>
 8011704:	9800      	ldr	r0, [sp, #0]
 8011706:	47b0      	blx	r6
 8011708:	3501      	adds	r5, #1
 801170a:	e7f8      	b.n	80116fe <_doprnt+0x32e>
 801170c:	08018a14 	.word	0x08018a14

08011710 <lib_putc>:
 8011710:	b508      	push	{r3, lr}
 8011712:	b2c0      	uxtb	r0, r0
 8011714:	f006 ff1e 	bl	8018554 <putcharuart>
 8011718:	2001      	movs	r0, #1
 801171a:	bd08      	pop	{r3, pc}

0801171c <kprintf>:
 801171c:	b40f      	push	{r0, r1, r2, r3}
 801171e:	b500      	push	{lr}
 8011720:	b083      	sub	sp, #12
 8011722:	a904      	add	r1, sp, #16
 8011724:	f851 0b04 	ldr.w	r0, [r1], #4
 8011728:	9101      	str	r1, [sp, #4]
 801172a:	4a04      	ldr	r2, [pc, #16]	; (801173c <kprintf+0x20>)
 801172c:	f7ff fe50 	bl	80113d0 <_doprnt>
 8011730:	2001      	movs	r0, #1
 8011732:	b003      	add	sp, #12
 8011734:	f85d eb04 	ldr.w	lr, [sp], #4
 8011738:	b004      	add	sp, #16
 801173a:	4770      	bx	lr
 801173c:	08011711 	.word	0x08011711

08011740 <hexDump>:
 8011740:	e92d 41f0 	stmdb	sp!, {r4, r5, r6, r7, r8, lr}
 8011744:	b086      	sub	sp, #24
 8011746:	4680      	mov	r8, r0
 8011748:	460e      	mov	r6, r1
 801174a:	4617      	mov	r7, r2
 801174c:	2400      	movs	r4, #0
 801174e:	e02c      	b.n	80117aa <hexDump+0x6a>
 8011750:	a901      	add	r1, sp, #4
 8011752:	4827      	ldr	r0, [pc, #156]	; (80117f0 <hexDump+0xb0>)
 8011754:	f7ff ffe2 	bl	801171c <kprintf>
 8011758:	eb05 0108 	add.w	r1, r5, r8
 801175c:	4825      	ldr	r0, [pc, #148]	; (80117f4 <hexDump+0xb4>)
 801175e:	f7ff ffdd 	bl	801171c <kprintf>
 8011762:	5d71      	ldrb	r1, [r6, r5]
 8011764:	4824      	ldr	r0, [pc, #144]	; (80117f8 <hexDump+0xb8>)
 8011766:	f7ff ffd9 	bl	801171c <kprintf>
 801176a:	5d72      	ldrb	r2, [r6, r5]
 801176c:	f1a2 0320 	sub.w	r3, r2, #32
 8011770:	b2db      	uxtb	r3, r3
 8011772:	2b5e      	cmp	r3, #94	; 0x5e
 8011774:	d922      	bls.n	80117bc <hexDump+0x7c>
 8011776:	4262      	negs	r2, r4
 8011778:	f004 030f 	and.w	r3, r4, #15
 801177c:	f002 020f 	and.w	r2, r2, #15
 8011780:	bf58      	it	pl
 8011782:	4253      	negpl	r3, r2
 8011784:	aa06      	add	r2, sp, #24
 8011786:	4413      	add	r3, r2
 8011788:	222e      	movs	r2, #46	; 0x2e
 801178a:	f803 2c14 	strb.w	r2, [r3, #-20]
 801178e:	4265      	negs	r5, r4
 8011790:	f004 030f 	and.w	r3, r4, #15
 8011794:	f005 050f 	and.w	r5, r5, #15
 8011798:	bf58      	it	pl
 801179a:	426b      	negpl	r3, r5
 801179c:	3301      	adds	r3, #1
 801179e:	aa06      	add	r2, sp, #24
 80117a0:	4413      	add	r3, r2
 80117a2:	2200      	movs	r2, #0
 80117a4:	f803 2c14 	strb.w	r2, [r3, #-20]
 80117a8:	3401      	adds	r4, #1
 80117aa:	42bc      	cmp	r4, r7
 80117ac:	da16      	bge.n	80117dc <hexDump+0x9c>
 80117ae:	4625      	mov	r5, r4
 80117b0:	f014 0f0f 	tst.w	r4, #15
 80117b4:	d1d5      	bne.n	8011762 <hexDump+0x22>
 80117b6:	2c00      	cmp	r4, #0
 80117b8:	d0ce      	beq.n	8011758 <hexDump+0x18>
 80117ba:	e7c9      	b.n	8011750 <hexDump+0x10>
 80117bc:	4261      	negs	r1, r4
 80117be:	f004 030f 	and.w	r3, r4, #15
 80117c2:	f001 010f 	and.w	r1, r1, #15
 80117c6:	bf58      	it	pl
 80117c8:	424b      	negpl	r3, r1
 80117ca:	a906      	add	r1, sp, #24
 80117cc:	440b      	add	r3, r1
 80117ce:	f803 2c14 	strb.w	r2, [r3, #-20]
 80117d2:	e7dc      	b.n	801178e <hexDump+0x4e>
 80117d4:	4809      	ldr	r0, [pc, #36]	; (80117fc <hexDump+0xbc>)
 80117d6:	f7ff ffa1 	bl	801171c <kprintf>
 80117da:	3401      	adds	r4, #1
 80117dc:	f014 0f0f 	tst.w	r4, #15
 80117e0:	d1f8      	bne.n	80117d4 <hexDump+0x94>
 80117e2:	a901      	add	r1, sp, #4
 80117e4:	4802      	ldr	r0, [pc, #8]	; (80117f0 <hexDump+0xb0>)
 80117e6:	f7ff ff99 	bl	801171c <kprintf>
 80117ea:	b006      	add	sp, #24
 80117ec:	e8bd 81f0 	ldmia.w	sp!, {r4, r5, r6, r7, r8, pc}
 80117f0:	08018a1c 	.word	0x08018a1c
 80117f4:	08018a24 	.word	0x08018a24
 80117f8:	08018a2c 	.word	0x08018a2c
 80117fc:	08018a34 	.word	0x08018a34

08011800 <tanf>:
 8011800:	b508      	push	{r3, lr}
 8011802:	ed2d 8b02 	vpush	{d8}
 8011806:	eeb0 8a40 	vmov.f32	s16, s0
 801180a:	f000 fc15 	bl	8012038 <numtestf>
 801180e:	2801      	cmp	r0, #1
 8011810:	d064      	beq.n	80118dc <tanf+0xdc>
 8011812:	2802      	cmp	r0, #2
 8011814:	d064      	beq.n	80118e0 <tanf+0xe0>
 8011816:	eeb0 0a48 	vmov.f32	s0, s16
 801181a:	f000 fa04 	bl	8011c26 <fabsf>
 801181e:	eddf 7a34 	vldr	s15, [pc, #208]	; 80118f0 <tanf+0xf0>
 8011822:	eeb4 0ae7 	vcmpe.f32	s0, s15
 8011826:	eef1 fa10 	vmrs	APSR_nzcv, fpscr
 801182a:	dc5e      	bgt.n	80118ea <tanf+0xea>
 801182c:	eeb5 8ac0 	vcmpe.f32	s16, #0.0
 8011830:	eef1 fa10 	vmrs	APSR_nzcv, fpscr
 8011834:	d441      	bmi.n	80118ba <tanf+0xba>
 8011836:	eddf 6a2f 	vldr	s13, [pc, #188]	; 80118f4 <tanf+0xf4>
 801183a:	ee68 6a26 	vmul.f32	s13, s16, s13
 801183e:	eef6 7a00 	vmov.f32	s15, #96	; 0x3f000000  0.5
 8011842:	ee76 6aa7 	vadd.f32	s13, s13, s15
 8011846:	eefd 6ae6 	vcvt.s32.f32	s13, s13
 801184a:	eef8 7ae6 	vcvt.f32.s32	s15, s13
 801184e:	ed9f 7a2a 	vldr	s14, [pc, #168]	; 80118f8 <tanf+0xf8>
 8011852:	ee67 7a87 	vmul.f32	s15, s15, s14
 8011856:	ee78 7a67 	vsub.f32	s15, s16, s15
 801185a:	ed9f 7a28 	vldr	s14, [pc, #160]	; 80118fc <tanf+0xfc>
 801185e:	eef4 7ac7 	vcmpe.f32	s15, s14
 8011862:	eef1 fa10 	vmrs	APSR_nzcv, fpscr
 8011866:	dd06      	ble.n	8011876 <tanf+0x76>
 8011868:	ed9f 7a25 	vldr	s14, [pc, #148]	; 8011900 <tanf+0x100>
 801186c:	eef4 7ac7 	vcmpe.f32	s15, s14
 8011870:	eef1 fa10 	vmrs	APSR_nzcv, fpscr
 8011874:	d42c      	bmi.n	80118d0 <tanf+0xd0>
 8011876:	ee67 5aa7 	vmul.f32	s11, s15, s15
 801187a:	ed9f 6a22 	vldr	s12, [pc, #136]	; 8011904 <tanf+0x104>
 801187e:	ee25 6a86 	vmul.f32	s12, s11, s12
 8011882:	ee26 6a27 	vmul.f32	s12, s12, s15
 8011886:	ee77 7a86 	vadd.f32	s15, s15, s12
 801188a:	ed9f 7a1f 	vldr	s14, [pc, #124]	; 8011908 <tanf+0x108>
 801188e:	ee25 7a87 	vmul.f32	s14, s11, s14
 8011892:	ed9f 6a1e 	vldr	s12, [pc, #120]	; 801190c <tanf+0x10c>
 8011896:	ee37 7a46 	vsub.f32	s14, s14, s12
 801189a:	ee27 7a25 	vmul.f32	s14, s14, s11
 801189e:	eeb7 6a00 	vmov.f32	s12, #112	; 0x3f800000  1.0
 80118a2:	ee37 7a06 	vadd.f32	s14, s14, s12
 80118a6:	ee16 3a90 	vmov	r3, s13
 80118aa:	f013 0f01 	tst.w	r3, #1
 80118ae:	d012      	beq.n	80118d6 <tanf+0xd6>
 80118b0:	eeb1 7a47 	vneg.f32	s14, s14
 80118b4:	ee87 8a27 	vdiv.f32	s16, s14, s15
 80118b8:	e012      	b.n	80118e0 <tanf+0xe0>
 80118ba:	eddf 6a0e 	vldr	s13, [pc, #56]	; 80118f4 <tanf+0xf4>
 80118be:	ee68 6a26 	vmul.f32	s13, s16, s13
 80118c2:	eef6 7a00 	vmov.f32	s15, #96	; 0x3f000000  0.5
 80118c6:	ee76 6ae7 	vsub.f32	s13, s13, s15
 80118ca:	eefd 6ae6 	vcvt.s32.f32	s13, s13
 80118ce:	e7bc      	b.n	801184a <tanf+0x4a>
 80118d0:	eeb7 7a00 	vmov.f32	s14, #112	; 0x3f800000  1.0
 80118d4:	e7e7      	b.n	80118a6 <tanf+0xa6>
 80118d6:	ee87 8a87 	vdiv.f32	s16, s15, s14
 80118da:	e001      	b.n	80118e0 <tanf+0xe0>
 80118dc:	ed9f 8a0c 	vldr	s16, [pc, #48]	; 8011910 <tanf+0x110>
 80118e0:	eeb0 0a48 	vmov.f32	s0, s16
 80118e4:	ecbd 8b02 	vpop	{d8}
 80118e8:	bd08      	pop	{r3, pc}
 80118ea:	eeb0 8a40 	vmov.f32	s16, s0
 80118ee:	e7f7      	b.n	80118e0 <tanf+0xe0>
 80118f0:	4cc90fdb 	.word	0x4cc90fdb
 80118f4:	3f22f983 	.word	0x3f22f983
 80118f8:	3fc90fdb 	.word	0x3fc90fdb
 80118fc:	b93504f3 	.word	0xb93504f3
 8011900:	393504f3 	.word	0x393504f3
 8011904:	bdc433b8 	.word	0xbdc433b8
 8011908:	3c1f3375 	.word	0x3c1f3375
 801190c:	3edbb7af 	.word	0x3edbb7af
 8011910:	4f7fd000 	.word	0x4f7fd000

08011914 <memchr>:
 8011914:	1e53      	subs	r3, r2, #1
 8011916:	b12a      	cbz	r2, 8011924 <memchr+0x10>
 8011918:	7802      	ldrb	r2, [r0, #0]
 801191a:	428a      	cmp	r2, r1
 801191c:	d003      	beq.n	8011926 <memchr+0x12>
 801191e:	3001      	adds	r0, #1
 8011920:	461a      	mov	r2, r3
 8011922:	e7f7      	b.n	8011914 <memchr>
 8011924:	2000      	movs	r0, #0
 8011926:	4770      	bx	lr

08011928 <memcmp>:
 8011928:	b410      	push	{r4}
 801192a:	4603      	mov	r3, r0
 801192c:	4610      	mov	r0, r2
 801192e:	1e44      	subs	r4, r0, #1
 8011930:	b148      	cbz	r0, 8011946 <memcmp+0x1e>
 8011932:	7818      	ldrb	r0, [r3, #0]
 8011934:	780a      	ldrb	r2, [r1, #0]
 8011936:	4290      	cmp	r0, r2
 8011938:	d103      	bne.n	8011942 <memcmp+0x1a>
 801193a:	3301      	adds	r3, #1
 801193c:	3101      	adds	r1, #1
 801193e:	4620      	mov	r0, r4
 8011940:	e7f5      	b.n	801192e <memcmp+0x6>
 8011942:	d903      	bls.n	801194c <memcmp+0x24>
 8011944:	2001      	movs	r0, #1
 8011946:	f85d 4b04 	ldr.w	r4, [sp], #4
 801194a:	4770      	bx	lr
 801194c:	f04f 30ff 	mov.w	r0, #4294967295	; 0xffffffff
 8011950:	e7f9      	b.n	8011946 <memcmp+0x1e>

08011952 <memset>:
 8011952:	4402      	add	r2, r0
 8011954:	4290      	cmp	r0, r2
 8011956:	d202      	bcs.n	801195e <memset+0xc>
 8011958:	f800 1b01 	strb.w	r1, [r0], #1
 801195c:	e7fa      	b.n	8011954 <memset+0x2>
 801195e:	4770      	bx	lr

08011960 <memcpy>:
 8011960:	b430      	push	{r4, r5}
 8011962:	4603      	mov	r3, r0
 8011964:	2400      	movs	r4, #0
 8011966:	4294      	cmp	r4, r2
 8011968:	da05      	bge.n	8011976 <memcpy+0x16>
 801196a:	f811 5b01 	ldrb.w	r5, [r1], #1
 801196e:	f803 5b01 	strb.w	r5, [r3], #1
 8011972:	3401      	adds	r4, #1
 8011974:	e7f7      	b.n	8011966 <memcpy+0x6>
 8011976:	bc30      	pop	{r4, r5}
 8011978:	4770      	bx	lr

0801197a <memmove>:
 801197a:	4281      	cmp	r1, r0
 801197c:	d307      	bcc.n	801198e <memmove+0x14>
 801197e:	1e53      	subs	r3, r2, #1
 8011980:	b162      	cbz	r2, 801199c <memmove+0x22>
 8011982:	f811 2b01 	ldrb.w	r2, [r1], #1
 8011986:	f800 2b01 	strb.w	r2, [r0], #1
 801198a:	461a      	mov	r2, r3
 801198c:	e7f7      	b.n	801197e <memmove+0x4>
 801198e:	1e53      	subs	r3, r2, #1
 8011990:	b11a      	cbz	r2, 801199a <memmove+0x20>
 8011992:	5cca      	ldrb	r2, [r1, r3]
 8011994:	54c2      	strb	r2, [r0, r3]
 8011996:	461a      	mov	r2, r3
 8011998:	e7f9      	b.n	801198e <memmove+0x14>
 801199a:	4770      	bx	lr
 801199c:	4770      	bx	lr

0801199e <strchr>:
 801199e:	7803      	ldrb	r3, [r0, #0]
 80119a0:	461a      	mov	r2, r3
 80119a2:	428b      	cmp	r3, r1
 80119a4:	d002      	beq.n	80119ac <strchr+0xe>
 80119a6:	b10b      	cbz	r3, 80119ac <strchr+0xe>
 80119a8:	3001      	adds	r0, #1
 80119aa:	e7f8      	b.n	801199e <strchr>
 80119ac:	428a      	cmp	r2, r1
 80119ae:	d000      	beq.n	80119b2 <strchr+0x14>
 80119b0:	2000      	movs	r0, #0
 80119b2:	4770      	bx	lr

080119b4 <strlen>:
 80119b4:	4603      	mov	r3, r0
 80119b6:	2000      	movs	r0, #0
 80119b8:	f813 2b01 	ldrb.w	r2, [r3], #1
 80119bc:	b10a      	cbz	r2, 80119c2 <strlen+0xe>
 80119be:	3001      	adds	r0, #1
 80119c0:	e7fa      	b.n	80119b8 <strlen+0x4>
 80119c2:	4770      	bx	lr

080119c4 <strreverse>:
 80119c4:	4602      	mov	r2, r0
 80119c6:	b180      	cbz	r0, 80119ea <strreverse+0x26>
 80119c8:	7803      	ldrb	r3, [r0, #0]
 80119ca:	b173      	cbz	r3, 80119ea <strreverse+0x26>
 80119cc:	4601      	mov	r1, r0
 80119ce:	460b      	mov	r3, r1
 80119d0:	f811 0f01 	ldrb.w	r0, [r1, #1]!
 80119d4:	2800      	cmp	r0, #0
 80119d6:	d1fa      	bne.n	80119ce <strreverse+0xa>
 80119d8:	e005      	b.n	80119e6 <strreverse+0x22>
 80119da:	7811      	ldrb	r1, [r2, #0]
 80119dc:	7818      	ldrb	r0, [r3, #0]
 80119de:	f802 0b01 	strb.w	r0, [r2], #1
 80119e2:	f803 1901 	strb.w	r1, [r3], #-1
 80119e6:	4293      	cmp	r3, r2
 80119e8:	d8f7      	bhi.n	80119da <strreverse+0x16>
 80119ea:	4770      	bx	lr

080119ec <strcmp>:
 80119ec:	e001      	b.n	80119f2 <strcmp+0x6>
 80119ee:	3001      	adds	r0, #1
 80119f0:	3101      	adds	r1, #1
 80119f2:	7803      	ldrb	r3, [r0, #0]
 80119f4:	780a      	ldrb	r2, [r1, #0]
 80119f6:	4293      	cmp	r3, r2
 80119f8:	d102      	bne.n	8011a00 <strcmp+0x14>
 80119fa:	b10b      	cbz	r3, 8011a00 <strcmp+0x14>
 80119fc:	2a00      	cmp	r2, #0
 80119fe:	d1f6      	bne.n	80119ee <strcmp+0x2>
 8011a00:	4293      	cmp	r3, r2
 8011a02:	d002      	beq.n	8011a0a <strcmp+0x1e>
 8011a04:	d903      	bls.n	8011a0e <strcmp+0x22>
 8011a06:	2001      	movs	r0, #1
 8011a08:	4770      	bx	lr
 8011a0a:	2000      	movs	r0, #0
 8011a0c:	4770      	bx	lr
 8011a0e:	f04f 30ff 	mov.w	r0, #4294967295	; 0xffffffff
 8011a12:	4770      	bx	lr

08011a14 <strncmp>:
 8011a14:	b410      	push	{r4}
 8011a16:	e002      	b.n	8011a1e <strncmp+0xa>
 8011a18:	3001      	adds	r0, #1
 8011a1a:	3101      	adds	r1, #1
 8011a1c:	3a01      	subs	r2, #1
 8011a1e:	7803      	ldrb	r3, [r0, #0]
 8011a20:	780c      	ldrb	r4, [r1, #0]
 8011a22:	42a3      	cmp	r3, r4
 8011a24:	d103      	bne.n	8011a2e <strncmp+0x1a>
 8011a26:	b113      	cbz	r3, 8011a2e <strncmp+0x1a>
 8011a28:	b10c      	cbz	r4, 8011a2e <strncmp+0x1a>
 8011a2a:	2a00      	cmp	r2, #0
 8011a2c:	d1f4      	bne.n	8011a18 <strncmp+0x4>
 8011a2e:	b122      	cbz	r2, 8011a3a <strncmp+0x26>
 8011a30:	42a3      	cmp	r3, r4
 8011a32:	d006      	beq.n	8011a42 <strncmp+0x2e>
 8011a34:	d907      	bls.n	8011a46 <strncmp+0x32>
 8011a36:	2001      	movs	r0, #1
 8011a38:	e000      	b.n	8011a3c <strncmp+0x28>
 8011a3a:	4610      	mov	r0, r2
 8011a3c:	f85d 4b04 	ldr.w	r4, [sp], #4
 8011a40:	4770      	bx	lr
 8011a42:	2000      	movs	r0, #0
 8011a44:	e7fa      	b.n	8011a3c <strncmp+0x28>
 8011a46:	f04f 30ff 	mov.w	r0, #4294967295	; 0xffffffff
 8011a4a:	e7f7      	b.n	8011a3c <strncmp+0x28>

08011a4c <strncpy>:
 8011a4c:	b430      	push	{r4, r5}
 8011a4e:	4603      	mov	r3, r0
 8011a50:	780c      	ldrb	r4, [r1, #0]
 8011a52:	b16c      	cbz	r4, 8011a70 <strncpy+0x24>
 8011a54:	1e55      	subs	r5, r2, #1
 8011a56:	2a00      	cmp	r2, #0
 8011a58:	dd04      	ble.n	8011a64 <strncpy+0x18>
 8011a5a:	3101      	adds	r1, #1
 8011a5c:	f803 4b01 	strb.w	r4, [r3], #1
 8011a60:	462a      	mov	r2, r5
 8011a62:	e7f5      	b.n	8011a50 <strncpy+0x4>
 8011a64:	462a      	mov	r2, r5
 8011a66:	e003      	b.n	8011a70 <strncpy+0x24>
 8011a68:	2200      	movs	r2, #0
 8011a6a:	f803 2b01 	strb.w	r2, [r3], #1
 8011a6e:	460a      	mov	r2, r1
 8011a70:	1e51      	subs	r1, r2, #1
 8011a72:	2a00      	cmp	r2, #0
 8011a74:	dcf8      	bgt.n	8011a68 <strncpy+0x1c>
 8011a76:	bc30      	pop	{r4, r5}
 8011a78:	4770      	bx	lr

08011a7a <chrnlst>:
 8011a7a:	2200      	movs	r2, #0
 8011a7c:	5c8b      	ldrb	r3, [r1, r2]
 8011a7e:	b11b      	cbz	r3, 8011a88 <chrnlst+0xe>
 8011a80:	4283      	cmp	r3, r0
 8011a82:	d003      	beq.n	8011a8c <chrnlst+0x12>
 8011a84:	3201      	adds	r2, #1
 8011a86:	e7f9      	b.n	8011a7c <chrnlst+0x2>
 8011a88:	2000      	movs	r0, #0
 8011a8a:	4770      	bx	lr
 8011a8c:	2001      	movs	r0, #1
 8011a8e:	4770      	bx	lr

08011a90 <strncat>:
 8011a90:	b430      	push	{r4, r5}
 8011a92:	4604      	mov	r4, r0
 8011a94:	4623      	mov	r3, r4
 8011a96:	3401      	adds	r4, #1
 8011a98:	781d      	ldrb	r5, [r3, #0]
 8011a9a:	2d00      	cmp	r5, #0
 8011a9c:	d1fa      	bne.n	8011a94 <strncat+0x4>
 8011a9e:	780d      	ldrb	r5, [r1, #0]
 8011aa0:	3101      	adds	r1, #1
 8011aa2:	701d      	strb	r5, [r3, #0]
 8011aa4:	3301      	adds	r3, #1
 8011aa6:	b125      	cbz	r5, 8011ab2 <strncat+0x22>
 8011aa8:	3a01      	subs	r2, #1
 8011aaa:	d5f8      	bpl.n	8011a9e <strncat+0xe>
 8011aac:	2200      	movs	r2, #0
 8011aae:	f803 2c01 	strb.w	r2, [r3, #-1]
 8011ab2:	bc30      	pop	{r4, r5}
 8011ab4:	4770      	bx	lr

08011ab6 <strstr>:
 8011ab6:	e014      	b.n	8011ae2 <strstr+0x2c>
 8011ab8:	3401      	adds	r4, #1
 8011aba:	3301      	adds	r3, #1
 8011abc:	7822      	ldrb	r2, [r4, #0]
 8011abe:	b11a      	cbz	r2, 8011ac8 <strstr+0x12>
 8011ac0:	781d      	ldrb	r5, [r3, #0]
 8011ac2:	b10d      	cbz	r5, 8011ac8 <strstr+0x12>
 8011ac4:	42aa      	cmp	r2, r5
 8011ac6:	d0f7      	beq.n	8011ab8 <strstr+0x2>
 8011ac8:	781b      	ldrb	r3, [r3, #0]
 8011aca:	b13b      	cbz	r3, 8011adc <strstr+0x26>
 8011acc:	3001      	adds	r0, #1
 8011ace:	7803      	ldrb	r3, [r0, #0]
 8011ad0:	b11b      	cbz	r3, 8011ada <strstr+0x24>
 8011ad2:	780a      	ldrb	r2, [r1, #0]
 8011ad4:	429a      	cmp	r2, r3
 8011ad6:	d1f9      	bne.n	8011acc <strstr+0x16>
 8011ad8:	e009      	b.n	8011aee <strstr+0x38>
 8011ada:	2000      	movs	r0, #0
 8011adc:	bc30      	pop	{r4, r5}
 8011ade:	4770      	bx	lr
 8011ae0:	3001      	adds	r0, #1
 8011ae2:	7803      	ldrb	r3, [r0, #0]
 8011ae4:	b133      	cbz	r3, 8011af4 <strstr+0x3e>
 8011ae6:	780a      	ldrb	r2, [r1, #0]
 8011ae8:	429a      	cmp	r2, r3
 8011aea:	d1f9      	bne.n	8011ae0 <strstr+0x2a>
 8011aec:	b430      	push	{r4, r5}
 8011aee:	460b      	mov	r3, r1
 8011af0:	4604      	mov	r4, r0
 8011af2:	e7e3      	b.n	8011abc <strstr+0x6>
 8011af4:	2000      	movs	r0, #0
 8011af6:	4770      	bx	lr

08011af8 <strcpy>:
 8011af8:	780a      	ldrb	r2, [r1, #0]
 8011afa:	3101      	adds	r1, #1
 8011afc:	7002      	strb	r2, [r0, #0]
 8011afe:	3001      	adds	r0, #1
 8011b00:	2a00      	cmp	r2, #0
 8011b02:	d1f9      	bne.n	8011af8 <strcpy>
 8011b04:	2000      	movs	r0, #0
 8011b06:	4770      	bx	lr

08011b08 <strspn>:
 8011b08:	b430      	push	{r4, r5}
 8011b0a:	4605      	mov	r5, r0
 8011b0c:	e001      	b.n	8011b12 <strspn+0xa>
 8011b0e:	b153      	cbz	r3, 8011b26 <strspn+0x1e>
 8011b10:	3501      	adds	r5, #1
 8011b12:	782c      	ldrb	r4, [r5, #0]
 8011b14:	b13c      	cbz	r4, 8011b26 <strspn+0x1e>
 8011b16:	460a      	mov	r2, r1
 8011b18:	7813      	ldrb	r3, [r2, #0]
 8011b1a:	2b00      	cmp	r3, #0
 8011b1c:	d0f7      	beq.n	8011b0e <strspn+0x6>
 8011b1e:	42a3      	cmp	r3, r4
 8011b20:	d0f5      	beq.n	8011b0e <strspn+0x6>
 8011b22:	3201      	adds	r2, #1
 8011b24:	e7f8      	b.n	8011b18 <strspn+0x10>
 8011b26:	1a28      	subs	r0, r5, r0
 8011b28:	bc30      	pop	{r4, r5}
 8011b2a:	4770      	bx	lr

08011b2c <strcat>:
 8011b2c:	b538      	push	{r3, r4, r5, lr}
 8011b2e:	4604      	mov	r4, r0
 8011b30:	460d      	mov	r5, r1
 8011b32:	f7ff ff3f 	bl	80119b4 <strlen>
 8011b36:	4629      	mov	r1, r5
 8011b38:	4420      	add	r0, r4
 8011b3a:	f7ff ffdd 	bl	8011af8 <strcpy>
 8011b3e:	4620      	mov	r0, r4
 8011b40:	bd38      	pop	{r3, r4, r5, pc}

08011b42 <strcspn>:
 8011b42:	b470      	push	{r4, r5, r6}
 8011b44:	4605      	mov	r5, r0
 8011b46:	462e      	mov	r6, r5
 8011b48:	f816 4b01 	ldrb.w	r4, [r6], #1
 8011b4c:	460a      	mov	r2, r1
 8011b4e:	7813      	ldrb	r3, [r2, #0]
 8011b50:	3201      	adds	r2, #1
 8011b52:	429c      	cmp	r4, r3
 8011b54:	d003      	beq.n	8011b5e <strcspn+0x1c>
 8011b56:	2b00      	cmp	r3, #0
 8011b58:	d1f9      	bne.n	8011b4e <strcspn+0xc>
 8011b5a:	4635      	mov	r5, r6
 8011b5c:	e7f3      	b.n	8011b46 <strcspn+0x4>
 8011b5e:	1a28      	subs	r0, r5, r0
 8011b60:	bc70      	pop	{r4, r5, r6}
 8011b62:	4770      	bx	lr

08011b64 <strnlen>:
 8011b64:	4603      	mov	r3, r0
 8011b66:	2000      	movs	r0, #0
 8011b68:	f813 2b01 	ldrb.w	r2, [r3], #1
 8011b6c:	b11a      	cbz	r2, 8011b76 <strnlen+0x12>
 8011b6e:	4288      	cmp	r0, r1
 8011b70:	da01      	bge.n	8011b76 <strnlen+0x12>
 8011b72:	3001      	adds	r0, #1
 8011b74:	e7f8      	b.n	8011b68 <strnlen+0x4>
 8011b76:	4770      	bx	lr

08011b78 <strtok>:
 8011b78:	b470      	push	{r4, r5, r6}
 8011b7a:	4606      	mov	r6, r0
 8011b7c:	b928      	cbnz	r0, 8011b8a <strtok+0x12>
 8011b7e:	4b15      	ldr	r3, [pc, #84]	; (8011bd4 <strtok+0x5c>)
 8011b80:	681e      	ldr	r6, [r3, #0]
 8011b82:	b916      	cbnz	r6, 8011b8a <strtok+0x12>
 8011b84:	4630      	mov	r0, r6
 8011b86:	e020      	b.n	8011bca <strtok+0x52>
 8011b88:	462e      	mov	r6, r5
 8011b8a:	4635      	mov	r5, r6
 8011b8c:	f815 4b01 	ldrb.w	r4, [r5], #1
 8011b90:	460a      	mov	r2, r1
 8011b92:	7813      	ldrb	r3, [r2, #0]
 8011b94:	3201      	adds	r2, #1
 8011b96:	b113      	cbz	r3, 8011b9e <strtok+0x26>
 8011b98:	429c      	cmp	r4, r3
 8011b9a:	d1fa      	bne.n	8011b92 <strtok+0x1a>
 8011b9c:	e7f4      	b.n	8011b88 <strtok+0x10>
 8011b9e:	b14c      	cbz	r4, 8011bb4 <strtok+0x3c>
 8011ba0:	f815 4b01 	ldrb.w	r4, [r5], #1
 8011ba4:	460a      	mov	r2, r1
 8011ba6:	7813      	ldrb	r3, [r2, #0]
 8011ba8:	3201      	adds	r2, #1
 8011baa:	429c      	cmp	r4, r3
 8011bac:	d006      	beq.n	8011bbc <strtok+0x44>
 8011bae:	2b00      	cmp	r3, #0
 8011bb0:	d1f9      	bne.n	8011ba6 <strtok+0x2e>
 8011bb2:	e7f5      	b.n	8011ba0 <strtok+0x28>
 8011bb4:	2000      	movs	r0, #0
 8011bb6:	4b07      	ldr	r3, [pc, #28]	; (8011bd4 <strtok+0x5c>)
 8011bb8:	6018      	str	r0, [r3, #0]
 8011bba:	e006      	b.n	8011bca <strtok+0x52>
 8011bbc:	b13c      	cbz	r4, 8011bce <strtok+0x56>
 8011bbe:	2300      	movs	r3, #0
 8011bc0:	f805 3c01 	strb.w	r3, [r5, #-1]
 8011bc4:	4b03      	ldr	r3, [pc, #12]	; (8011bd4 <strtok+0x5c>)
 8011bc6:	601d      	str	r5, [r3, #0]
 8011bc8:	4630      	mov	r0, r6
 8011bca:	bc70      	pop	{r4, r5, r6}
 8011bcc:	4770      	bx	lr
 8011bce:	2500      	movs	r5, #0
 8011bd0:	e7f8      	b.n	8011bc4 <strtok+0x4c>
 8011bd2:	bf00      	nop
 8011bd4:	20000080 	.word	0x20000080

08011bd8 <strrchr>:
 8011bd8:	4603      	mov	r3, r0
 8011bda:	2000      	movs	r0, #0
 8011bdc:	781a      	ldrb	r2, [r3, #0]
 8011bde:	b18a      	cbz	r2, 8011c04 <strrchr+0x2c>
 8011be0:	b410      	push	{r4}
 8011be2:	e002      	b.n	8011bea <strrchr+0x12>
 8011be4:	3301      	adds	r3, #1
 8011be6:	781a      	ldrb	r2, [r3, #0]
 8011be8:	b122      	cbz	r2, 8011bf4 <strrchr+0x1c>
 8011bea:	b2cc      	uxtb	r4, r1
 8011bec:	4294      	cmp	r4, r2
 8011bee:	d1f9      	bne.n	8011be4 <strrchr+0xc>
 8011bf0:	4618      	mov	r0, r3
 8011bf2:	e7f7      	b.n	8011be4 <strrchr+0xc>
 8011bf4:	b2c9      	uxtb	r1, r1
 8011bf6:	428a      	cmp	r2, r1
 8011bf8:	d002      	beq.n	8011c00 <strrchr+0x28>
 8011bfa:	f85d 4b04 	ldr.w	r4, [sp], #4
 8011bfe:	4770      	bx	lr
 8011c00:	4618      	mov	r0, r3
 8011c02:	e7fa      	b.n	8011bfa <strrchr+0x22>
 8011c04:	b2c9      	uxtb	r1, r1
 8011c06:	428a      	cmp	r2, r1
 8011c08:	d000      	beq.n	8011c0c <strrchr+0x34>
 8011c0a:	4770      	bx	lr
 8011c0c:	4618      	mov	r0, r3
 8011c0e:	4770      	bx	lr

08011c10 <lowpass>:
 8011c10:	eef7 7a00 	vmov.f32	s15, #112	; 0x3f800000  1.0
 8011c14:	ee77 7ac1 	vsub.f32	s15, s15, s2
 8011c18:	ee27 0a80 	vmul.f32	s0, s15, s0
 8011c1c:	ee21 1a20 	vmul.f32	s2, s2, s1
 8011c20:	ee31 0a00 	vadd.f32	s0, s2, s0
 8011c24:	4770      	bx	lr

08011c26 <fabsf>:
 8011c26:	eeb5 0ac0 	vcmpe.f32	s0, #0.0
 8011c2a:	eef1 fa10 	vmrs	APSR_nzcv, fpscr
 8011c2e:	dd00      	ble.n	8011c32 <fabsf+0xc>
 8011c30:	4770      	bx	lr
 8011c32:	eeb1 0a40 	vneg.f32	s0, s0
 8011c36:	e7fb      	b.n	8011c30 <fabsf+0xa>

08011c38 <atangentf>:
 8011c38:	b510      	push	{r4, lr}
 8011c3a:	ed2d 8b04 	vpush	{d8-d9}
 8011c3e:	b082      	sub	sp, #8
 8011c40:	eeb0 9a40 	vmov.f32	s18, s0
 8011c44:	eef0 8a60 	vmov.f32	s17, s1
 8011c48:	eeb0 8a41 	vmov.f32	s16, s2
 8011c4c:	4604      	mov	r4, r0
 8011c4e:	b170      	cbz	r0, 8011c6e <atangentf+0x36>
 8011c50:	eeb5 1a40 	vcmp.f32	s2, #0.0
 8011c54:	eef1 fa10 	vmrs	APSR_nzcv, fpscr
 8011c58:	d171      	bne.n	8011d3e <atangentf+0x106>
 8011c5a:	eef5 0a40 	vcmp.f32	s1, #0.0
 8011c5e:	eef1 fa10 	vmrs	APSR_nzcv, fpscr
 8011c62:	f000 80a0 	beq.w	8011da6 <atangentf+0x16e>
 8011c66:	2301      	movs	r3, #1
 8011c68:	2b00      	cmp	r3, #0
 8011c6a:	f040 8089 	bne.w	8011d80 <atangentf+0x148>
 8011c6e:	2c00      	cmp	r4, #0
 8011c70:	d079      	beq.n	8011d66 <atangentf+0x12e>
 8011c72:	ee88 0a88 	vdiv.f32	s0, s17, s16
 8011c76:	f7ff ffd6 	bl	8011c26 <fabsf>
 8011c7a:	eef7 7a00 	vmov.f32	s15, #112	; 0x3f800000  1.0
 8011c7e:	eeb4 0ae7 	vcmpe.f32	s0, s15
 8011c82:	eef1 fa10 	vmrs	APSR_nzcv, fpscr
 8011c86:	dd73      	ble.n	8011d70 <atangentf+0x138>
 8011c88:	ee87 0a80 	vdiv.f32	s0, s15, s0
 8011c8c:	2202      	movs	r2, #2
 8011c8e:	eddf 7a47 	vldr	s15, [pc, #284]	; 8011dac <atangentf+0x174>
 8011c92:	eeb4 0ae7 	vcmpe.f32	s0, s15
 8011c96:	eef1 fa10 	vmrs	APSR_nzcv, fpscr
 8011c9a:	dd12      	ble.n	8011cc2 <atangentf+0x8a>
 8011c9c:	eddf 7a44 	vldr	s15, [pc, #272]	; 8011db0 <atangentf+0x178>
 8011ca0:	ee60 7a27 	vmul.f32	s15, s0, s15
 8011ca4:	eeb6 7a00 	vmov.f32	s14, #96	; 0x3f000000  0.5
 8011ca8:	ee77 7ac7 	vsub.f32	s15, s15, s14
 8011cac:	ee77 7ac7 	vsub.f32	s15, s15, s14
 8011cb0:	ee77 7a80 	vadd.f32	s15, s15, s0
 8011cb4:	ed9f 7a3f 	vldr	s14, [pc, #252]	; 8011db4 <atangentf+0x17c>
 8011cb8:	ee30 7a07 	vadd.f32	s14, s0, s14
 8011cbc:	ee87 0a87 	vdiv.f32	s0, s15, s14
 8011cc0:	3201      	adds	r2, #1
 8011cc2:	eddf 7a3d 	vldr	s15, [pc, #244]	; 8011db8 <atangentf+0x180>
 8011cc6:	eeb4 0ae7 	vcmpe.f32	s0, s15
 8011cca:	eef1 fa10 	vmrs	APSR_nzcv, fpscr
 8011cce:	dd06      	ble.n	8011cde <atangentf+0xa6>
 8011cd0:	eddf 7a3a 	vldr	s15, [pc, #232]	; 8011dbc <atangentf+0x184>
 8011cd4:	eeb4 0ae7 	vcmpe.f32	s0, s15
 8011cd8:	eef1 fa10 	vmrs	APSR_nzcv, fpscr
 8011cdc:	d415      	bmi.n	8011d0a <atangentf+0xd2>
 8011cde:	ee20 7a00 	vmul.f32	s14, s0, s0
 8011ce2:	eddf 7a37 	vldr	s15, [pc, #220]	; 8011dc0 <atangentf+0x188>
 8011ce6:	ee67 7a27 	vmul.f32	s15, s14, s15
 8011cea:	eddf 6a36 	vldr	s13, [pc, #216]	; 8011dc4 <atangentf+0x18c>
 8011cee:	ee77 7ae6 	vsub.f32	s15, s15, s13
 8011cf2:	ee67 7a87 	vmul.f32	s15, s15, s14
 8011cf6:	eddf 6a34 	vldr	s13, [pc, #208]	; 8011dc8 <atangentf+0x190>
 8011cfa:	ee37 7a26 	vadd.f32	s14, s14, s13
 8011cfe:	eec7 6a87 	vdiv.f32	s13, s15, s14
 8011d02:	ee60 7a26 	vmul.f32	s15, s0, s13
 8011d06:	ee30 0a27 	vadd.f32	s0, s0, s15
 8011d0a:	2a01      	cmp	r2, #1
 8011d0c:	dd01      	ble.n	8011d12 <atangentf+0xda>
 8011d0e:	eeb1 0a40 	vneg.f32	s0, s0
 8011d12:	4b2e      	ldr	r3, [pc, #184]	; (8011dcc <atangentf+0x194>)
 8011d14:	eb03 0382 	add.w	r3, r3, r2, lsl #2
 8011d18:	edd3 7a00 	vldr	s15, [r3]
 8011d1c:	ee37 0a80 	vadd.f32	s0, s15, s0
 8011d20:	b3cc      	cbz	r4, 8011d96 <atangentf+0x15e>
 8011d22:	eeb5 8ac0 	vcmpe.f32	s16, #0.0
 8011d26:	eef1 fa10 	vmrs	APSR_nzcv, fpscr
 8011d2a:	d42c      	bmi.n	8011d86 <atangentf+0x14e>
 8011d2c:	eef5 8ac0 	vcmpe.f32	s17, #0.0
 8011d30:	eef1 fa10 	vmrs	APSR_nzcv, fpscr
 8011d34:	d42c      	bmi.n	8011d90 <atangentf+0x158>
 8011d36:	b002      	add	sp, #8
 8011d38:	ecbd 8b04 	vpop	{d8-d9}
 8011d3c:	bd10      	pop	{r4, pc}
 8011d3e:	a801      	add	r0, sp, #4
 8011d40:	eeb0 0a60 	vmov.f32	s0, s1
 8011d44:	f000 f981 	bl	801204a <frexpf>
 8011d48:	4668      	mov	r0, sp
 8011d4a:	eeb0 0a48 	vmov.f32	s0, s16
 8011d4e:	f000 f97c 	bl	801204a <frexpf>
 8011d52:	9b01      	ldr	r3, [sp, #4]
 8011d54:	9a00      	ldr	r2, [sp, #0]
 8011d56:	1a9b      	subs	r3, r3, r2
 8011d58:	2b80      	cmp	r3, #128	; 0x80
 8011d5a:	dc0b      	bgt.n	8011d74 <atangentf+0x13c>
 8011d5c:	f113 0f7d 	cmn.w	r3, #125	; 0x7d
 8011d60:	db0b      	blt.n	8011d7a <atangentf+0x142>
 8011d62:	2300      	movs	r3, #0
 8011d64:	e780      	b.n	8011c68 <atangentf+0x30>
 8011d66:	eeb0 0a49 	vmov.f32	s0, s18
 8011d6a:	f7ff ff5c 	bl	8011c26 <fabsf>
 8011d6e:	e784      	b.n	8011c7a <atangentf+0x42>
 8011d70:	2200      	movs	r2, #0
 8011d72:	e78c      	b.n	8011c8e <atangentf+0x56>
 8011d74:	ed9f 0a16 	vldr	s0, [pc, #88]	; 8011dd0 <atangentf+0x198>
 8011d78:	e7d2      	b.n	8011d20 <atangentf+0xe8>
 8011d7a:	ed9f 0a16 	vldr	s0, [pc, #88]	; 8011dd4 <atangentf+0x19c>
 8011d7e:	e7cf      	b.n	8011d20 <atangentf+0xe8>
 8011d80:	ed9f 0a13 	vldr	s0, [pc, #76]	; 8011dd0 <atangentf+0x198>
 8011d84:	e7cc      	b.n	8011d20 <atangentf+0xe8>
 8011d86:	eddf 7a14 	vldr	s15, [pc, #80]	; 8011dd8 <atangentf+0x1a0>
 8011d8a:	ee37 0ac0 	vsub.f32	s0, s15, s0
 8011d8e:	e7cd      	b.n	8011d2c <atangentf+0xf4>
 8011d90:	eeb1 0a40 	vneg.f32	s0, s0
 8011d94:	e7cf      	b.n	8011d36 <atangentf+0xfe>
 8011d96:	eeb5 9ac0 	vcmpe.f32	s18, #0.0
 8011d9a:	eef1 fa10 	vmrs	APSR_nzcv, fpscr
 8011d9e:	d5ca      	bpl.n	8011d36 <atangentf+0xfe>
 8011da0:	eeb1 0a40 	vneg.f32	s0, s0
 8011da4:	e7c7      	b.n	8011d36 <atangentf+0xfe>
 8011da6:	ed9f 0a0d 	vldr	s0, [pc, #52]	; 8011ddc <atangentf+0x1a4>
 8011daa:	e7c4      	b.n	8011d36 <atangentf+0xfe>
 8011dac:	3e8930a4 	.word	0x3e8930a4
 8011db0:	3f3b67ae 	.word	0x3f3b67ae
 8011db4:	3fddb3d7 	.word	0x3fddb3d7
 8011db8:	b93504f3 	.word	0xb93504f3
 8011dbc:	393504f3 	.word	0x393504f3
 8011dc0:	bd508691 	.word	0xbd508691
 8011dc4:	3ef110f6 	.word	0x3ef110f6
 8011dc8:	3fb4ccd3 	.word	0x3fb4ccd3
 8011dcc:	08018708 	.word	0x08018708
 8011dd0:	3fc90fdb 	.word	0x3fc90fdb
 8011dd4:	00000000 	.word	0x00000000
 8011dd8:	40490fdb 	.word	0x40490fdb
 8011ddc:	4f7fd000 	.word	0x4f7fd000

08011de0 <atanf>:
 8011de0:	b508      	push	{r3, lr}
 8011de2:	ed2d 8b02 	vpush	{d8}
 8011de6:	eeb0 8a40 	vmov.f32	s16, s0
 8011dea:	f000 f925 	bl	8012038 <numtestf>
 8011dee:	2801      	cmp	r0, #1
 8011df0:	d00c      	beq.n	8011e0c <atanf+0x2c>
 8011df2:	2802      	cmp	r0, #2
 8011df4:	d00d      	beq.n	8011e12 <atanf+0x32>
 8011df6:	b188      	cbz	r0, 8011e1c <atanf+0x3c>
 8011df8:	eddf 0a0a 	vldr	s1, [pc, #40]	; 8011e24 <atanf+0x44>
 8011dfc:	2000      	movs	r0, #0
 8011dfe:	eeb0 1a60 	vmov.f32	s2, s1
 8011e02:	eeb0 0a48 	vmov.f32	s0, s16
 8011e06:	f7ff ff17 	bl	8011c38 <atangentf>
 8011e0a:	e004      	b.n	8011e16 <atanf+0x36>
 8011e0c:	ed9f 0a06 	vldr	s0, [pc, #24]	; 8011e28 <atanf+0x48>
 8011e10:	e001      	b.n	8011e16 <atanf+0x36>
 8011e12:	eeb0 0a48 	vmov.f32	s0, s16
 8011e16:	ecbd 8b02 	vpop	{d8}
 8011e1a:	bd08      	pop	{r3, pc}
 8011e1c:	ed9f 0a01 	vldr	s0, [pc, #4]	; 8011e24 <atanf+0x44>
 8011e20:	e7f9      	b.n	8011e16 <atanf+0x36>
 8011e22:	bf00      	nop
 8011e24:	00000000 	.word	0x00000000
 8011e28:	3fc90fdb 	.word	0x3fc90fdb

08011e2c <heap_free>:
 8011e2c:	4b04      	ldr	r3, [pc, #16]	; (8011e40 <heap_free+0x14>)
 8011e2e:	681b      	ldr	r3, [r3, #0]
 8011e30:	2000      	movs	r0, #0
 8011e32:	b11b      	cbz	r3, 8011e3c <heap_free+0x10>
 8011e34:	685a      	ldr	r2, [r3, #4]
 8011e36:	4410      	add	r0, r2
 8011e38:	681b      	ldr	r3, [r3, #0]
 8011e3a:	e7fa      	b.n	8011e32 <heap_free+0x6>
 8011e3c:	4770      	bx	lr
 8011e3e:	bf00      	nop
 8011e40:	2000102c 	.word	0x2000102c

08011e44 <meminit>:
 8011e44:	4b08      	ldr	r3, [pc, #32]	; (8011e68 <meminit+0x24>)
 8011e46:	4a09      	ldr	r2, [pc, #36]	; (8011e6c <meminit+0x28>)
 8011e48:	6013      	str	r3, [r2, #0]
 8011e4a:	4a09      	ldr	r2, [pc, #36]	; (8011e70 <meminit+0x2c>)
 8011e4c:	4909      	ldr	r1, [pc, #36]	; (8011e74 <meminit+0x30>)
 8011e4e:	6011      	str	r1, [r2, #0]
 8011e50:	4909      	ldr	r1, [pc, #36]	; (8011e78 <meminit+0x34>)
 8011e52:	600b      	str	r3, [r1, #0]
 8011e54:	2200      	movs	r2, #0
 8011e56:	601a      	str	r2, [r3, #0]
 8011e58:	f1c3 5200 	rsb	r2, r3, #536870912	; 0x20000000
 8011e5c:	f502 32fa 	add.w	r2, r2, #128000	; 0x1f400
 8011e60:	605a      	str	r2, [r3, #4]
 8011e62:	604a      	str	r2, [r1, #4]
 8011e64:	4770      	bx	lr
 8011e66:	bf00      	nop
 8011e68:	200023ac 	.word	0x200023ac
 8011e6c:	20001024 	.word	0x20001024
 8011e70:	20001028 	.word	0x20001028
 8011e74:	2001f400 	.word	0x2001f400
 8011e78:	2000102c 	.word	0x2000102c

08011e7c <freemem>:
 8011e7c:	2900      	cmp	r1, #0
 8011e7e:	d041      	beq.n	8011f04 <freemem+0x88>
 8011e80:	b4f0      	push	{r4, r5, r6, r7}
 8011e82:	460b      	mov	r3, r1
 8011e84:	4605      	mov	r5, r0
 8011e86:	4a27      	ldr	r2, [pc, #156]	; (8011f24 <freemem+0xa8>)
 8011e88:	6812      	ldr	r2, [r2, #0]
 8011e8a:	4290      	cmp	r0, r2
 8011e8c:	d33d      	bcc.n	8011f0a <freemem+0x8e>
 8011e8e:	4a26      	ldr	r2, [pc, #152]	; (8011f28 <freemem+0xac>)
 8011e90:	6812      	ldr	r2, [r2, #0]
 8011e92:	4290      	cmp	r0, r2
 8011e94:	d83c      	bhi.n	8011f10 <freemem+0x94>
 8011e96:	3307      	adds	r3, #7
 8011e98:	f023 0407 	bic.w	r4, r3, #7
 8011e9c:	4a23      	ldr	r2, [pc, #140]	; (8011f2c <freemem+0xb0>)
 8011e9e:	6813      	ldr	r3, [r2, #0]
 8011ea0:	b123      	cbz	r3, 8011eac <freemem+0x30>
 8011ea2:	4283      	cmp	r3, r0
 8011ea4:	d202      	bcs.n	8011eac <freemem+0x30>
 8011ea6:	461a      	mov	r2, r3
 8011ea8:	681b      	ldr	r3, [r3, #0]
 8011eaa:	e7f9      	b.n	8011ea0 <freemem+0x24>
 8011eac:	491f      	ldr	r1, [pc, #124]	; (8011f2c <freemem+0xb0>)
 8011eae:	428a      	cmp	r2, r1
 8011eb0:	d01a      	beq.n	8011ee8 <freemem+0x6c>
 8011eb2:	6851      	ldr	r1, [r2, #4]
 8011eb4:	4411      	add	r1, r2
 8011eb6:	4e1d      	ldr	r6, [pc, #116]	; (8011f2c <freemem+0xb0>)
 8011eb8:	42b2      	cmp	r2, r6
 8011eba:	d001      	beq.n	8011ec0 <freemem+0x44>
 8011ebc:	428d      	cmp	r5, r1
 8011ebe:	d32a      	bcc.n	8011f16 <freemem+0x9a>
 8011ec0:	b113      	cbz	r3, 8011ec8 <freemem+0x4c>
 8011ec2:	192e      	adds	r6, r5, r4
 8011ec4:	429e      	cmp	r6, r3
 8011ec6:	d829      	bhi.n	8011f1c <freemem+0xa0>
 8011ec8:	4f18      	ldr	r7, [pc, #96]	; (8011f2c <freemem+0xb0>)
 8011eca:	687e      	ldr	r6, [r7, #4]
 8011ecc:	4426      	add	r6, r4
 8011ece:	607e      	str	r6, [r7, #4]
 8011ed0:	428d      	cmp	r5, r1
 8011ed2:	d00b      	beq.n	8011eec <freemem+0x70>
 8011ed4:	6003      	str	r3, [r0, #0]
 8011ed6:	6044      	str	r4, [r0, #4]
 8011ed8:	6010      	str	r0, [r2, #0]
 8011eda:	6842      	ldr	r2, [r0, #4]
 8011edc:	1811      	adds	r1, r2, r0
 8011ede:	4299      	cmp	r1, r3
 8011ee0:	d009      	beq.n	8011ef6 <freemem+0x7a>
 8011ee2:	2001      	movs	r0, #1
 8011ee4:	bcf0      	pop	{r4, r5, r6, r7}
 8011ee6:	4770      	bx	lr
 8011ee8:	2100      	movs	r1, #0
 8011eea:	e7e4      	b.n	8011eb6 <freemem+0x3a>
 8011eec:	6851      	ldr	r1, [r2, #4]
 8011eee:	440c      	add	r4, r1
 8011ef0:	6054      	str	r4, [r2, #4]
 8011ef2:	4610      	mov	r0, r2
 8011ef4:	e7f1      	b.n	8011eda <freemem+0x5e>
 8011ef6:	6859      	ldr	r1, [r3, #4]
 8011ef8:	440a      	add	r2, r1
 8011efa:	6042      	str	r2, [r0, #4]
 8011efc:	681b      	ldr	r3, [r3, #0]
 8011efe:	6003      	str	r3, [r0, #0]
 8011f00:	2001      	movs	r0, #1
 8011f02:	e7ef      	b.n	8011ee4 <freemem+0x68>
 8011f04:	f04f 30ff 	mov.w	r0, #4294967295	; 0xffffffff
 8011f08:	4770      	bx	lr
 8011f0a:	f04f 30ff 	mov.w	r0, #4294967295	; 0xffffffff
 8011f0e:	e7e9      	b.n	8011ee4 <freemem+0x68>
 8011f10:	f04f 30ff 	mov.w	r0, #4294967295	; 0xffffffff
 8011f14:	e7e6      	b.n	8011ee4 <freemem+0x68>
 8011f16:	f04f 30ff 	mov.w	r0, #4294967295	; 0xffffffff
 8011f1a:	e7e3      	b.n	8011ee4 <freemem+0x68>
 8011f1c:	f04f 30ff 	mov.w	r0, #4294967295	; 0xffffffff
 8011f20:	e7e0      	b.n	8011ee4 <freemem+0x68>
 8011f22:	bf00      	nop
 8011f24:	20001024 	.word	0x20001024
 8011f28:	20001028 	.word	0x20001028
 8011f2c:	2000102c 	.word	0x2000102c

08011f30 <getmem>:
 8011f30:	b338      	cbz	r0, 8011f82 <getmem+0x52>
 8011f32:	4602      	mov	r2, r0
 8011f34:	3207      	adds	r2, #7
 8011f36:	f022 0207 	bic.w	r2, r2, #7
 8011f3a:	4913      	ldr	r1, [pc, #76]	; (8011f88 <getmem+0x58>)
 8011f3c:	6808      	ldr	r0, [r1, #0]
 8011f3e:	e008      	b.n	8011f52 <getmem+0x22>
 8011f40:	6803      	ldr	r3, [r0, #0]
 8011f42:	600b      	str	r3, [r1, #0]
 8011f44:	4910      	ldr	r1, [pc, #64]	; (8011f88 <getmem+0x58>)
 8011f46:	684b      	ldr	r3, [r1, #4]
 8011f48:	1a9a      	subs	r2, r3, r2
 8011f4a:	604a      	str	r2, [r1, #4]
 8011f4c:	4770      	bx	lr
 8011f4e:	4601      	mov	r1, r0
 8011f50:	6800      	ldr	r0, [r0, #0]
 8011f52:	b198      	cbz	r0, 8011f7c <getmem+0x4c>
 8011f54:	6843      	ldr	r3, [r0, #4]
 8011f56:	4293      	cmp	r3, r2
 8011f58:	d0f2      	beq.n	8011f40 <getmem+0x10>
 8011f5a:	4293      	cmp	r3, r2
 8011f5c:	d9f7      	bls.n	8011f4e <getmem+0x1e>
 8011f5e:	b410      	push	{r4}
 8011f60:	1884      	adds	r4, r0, r2
 8011f62:	600c      	str	r4, [r1, #0]
 8011f64:	6803      	ldr	r3, [r0, #0]
 8011f66:	5083      	str	r3, [r0, r2]
 8011f68:	6843      	ldr	r3, [r0, #4]
 8011f6a:	1a9b      	subs	r3, r3, r2
 8011f6c:	6063      	str	r3, [r4, #4]
 8011f6e:	4906      	ldr	r1, [pc, #24]	; (8011f88 <getmem+0x58>)
 8011f70:	684b      	ldr	r3, [r1, #4]
 8011f72:	1a9a      	subs	r2, r3, r2
 8011f74:	604a      	str	r2, [r1, #4]
 8011f76:	f85d 4b04 	ldr.w	r4, [sp], #4
 8011f7a:	4770      	bx	lr
 8011f7c:	f04f 30ff 	mov.w	r0, #4294967295	; 0xffffffff
 8011f80:	4770      	bx	lr
 8011f82:	f04f 30ff 	mov.w	r0, #4294967295	; 0xffffffff
 8011f86:	4770      	bx	lr
 8011f88:	2000102c 	.word	0x2000102c

08011f8c <getstk>:
 8011f8c:	b570      	push	{r4, r5, r6, lr}
 8011f8e:	4604      	mov	r4, r0
 8011f90:	f006 fb64 	bl	801865c <irq_disable>
 8011f94:	b13c      	cbz	r4, 8011fa6 <getstk+0x1a>
 8011f96:	3407      	adds	r4, #7
 8011f98:	f024 0407 	bic.w	r4, r4, #7
 8011f9c:	4915      	ldr	r1, [pc, #84]	; (8011ff4 <getstk+0x68>)
 8011f9e:	680b      	ldr	r3, [r1, #0]
 8011fa0:	2600      	movs	r6, #0
 8011fa2:	4635      	mov	r5, r6
 8011fa4:	e006      	b.n	8011fb4 <getstk+0x28>
 8011fa6:	f006 fb5d 	bl	8018664 <irq_restore>
 8011faa:	f04f 30ff 	mov.w	r0, #4294967295	; 0xffffffff
 8011fae:	e017      	b.n	8011fe0 <getstk+0x54>
 8011fb0:	4619      	mov	r1, r3
 8011fb2:	681b      	ldr	r3, [r3, #0]
 8011fb4:	b12b      	cbz	r3, 8011fc2 <getstk+0x36>
 8011fb6:	685a      	ldr	r2, [r3, #4]
 8011fb8:	42a2      	cmp	r2, r4
 8011fba:	d3f9      	bcc.n	8011fb0 <getstk+0x24>
 8011fbc:	460e      	mov	r6, r1
 8011fbe:	461d      	mov	r5, r3
 8011fc0:	e7f6      	b.n	8011fb0 <getstk+0x24>
 8011fc2:	b175      	cbz	r5, 8011fe2 <getstk+0x56>
 8011fc4:	686b      	ldr	r3, [r5, #4]
 8011fc6:	42a3      	cmp	r3, r4
 8011fc8:	d010      	beq.n	8011fec <getstk+0x60>
 8011fca:	1b1b      	subs	r3, r3, r4
 8011fcc:	606b      	str	r3, [r5, #4]
 8011fce:	441d      	add	r5, r3
 8011fd0:	4a08      	ldr	r2, [pc, #32]	; (8011ff4 <getstk+0x68>)
 8011fd2:	6853      	ldr	r3, [r2, #4]
 8011fd4:	1b1b      	subs	r3, r3, r4
 8011fd6:	6053      	str	r3, [r2, #4]
 8011fd8:	f006 fb44 	bl	8018664 <irq_restore>
 8011fdc:	442c      	add	r4, r5
 8011fde:	1f20      	subs	r0, r4, #4
 8011fe0:	bd70      	pop	{r4, r5, r6, pc}
 8011fe2:	f006 fb3f 	bl	8018664 <irq_restore>
 8011fe6:	f04f 30ff 	mov.w	r0, #4294967295	; 0xffffffff
 8011fea:	e7f9      	b.n	8011fe0 <getstk+0x54>
 8011fec:	682b      	ldr	r3, [r5, #0]
 8011fee:	6033      	str	r3, [r6, #0]
 8011ff0:	e7ee      	b.n	8011fd0 <getstk+0x44>
 8011ff2:	bf00      	nop
 8011ff4:	2000102c 	.word	0x2000102c

08011ff8 <malloc>:
 8011ff8:	b160      	cbz	r0, 8012014 <malloc+0x1c>
 8011ffa:	b510      	push	{r4, lr}
 8011ffc:	4604      	mov	r4, r0
 8011ffe:	3408      	adds	r4, #8
 8012000:	4620      	mov	r0, r4
 8012002:	f7ff ff95 	bl	8011f30 <getmem>
 8012006:	f1b0 3fff 	cmp.w	r0, #4294967295	; 0xffffffff
 801200a:	d005      	beq.n	8012018 <malloc+0x20>
 801200c:	6000      	str	r0, [r0, #0]
 801200e:	6044      	str	r4, [r0, #4]
 8012010:	3008      	adds	r0, #8
 8012012:	bd10      	pop	{r4, pc}
 8012014:	2000      	movs	r0, #0
 8012016:	4770      	bx	lr
 8012018:	2000      	movs	r0, #0
 801201a:	e7fa      	b.n	8012012 <malloc+0x1a>

0801201c <free>:
 801201c:	b508      	push	{r3, lr}
 801201e:	4603      	mov	r3, r0
 8012020:	3808      	subs	r0, #8
 8012022:	f853 2c08 	ldr.w	r2, [r3, #-8]
 8012026:	4282      	cmp	r2, r0
 8012028:	d000      	beq.n	801202c <free+0x10>
 801202a:	bd08      	pop	{r3, pc}
 801202c:	f853 1c04 	ldr.w	r1, [r3, #-4]
 8012030:	f7ff ff24 	bl	8011e7c <freemem>
 8012034:	e7f9      	b.n	801202a <free+0xe>
 8012036:	bf00      	nop

08012038 <numtestf>:
 8012038:	eeb5 0a40 	vcmp.f32	s0, #0.0
 801203c:	eef1 fa10 	vmrs	APSR_nzcv, fpscr
 8012040:	d001      	beq.n	8012046 <numtestf+0xe>
 8012042:	2003      	movs	r0, #3
 8012044:	4770      	bx	lr
 8012046:	2000      	movs	r0, #0
 8012048:	4770      	bx	lr

0801204a <frexpf>:
 801204a:	b538      	push	{r3, r4, r5, lr}
 801204c:	ee10 4a10 	vmov	r4, s0
 8012050:	4605      	mov	r5, r0
 8012052:	f7ff fff1 	bl	8012038 <numtestf>
 8012056:	2802      	cmp	r0, #2
 8012058:	d804      	bhi.n	8012064 <frexpf+0x1a>
 801205a:	2300      	movs	r3, #0
 801205c:	602b      	str	r3, [r5, #0]
 801205e:	ee00 4a10 	vmov	s0, r4
 8012062:	bd38      	pop	{r3, r4, r5, pc}
 8012064:	f3c4 53c7 	ubfx	r3, r4, #23, #8
 8012068:	3b7e      	subs	r3, #126	; 0x7e
 801206a:	602b      	str	r3, [r5, #0]
 801206c:	f3c4 0416 	ubfx	r4, r4, #0, #23
 8012070:	f044 537c 	orr.w	r3, r4, #1056964608	; 0x3f000000
 8012074:	ee00 3a10 	vmov	s0, r3
 8012078:	e7f3      	b.n	8012062 <frexpf+0x18>

0801207a <logarithm>:
 801207a:	eeb5 0a40 	vcmp.f32	s0, #0.0
 801207e:	eef1 fa10 	vmrs	APSR_nzcv, fpscr
 8012082:	d069      	beq.n	8012158 <logarithm+0xde>
 8012084:	b510      	push	{r4, lr}
 8012086:	b082      	sub	sp, #8
 8012088:	4604      	mov	r4, r0
 801208a:	eeb5 0ac0 	vcmpe.f32	s0, #0.0
 801208e:	eef1 fa10 	vmrs	APSR_nzcv, fpscr
 8012092:	d464      	bmi.n	801215e <logarithm+0xe4>
 8012094:	ee10 3a10 	vmov	r3, s0
 8012098:	f023 4200 	bic.w	r2, r3, #2147483648	; 0x80000000
 801209c:	f102 4300 	add.w	r3, r2, #2147483648	; 0x80000000
 80120a0:	f503 1380 	add.w	r3, r3, #1048576	; 0x100000
 80120a4:	2b00      	cmp	r3, #0
 80120a6:	db05      	blt.n	80120b4 <logarithm+0x3a>
 80120a8:	f1b2 4fff 	cmp.w	r2, #2139095040	; 0x7f800000
 80120ac:	d95b      	bls.n	8012166 <logarithm+0xec>
 80120ae:	ed9f 0a2f 	vldr	s0, [pc, #188]	; 801216c <logarithm+0xf2>
 80120b2:	e056      	b.n	8012162 <logarithm+0xe8>
 80120b4:	a801      	add	r0, sp, #4
 80120b6:	f7ff ffc8 	bl	801204a <frexpf>
 80120ba:	eeb6 7a00 	vmov.f32	s14, #96	; 0x3f000000  0.5
 80120be:	ee30 7a47 	vsub.f32	s14, s0, s14
 80120c2:	eddf 7a2b 	vldr	s15, [pc, #172]	; 8012170 <logarithm+0xf6>
 80120c6:	eeb4 0ae7 	vcmpe.f32	s0, s15
 80120ca:	eef1 fa10 	vmrs	APSR_nzcv, fpscr
 80120ce:	dd37      	ble.n	8012140 <logarithm+0xc6>
 80120d0:	eef6 7a00 	vmov.f32	s15, #96	; 0x3f000000  0.5
 80120d4:	ee37 7a67 	vsub.f32	s14, s14, s15
 80120d8:	ee20 0a27 	vmul.f32	s0, s0, s15
 80120dc:	ee70 7a27 	vadd.f32	s15, s0, s15
 80120e0:	eec7 6a27 	vdiv.f32	s13, s14, s15
 80120e4:	ee26 6aa6 	vmul.f32	s12, s13, s13
 80120e8:	ee26 7a86 	vmul.f32	s14, s13, s12
 80120ec:	eddf 7a21 	vldr	s15, [pc, #132]	; 8012174 <logarithm+0xfa>
 80120f0:	ee27 7a27 	vmul.f32	s14, s14, s15
 80120f4:	eef7 7a00 	vmov.f32	s15, #112	; 0x3f800000  1.0
 80120f8:	ee76 7a27 	vadd.f32	s15, s12, s15
 80120fc:	ee67 7a86 	vmul.f32	s15, s15, s12
 8012100:	ed9f 6a1d 	vldr	s12, [pc, #116]	; 8012178 <logarithm+0xfe>
 8012104:	ee77 7ac6 	vsub.f32	s15, s15, s12
 8012108:	ee87 0a27 	vdiv.f32	s0, s14, s15
 801210c:	ee30 0a26 	vadd.f32	s0, s0, s13
 8012110:	9b01      	ldr	r3, [sp, #4]
 8012112:	b17b      	cbz	r3, 8012134 <logarithm+0xba>
 8012114:	ee07 3a90 	vmov	s15, r3
 8012118:	eef8 7ae7 	vcvt.f32.s32	s15, s15
 801211c:	ed9f 7a17 	vldr	s14, [pc, #92]	; 801217c <logarithm+0x102>
 8012120:	ee27 7a87 	vmul.f32	s14, s15, s14
 8012124:	ee37 0a00 	vadd.f32	s0, s14, s0
 8012128:	ed9f 7a15 	vldr	s14, [pc, #84]	; 8012180 <logarithm+0x106>
 801212c:	ee67 7a87 	vmul.f32	s15, s15, s14
 8012130:	ee30 0a27 	vadd.f32	s0, s0, s15
 8012134:	b1ac      	cbz	r4, 8012162 <logarithm+0xe8>
 8012136:	eddf 7a13 	vldr	s15, [pc, #76]	; 8012184 <logarithm+0x10a>
 801213a:	ee20 0a27 	vmul.f32	s0, s0, s15
 801213e:	e010      	b.n	8012162 <logarithm+0xe8>
 8012140:	9b01      	ldr	r3, [sp, #4]
 8012142:	3b01      	subs	r3, #1
 8012144:	9301      	str	r3, [sp, #4]
 8012146:	eef6 6a00 	vmov.f32	s13, #96	; 0x3f000000  0.5
 801214a:	ee67 7a26 	vmul.f32	s15, s14, s13
 801214e:	ee77 7aa6 	vadd.f32	s15, s15, s13
 8012152:	eec7 6a27 	vdiv.f32	s13, s14, s15
 8012156:	e7c5      	b.n	80120e4 <logarithm+0x6a>
 8012158:	ed9f 0a0b 	vldr	s0, [pc, #44]	; 8012188 <logarithm+0x10e>
 801215c:	4770      	bx	lr
 801215e:	ed9f 0a03 	vldr	s0, [pc, #12]	; 801216c <logarithm+0xf2>
 8012162:	b002      	add	sp, #8
 8012164:	bd10      	pop	{r4, pc}
 8012166:	ed9f 0a09 	vldr	s0, [pc, #36]	; 801218c <logarithm+0x112>
 801216a:	e7fa      	b.n	8012162 <logarithm+0xe8>
 801216c:	4f7fd000 	.word	0x4f7fd000
 8012170:	3f3504f3 	.word	0x3f3504f3
 8012174:	bf0d7e3d 	.word	0xbf0d7e3d
 8012178:	40d43f3a 	.word	0x40d43f3a
 801217c:	35bfbe8e 	.word	0x35bfbe8e
 8012180:	3f317200 	.word	0x3f317200
 8012184:	3ede5bd9 	.word	0x3ede5bd9
 8012188:	ceff0000 	.word	0xceff0000
 801218c:	4eff0000 	.word	0x4eff0000

08012190 <modff>:
 8012190:	ee10 3a10 	vmov	r3, s0
 8012194:	f3c3 52c7 	ubfx	r2, r3, #23, #8
 8012198:	3a7f      	subs	r2, #127	; 0x7f
 801219a:	2a16      	cmp	r2, #22
 801219c:	dc1e      	bgt.n	80121dc <modff+0x4c>
 801219e:	2a00      	cmp	r2, #0
 80121a0:	db0e      	blt.n	80121c0 <modff+0x30>
 80121a2:	b410      	push	{r4}
 80121a4:	4c11      	ldr	r4, [pc, #68]	; (80121ec <modff+0x5c>)
 80121a6:	fa44 f202 	asr.w	r2, r4, r2
 80121aa:	4213      	tst	r3, r2
 80121ac:	d10c      	bne.n	80121c8 <modff+0x38>
 80121ae:	ed80 0a00 	vstr	s0, [r0]
 80121b2:	f003 4300 	and.w	r3, r3, #2147483648	; 0x80000000
 80121b6:	ee00 3a10 	vmov	s0, r3
 80121ba:	f85d 4b04 	ldr.w	r4, [sp], #4
 80121be:	4770      	bx	lr
 80121c0:	f003 4100 	and.w	r1, r3, #2147483648	; 0x80000000
 80121c4:	6001      	str	r1, [r0, #0]
 80121c6:	4770      	bx	lr
 80121c8:	ea23 0202 	bic.w	r2, r3, r2
 80121cc:	ee00 2a10 	vmov	s0, r2
 80121d0:	6002      	str	r2, [r0, #0]
 80121d2:	ee07 3a90 	vmov	s15, r3
 80121d6:	ee37 0ac0 	vsub.f32	s0, s15, s0
 80121da:	e7ee      	b.n	80121ba <modff+0x2a>
 80121dc:	ed80 0a00 	vstr	s0, [r0]
 80121e0:	f003 4300 	and.w	r3, r3, #2147483648	; 0x80000000
 80121e4:	ee00 3a10 	vmov	s0, r3
 80121e8:	4770      	bx	lr
 80121ea:	bf00      	nop
 80121ec:	007fffff 	.word	0x007fffff

080121f0 <floorf>:
 80121f0:	b500      	push	{lr}
 80121f2:	ed2d 8b02 	vpush	{d8}
 80121f6:	b083      	sub	sp, #12
 80121f8:	eeb0 8a40 	vmov.f32	s16, s0
 80121fc:	eeff 7a00 	vmov.f32	s15, #240	; 0xbf800000 -1.0
 8012200:	eeb4 0ae7 	vcmpe.f32	s0, s15
 8012204:	eef1 fa10 	vmrs	APSR_nzcv, fpscr
 8012208:	dd06      	ble.n	8012218 <floorf+0x28>
 801220a:	eef7 7a00 	vmov.f32	s15, #112	; 0x3f800000  1.0
 801220e:	eeb4 0ae7 	vcmpe.f32	s0, s15
 8012212:	eef1 fa10 	vmrs	APSR_nzcv, fpscr
 8012216:	d415      	bmi.n	8012244 <floorf+0x54>
 8012218:	a801      	add	r0, sp, #4
 801221a:	eeb0 0a48 	vmov.f32	s0, s16
 801221e:	f7ff ffb7 	bl	8012190 <modff>
 8012222:	eeb5 0a40 	vcmp.f32	s0, #0.0
 8012226:	eef1 fa10 	vmrs	APSR_nzcv, fpscr
 801222a:	d01d      	beq.n	8012268 <floorf+0x78>
 801222c:	eeb5 8ac0 	vcmpe.f32	s16, #0.0
 8012230:	eef1 fa10 	vmrs	APSR_nzcv, fpscr
 8012234:	db11      	blt.n	801225a <floorf+0x6a>
 8012236:	ed9d 0a01 	vldr	s0, [sp, #4]
 801223a:	b003      	add	sp, #12
 801223c:	ecbd 8b02 	vpop	{d8}
 8012240:	f85d fb04 	ldr.w	pc, [sp], #4
 8012244:	eeb5 0ac0 	vcmpe.f32	s0, #0.0
 8012248:	eef1 fa10 	vmrs	APSR_nzcv, fpscr
 801224c:	db02      	blt.n	8012254 <floorf+0x64>
 801224e:	ed9f 0a08 	vldr	s0, [pc, #32]	; 8012270 <floorf+0x80>
 8012252:	e7f2      	b.n	801223a <floorf+0x4a>
 8012254:	eebf 0a00 	vmov.f32	s0, #240	; 0xbf800000 -1.0
 8012258:	e7ef      	b.n	801223a <floorf+0x4a>
 801225a:	ed9d 0a01 	vldr	s0, [sp, #4]
 801225e:	eeb7 8a00 	vmov.f32	s16, #112	; 0x3f800000  1.0
 8012262:	ee30 0a48 	vsub.f32	s0, s0, s16
 8012266:	e7e8      	b.n	801223a <floorf+0x4a>
 8012268:	eeb0 0a48 	vmov.f32	s0, s16
 801226c:	e7e5      	b.n	801223a <floorf+0x4a>
 801226e:	bf00      	nop
 8012270:	00000000 	.word	0x00000000

08012274 <ldexpf>:
 8012274:	b538      	push	{r3, r4, r5, lr}
 8012276:	ed2d 8b02 	vpush	{d8}
 801227a:	eeb0 8a40 	vmov.f32	s16, s0
 801227e:	4604      	mov	r4, r0
 8012280:	ee10 5a10 	vmov	r5, s0
 8012284:	eeb8 0ac0 	vcvt.f32.s32	s0, s0
 8012288:	f7ff fed6 	bl	8012038 <numtestf>
 801228c:	2802      	cmp	r0, #2
 801228e:	d90f      	bls.n	80122b0 <ldexpf+0x3c>
 8012290:	f3c5 53c7 	ubfx	r3, r5, #23, #8
 8012294:	1918      	adds	r0, r3, r4
 8012296:	28ff      	cmp	r0, #255	; 0xff
 8012298:	dc08      	bgt.n	80122ac <ldexpf+0x38>
 801229a:	2801      	cmp	r0, #1
 801229c:	dd0d      	ble.n	80122ba <ldexpf+0x46>
 801229e:	f025 45ff 	bic.w	r5, r5, #2139095040	; 0x7f800000
 80122a2:	ea45 53c0 	orr.w	r3, r5, r0, lsl #23
 80122a6:	ee08 3a10 	vmov	s16, r3
 80122aa:	e001      	b.n	80122b0 <ldexpf+0x3c>
 80122ac:	ed9f 8a04 	vldr	s16, [pc, #16]	; 80122c0 <ldexpf+0x4c>
 80122b0:	eeb0 0a48 	vmov.f32	s0, s16
 80122b4:	ecbd 8b02 	vpop	{d8}
 80122b8:	bd38      	pop	{r3, r4, r5, pc}
 80122ba:	ed9f 8a02 	vldr	s16, [pc, #8]	; 80122c4 <ldexpf+0x50>
 80122be:	e7f7      	b.n	80122b0 <ldexpf+0x3c>
 80122c0:	4eff0000 	.word	0x4eff0000
 80122c4:	ceff0000 	.word	0xceff0000

080122c8 <expf>:
 80122c8:	b508      	push	{r3, lr}
 80122ca:	ed2d 8b02 	vpush	{d8}
 80122ce:	eeb0 8a40 	vmov.f32	s16, s0
 80122d2:	f7ff feb1 	bl	8012038 <numtestf>
 80122d6:	2801      	cmp	r0, #1
 80122d8:	d056      	beq.n	8012388 <expf+0xc0>
 80122da:	2802      	cmp	r0, #2
 80122dc:	d066      	beq.n	80123ac <expf+0xe4>
 80122de:	2800      	cmp	r0, #0
 80122e0:	d069      	beq.n	80123b6 <expf+0xee>
 80122e2:	eddf 7a3c 	vldr	s15, [pc, #240]	; 80123d4 <expf+0x10c>
 80122e6:	eeb4 8ae7 	vcmpe.f32	s16, s15
 80122ea:	eef1 fa10 	vmrs	APSR_nzcv, fpscr
 80122ee:	dc68      	bgt.n	80123c2 <expf+0xfa>
 80122f0:	eddf 7a39 	vldr	s15, [pc, #228]	; 80123d8 <expf+0x110>
 80122f4:	eeb4 8ae7 	vcmpe.f32	s16, s15
 80122f8:	eef1 fa10 	vmrs	APSR_nzcv, fpscr
 80122fc:	d464      	bmi.n	80123c8 <expf+0x100>
 80122fe:	eddf 7a37 	vldr	s15, [pc, #220]	; 80123dc <expf+0x114>
 8012302:	eeb4 8ae7 	vcmpe.f32	s16, s15
 8012306:	eef1 fa10 	vmrs	APSR_nzcv, fpscr
 801230a:	dd06      	ble.n	801231a <expf+0x52>
 801230c:	eddf 7a34 	vldr	s15, [pc, #208]	; 80123e0 <expf+0x118>
 8012310:	eeb4 8ae7 	vcmpe.f32	s16, s15
 8012314:	eef1 fa10 	vmrs	APSR_nzcv, fpscr
 8012318:	d459      	bmi.n	80123ce <expf+0x106>
 801231a:	eeb5 8ac0 	vcmpe.f32	s16, #0.0
 801231e:	eef1 fa10 	vmrs	APSR_nzcv, fpscr
 8012322:	d438      	bmi.n	8012396 <expf+0xce>
 8012324:	eddf 7a2f 	vldr	s15, [pc, #188]	; 80123e4 <expf+0x11c>
 8012328:	ee68 7a27 	vmul.f32	s15, s16, s15
 801232c:	eeb6 7a00 	vmov.f32	s14, #96	; 0x3f000000  0.5
 8012330:	ee77 7a87 	vadd.f32	s15, s15, s14
 8012334:	eefd 7ae7 	vcvt.s32.f32	s15, s15
 8012338:	eeb8 0ae7 	vcvt.f32.s32	s0, s15
 801233c:	ed9f 7a2a 	vldr	s14, [pc, #168]	; 80123e8 <expf+0x120>
 8012340:	ee20 0a07 	vmul.f32	s0, s0, s14
 8012344:	ee38 0a40 	vsub.f32	s0, s16, s0
 8012348:	ee20 7a00 	vmul.f32	s14, s0, s0
 801234c:	ed9f 8a27 	vldr	s16, [pc, #156]	; 80123ec <expf+0x124>
 8012350:	ee27 8a08 	vmul.f32	s16, s14, s16
 8012354:	eef5 6a00 	vmov.f32	s13, #80	; 0x3e800000  0.250
 8012358:	ee38 8a26 	vadd.f32	s16, s16, s13
 801235c:	ee28 8a00 	vmul.f32	s16, s16, s0
 8012360:	eddf 6a23 	vldr	s13, [pc, #140]	; 80123f0 <expf+0x128>
 8012364:	ee27 7a26 	vmul.f32	s14, s14, s13
 8012368:	eef6 6a00 	vmov.f32	s13, #96	; 0x3f000000  0.5
 801236c:	ee37 7a26 	vadd.f32	s14, s14, s13
 8012370:	ee37 7a48 	vsub.f32	s14, s14, s16
 8012374:	ee88 0a07 	vdiv.f32	s0, s16, s14
 8012378:	ee17 0a90 	vmov	r0, s15
 801237c:	3001      	adds	r0, #1
 801237e:	ee30 0a26 	vadd.f32	s0, s0, s13
 8012382:	f7ff ff77 	bl	8012274 <ldexpf>
 8012386:	e013      	b.n	80123b0 <expf+0xe8>
 8012388:	ee18 3a10 	vmov	r3, s16
 801238c:	2b00      	cmp	r3, #0
 801238e:	db15      	blt.n	80123bc <expf+0xf4>
 8012390:	ed9f 0a18 	vldr	s0, [pc, #96]	; 80123f4 <expf+0x12c>
 8012394:	e00c      	b.n	80123b0 <expf+0xe8>
 8012396:	eddf 7a13 	vldr	s15, [pc, #76]	; 80123e4 <expf+0x11c>
 801239a:	ee68 7a27 	vmul.f32	s15, s16, s15
 801239e:	eeb6 7a00 	vmov.f32	s14, #96	; 0x3f000000  0.5
 80123a2:	ee77 7ac7 	vsub.f32	s15, s15, s14
 80123a6:	eefd 7ae7 	vcvt.s32.f32	s15, s15
 80123aa:	e7c5      	b.n	8012338 <expf+0x70>
 80123ac:	eeb0 0a48 	vmov.f32	s0, s16
 80123b0:	ecbd 8b02 	vpop	{d8}
 80123b4:	bd08      	pop	{r3, pc}
 80123b6:	eeb7 0a00 	vmov.f32	s0, #112	; 0x3f800000  1.0
 80123ba:	e7f9      	b.n	80123b0 <expf+0xe8>
 80123bc:	ed9f 0a0e 	vldr	s0, [pc, #56]	; 80123f8 <expf+0x130>
 80123c0:	e7f6      	b.n	80123b0 <expf+0xe8>
 80123c2:	eeb0 0a48 	vmov.f32	s0, s16
 80123c6:	e7f3      	b.n	80123b0 <expf+0xe8>
 80123c8:	eeb0 0a48 	vmov.f32	s0, s16
 80123cc:	e7f0      	b.n	80123b0 <expf+0xe8>
 80123ce:	eeb7 0a00 	vmov.f32	s0, #112	; 0x3f800000  1.0
 80123d2:	e7ed      	b.n	80123b0 <expf+0xe8>
 80123d4:	44317218 	.word	0x44317218
 80123d8:	c43a4887 	.word	0xc43a4887
 80123dc:	b93504f3 	.word	0xb93504f3
 80123e0:	393504f3 	.word	0x393504f3
 80123e4:	3fb8aa3b 	.word	0x3fb8aa3b
 80123e8:	3f317218 	.word	0x3f317218
 80123ec:	3b885308 	.word	0x3b885308
 80123f0:	3d4cbf5b 	.word	0x3d4cbf5b
 80123f4:	4eff0000 	.word	0x4eff0000
 80123f8:	00000000 	.word	0x00000000

080123fc <powf>:
 80123fc:	b530      	push	{r4, r5, lr}
 80123fe:	ed2d 8b04 	vpush	{d8-d9}
 8012402:	b083      	sub	sp, #12
 8012404:	eeb0 8a40 	vmov.f32	s16, s0
 8012408:	eef0 8a60 	vmov.f32	s17, s1
 801240c:	ee10 4a10 	vmov	r4, s0
 8012410:	a801      	add	r0, sp, #4
 8012412:	eeb0 0a60 	vmov.f32	s0, s1
 8012416:	f7ff febb 	bl	8012190 <modff>
 801241a:	eeb0 9a40 	vmov.f32	s18, s0
 801241e:	eeb5 0a40 	vcmp.f32	s0, #0.0
 8012422:	eef1 fa10 	vmrs	APSR_nzcv, fpscr
 8012426:	d00b      	beq.n	8012440 <powf+0x44>
 8012428:	2500      	movs	r5, #0
 801242a:	eeb5 8a40 	vcmp.f32	s16, #0.0
 801242e:	eef1 fa10 	vmrs	APSR_nzcv, fpscr
 8012432:	d117      	bne.n	8012464 <powf+0x68>
 8012434:	eeb0 0a48 	vmov.f32	s0, s16
 8012438:	b003      	add	sp, #12
 801243a:	ecbd 8b04 	vpop	{d8-d9}
 801243e:	bd30      	pop	{r4, r5, pc}
 8012440:	f04f 30ff 	mov.w	r0, #4294967295	; 0xffffffff
 8012444:	eeb0 0a68 	vmov.f32	s0, s17
 8012448:	f7ff ff14 	bl	8012274 <ldexpf>
 801244c:	4668      	mov	r0, sp
 801244e:	f7ff fe9f 	bl	8012190 <modff>
 8012452:	eeb5 0a40 	vcmp.f32	s0, #0.0
 8012456:	eef1 fa10 	vmrs	APSR_nzcv, fpscr
 801245a:	d001      	beq.n	8012460 <powf+0x64>
 801245c:	2500      	movs	r5, #0
 801245e:	e7e4      	b.n	801242a <powf+0x2e>
 8012460:	2501      	movs	r5, #1
 8012462:	e7e2      	b.n	801242a <powf+0x2e>
 8012464:	eeb0 0a48 	vmov.f32	s0, s16
 8012468:	f7ff fbdd 	bl	8011c26 <fabsf>
 801246c:	2000      	movs	r0, #0
 801246e:	f7ff fe04 	bl	801207a <logarithm>
 8012472:	ee60 8a28 	vmul.f32	s17, s0, s17
 8012476:	edcd 8a00 	vstr	s17, [sp]
 801247a:	eddf 7a3b 	vldr	s15, [pc, #236]	; 8012568 <powf+0x16c>
 801247e:	eef4 8ae7 	vcmpe.f32	s17, s15
 8012482:	eef1 fa10 	vmrs	APSR_nzcv, fpscr
 8012486:	db0e      	blt.n	80124a6 <powf+0xaa>
 8012488:	2c00      	cmp	r4, #0
 801248a:	db02      	blt.n	8012492 <powf+0x96>
 801248c:	ed9f 8a37 	vldr	s16, [pc, #220]	; 801256c <powf+0x170>
 8012490:	e7d0      	b.n	8012434 <powf+0x38>
 8012492:	eeb5 9a40 	vcmp.f32	s18, #0.0
 8012496:	eef1 fa10 	vmrs	APSR_nzcv, fpscr
 801249a:	d15b      	bne.n	8012554 <powf+0x158>
 801249c:	2d00      	cmp	r5, #0
 801249e:	d05c      	beq.n	801255a <powf+0x15e>
 80124a0:	ed9f 8a32 	vldr	s16, [pc, #200]	; 801256c <powf+0x170>
 80124a4:	e7c6      	b.n	8012434 <powf+0x38>
 80124a6:	eddf 7a32 	vldr	s15, [pc, #200]	; 8012570 <powf+0x174>
 80124aa:	eef4 8ae7 	vcmpe.f32	s17, s15
 80124ae:	eef1 fa10 	vmrs	APSR_nzcv, fpscr
 80124b2:	d455      	bmi.n	8012560 <powf+0x164>
 80124b4:	eeb5 9a40 	vcmp.f32	s18, #0.0
 80124b8:	eef1 fa10 	vmrs	APSR_nzcv, fpscr
 80124bc:	d012      	beq.n	80124e4 <powf+0xe8>
 80124be:	2c00      	cmp	r4, #0
 80124c0:	db40      	blt.n	8012544 <powf+0x148>
 80124c2:	ed9d 0a00 	vldr	s0, [sp]
 80124c6:	f7ff feff 	bl	80122c8 <expf>
 80124ca:	eeb0 8a40 	vmov.f32	s16, s0
 80124ce:	2d00      	cmp	r5, #0
 80124d0:	d1b0      	bne.n	8012434 <powf+0x38>
 80124d2:	2c00      	cmp	r4, #0
 80124d4:	daae      	bge.n	8012434 <powf+0x38>
 80124d6:	ee10 3a10 	vmov	r3, s0
 80124da:	f043 4300 	orr.w	r3, r3, #2147483648	; 0x80000000
 80124de:	ee08 3a10 	vmov	s16, r3
 80124e2:	e7a7      	b.n	8012434 <powf+0x38>
 80124e4:	ed9d 0a01 	vldr	s0, [sp, #4]
 80124e8:	f7ff fb9d 	bl	8011c26 <fabsf>
 80124ec:	eddf 7a21 	vldr	s15, [pc, #132]	; 8012574 <powf+0x178>
 80124f0:	eeb4 0ae7 	vcmpe.f32	s0, s15
 80124f4:	eef1 fa10 	vmrs	APSR_nzcv, fpscr
 80124f8:	d8e1      	bhi.n	80124be <powf+0xc2>
 80124fa:	eddd 7a01 	vldr	s15, [sp, #4]
 80124fe:	eefd 7ae7 	vcvt.s32.f32	s15, s15
 8012502:	ee17 1a90 	vmov	r1, s15
 8012506:	2900      	cmp	r1, #0
 8012508:	db04      	blt.n	8012514 <powf+0x118>
 801250a:	ee17 3a90 	vmov	r3, s15
 801250e:	eef7 7a00 	vmov.f32	s15, #112	; 0x3f800000  1.0
 8012512:	e004      	b.n	801251e <powf+0x122>
 8012514:	424b      	negs	r3, r1
 8012516:	e7fa      	b.n	801250e <powf+0x112>
 8012518:	ee28 8a08 	vmul.f32	s16, s16, s16
 801251c:	0853      	lsrs	r3, r2, #1
 801251e:	2b00      	cmp	r3, #0
 8012520:	dd06      	ble.n	8012530 <powf+0x134>
 8012522:	461a      	mov	r2, r3
 8012524:	f013 0f01 	tst.w	r3, #1
 8012528:	d0f6      	beq.n	8012518 <powf+0x11c>
 801252a:	ee67 7a88 	vmul.f32	s15, s15, s16
 801252e:	e7f3      	b.n	8012518 <powf+0x11c>
 8012530:	2900      	cmp	r1, #0
 8012532:	db02      	blt.n	801253a <powf+0x13e>
 8012534:	eeb0 8a67 	vmov.f32	s16, s15
 8012538:	e77c      	b.n	8012434 <powf+0x38>
 801253a:	eeb7 7a00 	vmov.f32	s14, #112	; 0x3f800000  1.0
 801253e:	eec7 7a27 	vdiv.f32	s15, s14, s15
 8012542:	e7f7      	b.n	8012534 <powf+0x138>
 8012544:	eeb5 9a40 	vcmp.f32	s18, #0.0
 8012548:	eef1 fa10 	vmrs	APSR_nzcv, fpscr
 801254c:	d0b9      	beq.n	80124c2 <powf+0xc6>
 801254e:	ed9f 8a0a 	vldr	s16, [pc, #40]	; 8012578 <powf+0x17c>
 8012552:	e76f      	b.n	8012434 <powf+0x38>
 8012554:	ed9f 8a08 	vldr	s16, [pc, #32]	; 8012578 <powf+0x17c>
 8012558:	e76c      	b.n	8012434 <powf+0x38>
 801255a:	ed9f 8a08 	vldr	s16, [pc, #32]	; 801257c <powf+0x180>
 801255e:	e769      	b.n	8012434 <powf+0x38>
 8012560:	ed9f 8a05 	vldr	s16, [pc, #20]	; 8012578 <powf+0x17c>
 8012564:	e766      	b.n	8012434 <powf+0x38>
 8012566:	bf00      	nop
 8012568:	44317218 	.word	0x44317218
 801256c:	4eff0000 	.word	0x4eff0000
 8012570:	c43a4887 	.word	0xc43a4887
 8012574:	46fffe00 	.word	0x46fffe00
 8012578:	00000000 	.word	0x00000000
 801257c:	ceff0000 	.word	0xceff0000

08012580 <sqrtf>:
 8012580:	b500      	push	{lr}
 8012582:	ed2d 8b02 	vpush	{d8}
 8012586:	b083      	sub	sp, #12
 8012588:	eeb0 8a40 	vmov.f32	s16, s0
 801258c:	f7ff fd54 	bl	8012038 <numtestf>
 8012590:	2801      	cmp	r0, #1
 8012592:	d023      	beq.n	80125dc <sqrtf+0x5c>
 8012594:	2802      	cmp	r0, #2
 8012596:	d027      	beq.n	80125e8 <sqrtf+0x68>
 8012598:	eeb5 8a40 	vcmp.f32	s16, #0.0
 801259c:	eef1 fa10 	vmrs	APSR_nzcv, fpscr
 80125a0:	d045      	beq.n	801262e <sqrtf+0xae>
 80125a2:	eeb5 8ac0 	vcmpe.f32	s16, #0.0
 80125a6:	eef1 fa10 	vmrs	APSR_nzcv, fpscr
 80125aa:	d443      	bmi.n	8012634 <sqrtf+0xb4>
 80125ac:	a801      	add	r0, sp, #4
 80125ae:	eeb0 0a48 	vmov.f32	s0, s16
 80125b2:	f7ff fd4a 	bl	801204a <frexpf>
 80125b6:	eeb0 7a40 	vmov.f32	s14, s0
 80125ba:	9a01      	ldr	r2, [sp, #4]
 80125bc:	f002 0101 	and.w	r1, r2, #1
 80125c0:	eddf 7a1e 	vldr	s15, [pc, #120]	; 801263c <sqrtf+0xbc>
 80125c4:	ee60 7a27 	vmul.f32	s15, s0, s15
 80125c8:	ed9f 0a1d 	vldr	s0, [pc, #116]	; 8012640 <sqrtf+0xc0>
 80125cc:	ee37 0a80 	vadd.f32	s0, s15, s0
 80125d0:	eef6 7a00 	vmov.f32	s15, #96	; 0x3f000000  0.5
 80125d4:	ee67 7a27 	vmul.f32	s15, s14, s15
 80125d8:	2300      	movs	r3, #0
 80125da:	e015      	b.n	8012608 <sqrtf+0x88>
 80125dc:	ee18 3a10 	vmov	r3, s16
 80125e0:	2b00      	cmp	r3, #0
 80125e2:	db21      	blt.n	8012628 <sqrtf+0xa8>
 80125e4:	ed9f 8a17 	vldr	s16, [pc, #92]	; 8012644 <sqrtf+0xc4>
 80125e8:	eeb0 0a48 	vmov.f32	s0, s16
 80125ec:	b003      	add	sp, #12
 80125ee:	ecbd 8b02 	vpop	{d8}
 80125f2:	f85d fb04 	ldr.w	pc, [sp], #4
 80125f6:	eeb6 7a00 	vmov.f32	s14, #96	; 0x3f000000  0.5
 80125fa:	ee20 7a07 	vmul.f32	s14, s0, s14
 80125fe:	eec7 6a80 	vdiv.f32	s13, s15, s0
 8012602:	ee37 0a26 	vadd.f32	s0, s14, s13
 8012606:	3301      	adds	r3, #1
 8012608:	2b01      	cmp	r3, #1
 801260a:	ddf4      	ble.n	80125f6 <sqrtf+0x76>
 801260c:	b129      	cbz	r1, 801261a <sqrtf+0x9a>
 801260e:	eddf 7a0e 	vldr	s15, [pc, #56]	; 8012648 <sqrtf+0xc8>
 8012612:	ee20 0a27 	vmul.f32	s0, s0, s15
 8012616:	3201      	adds	r2, #1
 8012618:	9201      	str	r2, [sp, #4]
 801261a:	9801      	ldr	r0, [sp, #4]
 801261c:	1040      	asrs	r0, r0, #1
 801261e:	f7ff fe29 	bl	8012274 <ldexpf>
 8012622:	eeb0 8a40 	vmov.f32	s16, s0
 8012626:	e7df      	b.n	80125e8 <sqrtf+0x68>
 8012628:	ed9f 8a08 	vldr	s16, [pc, #32]	; 801264c <sqrtf+0xcc>
 801262c:	e7dc      	b.n	80125e8 <sqrtf+0x68>
 801262e:	ed9f 8a08 	vldr	s16, [pc, #32]	; 8012650 <sqrtf+0xd0>
 8012632:	e7d9      	b.n	80125e8 <sqrtf+0x68>
 8012634:	ed9f 8a03 	vldr	s16, [pc, #12]	; 8012644 <sqrtf+0xc4>
 8012638:	e7d6      	b.n	80125e8 <sqrtf+0x68>
 801263a:	bf00      	nop
 801263c:	3f1714ba 	.word	0x3f1714ba
 8012640:	3ed5a9a8 	.word	0x3ed5a9a8
 8012644:	4f7fd000 	.word	0x4f7fd000
 8012648:	3f3504f3 	.word	0x3f3504f3
 801264c:	4eff0000 	.word	0x4eff0000
 8012650:	00000000 	.word	0x00000000

08012654 <pow>:
 8012654:	4602      	mov	r2, r0
 8012656:	b131      	cbz	r1, 8012666 <pow+0x12>
 8012658:	1e4b      	subs	r3, r1, #1
 801265a:	b11b      	cbz	r3, 8012664 <pow+0x10>
 801265c:	fb02 f000 	mul.w	r0, r2, r0
 8012660:	3b01      	subs	r3, #1
 8012662:	e7fa      	b.n	801265a <pow+0x6>
 8012664:	4770      	bx	lr
 8012666:	2001      	movs	r0, #1
 8012668:	4770      	bx	lr

0801266a <hw_cfg_pin>:
 801266a:	b4f0      	push	{r4, r5, r6, r7}
 801266c:	004b      	lsls	r3, r1, #1
 801266e:	b2db      	uxtb	r3, r3
 8012670:	08cd      	lsrs	r5, r1, #3
 8012672:	3508      	adds	r5, #8
 8012674:	f850 4025 	ldr.w	r4, [r0, r5, lsl #2]
 8012678:	f001 0607 	and.w	r6, r1, #7
 801267c:	00b6      	lsls	r6, r6, #2
 801267e:	270f      	movs	r7, #15
 8012680:	40b7      	lsls	r7, r6
 8012682:	ea24 0407 	bic.w	r4, r4, r7
 8012686:	f002 070f 	and.w	r7, r2, #15
 801268a:	fa07 f606 	lsl.w	r6, r7, r6
 801268e:	4334      	orrs	r4, r6
 8012690:	f840 4025 	str.w	r4, [r0, r5, lsl #2]
 8012694:	6805      	ldr	r5, [r0, #0]
 8012696:	2403      	movs	r4, #3
 8012698:	409c      	lsls	r4, r3
 801269a:	ea25 0504 	bic.w	r5, r5, r4
 801269e:	f3c2 1601 	ubfx	r6, r2, #4, #2
 80126a2:	409e      	lsls	r6, r3
 80126a4:	4335      	orrs	r5, r6
 80126a6:	6005      	str	r5, [r0, #0]
 80126a8:	6885      	ldr	r5, [r0, #8]
 80126aa:	ea25 0504 	bic.w	r5, r5, r4
 80126ae:	f3c2 16c1 	ubfx	r6, r2, #7, #2
 80126b2:	409e      	lsls	r6, r3
 80126b4:	4335      	orrs	r5, r6
 80126b6:	6085      	str	r5, [r0, #8]
 80126b8:	6845      	ldr	r5, [r0, #4]
 80126ba:	2601      	movs	r6, #1
 80126bc:	408e      	lsls	r6, r1
 80126be:	ea25 0506 	bic.w	r5, r5, r6
 80126c2:	f3c2 1680 	ubfx	r6, r2, #6, #1
 80126c6:	fa06 f101 	lsl.w	r1, r6, r1
 80126ca:	4329      	orrs	r1, r5
 80126cc:	6041      	str	r1, [r0, #4]
 80126ce:	68c1      	ldr	r1, [r0, #12]
 80126d0:	ea21 0104 	bic.w	r1, r1, r4
 80126d4:	f3c2 2241 	ubfx	r2, r2, #9, #2
 80126d8:	409a      	lsls	r2, r3
 80126da:	430a      	orrs	r2, r1
 80126dc:	60c2      	str	r2, [r0, #12]
 80126de:	bcf0      	pop	{r4, r5, r6, r7}
 80126e0:	4770      	bx	lr

080126e2 <hw_set_pin>:
 80126e2:	b410      	push	{r4}
 80126e4:	6943      	ldr	r3, [r0, #20]
 80126e6:	2401      	movs	r4, #1
 80126e8:	408c      	lsls	r4, r1
 80126ea:	ea23 0304 	bic.w	r3, r3, r4
 80126ee:	f002 0201 	and.w	r2, r2, #1
 80126f2:	fa02 f101 	lsl.w	r1, r2, r1
 80126f6:	430b      	orrs	r3, r1
 80126f8:	6143      	str	r3, [r0, #20]
 80126fa:	f85d 4b04 	ldr.w	r4, [sp], #4
 80126fe:	4770      	bx	lr

08012700 <hw_get_pin>:
 8012700:	6900      	ldr	r0, [r0, #16]
 8012702:	2301      	movs	r3, #1
 8012704:	408b      	lsls	r3, r1
 8012706:	4018      	ands	r0, r3
 8012708:	40c8      	lsrs	r0, r1
 801270a:	b2c0      	uxtb	r0, r0
 801270c:	4770      	bx	lr

0801270e <hw_toggle_pin>:
 801270e:	6943      	ldr	r3, [r0, #20]
 8012710:	2201      	movs	r2, #1
 8012712:	fa02 f101 	lsl.w	r1, r2, r1
 8012716:	ea23 0301 	bic.w	r3, r3, r1
 801271a:	430b      	orrs	r3, r1
 801271c:	6941      	ldr	r1, [r0, #20]
 801271e:	404b      	eors	r3, r1
 8012720:	6143      	str	r3, [r0, #20]
 8012722:	4770      	bx	lr

08012724 <usbd_hw_init>:
 8012724:	4a05      	ldr	r2, [pc, #20]	; (801273c <usbd_hw_init+0x18>)
 8012726:	6a53      	ldr	r3, [r2, #36]	; 0x24
 8012728:	f443 232a 	orr.w	r3, r3, #696320	; 0xaa000
 801272c:	6253      	str	r3, [r2, #36]	; 0x24
 801272e:	6813      	ldr	r3, [r2, #0]
 8012730:	f023 7370 	bic.w	r3, r3, #62914560	; 0x3c00000
 8012734:	f043 7320 	orr.w	r3, r3, #41943040	; 0x2800000
 8012738:	6013      	str	r3, [r2, #0]
 801273a:	4770      	bx	lr
 801273c:	40020000 	.word	0x40020000

08012740 <usbd_process_reset>:
 8012740:	b538      	push	{r3, r4, r5, lr}
 8012742:	4604      	mov	r4, r0
 8012744:	2302      	movs	r3, #2
 8012746:	f880 3062 	strb.w	r3, [r0, #98]	; 0x62
 801274a:	2500      	movs	r5, #0
 801274c:	f880 5063 	strb.w	r5, [r0, #99]	; 0x63
 8012750:	f880 5061 	strb.w	r5, [r0, #97]	; 0x61
 8012754:	6803      	ldr	r3, [r0, #0]
 8012756:	691b      	ldr	r3, [r3, #16]
 8012758:	f890 2060 	ldrb.w	r2, [r0, #96]	; 0x60
 801275c:	4629      	mov	r1, r5
 801275e:	4628      	mov	r0, r5
 8012760:	4798      	blx	r3
 8012762:	4b03      	ldr	r3, [pc, #12]	; (8012770 <usbd_process_reset+0x30>)
 8012764:	6363      	str	r3, [r4, #52]	; 0x34
 8012766:	6823      	ldr	r3, [r4, #0]
 8012768:	68db      	ldr	r3, [r3, #12]
 801276a:	4628      	mov	r0, r5
 801276c:	4798      	blx	r3
 801276e:	bd38      	pop	{r3, r4, r5, pc}
 8012770:	08012ac7 	.word	0x08012ac7

08012774 <usbd_set_address>:
 8012774:	b538      	push	{r3, r4, r5, lr}
 8012776:	4604      	mov	r4, r0
 8012778:	460d      	mov	r5, r1
 801277a:	6803      	ldr	r3, [r0, #0]
 801277c:	68db      	ldr	r3, [r3, #12]
 801277e:	7888      	ldrb	r0, [r1, #2]
 8012780:	4798      	blx	r3
 8012782:	886b      	ldrh	r3, [r5, #2]
 8012784:	b11b      	cbz	r3, 801278e <usbd_set_address+0x1a>
 8012786:	2303      	movs	r3, #3
 8012788:	f884 3062 	strb.w	r3, [r4, #98]	; 0x62
 801278c:	bd38      	pop	{r3, r4, r5, pc}
 801278e:	2302      	movs	r3, #2
 8012790:	e7fa      	b.n	8012788 <usbd_set_address+0x14>

08012792 <usbd_process_callback>:
 8012792:	6883      	ldr	r3, [r0, #8]
 8012794:	b133      	cbz	r3, 80127a4 <usbd_process_callback+0x12>
 8012796:	b510      	push	{r4, lr}
 8012798:	4604      	mov	r4, r0
 801279a:	6d41      	ldr	r1, [r0, #84]	; 0x54
 801279c:	4798      	blx	r3
 801279e:	2300      	movs	r3, #0
 80127a0:	60a3      	str	r3, [r4, #8]
 80127a2:	bd10      	pop	{r4, pc}
 80127a4:	4770      	bx	lr

080127a6 <usbd_configure>:
 80127a6:	b538      	push	{r3, r4, r5, lr}
 80127a8:	68c3      	ldr	r3, [r0, #12]
 80127aa:	b17b      	cbz	r3, 80127cc <usbd_configure+0x26>
 80127ac:	4604      	mov	r4, r0
 80127ae:	460d      	mov	r5, r1
 80127b0:	4798      	blx	r3
 80127b2:	2801      	cmp	r0, #1
 80127b4:	d001      	beq.n	80127ba <usbd_configure+0x14>
 80127b6:	2000      	movs	r0, #0
 80127b8:	bd38      	pop	{r3, r4, r5, pc}
 80127ba:	f884 5061 	strb.w	r5, [r4, #97]	; 0x61
 80127be:	b11d      	cbz	r5, 80127c8 <usbd_configure+0x22>
 80127c0:	2304      	movs	r3, #4
 80127c2:	f884 3062 	strb.w	r3, [r4, #98]	; 0x62
 80127c6:	e7f7      	b.n	80127b8 <usbd_configure+0x12>
 80127c8:	2303      	movs	r3, #3
 80127ca:	e7fa      	b.n	80127c2 <usbd_configure+0x1c>
 80127cc:	2000      	movs	r0, #0
 80127ce:	e7f3      	b.n	80127b8 <usbd_configure+0x12>

080127d0 <usbd_process_devrq>:
 80127d0:	b538      	push	{r3, r4, r5, lr}
 80127d2:	4605      	mov	r5, r0
 80127d4:	460c      	mov	r4, r1
 80127d6:	784b      	ldrb	r3, [r1, #1]
 80127d8:	2b09      	cmp	r3, #9
 80127da:	d83b      	bhi.n	8012854 <usbd_process_devrq+0x84>
 80127dc:	e8df f003 	tbb	[pc, r3]
 80127e0:	3a3a3a21 	.word	0x3a3a3a21
 80127e4:	3a0a263a 	.word	0x3a0a263a
 80127e8:	3605      	.short	0x3605
 80127ea:	f890 3061 	ldrb.w	r3, [r0, #97]	; 0x61
 80127ee:	720b      	strb	r3, [r1, #8]
 80127f0:	2001      	movs	r0, #1
 80127f2:	e030      	b.n	8012856 <usbd_process_devrq+0x86>
 80127f4:	884a      	ldrh	r2, [r1, #2]
 80127f6:	f240 33fe 	movw	r3, #1022	; 0x3fe
 80127fa:	429a      	cmp	r2, r3
 80127fc:	d008      	beq.n	8012810 <usbd_process_devrq+0x40>
 80127fe:	6903      	ldr	r3, [r0, #16]
 8012800:	b353      	cbz	r3, 8012858 <usbd_process_devrq+0x88>
 8012802:	f100 025c 	add.w	r2, r0, #92	; 0x5c
 8012806:	f100 0158 	add.w	r1, r0, #88	; 0x58
 801280a:	4620      	mov	r0, r4
 801280c:	4798      	blx	r3
 801280e:	e022      	b.n	8012856 <usbd_process_devrq+0x86>
 8012810:	6803      	ldr	r3, [r0, #0]
 8012812:	6b1b      	ldr	r3, [r3, #48]	; 0x30
 8012814:	f101 0008 	add.w	r0, r1, #8
 8012818:	4798      	blx	r3
 801281a:	f8a5 005c 	strh.w	r0, [r5, #92]	; 0x5c
 801281e:	2001      	movs	r0, #1
 8012820:	e019      	b.n	8012856 <usbd_process_devrq+0x86>
 8012822:	2300      	movs	r3, #0
 8012824:	720b      	strb	r3, [r1, #8]
 8012826:	724b      	strb	r3, [r1, #9]
 8012828:	2001      	movs	r0, #1
 801282a:	e014      	b.n	8012856 <usbd_process_devrq+0x86>
 801282c:	6803      	ldr	r3, [r0, #0]
 801282e:	681b      	ldr	r3, [r3, #0]
 8012830:	4798      	blx	r3
 8012832:	f010 0f01 	tst.w	r0, #1
 8012836:	d103      	bne.n	8012840 <usbd_process_devrq+0x70>
 8012838:	4b08      	ldr	r3, [pc, #32]	; (801285c <usbd_process_devrq+0x8c>)
 801283a:	60ab      	str	r3, [r5, #8]
 801283c:	2001      	movs	r0, #1
 801283e:	e00a      	b.n	8012856 <usbd_process_devrq+0x86>
 8012840:	4621      	mov	r1, r4
 8012842:	4628      	mov	r0, r5
 8012844:	f7ff ff96 	bl	8012774 <usbd_set_address>
 8012848:	2001      	movs	r0, #1
 801284a:	e004      	b.n	8012856 <usbd_process_devrq+0x86>
 801284c:	7889      	ldrb	r1, [r1, #2]
 801284e:	f7ff ffaa 	bl	80127a6 <usbd_configure>
 8012852:	e000      	b.n	8012856 <usbd_process_devrq+0x86>
 8012854:	2000      	movs	r0, #0
 8012856:	bd38      	pop	{r3, r4, r5, pc}
 8012858:	2000      	movs	r0, #0
 801285a:	e7fc      	b.n	8012856 <usbd_process_devrq+0x86>
 801285c:	08012775 	.word	0x08012775

08012860 <usbd_process_intrq>:
 8012860:	784b      	ldrb	r3, [r1, #1]
 8012862:	b91b      	cbnz	r3, 801286c <usbd_process_intrq+0xc>
 8012864:	720b      	strb	r3, [r1, #8]
 8012866:	724b      	strb	r3, [r1, #9]
 8012868:	2001      	movs	r0, #1
 801286a:	4770      	bx	lr
 801286c:	2000      	movs	r0, #0
 801286e:	4770      	bx	lr

08012870 <usbd_process_eptrq>:
 8012870:	b538      	push	{r3, r4, r5, lr}
 8012872:	460d      	mov	r5, r1
 8012874:	784c      	ldrb	r4, [r1, #1]
 8012876:	2c01      	cmp	r4, #1
 8012878:	d00c      	beq.n	8012894 <usbd_process_eptrq+0x24>
 801287a:	2c03      	cmp	r4, #3
 801287c:	d003      	beq.n	8012886 <usbd_process_eptrq+0x16>
 801287e:	b17c      	cbz	r4, 80128a0 <usbd_process_eptrq+0x30>
 8012880:	2400      	movs	r4, #0
 8012882:	4620      	mov	r0, r4
 8012884:	bd38      	pop	{r3, r4, r5, pc}
 8012886:	6803      	ldr	r3, [r0, #0]
 8012888:	6a1b      	ldr	r3, [r3, #32]
 801288a:	2101      	movs	r1, #1
 801288c:	7928      	ldrb	r0, [r5, #4]
 801288e:	4798      	blx	r3
 8012890:	2401      	movs	r4, #1
 8012892:	e7f6      	b.n	8012882 <usbd_process_eptrq+0x12>
 8012894:	6803      	ldr	r3, [r0, #0]
 8012896:	6a1b      	ldr	r3, [r3, #32]
 8012898:	2100      	movs	r1, #0
 801289a:	7928      	ldrb	r0, [r5, #4]
 801289c:	4798      	blx	r3
 801289e:	e7f0      	b.n	8012882 <usbd_process_eptrq+0x12>
 80128a0:	6803      	ldr	r3, [r0, #0]
 80128a2:	6a5b      	ldr	r3, [r3, #36]	; 0x24
 80128a4:	7908      	ldrb	r0, [r1, #4]
 80128a6:	4798      	blx	r3
 80128a8:	7228      	strb	r0, [r5, #8]
 80128aa:	2300      	movs	r3, #0
 80128ac:	726b      	strb	r3, [r5, #9]
 80128ae:	2401      	movs	r4, #1
 80128b0:	e7e7      	b.n	8012882 <usbd_process_eptrq+0x12>

080128b2 <usbd_process_request>:
 80128b2:	b538      	push	{r3, r4, r5, lr}
 80128b4:	4604      	mov	r4, r0
 80128b6:	460d      	mov	r5, r1
 80128b8:	6843      	ldr	r3, [r0, #4]
 80128ba:	b11b      	cbz	r3, 80128c4 <usbd_process_request+0x12>
 80128bc:	f100 0208 	add.w	r2, r0, #8
 80128c0:	4798      	blx	r3
 80128c2:	b940      	cbnz	r0, 80128d6 <usbd_process_request+0x24>
 80128c4:	782b      	ldrb	r3, [r5, #0]
 80128c6:	f003 0363 	and.w	r3, r3, #99	; 0x63
 80128ca:	2b01      	cmp	r3, #1
 80128cc:	d009      	beq.n	80128e2 <usbd_process_request+0x30>
 80128ce:	2b02      	cmp	r3, #2
 80128d0:	d00c      	beq.n	80128ec <usbd_process_request+0x3a>
 80128d2:	b10b      	cbz	r3, 80128d8 <usbd_process_request+0x26>
 80128d4:	2000      	movs	r0, #0
 80128d6:	bd38      	pop	{r3, r4, r5, pc}
 80128d8:	4629      	mov	r1, r5
 80128da:	4620      	mov	r0, r4
 80128dc:	f7ff ff78 	bl	80127d0 <usbd_process_devrq>
 80128e0:	e7f9      	b.n	80128d6 <usbd_process_request+0x24>
 80128e2:	4629      	mov	r1, r5
 80128e4:	4620      	mov	r0, r4
 80128e6:	f7ff ffbb 	bl	8012860 <usbd_process_intrq>
 80128ea:	e7f4      	b.n	80128d6 <usbd_process_request+0x24>
 80128ec:	4629      	mov	r1, r5
 80128ee:	4620      	mov	r0, r4
 80128f0:	f7ff ffbe 	bl	8012870 <usbd_process_eptrq>
 80128f4:	e7ef      	b.n	80128d6 <usbd_process_request+0x24>

080128f6 <usbd_stall_pid>:
 80128f6:	b538      	push	{r3, r4, r5, lr}
 80128f8:	4604      	mov	r4, r0
 80128fa:	460d      	mov	r5, r1
 80128fc:	6803      	ldr	r3, [r0, #0]
 80128fe:	6a1b      	ldr	r3, [r3, #32]
 8012900:	2101      	movs	r1, #1
 8012902:	f005 007f 	and.w	r0, r5, #127	; 0x7f
 8012906:	4798      	blx	r3
 8012908:	6823      	ldr	r3, [r4, #0]
 801290a:	6a1b      	ldr	r3, [r3, #32]
 801290c:	2101      	movs	r1, #1
 801290e:	f045 0080 	orr.w	r0, r5, #128	; 0x80
 8012912:	4798      	blx	r3
 8012914:	2300      	movs	r3, #0
 8012916:	f884 3063 	strb.w	r3, [r4, #99]	; 0x63
 801291a:	bd38      	pop	{r3, r4, r5, pc}

0801291c <usbd_process_eptx>:
 801291c:	b570      	push	{r4, r5, r6, lr}
 801291e:	4604      	mov	r4, r0
 8012920:	f890 3063 	ldrb.w	r3, [r0, #99]	; 0x63
 8012924:	2b04      	cmp	r3, #4
 8012926:	d032      	beq.n	801298e <usbd_process_eptx+0x72>
 8012928:	4608      	mov	r0, r1
 801292a:	d827      	bhi.n	801297c <usbd_process_eptx+0x60>
 801292c:	3b02      	subs	r3, #2
 801292e:	b2db      	uxtb	r3, r3
 8012930:	2b01      	cmp	r3, #1
 8012932:	d82f      	bhi.n	8012994 <usbd_process_eptx+0x78>
 8012934:	f8b4 305c 	ldrh.w	r3, [r4, #92]	; 0x5c
 8012938:	f894 5060 	ldrb.w	r5, [r4, #96]	; 0x60
 801293c:	b2aa      	uxth	r2, r5
 801293e:	4293      	cmp	r3, r2
 8012940:	d200      	bcs.n	8012944 <usbd_process_eptx+0x28>
 8012942:	461d      	mov	r5, r3
 8012944:	6823      	ldr	r3, [r4, #0]
 8012946:	69db      	ldr	r3, [r3, #28]
 8012948:	b2ae      	uxth	r6, r5
 801294a:	4632      	mov	r2, r6
 801294c:	6da1      	ldr	r1, [r4, #88]	; 0x58
 801294e:	4798      	blx	r3
 8012950:	6da3      	ldr	r3, [r4, #88]	; 0x58
 8012952:	442b      	add	r3, r5
 8012954:	65a3      	str	r3, [r4, #88]	; 0x58
 8012956:	f8b4 205c 	ldrh.w	r2, [r4, #92]	; 0x5c
 801295a:	1b92      	subs	r2, r2, r6
 801295c:	b292      	uxth	r2, r2
 801295e:	f8a4 205c 	strh.w	r2, [r4, #92]	; 0x5c
 8012962:	b9ba      	cbnz	r2, 8012994 <usbd_process_eptx+0x78>
 8012964:	f894 3063 	ldrb.w	r3, [r4, #99]	; 0x63
 8012968:	2b02      	cmp	r3, #2
 801296a:	d003      	beq.n	8012974 <usbd_process_eptx+0x58>
 801296c:	f894 3060 	ldrb.w	r3, [r4, #96]	; 0x60
 8012970:	42ab      	cmp	r3, r5
 8012972:	d00f      	beq.n	8012994 <usbd_process_eptx+0x78>
 8012974:	2304      	movs	r3, #4
 8012976:	f884 3063 	strb.w	r3, [r4, #99]	; 0x63
 801297a:	e00b      	b.n	8012994 <usbd_process_eptx+0x78>
 801297c:	2b05      	cmp	r3, #5
 801297e:	d109      	bne.n	8012994 <usbd_process_eptx+0x78>
 8012980:	2300      	movs	r3, #0
 8012982:	f884 3063 	strb.w	r3, [r4, #99]	; 0x63
 8012986:	4620      	mov	r0, r4
 8012988:	f7ff ff03 	bl	8012792 <usbd_process_callback>
 801298c:	e002      	b.n	8012994 <usbd_process_eptx+0x78>
 801298e:	2306      	movs	r3, #6
 8012990:	f880 3063 	strb.w	r3, [r0, #99]	; 0x63
 8012994:	bd70      	pop	{r4, r5, r6, pc}

08012996 <usbd_process_eprx>:
 8012996:	b570      	push	{r4, r5, r6, lr}
 8012998:	4604      	mov	r4, r0
 801299a:	460d      	mov	r5, r1
 801299c:	6d46      	ldr	r6, [r0, #84]	; 0x54
 801299e:	f890 3063 	ldrb.w	r3, [r0, #99]	; 0x63
 80129a2:	2b01      	cmp	r3, #1
 80129a4:	d02c      	beq.n	8012a00 <usbd_process_eprx+0x6a>
 80129a6:	2b06      	cmp	r3, #6
 80129a8:	d045      	beq.n	8012a36 <usbd_process_eprx+0xa0>
 80129aa:	b113      	cbz	r3, 80129b2 <usbd_process_eprx+0x1c>
 80129ac:	f7ff ffa3 	bl	80128f6 <usbd_stall_pid>
 80129b0:	e04d      	b.n	8012a4e <usbd_process_eprx+0xb8>
 80129b2:	6803      	ldr	r3, [r0, #0]
 80129b4:	699b      	ldr	r3, [r3, #24]
 80129b6:	f8b0 205e 	ldrh.w	r2, [r0, #94]	; 0x5e
 80129ba:	4631      	mov	r1, r6
 80129bc:	4628      	mov	r0, r5
 80129be:	4798      	blx	r3
 80129c0:	2808      	cmp	r0, #8
 80129c2:	d113      	bne.n	80129ec <usbd_process_eprx+0x56>
 80129c4:	f106 0308 	add.w	r3, r6, #8
 80129c8:	65a3      	str	r3, [r4, #88]	; 0x58
 80129ca:	88f3      	ldrh	r3, [r6, #6]
 80129cc:	f8a4 305c 	strh.w	r3, [r4, #92]	; 0x5c
 80129d0:	f996 2000 	ldrsb.w	r2, [r6]
 80129d4:	2a00      	cmp	r2, #0
 80129d6:	db3b      	blt.n	8012a50 <usbd_process_eprx+0xba>
 80129d8:	2b00      	cmp	r3, #0
 80129da:	d039      	beq.n	8012a50 <usbd_process_eprx+0xba>
 80129dc:	f8b4 205e 	ldrh.w	r2, [r4, #94]	; 0x5e
 80129e0:	4293      	cmp	r3, r2
 80129e2:	d808      	bhi.n	80129f6 <usbd_process_eprx+0x60>
 80129e4:	2301      	movs	r3, #1
 80129e6:	f884 3063 	strb.w	r3, [r4, #99]	; 0x63
 80129ea:	e030      	b.n	8012a4e <usbd_process_eprx+0xb8>
 80129ec:	4629      	mov	r1, r5
 80129ee:	4620      	mov	r0, r4
 80129f0:	f7ff ff81 	bl	80128f6 <usbd_stall_pid>
 80129f4:	e02b      	b.n	8012a4e <usbd_process_eprx+0xb8>
 80129f6:	4629      	mov	r1, r5
 80129f8:	4620      	mov	r0, r4
 80129fa:	f7ff ff7c 	bl	80128f6 <usbd_stall_pid>
 80129fe:	e026      	b.n	8012a4e <usbd_process_eprx+0xb8>
 8012a00:	6803      	ldr	r3, [r0, #0]
 8012a02:	699b      	ldr	r3, [r3, #24]
 8012a04:	f8b0 205c 	ldrh.w	r2, [r0, #92]	; 0x5c
 8012a08:	6d81      	ldr	r1, [r0, #88]	; 0x58
 8012a0a:	4628      	mov	r0, r5
 8012a0c:	4798      	blx	r3
 8012a0e:	b282      	uxth	r2, r0
 8012a10:	f8b4 305c 	ldrh.w	r3, [r4, #92]	; 0x5c
 8012a14:	4293      	cmp	r3, r2
 8012a16:	d309      	bcc.n	8012a2c <usbd_process_eprx+0x96>
 8012a18:	4293      	cmp	r3, r2
 8012a1a:	d019      	beq.n	8012a50 <usbd_process_eprx+0xba>
 8012a1c:	1a9b      	subs	r3, r3, r2
 8012a1e:	f8a4 305c 	strh.w	r3, [r4, #92]	; 0x5c
 8012a22:	6da3      	ldr	r3, [r4, #88]	; 0x58
 8012a24:	fa13 f080 	uxtah	r0, r3, r0
 8012a28:	65a0      	str	r0, [r4, #88]	; 0x58
 8012a2a:	e010      	b.n	8012a4e <usbd_process_eprx+0xb8>
 8012a2c:	4629      	mov	r1, r5
 8012a2e:	4620      	mov	r0, r4
 8012a30:	f7ff ff61 	bl	80128f6 <usbd_stall_pid>
 8012a34:	e00b      	b.n	8012a4e <usbd_process_eprx+0xb8>
 8012a36:	6803      	ldr	r3, [r0, #0]
 8012a38:	699b      	ldr	r3, [r3, #24]
 8012a3a:	2200      	movs	r2, #0
 8012a3c:	4611      	mov	r1, r2
 8012a3e:	4628      	mov	r0, r5
 8012a40:	4798      	blx	r3
 8012a42:	2300      	movs	r3, #0
 8012a44:	f884 3063 	strb.w	r3, [r4, #99]	; 0x63
 8012a48:	4620      	mov	r0, r4
 8012a4a:	f7ff fea2 	bl	8012792 <usbd_process_callback>
 8012a4e:	bd70      	pop	{r4, r5, r6, pc}
 8012a50:	f106 0308 	add.w	r3, r6, #8
 8012a54:	65a3      	str	r3, [r4, #88]	; 0x58
 8012a56:	f8b4 305e 	ldrh.w	r3, [r4, #94]	; 0x5e
 8012a5a:	f8a4 305c 	strh.w	r3, [r4, #92]	; 0x5c
 8012a5e:	4631      	mov	r1, r6
 8012a60:	4620      	mov	r0, r4
 8012a62:	f7ff ff26 	bl	80128b2 <usbd_process_request>
 8012a66:	2801      	cmp	r0, #1
 8012a68:	d006      	beq.n	8012a78 <usbd_process_eprx+0xe2>
 8012a6a:	2802      	cmp	r0, #2
 8012a6c:	d027      	beq.n	8012abe <usbd_process_eprx+0x128>
 8012a6e:	4629      	mov	r1, r5
 8012a70:	4620      	mov	r0, r4
 8012a72:	f7ff ff40 	bl	80128f6 <usbd_stall_pid>
 8012a76:	e7ea      	b.n	8012a4e <usbd_process_eprx+0xb8>
 8012a78:	f996 3000 	ldrsb.w	r3, [r6]
 8012a7c:	2b00      	cmp	r3, #0
 8012a7e:	db0a      	blt.n	8012a96 <usbd_process_eprx+0x100>
 8012a80:	6823      	ldr	r3, [r4, #0]
 8012a82:	69db      	ldr	r3, [r3, #28]
 8012a84:	2200      	movs	r2, #0
 8012a86:	4611      	mov	r1, r2
 8012a88:	f045 0080 	orr.w	r0, r5, #128	; 0x80
 8012a8c:	4798      	blx	r3
 8012a8e:	2305      	movs	r3, #5
 8012a90:	f884 3063 	strb.w	r3, [r4, #99]	; 0x63
 8012a94:	e7db      	b.n	8012a4e <usbd_process_eprx+0xb8>
 8012a96:	f8b4 205c 	ldrh.w	r2, [r4, #92]	; 0x5c
 8012a9a:	88f3      	ldrh	r3, [r6, #6]
 8012a9c:	429a      	cmp	r2, r3
 8012a9e:	d30a      	bcc.n	8012ab6 <usbd_process_eprx+0x120>
 8012aa0:	f8a4 305c 	strh.w	r3, [r4, #92]	; 0x5c
 8012aa4:	2302      	movs	r3, #2
 8012aa6:	f884 3063 	strb.w	r3, [r4, #99]	; 0x63
 8012aaa:	f045 0180 	orr.w	r1, r5, #128	; 0x80
 8012aae:	4620      	mov	r0, r4
 8012ab0:	f7ff ff34 	bl	801291c <usbd_process_eptx>
 8012ab4:	e7cb      	b.n	8012a4e <usbd_process_eprx+0xb8>
 8012ab6:	2303      	movs	r3, #3
 8012ab8:	f884 3063 	strb.w	r3, [r4, #99]	; 0x63
 8012abc:	e7f5      	b.n	8012aaa <usbd_process_eprx+0x114>
 8012abe:	2305      	movs	r3, #5
 8012ac0:	f884 3063 	strb.w	r3, [r4, #99]	; 0x63
 8012ac4:	e7c3      	b.n	8012a4e <usbd_process_eprx+0xb8>

08012ac6 <usbd_process_ep0>:
 8012ac6:	b508      	push	{r3, lr}
 8012ac8:	460b      	mov	r3, r1
 8012aca:	4611      	mov	r1, r2
 8012acc:	2b05      	cmp	r3, #5
 8012ace:	d008      	beq.n	8012ae2 <usbd_process_ep0+0x1c>
 8012ad0:	2b06      	cmp	r3, #6
 8012ad2:	d002      	beq.n	8012ada <usbd_process_ep0+0x14>
 8012ad4:	2b04      	cmp	r3, #4
 8012ad6:	d007      	beq.n	8012ae8 <usbd_process_ep0+0x22>
 8012ad8:	bd08      	pop	{r3, pc}
 8012ada:	2300      	movs	r3, #0
 8012adc:	f880 3063 	strb.w	r3, [r0, #99]	; 0x63
 8012ae0:	6083      	str	r3, [r0, #8]
 8012ae2:	f7ff ff58 	bl	8012996 <usbd_process_eprx>
 8012ae6:	e7f7      	b.n	8012ad8 <usbd_process_ep0+0x12>
 8012ae8:	f7ff ff18 	bl	801291c <usbd_process_eptx>
 8012aec:	e7f4      	b.n	8012ad8 <usbd_process_ep0+0x12>

08012aee <usbd_process_evt>:
 8012aee:	b570      	push	{r4, r5, r6, lr}
 8012af0:	4604      	mov	r4, r0
 8012af2:	4615      	mov	r5, r2
 8012af4:	460e      	mov	r6, r1
 8012af6:	b161      	cbz	r1, 8012b12 <usbd_process_evt+0x24>
 8012af8:	1f0b      	subs	r3, r1, #4
 8012afa:	b2db      	uxtb	r3, r3
 8012afc:	2b02      	cmp	r3, #2
 8012afe:	d80a      	bhi.n	8012b16 <usbd_process_evt+0x28>
 8012b00:	f002 0307 	and.w	r3, r2, #7
 8012b04:	330c      	adds	r3, #12
 8012b06:	eb00 0383 	add.w	r3, r0, r3, lsl #2
 8012b0a:	685b      	ldr	r3, [r3, #4]
 8012b0c:	b11b      	cbz	r3, 8012b16 <usbd_process_evt+0x28>
 8012b0e:	4798      	blx	r3
 8012b10:	e001      	b.n	8012b16 <usbd_process_evt+0x28>
 8012b12:	f7ff fe15 	bl	8012740 <usbd_process_reset>
 8012b16:	1d33      	adds	r3, r6, #4
 8012b18:	eb04 0383 	add.w	r3, r4, r3, lsl #2
 8012b1c:	685b      	ldr	r3, [r3, #4]
 8012b1e:	b11b      	cbz	r3, 8012b28 <usbd_process_evt+0x3a>
 8012b20:	462a      	mov	r2, r5
 8012b22:	4631      	mov	r1, r6
 8012b24:	4620      	mov	r0, r4
 8012b26:	4798      	blx	r3
 8012b28:	bd70      	pop	{r4, r5, r6, pc}

08012b2a <usbd_poll>:
 8012b2a:	b508      	push	{r3, lr}
 8012b2c:	6803      	ldr	r3, [r0, #0]
 8012b2e:	6a9b      	ldr	r3, [r3, #40]	; 0x28
 8012b30:	4901      	ldr	r1, [pc, #4]	; (8012b38 <usbd_poll+0xe>)
 8012b32:	4798      	blx	r3
 8012b34:	bd08      	pop	{r3, pc}
 8012b36:	bf00      	nop
 8012b38:	08012aef 	.word	0x08012aef

08012b3c <getinfo>:
 8012b3c:	4b07      	ldr	r3, [pc, #28]	; (8012b5c <getinfo+0x20>)
 8012b3e:	6b5b      	ldr	r3, [r3, #52]	; 0x34
 8012b40:	f013 0f80 	tst.w	r3, #128	; 0x80
 8012b44:	d006      	beq.n	8012b54 <getinfo+0x18>
 8012b46:	4b06      	ldr	r3, [pc, #24]	; (8012b60 <getinfo+0x24>)
 8012b48:	685b      	ldr	r3, [r3, #4]
 8012b4a:	f013 0f02 	tst.w	r3, #2
 8012b4e:	d003      	beq.n	8012b58 <getinfo+0x1c>
 8012b50:	2009      	movs	r0, #9
 8012b52:	4770      	bx	lr
 8012b54:	2001      	movs	r0, #1
 8012b56:	4770      	bx	lr
 8012b58:	2029      	movs	r0, #41	; 0x29
 8012b5a:	4770      	bx	lr
 8012b5c:	40023800 	.word	0x40023800
 8012b60:	50000800 	.word	0x50000800

08012b64 <ep_setstall>:
 8012b64:	f010 0f80 	tst.w	r0, #128	; 0x80
 8012b68:	d10d      	bne.n	8012b86 <ep_setstall+0x22>
 8012b6a:	0140      	lsls	r0, r0, #5
 8012b6c:	f100 40a0 	add.w	r0, r0, #1342177280	; 0x50000000
 8012b70:	f8d0 3b00 	ldr.w	r3, [r0, #2816]	; 0xb00
 8012b74:	f413 4f00 	tst.w	r3, #32768	; 0x8000
 8012b78:	d004      	beq.n	8012b84 <ep_setstall+0x20>
 8012b7a:	b1c9      	cbz	r1, 8012bb0 <ep_setstall+0x4c>
 8012b7c:	f443 1300 	orr.w	r3, r3, #2097152	; 0x200000
 8012b80:	f8c0 3b00 	str.w	r3, [r0, #2816]	; 0xb00
 8012b84:	4770      	bx	lr
 8012b86:	f000 007f 	and.w	r0, r0, #127	; 0x7f
 8012b8a:	0140      	lsls	r0, r0, #5
 8012b8c:	f100 40a0 	add.w	r0, r0, #1342177280	; 0x50000000
 8012b90:	f8d0 3900 	ldr.w	r3, [r0, #2304]	; 0x900
 8012b94:	f413 4f00 	tst.w	r3, #32768	; 0x8000
 8012b98:	d0f4      	beq.n	8012b84 <ep_setstall+0x20>
 8012b9a:	b121      	cbz	r1, 8012ba6 <ep_setstall+0x42>
 8012b9c:	f443 1300 	orr.w	r3, r3, #2097152	; 0x200000
 8012ba0:	f8c0 3900 	str.w	r3, [r0, #2304]	; 0x900
 8012ba4:	4770      	bx	lr
 8012ba6:	f023 53a1 	bic.w	r3, r3, #337641472	; 0x14200000
 8012baa:	f043 53a0 	orr.w	r3, r3, #335544320	; 0x14000000
 8012bae:	e7f7      	b.n	8012ba0 <ep_setstall+0x3c>
 8012bb0:	f023 53a1 	bic.w	r3, r3, #337641472	; 0x14200000
 8012bb4:	f043 53a0 	orr.w	r3, r3, #335544320	; 0x14000000
 8012bb8:	e7e2      	b.n	8012b80 <ep_setstall+0x1c>

08012bba <ep_isstalled>:
 8012bba:	f010 0f80 	tst.w	r0, #128	; 0x80
 8012bbe:	d107      	bne.n	8012bd0 <ep_isstalled+0x16>
 8012bc0:	0140      	lsls	r0, r0, #5
 8012bc2:	f100 40a0 	add.w	r0, r0, #1342177280	; 0x50000000
 8012bc6:	f8d0 0b00 	ldr.w	r0, [r0, #2816]	; 0xb00
 8012bca:	f3c0 5040 	ubfx	r0, r0, #21, #1
 8012bce:	4770      	bx	lr
 8012bd0:	f000 007f 	and.w	r0, r0, #127	; 0x7f
 8012bd4:	0140      	lsls	r0, r0, #5
 8012bd6:	f100 40a0 	add.w	r0, r0, #1342177280	; 0x50000000
 8012bda:	f8d0 0900 	ldr.w	r0, [r0, #2304]	; 0x900
 8012bde:	f3c0 5040 	ubfx	r0, r0, #21, #1
 8012be2:	4770      	bx	lr

08012be4 <enable>:
 8012be4:	2800      	cmp	r0, #0
 8012be6:	d035      	beq.n	8012c54 <enable+0x70>
 8012be8:	4a24      	ldr	r2, [pc, #144]	; (8012c7c <enable+0x98>)
 8012bea:	6b53      	ldr	r3, [r2, #52]	; 0x34
 8012bec:	f043 0380 	orr.w	r3, r3, #128	; 0x80
 8012bf0:	6353      	str	r3, [r2, #52]	; 0x34
 8012bf2:	f04f 43a0 	mov.w	r3, #1342177280	; 0x50000000
 8012bf6:	691b      	ldr	r3, [r3, #16]
 8012bf8:	2b00      	cmp	r3, #0
 8012bfa:	dafa      	bge.n	8012bf2 <enable+0xe>
 8012bfc:	f04f 42a0 	mov.w	r2, #1342177280	; 0x50000000
 8012c00:	68d3      	ldr	r3, [r2, #12]
 8012c02:	f023 4380 	bic.w	r3, r3, #1073741824	; 0x40000000
 8012c06:	f423 5374 	bic.w	r3, r3, #15616	; 0x3d00
 8012c0a:	f043 4380 	orr.w	r3, r3, #1073741824	; 0x40000000
 8012c0e:	f443 53c0 	orr.w	r3, r3, #6144	; 0x1800
 8012c12:	60d3      	str	r3, [r2, #12]
 8012c14:	4b1a      	ldr	r3, [pc, #104]	; (8012c80 <enable+0x9c>)
 8012c16:	2100      	movs	r1, #0
 8012c18:	6019      	str	r1, [r3, #0]
 8012c1a:	f5a3 63c0 	sub.w	r3, r3, #1536	; 0x600
 8012c1e:	6859      	ldr	r1, [r3, #4]
 8012c20:	f041 0102 	orr.w	r1, r1, #2
 8012c24:	6059      	str	r1, [r3, #4]
 8012c26:	6819      	ldr	r1, [r3, #0]
 8012c28:	f041 0103 	orr.w	r1, r1, #3
 8012c2c:	6019      	str	r1, [r3, #0]
 8012c2e:	2194      	movs	r1, #148	; 0x94
 8012c30:	6251      	str	r1, [r2, #36]	; 0x24
 8012c32:	f501 1180 	add.w	r1, r1, #1048576	; 0x100000
 8012c36:	6291      	str	r1, [r2, #40]	; 0x28
 8012c38:	2101      	movs	r1, #1
 8012c3a:	6119      	str	r1, [r3, #16]
 8012c3c:	2108      	movs	r1, #8
 8012c3e:	6159      	str	r1, [r3, #20]
 8012c40:	4b10      	ldr	r3, [pc, #64]	; (8012c84 <enable+0xa0>)
 8012c42:	6193      	str	r3, [r2, #24]
 8012c44:	f04f 33ff 	mov.w	r3, #4294967295	; 0xffffffff
 8012c48:	6153      	str	r3, [r2, #20]
 8012c4a:	6893      	ldr	r3, [r2, #8]
 8012c4c:	f043 0301 	orr.w	r3, r3, #1
 8012c50:	6093      	str	r3, [r2, #8]
 8012c52:	4770      	bx	lr
 8012c54:	4b09      	ldr	r3, [pc, #36]	; (8012c7c <enable+0x98>)
 8012c56:	6b5b      	ldr	r3, [r3, #52]	; 0x34
 8012c58:	f013 0f80 	tst.w	r3, #128	; 0x80
 8012c5c:	d00c      	beq.n	8012c78 <enable+0x94>
 8012c5e:	4b07      	ldr	r3, [pc, #28]	; (8012c7c <enable+0x98>)
 8012c60:	695a      	ldr	r2, [r3, #20]
 8012c62:	f042 0280 	orr.w	r2, r2, #128	; 0x80
 8012c66:	615a      	str	r2, [r3, #20]
 8012c68:	695a      	ldr	r2, [r3, #20]
 8012c6a:	f022 0280 	bic.w	r2, r2, #128	; 0x80
 8012c6e:	615a      	str	r2, [r3, #20]
 8012c70:	6b5a      	ldr	r2, [r3, #52]	; 0x34
 8012c72:	f022 0280 	bic.w	r2, r2, #128	; 0x80
 8012c76:	635a      	str	r2, [r3, #52]	; 0x34
 8012c78:	4770      	bx	lr
 8012c7a:	bf00      	nop
 8012c7c:	40023800 	.word	0x40023800
 8012c80:	50000e00 	.word	0x50000e00
 8012c84:	803cb818 	.word	0x803cb818

08012c88 <connect>:
 8012c88:	b168      	cbz	r0, 8012ca6 <connect+0x1e>
 8012c8a:	f04f 42a0 	mov.w	r2, #1342177280	; 0x50000000
 8012c8e:	6b93      	ldr	r3, [r2, #56]	; 0x38
 8012c90:	f443 3380 	orr.w	r3, r3, #65536	; 0x10000
 8012c94:	6393      	str	r3, [r2, #56]	; 0x38
 8012c96:	f502 6200 	add.w	r2, r2, #2048	; 0x800
 8012c9a:	6853      	ldr	r3, [r2, #4]
 8012c9c:	f023 0302 	bic.w	r3, r3, #2
 8012ca0:	6053      	str	r3, [r2, #4]
 8012ca2:	2000      	movs	r0, #0
 8012ca4:	4770      	bx	lr
 8012ca6:	4a06      	ldr	r2, [pc, #24]	; (8012cc0 <connect+0x38>)
 8012ca8:	6853      	ldr	r3, [r2, #4]
 8012caa:	f043 0302 	orr.w	r3, r3, #2
 8012cae:	6053      	str	r3, [r2, #4]
 8012cb0:	f04f 42a0 	mov.w	r2, #1342177280	; 0x50000000
 8012cb4:	6b93      	ldr	r3, [r2, #56]	; 0x38
 8012cb6:	f423 3380 	bic.w	r3, r3, #65536	; 0x10000
 8012cba:	6393      	str	r3, [r2, #56]	; 0x38
 8012cbc:	e7f1      	b.n	8012ca2 <connect+0x1a>
 8012cbe:	bf00      	nop
 8012cc0:	50000800 	.word	0x50000800

08012cc4 <setaddr>:
 8012cc4:	4a03      	ldr	r2, [pc, #12]	; (8012cd4 <setaddr+0x10>)
 8012cc6:	6813      	ldr	r3, [r2, #0]
 8012cc8:	f423 63fe 	bic.w	r3, r3, #2032	; 0x7f0
 8012ccc:	ea43 1300 	orr.w	r3, r3, r0, lsl #4
 8012cd0:	6013      	str	r3, [r2, #0]
 8012cd2:	4770      	bx	lr
 8012cd4:	50000800 	.word	0x50000800

08012cd8 <set_tx_fifo>:
 8012cd8:	b410      	push	{r4}
 8012cda:	f04f 43a0 	mov.w	r3, #1342177280	; 0x50000000
 8012cde:	6a9c      	ldr	r4, [r3, #40]	; 0x28
 8012ce0:	eb04 4414 	add.w	r4, r4, r4, lsr #16
 8012ce4:	b2a4      	uxth	r4, r4
 8012ce6:	2200      	movs	r2, #0
 8012ce8:	e000      	b.n	8012cec <set_tx_fifo+0x14>
 8012cea:	3201      	adds	r2, #1
 8012cec:	2a02      	cmp	r2, #2
 8012cee:	dc0f      	bgt.n	8012d10 <set_tx_fifo+0x38>
 8012cf0:	f102 0340 	add.w	r3, r2, #64	; 0x40
 8012cf4:	009b      	lsls	r3, r3, #2
 8012cf6:	f103 43a0 	add.w	r3, r3, #1342177280	; 0x50000000
 8012cfa:	685b      	ldr	r3, [r3, #4]
 8012cfc:	f413 4f7e 	tst.w	r3, #65024	; 0xfe00
 8012d00:	d1f3      	bne.n	8012cea <set_tx_fifo+0x12>
 8012d02:	eb03 4313 	add.w	r3, r3, r3, lsr #16
 8012d06:	b29b      	uxth	r3, r3
 8012d08:	429c      	cmp	r4, r3
 8012d0a:	d2ee      	bcs.n	8012cea <set_tx_fifo+0x12>
 8012d0c:	461c      	mov	r4, r3
 8012d0e:	e7ec      	b.n	8012cea <set_tx_fifo+0x12>
 8012d10:	3103      	adds	r1, #3
 8012d12:	088b      	lsrs	r3, r1, #2
 8012d14:	293f      	cmp	r1, #63	; 0x3f
 8012d16:	d800      	bhi.n	8012d1a <set_tx_fifo+0x42>
 8012d18:	2310      	movs	r3, #16
 8012d1a:	191a      	adds	r2, r3, r4
 8012d1c:	f5b2 7fa0 	cmp.w	r2, #320	; 0x140
 8012d20:	d80a      	bhi.n	8012d38 <set_tx_fifo+0x60>
 8012d22:	ea44 4403 	orr.w	r4, r4, r3, lsl #16
 8012d26:	303f      	adds	r0, #63	; 0x3f
 8012d28:	0080      	lsls	r0, r0, #2
 8012d2a:	f100 40a0 	add.w	r0, r0, #1342177280	; 0x50000000
 8012d2e:	6044      	str	r4, [r0, #4]
 8012d30:	2001      	movs	r0, #1
 8012d32:	f85d 4b04 	ldr.w	r4, [sp], #4
 8012d36:	4770      	bx	lr
 8012d38:	2000      	movs	r0, #0
 8012d3a:	e7fa      	b.n	8012d32 <set_tx_fifo+0x5a>

08012d3c <ep_config>:
 8012d3c:	b5f8      	push	{r3, r4, r5, r6, r7, lr}
 8012d3e:	4615      	mov	r5, r2
 8012d40:	4603      	mov	r3, r0
 8012d42:	b170      	cbz	r0, 8012d62 <ep_config+0x26>
 8012d44:	460e      	mov	r6, r1
 8012d46:	f010 0f80 	tst.w	r0, #128	; 0x80
 8012d4a:	d133      	bne.n	8012db4 <ep_config+0x78>
 8012d4c:	0143      	lsls	r3, r0, #5
 8012d4e:	f103 43a0 	add.w	r3, r3, #1342177280	; 0x50000000
 8012d52:	1e4e      	subs	r6, r1, #1
 8012d54:	2e05      	cmp	r6, #5
 8012d56:	d87f      	bhi.n	8012e58 <ep_config+0x11c>
 8012d58:	e8df f006 	tbb	[pc, r6]
 8012d5c:	7e7e766e 	.word	0x7e7e766e
 8012d60:	766e      	.short	0x766e
 8012d62:	2a08      	cmp	r2, #8
 8012d64:	d906      	bls.n	8012d74 <ep_config+0x38>
 8012d66:	2a10      	cmp	r2, #16
 8012d68:	d91e      	bls.n	8012da8 <ep_config+0x6c>
 8012d6a:	2a20      	cmp	r2, #32
 8012d6c:	d81f      	bhi.n	8012dae <ep_config+0x72>
 8012d6e:	2101      	movs	r1, #1
 8012d70:	2220      	movs	r2, #32
 8012d72:	e001      	b.n	8012d78 <ep_config+0x3c>
 8012d74:	2103      	movs	r1, #3
 8012d76:	2208      	movs	r2, #8
 8012d78:	4c3b      	ldr	r4, [pc, #236]	; (8012e68 <ep_config+0x12c>)
 8012d7a:	69e0      	ldr	r0, [r4, #28]
 8012d7c:	f040 1001 	orr.w	r0, r0, #65537	; 0x10001
 8012d80:	61e0      	str	r0, [r4, #28]
 8012d82:	015b      	lsls	r3, r3, #5
 8012d84:	f103 43a0 	add.w	r3, r3, #1342177280	; 0x50000000
 8012d88:	f041 6000 	orr.w	r0, r1, #134217728	; 0x8000000
 8012d8c:	f8c3 0900 	str.w	r0, [r3, #2304]	; 0x900
 8012d90:	f042 5200 	orr.w	r2, r2, #536870912	; 0x20000000
 8012d94:	f442 2200 	orr.w	r2, r2, #524288	; 0x80000
 8012d98:	f8c3 2b10 	str.w	r2, [r3, #2832]	; 0xb10
 8012d9c:	f041 4104 	orr.w	r1, r1, #2214592512	; 0x84000000
 8012da0:	f8c3 1b00 	str.w	r1, [r3, #2816]	; 0xb00
 8012da4:	2001      	movs	r0, #1
 8012da6:	bdf8      	pop	{r3, r4, r5, r6, r7, pc}
 8012da8:	2102      	movs	r1, #2
 8012daa:	2210      	movs	r2, #16
 8012dac:	e7e4      	b.n	8012d78 <ep_config+0x3c>
 8012dae:	2100      	movs	r1, #0
 8012db0:	2240      	movs	r2, #64	; 0x40
 8012db2:	e7e1      	b.n	8012d78 <ep_config+0x3c>
 8012db4:	f000 047f 	and.w	r4, r0, #127	; 0x7f
 8012db8:	0167      	lsls	r7, r4, #5
 8012dba:	f107 47a0 	add.w	r7, r7, #1342177280	; 0x50000000
 8012dbe:	f011 0f04 	tst.w	r1, #4
 8012dc2:	d014      	beq.n	8012dee <ep_config+0xb2>
 8012dc4:	0051      	lsls	r1, r2, #1
 8012dc6:	b289      	uxth	r1, r1
 8012dc8:	4620      	mov	r0, r4
 8012dca:	f7ff ff85 	bl	8012cd8 <set_tx_fifo>
 8012dce:	2800      	cmp	r0, #0
 8012dd0:	d0e9      	beq.n	8012da6 <ep_config+0x6a>
 8012dd2:	4925      	ldr	r1, [pc, #148]	; (8012e68 <ep_config+0x12c>)
 8012dd4:	69cb      	ldr	r3, [r1, #28]
 8012dd6:	2201      	movs	r2, #1
 8012dd8:	40a2      	lsls	r2, r4
 8012dda:	4313      	orrs	r3, r2
 8012ddc:	61cb      	str	r3, [r1, #28]
 8012dde:	3e01      	subs	r6, #1
 8012de0:	2e05      	cmp	r6, #5
 8012de2:	d81f      	bhi.n	8012e24 <ep_config+0xe8>
 8012de4:	e8df f006 	tbb	[pc, r6]
 8012de8:	1e1e140a 	.word	0x1e1e140a
 8012dec:	140a      	.short	0x140a
 8012dee:	4611      	mov	r1, r2
 8012df0:	4620      	mov	r0, r4
 8012df2:	f7ff ff71 	bl	8012cd8 <set_tx_fifo>
 8012df6:	2800      	cmp	r0, #0
 8012df8:	d1eb      	bne.n	8012dd2 <ep_config+0x96>
 8012dfa:	e7d4      	b.n	8012da6 <ep_config+0x6a>
 8012dfc:	ea45 5384 	orr.w	r3, r5, r4, lsl #22
 8012e00:	f043 5380 	orr.w	r3, r3, #268435456	; 0x10000000
 8012e04:	f443 2390 	orr.w	r3, r3, #294912	; 0x48000
 8012e08:	f8c7 3900 	str.w	r3, [r7, #2304]	; 0x900
 8012e0c:	2001      	movs	r0, #1
 8012e0e:	e7ca      	b.n	8012da6 <ep_config+0x6a>
 8012e10:	ea45 5384 	orr.w	r3, r5, r4, lsl #22
 8012e14:	f043 53c0 	orr.w	r3, r3, #402653184	; 0x18000000
 8012e18:	f443 2308 	orr.w	r3, r3, #557056	; 0x88000
 8012e1c:	f8c7 3900 	str.w	r3, [r7, #2304]	; 0x900
 8012e20:	2001      	movs	r0, #1
 8012e22:	e7c0      	b.n	8012da6 <ep_config+0x6a>
 8012e24:	ea45 5384 	orr.w	r3, r5, r4, lsl #22
 8012e28:	f043 53c0 	orr.w	r3, r3, #402653184	; 0x18000000
 8012e2c:	f443 2348 	orr.w	r3, r3, #819200	; 0xc8000
 8012e30:	f8c7 3900 	str.w	r3, [r7, #2304]	; 0x900
 8012e34:	2001      	movs	r0, #1
 8012e36:	e7b6      	b.n	8012da6 <ep_config+0x6a>
 8012e38:	f045 4504 	orr.w	r5, r5, #2214592512	; 0x84000000
 8012e3c:	f445 2590 	orr.w	r5, r5, #294912	; 0x48000
 8012e40:	f8c3 5b00 	str.w	r5, [r3, #2816]	; 0xb00
 8012e44:	2001      	movs	r0, #1
 8012e46:	e7ae      	b.n	8012da6 <ep_config+0x6a>
 8012e48:	f045 4514 	orr.w	r5, r5, #2483027968	; 0x94000000
 8012e4c:	f445 2508 	orr.w	r5, r5, #557056	; 0x88000
 8012e50:	f8c3 5b00 	str.w	r5, [r3, #2816]	; 0xb00
 8012e54:	2001      	movs	r0, #1
 8012e56:	e7a6      	b.n	8012da6 <ep_config+0x6a>
 8012e58:	f045 4514 	orr.w	r5, r5, #2483027968	; 0x94000000
 8012e5c:	f445 2548 	orr.w	r5, r5, #819200	; 0xc8000
 8012e60:	f8c3 5b00 	str.w	r5, [r3, #2816]	; 0xb00
 8012e64:	2001      	movs	r0, #1
 8012e66:	e79e      	b.n	8012da6 <ep_config+0x6a>
 8012e68:	50000800 	.word	0x50000800

08012e6c <ep_deconfig>:
 8012e6c:	b470      	push	{r4, r5, r6}
 8012e6e:	f000 007f 	and.w	r0, r0, #127	; 0x7f
 8012e72:	0142      	lsls	r2, r0, #5
 8012e74:	f102 42a0 	add.w	r2, r2, #1342177280	; 0x50000000
 8012e78:	f502 6510 	add.w	r5, r2, #2304	; 0x900
 8012e7c:	f502 6430 	add.w	r4, r2, #2816	; 0xb00
 8012e80:	4e25      	ldr	r6, [pc, #148]	; (8012f18 <ep_deconfig+0xac>)
 8012e82:	69f3      	ldr	r3, [r6, #28]
 8012e84:	f04f 1101 	mov.w	r1, #65537	; 0x10001
 8012e88:	4081      	lsls	r1, r0
 8012e8a:	ea23 0301 	bic.w	r3, r3, r1
 8012e8e:	61f3      	str	r3, [r6, #28]
 8012e90:	f8d2 3900 	ldr.w	r3, [r2, #2304]	; 0x900
 8012e94:	f423 4300 	bic.w	r3, r3, #32768	; 0x8000
 8012e98:	f8c2 3900 	str.w	r3, [r2, #2304]	; 0x900
 8012e9c:	f04f 46a0 	mov.w	r6, #1342177280	; 0x50000000
 8012ea0:	6933      	ldr	r3, [r6, #16]
 8012ea2:	f423 63f8 	bic.w	r3, r3, #1984	; 0x7c0
 8012ea6:	0181      	lsls	r1, r0, #6
 8012ea8:	f401 61f8 	and.w	r1, r1, #1984	; 0x7c0
 8012eac:	430b      	orrs	r3, r1
 8012eae:	f043 0320 	orr.w	r3, r3, #32
 8012eb2:	6133      	str	r3, [r6, #16]
 8012eb4:	f04f 43a0 	mov.w	r3, #1342177280	; 0x50000000
 8012eb8:	691b      	ldr	r3, [r3, #16]
 8012eba:	f013 0f20 	tst.w	r3, #32
 8012ebe:	d1f9      	bne.n	8012eb4 <ep_deconfig+0x48>
 8012ec0:	f8d2 3900 	ldr.w	r3, [r2, #2304]	; 0x900
 8012ec4:	2b00      	cmp	r3, #0
 8012ec6:	db19      	blt.n	8012efc <ep_deconfig+0x90>
 8012ec8:	23ff      	movs	r3, #255	; 0xff
 8012eca:	60ab      	str	r3, [r5, #8]
 8012ecc:	b140      	cbz	r0, 8012ee0 <ep_deconfig+0x74>
 8012ece:	f100 1101 	add.w	r1, r0, #65537	; 0x10001
 8012ed2:	0249      	lsls	r1, r1, #9
 8012ed4:	f100 033f 	add.w	r3, r0, #63	; 0x3f
 8012ed8:	009b      	lsls	r3, r3, #2
 8012eda:	f103 43a0 	add.w	r3, r3, #1342177280	; 0x50000000
 8012ede:	6059      	str	r1, [r3, #4]
 8012ee0:	f8d2 3b00 	ldr.w	r3, [r2, #2816]	; 0xb00
 8012ee4:	f423 4300 	bic.w	r3, r3, #32768	; 0x8000
 8012ee8:	f8c2 3b00 	str.w	r3, [r2, #2816]	; 0xb00
 8012eec:	f8d2 3b00 	ldr.w	r3, [r2, #2816]	; 0xb00
 8012ef0:	2b00      	cmp	r3, #0
 8012ef2:	db0a      	blt.n	8012f0a <ep_deconfig+0x9e>
 8012ef4:	23ff      	movs	r3, #255	; 0xff
 8012ef6:	60a3      	str	r3, [r4, #8]
 8012ef8:	bc70      	pop	{r4, r5, r6}
 8012efa:	4770      	bx	lr
 8012efc:	2800      	cmp	r0, #0
 8012efe:	d0e3      	beq.n	8012ec8 <ep_deconfig+0x5c>
 8012f00:	f04f 4380 	mov.w	r3, #1073741824	; 0x40000000
 8012f04:	f8c2 3900 	str.w	r3, [r2, #2304]	; 0x900
 8012f08:	e7de      	b.n	8012ec8 <ep_deconfig+0x5c>
 8012f0a:	2800      	cmp	r0, #0
 8012f0c:	d0f2      	beq.n	8012ef4 <ep_deconfig+0x88>
 8012f0e:	f04f 4380 	mov.w	r3, #1073741824	; 0x40000000
 8012f12:	f8c2 3b00 	str.w	r3, [r2, #2816]	; 0xb00
 8012f16:	e7ed      	b.n	8012ef4 <ep_deconfig+0x88>
 8012f18:	50000800 	.word	0x50000800

08012f1c <ep_read>:
 8012f1c:	f04f 43a0 	mov.w	r3, #1342177280	; 0x50000000
 8012f20:	695b      	ldr	r3, [r3, #20]
 8012f22:	f013 0f10 	tst.w	r3, #16
 8012f26:	d023      	beq.n	8012f70 <ep_read+0x54>
 8012f28:	f000 007f 	and.w	r0, r0, #127	; 0x7f
 8012f2c:	f04f 43a0 	mov.w	r3, #1342177280	; 0x50000000
 8012f30:	69db      	ldr	r3, [r3, #28]
 8012f32:	f003 030f 	and.w	r3, r3, #15
 8012f36:	4283      	cmp	r3, r0
 8012f38:	d11d      	bne.n	8012f76 <ep_read+0x5a>
 8012f3a:	b430      	push	{r4, r5}
 8012f3c:	f04f 43a0 	mov.w	r3, #1342177280	; 0x50000000
 8012f40:	6a18      	ldr	r0, [r3, #32]
 8012f42:	f3c0 100a 	ubfx	r0, r0, #4, #11
 8012f46:	2300      	movs	r3, #0
 8012f48:	e000      	b.n	8012f4c <ep_read+0x30>
 8012f4a:	3301      	adds	r3, #1
 8012f4c:	461d      	mov	r5, r3
 8012f4e:	4283      	cmp	r3, r0
 8012f50:	d209      	bcs.n	8012f66 <ep_read+0x4a>
 8012f52:	f013 0f03 	tst.w	r3, #3
 8012f56:	d101      	bne.n	8012f5c <ep_read+0x40>
 8012f58:	4c08      	ldr	r4, [pc, #32]	; (8012f7c <ep_read+0x60>)
 8012f5a:	6824      	ldr	r4, [r4, #0]
 8012f5c:	429a      	cmp	r2, r3
 8012f5e:	ddf4      	ble.n	8012f4a <ep_read+0x2e>
 8012f60:	554c      	strb	r4, [r1, r5]
 8012f62:	0a24      	lsrs	r4, r4, #8
 8012f64:	e7f1      	b.n	8012f4a <ep_read+0x2e>
 8012f66:	4290      	cmp	r0, r2
 8012f68:	bf28      	it	cs
 8012f6a:	4610      	movcs	r0, r2
 8012f6c:	bc30      	pop	{r4, r5}
 8012f6e:	4770      	bx	lr
 8012f70:	f04f 30ff 	mov.w	r0, #4294967295	; 0xffffffff
 8012f74:	4770      	bx	lr
 8012f76:	f04f 30ff 	mov.w	r0, #4294967295	; 0xffffffff
 8012f7a:	4770      	bx	lr
 8012f7c:	50001000 	.word	0x50001000

08012f80 <ep_write>:
 8012f80:	b4f0      	push	{r4, r5, r6, r7}
 8012f82:	f000 037f 	and.w	r3, r0, #127	; 0x7f
 8012f86:	015c      	lsls	r4, r3, #5
 8012f88:	f104 44a0 	add.w	r4, r4, #1342177280	; 0x50000000
 8012f8c:	f504 6710 	add.w	r7, r4, #2304	; 0x900
 8012f90:	f102 0c03 	add.w	ip, r2, #3
 8012f94:	69bd      	ldr	r5, [r7, #24]
 8012f96:	ebb5 0fac 	cmp.w	r5, ip, asr #2
 8012f9a:	d32e      	bcc.n	8012ffa <ep_write+0x7a>
 8012f9c:	031e      	lsls	r6, r3, #12
 8012f9e:	f106 46a0 	add.w	r6, r6, #1342177280	; 0x50000000
 8012fa2:	f506 5680 	add.w	r6, r6, #4096	; 0x1000
 8012fa6:	4610      	mov	r0, r2
 8012fa8:	b11b      	cbz	r3, 8012fb2 <ep_write+0x32>
 8012faa:	f8d4 3900 	ldr.w	r3, [r4, #2304]	; 0x900
 8012fae:	2b00      	cmp	r3, #0
 8012fb0:	db27      	blt.n	8013002 <ep_write+0x82>
 8012fb2:	2500      	movs	r5, #0
 8012fb4:	613d      	str	r5, [r7, #16]
 8012fb6:	f502 2200 	add.w	r2, r2, #524288	; 0x80000
 8012fba:	613a      	str	r2, [r7, #16]
 8012fbc:	f8d4 3900 	ldr.w	r3, [r4, #2304]	; 0x900
 8012fc0:	f023 4304 	bic.w	r3, r3, #2214592512	; 0x84000000
 8012fc4:	f423 1300 	bic.w	r3, r3, #2097152	; 0x200000
 8012fc8:	f043 4304 	orr.w	r3, r3, #2214592512	; 0x84000000
 8012fcc:	f8c4 3900 	str.w	r3, [r4, #2304]	; 0x900
 8012fd0:	462b      	mov	r3, r5
 8012fd2:	e002      	b.n	8012fda <ep_write+0x5a>
 8012fd4:	6035      	str	r5, [r6, #0]
 8012fd6:	2500      	movs	r5, #0
 8012fd8:	3301      	adds	r3, #1
 8012fda:	4298      	cmp	r0, r3
 8012fdc:	dd0f      	ble.n	8012ffe <ep_write+0x7e>
 8012fde:	5cca      	ldrb	r2, [r1, r3]
 8012fe0:	00dc      	lsls	r4, r3, #3
 8012fe2:	f004 0418 	and.w	r4, r4, #24
 8012fe6:	40a2      	lsls	r2, r4
 8012fe8:	4315      	orrs	r5, r2
 8012fea:	f003 0203 	and.w	r2, r3, #3
 8012fee:	2a03      	cmp	r2, #3
 8012ff0:	d0f0      	beq.n	8012fd4 <ep_write+0x54>
 8012ff2:	1c5a      	adds	r2, r3, #1
 8012ff4:	4290      	cmp	r0, r2
 8012ff6:	d1ef      	bne.n	8012fd8 <ep_write+0x58>
 8012ff8:	e7ec      	b.n	8012fd4 <ep_write+0x54>
 8012ffa:	f04f 30ff 	mov.w	r0, #4294967295	; 0xffffffff
 8012ffe:	bcf0      	pop	{r4, r5, r6, r7}
 8013000:	4770      	bx	lr
 8013002:	f04f 30ff 	mov.w	r0, #4294967295	; 0xffffffff
 8013006:	e7fa      	b.n	8012ffe <ep_write+0x7e>

08013008 <get_frame>:
 8013008:	4b02      	ldr	r3, [pc, #8]	; (8013014 <get_frame+0xc>)
 801300a:	6898      	ldr	r0, [r3, #8]
 801300c:	f3c0 200d 	ubfx	r0, r0, #8, #14
 8013010:	4770      	bx	lr
 8013012:	bf00      	nop
 8013014:	50000800 	.word	0x50000800

08013018 <evt_poll>:
 8013018:	b5f8      	push	{r3, r4, r5, r6, r7, lr}
 801301a:	4607      	mov	r7, r0
 801301c:	460e      	mov	r6, r1
 801301e:	2400      	movs	r4, #0
 8013020:	f04f 43a0 	mov.w	r3, #1342177280	; 0x50000000
 8013024:	695b      	ldr	r3, [r3, #20]
 8013026:	f413 5580 	ands.w	r5, r3, #4096	; 0x1000
 801302a:	d11c      	bne.n	8013066 <evt_poll+0x4e>
 801302c:	f413 5f00 	tst.w	r3, #8192	; 0x2000
 8013030:	d134      	bne.n	801309c <evt_poll+0x84>
 8013032:	f413 2f80 	tst.w	r3, #262144	; 0x40000
 8013036:	d137      	bne.n	80130a8 <evt_poll+0x90>
 8013038:	f013 0f10 	tst.w	r3, #16
 801303c:	d074      	beq.n	8013128 <evt_poll+0x110>
 801303e:	f04f 43a0 	mov.w	r3, #1342177280	; 0x50000000
 8013042:	69db      	ldr	r3, [r3, #28]
 8013044:	f003 040f 	and.w	r4, r3, #15
 8013048:	f3c3 4543 	ubfx	r5, r3, #17, #4
 801304c:	2d04      	cmp	r5, #4
 801304e:	d840      	bhi.n	80130d2 <evt_poll+0xba>
 8013050:	2d03      	cmp	r5, #3
 8013052:	d25c      	bcs.n	801310e <evt_poll+0xf6>
 8013054:	2d02      	cmp	r5, #2
 8013056:	d163      	bne.n	8013120 <evt_poll+0x108>
 8013058:	2505      	movs	r5, #5
 801305a:	b2e2      	uxtb	r2, r4
 801305c:	f005 010f 	and.w	r1, r5, #15
 8013060:	4638      	mov	r0, r7
 8013062:	47b0      	blx	r6
 8013064:	bdf8      	pop	{r3, r4, r5, r6, r7, pc}
 8013066:	f04f 43a0 	mov.w	r3, #1342177280	; 0x50000000
 801306a:	f44f 5280 	mov.w	r2, #4096	; 0x1000
 801306e:	615a      	str	r2, [r3, #20]
 8013070:	2500      	movs	r5, #0
 8013072:	e004      	b.n	801307e <evt_poll+0x66>
 8013074:	4628      	mov	r0, r5
 8013076:	f7ff fef9 	bl	8012e6c <ep_deconfig>
 801307a:	3501      	adds	r5, #1
 801307c:	b2ed      	uxtb	r5, r5
 801307e:	2d03      	cmp	r5, #3
 8013080:	d9f8      	bls.n	8013074 <evt_poll+0x5c>
 8013082:	f04f 42a0 	mov.w	r2, #1342177280	; 0x50000000
 8013086:	6913      	ldr	r3, [r2, #16]
 8013088:	f043 0310 	orr.w	r3, r3, #16
 801308c:	6113      	str	r3, [r2, #16]
 801308e:	f04f 43a0 	mov.w	r3, #1342177280	; 0x50000000
 8013092:	691b      	ldr	r3, [r3, #16]
 8013094:	f013 0f10 	tst.w	r3, #16
 8013098:	d1f9      	bne.n	801308e <evt_poll+0x76>
 801309a:	e7c1      	b.n	8013020 <evt_poll+0x8>
 801309c:	f04f 43a0 	mov.w	r3, #1342177280	; 0x50000000
 80130a0:	f44f 5200 	mov.w	r2, #8192	; 0x2000
 80130a4:	615a      	str	r2, [r3, #20]
 80130a6:	e7d8      	b.n	801305a <evt_poll+0x42>
 80130a8:	0163      	lsls	r3, r4, #5
 80130aa:	f103 43a0 	add.w	r3, r3, #1342177280	; 0x50000000
 80130ae:	f503 6310 	add.w	r3, r3, #2304	; 0x900
 80130b2:	2c03      	cmp	r4, #3
 80130b4:	d8d6      	bhi.n	8013064 <evt_poll+0x4c>
 80130b6:	689a      	ldr	r2, [r3, #8]
 80130b8:	f012 0f01 	tst.w	r2, #1
 80130bc:	d101      	bne.n	80130c2 <evt_poll+0xaa>
 80130be:	3401      	adds	r4, #1
 80130c0:	e7f2      	b.n	80130a8 <evt_poll+0x90>
 80130c2:	689a      	ldr	r2, [r3, #8]
 80130c4:	f042 0201 	orr.w	r2, r2, #1
 80130c8:	609a      	str	r2, [r3, #8]
 80130ca:	f044 0480 	orr.w	r4, r4, #128	; 0x80
 80130ce:	2504      	movs	r5, #4
 80130d0:	e7c3      	b.n	801305a <evt_poll+0x42>
 80130d2:	2d06      	cmp	r5, #6
 80130d4:	d124      	bne.n	8013120 <evt_poll+0x108>
 80130d6:	0162      	lsls	r2, r4, #5
 80130d8:	f102 42a0 	add.w	r2, r2, #1342177280	; 0x50000000
 80130dc:	f8d2 1910 	ldr.w	r1, [r2, #2320]	; 0x910
 80130e0:	4a65      	ldr	r2, [pc, #404]	; (8013278 <evt_poll+0x260>)
 80130e2:	400a      	ands	r2, r1
 80130e4:	2a00      	cmp	r2, #0
 80130e6:	d0b8      	beq.n	801305a <evt_poll+0x42>
 80130e8:	f04f 41a0 	mov.w	r1, #1342177280	; 0x50000000
 80130ec:	690a      	ldr	r2, [r1, #16]
 80130ee:	f422 62f8 	bic.w	r2, r2, #1984	; 0x7c0
 80130f2:	019b      	lsls	r3, r3, #6
 80130f4:	f403 7370 	and.w	r3, r3, #960	; 0x3c0
 80130f8:	4313      	orrs	r3, r2
 80130fa:	f043 0320 	orr.w	r3, r3, #32
 80130fe:	610b      	str	r3, [r1, #16]
 8013100:	f04f 43a0 	mov.w	r3, #1342177280	; 0x50000000
 8013104:	691b      	ldr	r3, [r3, #16]
 8013106:	f013 0f20 	tst.w	r3, #32
 801310a:	d1f9      	bne.n	8013100 <evt_poll+0xe8>
 801310c:	e7a5      	b.n	801305a <evt_poll+0x42>
 801310e:	0163      	lsls	r3, r4, #5
 8013110:	f103 43a0 	add.w	r3, r3, #1342177280	; 0x50000000
 8013114:	f8d3 2b00 	ldr.w	r2, [r3, #2816]	; 0xb00
 8013118:	f042 4204 	orr.w	r2, r2, #2214592512	; 0x84000000
 801311c:	f8c3 2b00 	str.w	r2, [r3, #2816]	; 0xb00
 8013120:	f04f 43a0 	mov.w	r3, #1342177280	; 0x50000000
 8013124:	6a1b      	ldr	r3, [r3, #32]
 8013126:	e77b      	b.n	8013020 <evt_poll+0x8>
 8013128:	f013 0f08 	tst.w	r3, #8
 801312c:	d111      	bne.n	8013152 <evt_poll+0x13a>
 801312e:	f413 6f00 	tst.w	r3, #2048	; 0x800
 8013132:	d114      	bne.n	801315e <evt_poll+0x146>
 8013134:	2b00      	cmp	r3, #0
 8013136:	db19      	blt.n	801316c <evt_poll+0x154>
 8013138:	f413 2f00 	tst.w	r3, #524288	; 0x80000
 801313c:	d124      	bne.n	8013188 <evt_poll+0x170>
 801313e:	f413 1f80 	tst.w	r3, #1048576	; 0x100000
 8013142:	d139      	bne.n	80131b8 <evt_poll+0x1a0>
 8013144:	f413 1f00 	tst.w	r3, #2097152	; 0x200000
 8013148:	d150      	bne.n	80131ec <evt_poll+0x1d4>
 801314a:	f413 4f00 	tst.w	r3, #32768	; 0x8000
 801314e:	d089      	beq.n	8013064 <evt_poll+0x4c>
 8013150:	e05e      	b.n	8013210 <evt_poll+0x1f8>
 8013152:	f04f 43a0 	mov.w	r3, #1342177280	; 0x50000000
 8013156:	2208      	movs	r2, #8
 8013158:	615a      	str	r2, [r3, #20]
 801315a:	2501      	movs	r5, #1
 801315c:	e77d      	b.n	801305a <evt_poll+0x42>
 801315e:	f04f 43a0 	mov.w	r3, #1342177280	; 0x50000000
 8013162:	f44f 6200 	mov.w	r2, #2048	; 0x800
 8013166:	615a      	str	r2, [r3, #20]
 8013168:	2502      	movs	r5, #2
 801316a:	e776      	b.n	801305a <evt_poll+0x42>
 801316c:	f04f 43a0 	mov.w	r3, #1342177280	; 0x50000000
 8013170:	f04f 4200 	mov.w	r2, #2147483648	; 0x80000000
 8013174:	615a      	str	r2, [r3, #20]
 8013176:	2503      	movs	r5, #3
 8013178:	e76f      	b.n	801305a <evt_poll+0x42>
 801317a:	2201      	movs	r2, #1
 801317c:	609a      	str	r2, [r3, #8]
 801317e:	e74f      	b.n	8013020 <evt_poll+0x8>
 8013180:	2208      	movs	r2, #8
 8013182:	609a      	str	r2, [r3, #8]
 8013184:	e74c      	b.n	8013020 <evt_poll+0x8>
 8013186:	3401      	adds	r4, #1
 8013188:	0163      	lsls	r3, r4, #5
 801318a:	f103 43a0 	add.w	r3, r3, #1342177280	; 0x50000000
 801318e:	f503 6330 	add.w	r3, r3, #2816	; 0xb00
 8013192:	2c03      	cmp	r4, #3
 8013194:	f63f af44 	bhi.w	8013020 <evt_poll+0x8>
 8013198:	689a      	ldr	r2, [r3, #8]
 801319a:	f012 0f01 	tst.w	r2, #1
 801319e:	d1ec      	bne.n	801317a <evt_poll+0x162>
 80131a0:	689a      	ldr	r2, [r3, #8]
 80131a2:	f012 0f08 	tst.w	r2, #8
 80131a6:	d1eb      	bne.n	8013180 <evt_poll+0x168>
 80131a8:	689a      	ldr	r2, [r3, #8]
 80131aa:	f012 0f10 	tst.w	r2, #16
 80131ae:	d0ea      	beq.n	8013186 <evt_poll+0x16e>
 80131b0:	2210      	movs	r2, #16
 80131b2:	609a      	str	r2, [r3, #8]
 80131b4:	e734      	b.n	8013020 <evt_poll+0x8>
 80131b6:	3401      	adds	r4, #1
 80131b8:	0163      	lsls	r3, r4, #5
 80131ba:	f103 43a0 	add.w	r3, r3, #1342177280	; 0x50000000
 80131be:	f503 6110 	add.w	r1, r3, #2304	; 0x900
 80131c2:	2c03      	cmp	r4, #3
 80131c4:	d80c      	bhi.n	80131e0 <evt_poll+0x1c8>
 80131c6:	f8d3 3900 	ldr.w	r3, [r3, #2304]	; 0x900
 80131ca:	f403 2240 	and.w	r2, r3, #786432	; 0xc0000
 80131ce:	f5b2 2f80 	cmp.w	r2, #262144	; 0x40000
 80131d2:	d1f0      	bne.n	80131b6 <evt_poll+0x19e>
 80131d4:	2b00      	cmp	r3, #0
 80131d6:	daee      	bge.n	80131b6 <evt_poll+0x19e>
 80131d8:	680b      	ldr	r3, [r1, #0]
 80131da:	f043 4380 	orr.w	r3, r3, #1073741824	; 0x40000000
 80131de:	600b      	str	r3, [r1, #0]
 80131e0:	f04f 43a0 	mov.w	r3, #1342177280	; 0x50000000
 80131e4:	f44f 1280 	mov.w	r2, #1048576	; 0x100000
 80131e8:	615a      	str	r2, [r3, #20]
 80131ea:	e73b      	b.n	8013064 <evt_poll+0x4c>
 80131ec:	f04f 43a0 	mov.w	r3, #1342177280	; 0x50000000
 80131f0:	f44f 1200 	mov.w	r2, #2097152	; 0x200000
 80131f4:	615a      	str	r2, [r3, #20]
 80131f6:	e735      	b.n	8013064 <evt_poll+0x4c>
 80131f8:	f7ff ff06 	bl	8013008 <get_frame>
 80131fc:	f010 0f01 	tst.w	r0, #1
 8013200:	d025      	beq.n	801324e <evt_poll+0x236>
 8013202:	f8d5 3b00 	ldr.w	r3, [r5, #2816]	; 0xb00
 8013206:	f043 5380 	orr.w	r3, r3, #268435456	; 0x10000000
 801320a:	f8c5 3b00 	str.w	r3, [r5, #2816]	; 0xb00
 801320e:	3401      	adds	r4, #1
 8013210:	0165      	lsls	r5, r4, #5
 8013212:	f105 45a0 	add.w	r5, r5, #1342177280	; 0x50000000
 8013216:	2c03      	cmp	r4, #3
 8013218:	d827      	bhi.n	801326a <evt_poll+0x252>
 801321a:	f8d5 3b00 	ldr.w	r3, [r5, #2816]	; 0xb00
 801321e:	f403 2340 	and.w	r3, r3, #786432	; 0xc0000
 8013222:	f5b3 2f80 	cmp.w	r3, #262144	; 0x40000
 8013226:	d0e7      	beq.n	80131f8 <evt_poll+0x1e0>
 8013228:	f8d5 3900 	ldr.w	r3, [r5, #2304]	; 0x900
 801322c:	f403 2340 	and.w	r3, r3, #786432	; 0xc0000
 8013230:	f5b3 2f80 	cmp.w	r3, #262144	; 0x40000
 8013234:	d1eb      	bne.n	801320e <evt_poll+0x1f6>
 8013236:	f7ff fee7 	bl	8013008 <get_frame>
 801323a:	f010 0f01 	tst.w	r0, #1
 801323e:	d00d      	beq.n	801325c <evt_poll+0x244>
 8013240:	f8d5 3900 	ldr.w	r3, [r5, #2304]	; 0x900
 8013244:	f043 5380 	orr.w	r3, r3, #268435456	; 0x10000000
 8013248:	f8c5 3900 	str.w	r3, [r5, #2304]	; 0x900
 801324c:	e7df      	b.n	801320e <evt_poll+0x1f6>
 801324e:	f8d5 3b00 	ldr.w	r3, [r5, #2816]	; 0xb00
 8013252:	f043 5300 	orr.w	r3, r3, #536870912	; 0x20000000
 8013256:	f8c5 3b00 	str.w	r3, [r5, #2816]	; 0xb00
 801325a:	e7d8      	b.n	801320e <evt_poll+0x1f6>
 801325c:	f8d5 3900 	ldr.w	r3, [r5, #2304]	; 0x900
 8013260:	f043 5300 	orr.w	r3, r3, #536870912	; 0x20000000
 8013264:	f8c5 3900 	str.w	r3, [r5, #2304]	; 0x900
 8013268:	e7d1      	b.n	801320e <evt_poll+0x1f6>
 801326a:	f04f 43a0 	mov.w	r3, #1342177280	; 0x50000000
 801326e:	f44f 4200 	mov.w	r2, #32768	; 0x8000
 8013272:	615a      	str	r2, [r3, #20]
 8013274:	e6f6      	b.n	8013064 <evt_poll+0x4c>
 8013276:	bf00      	nop
 8013278:	1ff80000 	.word	0x1ff80000

0801327c <fnv1a32_turn>:
 801327c:	2300      	movs	r3, #0
 801327e:	e006      	b.n	801328e <fnv1a32_turn+0x12>
 8013280:	b2ca      	uxtb	r2, r1
 8013282:	4050      	eors	r0, r2
 8013284:	4a03      	ldr	r2, [pc, #12]	; (8013294 <fnv1a32_turn+0x18>)
 8013286:	fb02 f000 	mul.w	r0, r2, r0
 801328a:	0a09      	lsrs	r1, r1, #8
 801328c:	3301      	adds	r3, #1
 801328e:	2b03      	cmp	r3, #3
 8013290:	ddf6      	ble.n	8013280 <fnv1a32_turn+0x4>
 8013292:	4770      	bx	lr
 8013294:	01000193 	.word	0x01000193

08013298 <get_serialno_desc>:
 8013298:	b538      	push	{r3, r4, r5, lr}
 801329a:	4605      	mov	r5, r0
 801329c:	1c84      	adds	r4, r0, #2
 801329e:	4b12      	ldr	r3, [pc, #72]	; (80132e8 <get_serialno_desc+0x50>)
 80132a0:	6819      	ldr	r1, [r3, #0]
 80132a2:	4812      	ldr	r0, [pc, #72]	; (80132ec <get_serialno_desc+0x54>)
 80132a4:	f7ff ffea 	bl	801327c <fnv1a32_turn>
 80132a8:	4b11      	ldr	r3, [pc, #68]	; (80132f0 <get_serialno_desc+0x58>)
 80132aa:	6819      	ldr	r1, [r3, #0]
 80132ac:	f7ff ffe6 	bl	801327c <fnv1a32_turn>
 80132b0:	4b10      	ldr	r3, [pc, #64]	; (80132f4 <get_serialno_desc+0x5c>)
 80132b2:	6819      	ldr	r1, [r3, #0]
 80132b4:	f7ff ffe2 	bl	801327c <fnv1a32_turn>
 80132b8:	221c      	movs	r2, #28
 80132ba:	e006      	b.n	80132ca <get_serialno_desc+0x32>
 80132bc:	2137      	movs	r1, #55	; 0x37
 80132be:	440b      	add	r3, r1
 80132c0:	4621      	mov	r1, r4
 80132c2:	f821 3b02 	strh.w	r3, [r1], #2
 80132c6:	3a04      	subs	r2, #4
 80132c8:	460c      	mov	r4, r1
 80132ca:	2a00      	cmp	r2, #0
 80132cc:	db07      	blt.n	80132de <get_serialno_desc+0x46>
 80132ce:	fa20 f302 	lsr.w	r3, r0, r2
 80132d2:	f003 030f 	and.w	r3, r3, #15
 80132d6:	2b09      	cmp	r3, #9
 80132d8:	d8f0      	bhi.n	80132bc <get_serialno_desc+0x24>
 80132da:	2130      	movs	r1, #48	; 0x30
 80132dc:	e7ef      	b.n	80132be <get_serialno_desc+0x26>
 80132de:	2303      	movs	r3, #3
 80132e0:	706b      	strb	r3, [r5, #1]
 80132e2:	2012      	movs	r0, #18
 80132e4:	7028      	strb	r0, [r5, #0]
 80132e6:	bd38      	pop	{r3, r4, r5, pc}
 80132e8:	1fff7a10 	.word	0x1fff7a10
 80132ec:	811c9dc5 	.word	0x811c9dc5
 80132f0:	1fff7a14 	.word	0x1fff7a14
 80132f4:	1fff7a18 	.word	0x1fff7a18

080132f8 <msc_setconf>:
 80132f8:	b538      	push	{r3, r4, r5, lr}
 80132fa:	4604      	mov	r4, r0
 80132fc:	b121      	cbz	r1, 8013308 <msc_setconf+0x10>
 80132fe:	460d      	mov	r5, r1
 8013300:	2901      	cmp	r1, #1
 8013302:	d00e      	beq.n	8013322 <msc_setconf+0x2a>
 8013304:	2000      	movs	r0, #0
 8013306:	bd38      	pop	{r3, r4, r5, pc}
 8013308:	6803      	ldr	r3, [r0, #0]
 801330a:	695b      	ldr	r3, [r3, #20]
 801330c:	2001      	movs	r0, #1
 801330e:	4798      	blx	r3
 8013310:	6823      	ldr	r3, [r4, #0]
 8013312:	695b      	ldr	r3, [r3, #20]
 8013314:	2082      	movs	r0, #130	; 0x82
 8013316:	4798      	blx	r3
 8013318:	2300      	movs	r3, #0
 801331a:	63a3      	str	r3, [r4, #56]	; 0x38
 801331c:	63e3      	str	r3, [r4, #60]	; 0x3c
 801331e:	2001      	movs	r0, #1
 8013320:	e7f1      	b.n	8013306 <msc_setconf+0xe>
 8013322:	6803      	ldr	r3, [r0, #0]
 8013324:	691b      	ldr	r3, [r3, #16]
 8013326:	2240      	movs	r2, #64	; 0x40
 8013328:	2102      	movs	r1, #2
 801332a:	2001      	movs	r0, #1
 801332c:	4798      	blx	r3
 801332e:	6823      	ldr	r3, [r4, #0]
 8013330:	691b      	ldr	r3, [r3, #16]
 8013332:	2240      	movs	r2, #64	; 0x40
 8013334:	2106      	movs	r1, #6
 8013336:	2082      	movs	r0, #130	; 0x82
 8013338:	4798      	blx	r3
 801333a:	4b02      	ldr	r3, [pc, #8]	; (8013344 <msc_setconf+0x4c>)
 801333c:	63a3      	str	r3, [r4, #56]	; 0x38
 801333e:	63e3      	str	r3, [r4, #60]	; 0x3c
 8013340:	4628      	mov	r0, r5
 8013342:	e7e0      	b.n	8013306 <msc_setconf+0xe>
 8013344:	08013b41 	.word	0x08013b41

08013348 <msc_getdesc>:
 8013348:	b508      	push	{r3, lr}
 801334a:	8843      	ldrh	r3, [r0, #2]
 801334c:	0a18      	lsrs	r0, r3, #8
 801334e:	2802      	cmp	r0, #2
 8013350:	d01b      	beq.n	801338a <msc_getdesc+0x42>
 8013352:	b2db      	uxtb	r3, r3
 8013354:	2803      	cmp	r0, #3
 8013356:	d006      	beq.n	8013366 <msc_getdesc+0x1e>
 8013358:	2801      	cmp	r0, #1
 801335a:	d010      	beq.n	801337e <msc_getdesc+0x36>
 801335c:	480c      	ldr	r0, [pc, #48]	; (8013390 <msc_getdesc+0x48>)
 801335e:	f7fe f9dd 	bl	801171c <kprintf>
 8013362:	2000      	movs	r0, #0
 8013364:	e010      	b.n	8013388 <msc_getdesc+0x40>
 8013366:	2b02      	cmp	r3, #2
 8013368:	d804      	bhi.n	8013374 <msc_getdesc+0x2c>
 801336a:	480a      	ldr	r0, [pc, #40]	; (8013394 <msc_getdesc+0x4c>)
 801336c:	eb00 0383 	add.w	r3, r0, r3, lsl #2
 8013370:	6b5b      	ldr	r3, [r3, #52]	; 0x34
 8013372:	e005      	b.n	8013380 <msc_getdesc+0x38>
 8013374:	4808      	ldr	r0, [pc, #32]	; (8013398 <msc_getdesc+0x50>)
 8013376:	f7fe f9d1 	bl	801171c <kprintf>
 801337a:	2000      	movs	r0, #0
 801337c:	e004      	b.n	8013388 <msc_getdesc+0x40>
 801337e:	4b05      	ldr	r3, [pc, #20]	; (8013394 <msc_getdesc+0x4c>)
 8013380:	7818      	ldrb	r0, [r3, #0]
 8013382:	600b      	str	r3, [r1, #0]
 8013384:	8010      	strh	r0, [r2, #0]
 8013386:	2001      	movs	r0, #1
 8013388:	bd08      	pop	{r3, pc}
 801338a:	4b04      	ldr	r3, [pc, #16]	; (801339c <msc_getdesc+0x54>)
 801338c:	2020      	movs	r0, #32
 801338e:	e7f8      	b.n	8013382 <msc_getdesc+0x3a>
 8013390:	08018a4c 	.word	0x08018a4c
 8013394:	0801874c 	.word	0x0801874c
 8013398:	08018a38 	.word	0x08018a38
 801339c:	08018760 	.word	0x08018760

080133a0 <bot_tx>:
 80133a0:	b538      	push	{r3, r4, r5, lr}
 80133a2:	4605      	mov	r5, r0
 80133a4:	4b43      	ldr	r3, [pc, #268]	; (80134b4 <bot_tx+0x114>)
 80133a6:	785b      	ldrb	r3, [r3, #1]
 80133a8:	2b02      	cmp	r3, #2
 80133aa:	d025      	beq.n	80133f8 <bot_tx+0x58>
 80133ac:	2b04      	cmp	r3, #4
 80133ae:	d076      	beq.n	801349e <bot_tx+0xfe>
 80133b0:	2b01      	cmp	r3, #1
 80133b2:	d000      	beq.n	80133b6 <bot_tx+0x16>
 80133b4:	bd38      	pop	{r3, r4, r5, pc}
 80133b6:	493f      	ldr	r1, [pc, #252]	; (80134b4 <bot_tx+0x114>)
 80133b8:	f8d1 2230 	ldr.w	r2, [r1, #560]	; 0x230
 80133bc:	2a40      	cmp	r2, #64	; 0x40
 80133be:	bf28      	it	cs
 80133c0:	2240      	movcs	r2, #64	; 0x40
 80133c2:	6803      	ldr	r3, [r0, #0]
 80133c4:	69db      	ldr	r3, [r3, #28]
 80133c6:	b292      	uxth	r2, r2
 80133c8:	3130      	adds	r1, #48	; 0x30
 80133ca:	2082      	movs	r0, #130	; 0x82
 80133cc:	4798      	blx	r3
 80133ce:	1e04      	subs	r4, r0, #0
 80133d0:	ddf0      	ble.n	80133b4 <bot_tx+0x14>
 80133d2:	4d38      	ldr	r5, [pc, #224]	; (80134b4 <bot_tx+0x114>)
 80133d4:	f8d5 2230 	ldr.w	r2, [r5, #560]	; 0x230
 80133d8:	f105 0030 	add.w	r0, r5, #48	; 0x30
 80133dc:	1b12      	subs	r2, r2, r4
 80133de:	1901      	adds	r1, r0, r4
 80133e0:	f7fe facb 	bl	801197a <memmove>
 80133e4:	f8d5 0230 	ldr.w	r0, [r5, #560]	; 0x230
 80133e8:	1b00      	subs	r0, r0, r4
 80133ea:	f8c5 0230 	str.w	r0, [r5, #560]	; 0x230
 80133ee:	2800      	cmp	r0, #0
 80133f0:	d1e0      	bne.n	80133b4 <bot_tx+0x14>
 80133f2:	2204      	movs	r2, #4
 80133f4:	706a      	strb	r2, [r5, #1]
 80133f6:	e7dd      	b.n	80133b4 <bot_tx+0x14>
 80133f8:	4b2e      	ldr	r3, [pc, #184]	; (80134b4 <bot_tx+0x114>)
 80133fa:	f8d3 3230 	ldr.w	r3, [r3, #560]	; 0x230
 80133fe:	b9c3      	cbnz	r3, 8013432 <bot_tx+0x92>
 8013400:	4b2d      	ldr	r3, [pc, #180]	; (80134b8 <bot_tx+0x118>)
 8013402:	689c      	ldr	r4, [r3, #8]
 8013404:	482b      	ldr	r0, [pc, #172]	; (80134b4 <bot_tx+0x114>)
 8013406:	2201      	movs	r2, #1
 8013408:	f8d0 1234 	ldr.w	r1, [r0, #564]	; 0x234
 801340c:	3030      	adds	r0, #48	; 0x30
 801340e:	47a0      	blx	r4
 8013410:	280b      	cmp	r0, #11
 8013412:	d0f5      	beq.n	8013400 <bot_tx+0x60>
 8013414:	4b27      	ldr	r3, [pc, #156]	; (80134b4 <bot_tx+0x114>)
 8013416:	f8d3 2234 	ldr.w	r2, [r3, #564]	; 0x234
 801341a:	3201      	adds	r2, #1
 801341c:	f8c3 2234 	str.w	r2, [r3, #564]	; 0x234
 8013420:	f8d3 2238 	ldr.w	r2, [r3, #568]	; 0x238
 8013424:	3a01      	subs	r2, #1
 8013426:	f8c3 2238 	str.w	r2, [r3, #568]	; 0x238
 801342a:	f44f 7200 	mov.w	r2, #512	; 0x200
 801342e:	f8c3 2230 	str.w	r2, [r3, #560]	; 0x230
 8013432:	4920      	ldr	r1, [pc, #128]	; (80134b4 <bot_tx+0x114>)
 8013434:	f8d1 2230 	ldr.w	r2, [r1, #560]	; 0x230
 8013438:	2a40      	cmp	r2, #64	; 0x40
 801343a:	bf28      	it	cs
 801343c:	2240      	movcs	r2, #64	; 0x40
 801343e:	682b      	ldr	r3, [r5, #0]
 8013440:	69db      	ldr	r3, [r3, #28]
 8013442:	b292      	uxth	r2, r2
 8013444:	3130      	adds	r1, #48	; 0x30
 8013446:	2082      	movs	r0, #130	; 0x82
 8013448:	4798      	blx	r3
 801344a:	1e04      	subs	r4, r0, #0
 801344c:	dc18      	bgt.n	8013480 <bot_tx+0xe0>
 801344e:	4b19      	ldr	r3, [pc, #100]	; (80134b4 <bot_tx+0x114>)
 8013450:	f8d3 3238 	ldr.w	r3, [r3, #568]	; 0x238
 8013454:	2b00      	cmp	r3, #0
 8013456:	d1ad      	bne.n	80133b4 <bot_tx+0x14>
 8013458:	4b16      	ldr	r3, [pc, #88]	; (80134b4 <bot_tx+0x114>)
 801345a:	f8d3 3230 	ldr.w	r3, [r3, #560]	; 0x230
 801345e:	2b00      	cmp	r3, #0
 8013460:	d1a8      	bne.n	80133b4 <bot_tx+0x14>
 8013462:	4b14      	ldr	r3, [pc, #80]	; (80134b4 <bot_tx+0x114>)
 8013464:	2200      	movs	r2, #0
 8013466:	f883 2029 	strb.w	r2, [r3, #41]	; 0x29
 801346a:	f883 202a 	strb.w	r2, [r3, #42]	; 0x2a
 801346e:	f883 202b 	strb.w	r2, [r3, #43]	; 0x2b
 8013472:	f883 202c 	strb.w	r2, [r3, #44]	; 0x2c
 8013476:	f883 202d 	strb.w	r2, [r3, #45]	; 0x2d
 801347a:	2204      	movs	r2, #4
 801347c:	705a      	strb	r2, [r3, #1]
 801347e:	e799      	b.n	80133b4 <bot_tx+0x14>
 8013480:	4d0c      	ldr	r5, [pc, #48]	; (80134b4 <bot_tx+0x114>)
 8013482:	f8d5 2230 	ldr.w	r2, [r5, #560]	; 0x230
 8013486:	f105 0030 	add.w	r0, r5, #48	; 0x30
 801348a:	1b12      	subs	r2, r2, r4
 801348c:	1901      	adds	r1, r0, r4
 801348e:	f7fe fa74 	bl	801197a <memmove>
 8013492:	f8d5 0230 	ldr.w	r0, [r5, #560]	; 0x230
 8013496:	1b00      	subs	r0, r0, r4
 8013498:	f8c5 0230 	str.w	r0, [r5, #560]	; 0x230
 801349c:	e7d7      	b.n	801344e <bot_tx+0xae>
 801349e:	6803      	ldr	r3, [r0, #0]
 80134a0:	69db      	ldr	r3, [r3, #28]
 80134a2:	4c04      	ldr	r4, [pc, #16]	; (80134b4 <bot_tx+0x114>)
 80134a4:	220d      	movs	r2, #13
 80134a6:	f104 0121 	add.w	r1, r4, #33	; 0x21
 80134aa:	2082      	movs	r0, #130	; 0x82
 80134ac:	4798      	blx	r3
 80134ae:	2300      	movs	r3, #0
 80134b0:	7063      	strb	r3, [r4, #1]
 80134b2:	e77f      	b.n	80133b4 <bot_tx+0x14>
 80134b4:	20000084 	.word	0x20000084
 80134b8:	0801892c 	.word	0x0801892c

080134bc <bot_error>:
 80134bc:	b508      	push	{r3, lr}
 80134be:	4b0b      	ldr	r3, [pc, #44]	; (80134ec <bot_error+0x30>)
 80134c0:	f883 123c 	strb.w	r1, [r3, #572]	; 0x23c
 80134c4:	f883 223d 	strb.w	r2, [r3, #573]	; 0x23d
 80134c8:	2204      	movs	r2, #4
 80134ca:	705a      	strb	r2, [r3, #1]
 80134cc:	2200      	movs	r2, #0
 80134ce:	f883 2029 	strb.w	r2, [r3, #41]	; 0x29
 80134d2:	f883 202a 	strb.w	r2, [r3, #42]	; 0x2a
 80134d6:	f883 202b 	strb.w	r2, [r3, #43]	; 0x2b
 80134da:	f883 202c 	strb.w	r2, [r3, #44]	; 0x2c
 80134de:	2201      	movs	r2, #1
 80134e0:	f883 202d 	strb.w	r2, [r3, #45]	; 0x2d
 80134e4:	f7ff ff5c 	bl	80133a0 <bot_tx>
 80134e8:	bd08      	pop	{r3, pc}
 80134ea:	bf00      	nop
 80134ec:	20000084 	.word	0x20000084

080134f0 <bot_rx>:
 80134f0:	b5f0      	push	{r4, r5, r6, r7, lr}
 80134f2:	b087      	sub	sp, #28
 80134f4:	4604      	mov	r4, r0
 80134f6:	4ba9      	ldr	r3, [pc, #676]	; (801379c <bot_rx+0x2ac>)
 80134f8:	785b      	ldrb	r3, [r3, #1]
 80134fa:	b123      	cbz	r3, 8013506 <bot_rx+0x16>
 80134fc:	2b03      	cmp	r3, #3
 80134fe:	f000 82db 	beq.w	8013ab8 <bot_rx+0x5c8>
 8013502:	b007      	add	sp, #28
 8013504:	bdf0      	pop	{r4, r5, r6, r7, pc}
 8013506:	6803      	ldr	r3, [r0, #0]
 8013508:	699b      	ldr	r3, [r3, #24]
 801350a:	2240      	movs	r2, #64	; 0x40
 801350c:	49a4      	ldr	r1, [pc, #656]	; (80137a0 <bot_rx+0x2b0>)
 801350e:	2001      	movs	r0, #1
 8013510:	4798      	blx	r3
 8013512:	281f      	cmp	r0, #31
 8013514:	d00c      	beq.n	8013530 <bot_rx+0x40>
 8013516:	4ba1      	ldr	r3, [pc, #644]	; (801379c <bot_rx+0x2ac>)
 8013518:	2205      	movs	r2, #5
 801351a:	f883 223c 	strb.w	r2, [r3, #572]	; 0x23c
 801351e:	2220      	movs	r2, #32
 8013520:	f883 223d 	strb.w	r2, [r3, #573]	; 0x23d
 8013524:	6823      	ldr	r3, [r4, #0]
 8013526:	6a1b      	ldr	r3, [r3, #32]
 8013528:	2101      	movs	r1, #1
 801352a:	4608      	mov	r0, r1
 801352c:	4798      	blx	r3
 801352e:	e7e8      	b.n	8013502 <bot_rx+0x12>
 8013530:	4d9a      	ldr	r5, [pc, #616]	; (801379c <bot_rx+0x2ac>)
 8013532:	221f      	movs	r2, #31
 8013534:	f105 0130 	add.w	r1, r5, #48	; 0x30
 8013538:	1ca8      	adds	r0, r5, #2
 801353a:	f7fe fa11 	bl	8011960 <memcpy>
 801353e:	f8d5 2002 	ldr.w	r2, [r5, #2]
 8013542:	4b98      	ldr	r3, [pc, #608]	; (80137a4 <bot_rx+0x2b4>)
 8013544:	429a      	cmp	r2, r3
 8013546:	d175      	bne.n	8013634 <bot_rx+0x144>
 8013548:	7c2b      	ldrb	r3, [r5, #16]
 801354a:	2b00      	cmp	r3, #0
 801354c:	d072      	beq.n	8013634 <bot_rx+0x144>
 801354e:	2b10      	cmp	r3, #16
 8013550:	d870      	bhi.n	8013634 <bot_rx+0x144>
 8013552:	4b92      	ldr	r3, [pc, #584]	; (801379c <bot_rx+0x2ac>)
 8013554:	2255      	movs	r2, #85	; 0x55
 8013556:	f883 2021 	strb.w	r2, [r3, #33]	; 0x21
 801355a:	2253      	movs	r2, #83	; 0x53
 801355c:	f883 2022 	strb.w	r2, [r3, #34]	; 0x22
 8013560:	2142      	movs	r1, #66	; 0x42
 8013562:	f883 1023 	strb.w	r1, [r3, #35]	; 0x23
 8013566:	f883 2024 	strb.w	r2, [r3, #36]	; 0x24
 801356a:	f8d3 2006 	ldr.w	r2, [r3, #6]
 801356e:	f8c3 2025 	str.w	r2, [r3, #37]	; 0x25
 8013572:	7c5b      	ldrb	r3, [r3, #17]
 8013574:	2b5a      	cmp	r3, #90	; 0x5a
 8013576:	f200 8294 	bhi.w	8013aa2 <bot_rx+0x5b2>
 801357a:	e8df f013 	tbh	[pc, r3, lsl #1]
 801357e:	00fd      	.short	0x00fd
 8013580:	02920292 	.word	0x02920292
 8013584:	0292009b 	.word	0x0292009b
 8013588:	02920292 	.word	0x02920292
 801358c:	02920292 	.word	0x02920292
 8013590:	02920292 	.word	0x02920292
 8013594:	02920292 	.word	0x02920292
 8013598:	02920292 	.word	0x02920292
 801359c:	02920292 	.word	0x02920292
 80135a0:	00680292 	.word	0x00680292
 80135a4:	02920292 	.word	0x02920292
 80135a8:	02920292 	.word	0x02920292
 80135ac:	02920292 	.word	0x02920292
 80135b0:	00cb0292 	.word	0x00cb0292
 80135b4:	02920280 	.word	0x02920280
 80135b8:	026e0292 	.word	0x026e0292
 80135bc:	02920292 	.word	0x02920292
 80135c0:	02920292 	.word	0x02920292
 80135c4:	0292022d 	.word	0x0292022d
 80135c8:	0292011b 	.word	0x0292011b
 80135cc:	01760292 	.word	0x01760292
 80135d0:	01b60292 	.word	0x01b60292
 80135d4:	02920292 	.word	0x02920292
 80135d8:	02920292 	.word	0x02920292
 80135dc:	029201f6 	.word	0x029201f6
 80135e0:	02920292 	.word	0x02920292
 80135e4:	02920292 	.word	0x02920292
 80135e8:	02920292 	.word	0x02920292
 80135ec:	02920292 	.word	0x02920292
 80135f0:	02920292 	.word	0x02920292
 80135f4:	02920292 	.word	0x02920292
 80135f8:	02920292 	.word	0x02920292
 80135fc:	02920292 	.word	0x02920292
 8013600:	02920292 	.word	0x02920292
 8013604:	02920292 	.word	0x02920292
 8013608:	02920292 	.word	0x02920292
 801360c:	02920292 	.word	0x02920292
 8013610:	02920292 	.word	0x02920292
 8013614:	02920292 	.word	0x02920292
 8013618:	02920292 	.word	0x02920292
 801361c:	02920292 	.word	0x02920292
 8013620:	02920292 	.word	0x02920292
 8013624:	02920292 	.word	0x02920292
 8013628:	02920292 	.word	0x02920292
 801362c:	02920292 	.word	0x02920292
 8013630:	00e40292 	.word	0x00e40292
 8013634:	4b59      	ldr	r3, [pc, #356]	; (801379c <bot_rx+0x2ac>)
 8013636:	2205      	movs	r2, #5
 8013638:	f883 223c 	strb.w	r2, [r3, #572]	; 0x23c
 801363c:	2220      	movs	r2, #32
 801363e:	f883 223d 	strb.w	r2, [r3, #573]	; 0x23d
 8013642:	6823      	ldr	r3, [r4, #0]
 8013644:	6a1b      	ldr	r3, [r3, #32]
 8013646:	2101      	movs	r1, #1
 8013648:	4608      	mov	r0, r1
 801364a:	4798      	blx	r3
 801364c:	e759      	b.n	8013502 <bot_rx+0x12>
 801364e:	4b53      	ldr	r3, [pc, #332]	; (801379c <bot_rx+0x2ac>)
 8013650:	7d19      	ldrb	r1, [r3, #20]
 8013652:	7d5a      	ldrb	r2, [r3, #21]
 8013654:	ea42 2201 	orr.w	r2, r2, r1, lsl #8
 8013658:	7c9b      	ldrb	r3, [r3, #18]
 801365a:	f013 0f01 	tst.w	r3, #1
 801365e:	d123      	bne.n	80136a8 <bot_rx+0x1b8>
 8013660:	4b4e      	ldr	r3, [pc, #312]	; (801379c <bot_rx+0x2ac>)
 8013662:	7cdb      	ldrb	r3, [r3, #19]
 8013664:	b9d3      	cbnz	r3, 801369c <bot_rx+0x1ac>
 8013666:	2a24      	cmp	r2, #36	; 0x24
 8013668:	bf28      	it	cs
 801366a:	2224      	movcs	r2, #36	; 0x24
 801366c:	4d4b      	ldr	r5, [pc, #300]	; (801379c <bot_rx+0x2ac>)
 801366e:	f8c5 2230 	str.w	r2, [r5, #560]	; 0x230
 8013672:	494d      	ldr	r1, [pc, #308]	; (80137a8 <bot_rx+0x2b8>)
 8013674:	f105 0030 	add.w	r0, r5, #48	; 0x30
 8013678:	f7fe f972 	bl	8011960 <memcpy>
 801367c:	2301      	movs	r3, #1
 801367e:	706b      	strb	r3, [r5, #1]
 8013680:	f8d5 300a 	ldr.w	r3, [r5, #10]
 8013684:	f8d5 2230 	ldr.w	r2, [r5, #560]	; 0x230
 8013688:	1a9b      	subs	r3, r3, r2
 801368a:	f8c5 3029 	str.w	r3, [r5, #41]	; 0x29
 801368e:	2300      	movs	r3, #0
 8013690:	f885 302d 	strb.w	r3, [r5, #45]	; 0x2d
 8013694:	4620      	mov	r0, r4
 8013696:	f7ff fe83 	bl	80133a0 <bot_tx>
 801369a:	e732      	b.n	8013502 <bot_rx+0x12>
 801369c:	2224      	movs	r2, #36	; 0x24
 801369e:	2105      	movs	r1, #5
 80136a0:	4620      	mov	r0, r4
 80136a2:	f7ff ff0b 	bl	80134bc <bot_error>
 80136a6:	e72c      	b.n	8013502 <bot_rx+0x12>
 80136a8:	2224      	movs	r2, #36	; 0x24
 80136aa:	2105      	movs	r1, #5
 80136ac:	4620      	mov	r0, r4
 80136ae:	f7ff ff05 	bl	80134bc <bot_error>
 80136b2:	e726      	b.n	8013502 <bot_rx+0x12>
 80136b4:	2600      	movs	r6, #0
 80136b6:	9601      	str	r6, [sp, #4]
 80136b8:	9602      	str	r6, [sp, #8]
 80136ba:	9603      	str	r6, [sp, #12]
 80136bc:	9604      	str	r6, [sp, #16]
 80136be:	f8ad 6014 	strh.w	r6, [sp, #20]
 80136c2:	4d36      	ldr	r5, [pc, #216]	; (801379c <bot_rx+0x2ac>)
 80136c4:	7d6a      	ldrb	r2, [r5, #21]
 80136c6:	2370      	movs	r3, #112	; 0x70
 80136c8:	f88d 3004 	strb.w	r3, [sp, #4]
 80136cc:	f895 323c 	ldrb.w	r3, [r5, #572]	; 0x23c
 80136d0:	f88d 3006 	strb.w	r3, [sp, #6]
 80136d4:	230a      	movs	r3, #10
 80136d6:	f88d 300b 	strb.w	r3, [sp, #11]
 80136da:	f895 323d 	ldrb.w	r3, [r5, #573]	; 0x23d
 80136de:	f88d 3010 	strb.w	r3, [sp, #16]
 80136e2:	2a12      	cmp	r2, #18
 80136e4:	bf28      	it	cs
 80136e6:	2212      	movcs	r2, #18
 80136e8:	f8c5 2230 	str.w	r2, [r5, #560]	; 0x230
 80136ec:	a901      	add	r1, sp, #4
 80136ee:	f105 0030 	add.w	r0, r5, #48	; 0x30
 80136f2:	f7fe f935 	bl	8011960 <memcpy>
 80136f6:	2301      	movs	r3, #1
 80136f8:	706b      	strb	r3, [r5, #1]
 80136fa:	f8d5 300a 	ldr.w	r3, [r5, #10]
 80136fe:	f8d5 2230 	ldr.w	r2, [r5, #560]	; 0x230
 8013702:	1a9b      	subs	r3, r3, r2
 8013704:	f8c5 3029 	str.w	r3, [r5, #41]	; 0x29
 8013708:	f885 602d 	strb.w	r6, [r5, #45]	; 0x2d
 801370c:	4620      	mov	r0, r4
 801370e:	f7ff fe47 	bl	80133a0 <bot_tx>
 8013712:	e6f6      	b.n	8013502 <bot_rx+0x12>
 8013714:	4d21      	ldr	r5, [pc, #132]	; (801379c <bot_rx+0x2ac>)
 8013716:	2204      	movs	r2, #4
 8013718:	f8c5 2230 	str.w	r2, [r5, #560]	; 0x230
 801371c:	4923      	ldr	r1, [pc, #140]	; (80137ac <bot_rx+0x2bc>)
 801371e:	f105 0030 	add.w	r0, r5, #48	; 0x30
 8013722:	f7fe f91d 	bl	8011960 <memcpy>
 8013726:	2301      	movs	r3, #1
 8013728:	706b      	strb	r3, [r5, #1]
 801372a:	f8d5 300a 	ldr.w	r3, [r5, #10]
 801372e:	f8d5 2230 	ldr.w	r2, [r5, #560]	; 0x230
 8013732:	1a9b      	subs	r3, r3, r2
 8013734:	f8c5 3029 	str.w	r3, [r5, #41]	; 0x29
 8013738:	2300      	movs	r3, #0
 801373a:	f885 302d 	strb.w	r3, [r5, #45]	; 0x2d
 801373e:	4620      	mov	r0, r4
 8013740:	f7ff fe2e 	bl	80133a0 <bot_tx>
 8013744:	e6dd      	b.n	8013502 <bot_rx+0x12>
 8013746:	4d15      	ldr	r5, [pc, #84]	; (801379c <bot_rx+0x2ac>)
 8013748:	2208      	movs	r2, #8
 801374a:	f8c5 2230 	str.w	r2, [r5, #560]	; 0x230
 801374e:	4918      	ldr	r1, [pc, #96]	; (80137b0 <bot_rx+0x2c0>)
 8013750:	f105 0030 	add.w	r0, r5, #48	; 0x30
 8013754:	f7fe f904 	bl	8011960 <memcpy>
 8013758:	2301      	movs	r3, #1
 801375a:	706b      	strb	r3, [r5, #1]
 801375c:	f8d5 300a 	ldr.w	r3, [r5, #10]
 8013760:	f8d5 2230 	ldr.w	r2, [r5, #560]	; 0x230
 8013764:	1a9b      	subs	r3, r3, r2
 8013766:	f8c5 3029 	str.w	r3, [r5, #41]	; 0x29
 801376a:	2300      	movs	r3, #0
 801376c:	f885 302d 	strb.w	r3, [r5, #45]	; 0x2d
 8013770:	4620      	mov	r0, r4
 8013772:	f7ff fe15 	bl	80133a0 <bot_tx>
 8013776:	e6c4      	b.n	8013502 <bot_rx+0x12>
 8013778:	4b08      	ldr	r3, [pc, #32]	; (801379c <bot_rx+0x2ac>)
 801377a:	2204      	movs	r2, #4
 801377c:	705a      	strb	r2, [r3, #1]
 801377e:	2200      	movs	r2, #0
 8013780:	f883 2029 	strb.w	r2, [r3, #41]	; 0x29
 8013784:	f883 202a 	strb.w	r2, [r3, #42]	; 0x2a
 8013788:	f883 202b 	strb.w	r2, [r3, #43]	; 0x2b
 801378c:	f883 202c 	strb.w	r2, [r3, #44]	; 0x2c
 8013790:	f883 202d 	strb.w	r2, [r3, #45]	; 0x2d
 8013794:	4620      	mov	r0, r4
 8013796:	f7ff fe03 	bl	80133a0 <bot_tx>
 801379a:	e6b2      	b.n	8013502 <bot_rx+0x12>
 801379c:	20000084 	.word	0x20000084
 80137a0:	200000b4 	.word	0x200000b4
 80137a4:	43425355 	.word	0x43425355
 80137a8:	0801878c 	.word	0x0801878c
 80137ac:	080187b0 	.word	0x080187b0
 80137b0:	080187b4 	.word	0x080187b4
 80137b4:	2300      	movs	r3, #0
 80137b6:	9301      	str	r3, [sp, #4]
 80137b8:	9302      	str	r3, [sp, #8]
 80137ba:	4bbd      	ldr	r3, [pc, #756]	; (8013ab0 <bot_rx+0x5c0>)
 80137bc:	691b      	ldr	r3, [r3, #16]
 80137be:	4798      	blx	r3
 80137c0:	4601      	mov	r1, r0
 80137c2:	4abc      	ldr	r2, [pc, #752]	; (8013ab4 <bot_rx+0x5c4>)
 80137c4:	7cd0      	ldrb	r0, [r2, #19]
 80137c6:	7d13      	ldrb	r3, [r2, #20]
 80137c8:	041b      	lsls	r3, r3, #16
 80137ca:	ea43 6300 	orr.w	r3, r3, r0, lsl #24
 80137ce:	7d50      	ldrb	r0, [r2, #21]
 80137d0:	ea43 2300 	orr.w	r3, r3, r0, lsl #8
 80137d4:	7d90      	ldrb	r0, [r2, #22]
 80137d6:	4303      	orrs	r3, r0
 80137d8:	f8c2 3234 	str.w	r3, [r2, #564]	; 0x234
 80137dc:	6888      	ldr	r0, [r1, #8]
 80137de:	1e42      	subs	r2, r0, #1
 80137e0:	4293      	cmp	r3, r2
 80137e2:	d836      	bhi.n	8013852 <bot_rx+0x362>
 80137e4:	4db3      	ldr	r5, [pc, #716]	; (8013ab4 <bot_rx+0x5c4>)
 80137e6:	7e6d      	ldrb	r5, [r5, #25]
 80137e8:	f015 0f01 	tst.w	r5, #1
 80137ec:	d000      	beq.n	80137f0 <bot_rx+0x300>
 80137ee:	b3b3      	cbz	r3, 801385e <bot_rx+0x36e>
 80137f0:	0e13      	lsrs	r3, r2, #24
 80137f2:	f88d 3004 	strb.w	r3, [sp, #4]
 80137f6:	0c13      	lsrs	r3, r2, #16
 80137f8:	f88d 3005 	strb.w	r3, [sp, #5]
 80137fc:	0a12      	lsrs	r2, r2, #8
 80137fe:	f88d 2006 	strb.w	r2, [sp, #6]
 8013802:	3801      	subs	r0, #1
 8013804:	f88d 0007 	strb.w	r0, [sp, #7]
 8013808:	68cb      	ldr	r3, [r1, #12]
 801380a:	0e1a      	lsrs	r2, r3, #24
 801380c:	f88d 2008 	strb.w	r2, [sp, #8]
 8013810:	0c1a      	lsrs	r2, r3, #16
 8013812:	f88d 2009 	strb.w	r2, [sp, #9]
 8013816:	0a1a      	lsrs	r2, r3, #8
 8013818:	f88d 200a 	strb.w	r2, [sp, #10]
 801381c:	f88d 300b 	strb.w	r3, [sp, #11]
 8013820:	4da4      	ldr	r5, [pc, #656]	; (8013ab4 <bot_rx+0x5c4>)
 8013822:	2208      	movs	r2, #8
 8013824:	f8c5 2230 	str.w	r2, [r5, #560]	; 0x230
 8013828:	a901      	add	r1, sp, #4
 801382a:	f105 0030 	add.w	r0, r5, #48	; 0x30
 801382e:	f7fe f897 	bl	8011960 <memcpy>
 8013832:	2301      	movs	r3, #1
 8013834:	706b      	strb	r3, [r5, #1]
 8013836:	f8d5 300a 	ldr.w	r3, [r5, #10]
 801383a:	f8d5 2230 	ldr.w	r2, [r5, #560]	; 0x230
 801383e:	1a9b      	subs	r3, r3, r2
 8013840:	f8c5 3029 	str.w	r3, [r5, #41]	; 0x29
 8013844:	2300      	movs	r3, #0
 8013846:	f885 302d 	strb.w	r3, [r5, #45]	; 0x2d
 801384a:	4620      	mov	r0, r4
 801384c:	f7ff fda8 	bl	80133a0 <bot_tx>
 8013850:	e657      	b.n	8013502 <bot_rx+0x12>
 8013852:	2221      	movs	r2, #33	; 0x21
 8013854:	2105      	movs	r1, #5
 8013856:	4620      	mov	r0, r4
 8013858:	f7ff fe30 	bl	80134bc <bot_error>
 801385c:	e651      	b.n	8013502 <bot_rx+0x12>
 801385e:	2224      	movs	r2, #36	; 0x24
 8013860:	2105      	movs	r1, #5
 8013862:	4620      	mov	r0, r4
 8013864:	f7ff fe2a 	bl	80134bc <bot_error>
 8013868:	e64b      	b.n	8013502 <bot_rx+0x12>
 801386a:	4b91      	ldr	r3, [pc, #580]	; (8013ab0 <bot_rx+0x5c0>)
 801386c:	691b      	ldr	r3, [r3, #16]
 801386e:	4798      	blx	r3
 8013870:	4a90      	ldr	r2, [pc, #576]	; (8013ab4 <bot_rx+0x5c4>)
 8013872:	7cd1      	ldrb	r1, [r2, #19]
 8013874:	7d13      	ldrb	r3, [r2, #20]
 8013876:	041b      	lsls	r3, r3, #16
 8013878:	ea43 6301 	orr.w	r3, r3, r1, lsl #24
 801387c:	7d51      	ldrb	r1, [r2, #21]
 801387e:	ea43 2301 	orr.w	r3, r3, r1, lsl #8
 8013882:	7d91      	ldrb	r1, [r2, #22]
 8013884:	430b      	orrs	r3, r1
 8013886:	f8c2 3234 	str.w	r3, [r2, #564]	; 0x234
 801388a:	7e15      	ldrb	r5, [r2, #24]
 801388c:	7e51      	ldrb	r1, [r2, #25]
 801388e:	ea41 2105 	orr.w	r1, r1, r5, lsl #8
 8013892:	f8c2 1238 	str.w	r1, [r2, #568]	; 0x238
 8013896:	6882      	ldr	r2, [r0, #8]
 8013898:	3a01      	subs	r2, #1
 801389a:	4293      	cmp	r3, r2
 801389c:	d812      	bhi.n	80138c4 <bot_rx+0x3d4>
 801389e:	4b85      	ldr	r3, [pc, #532]	; (8013ab4 <bot_rx+0x5c4>)
 80138a0:	7c9b      	ldrb	r3, [r3, #18]
 80138a2:	f013 0fe0 	tst.w	r3, #224	; 0xe0
 80138a6:	d113      	bne.n	80138d0 <bot_rx+0x3e0>
 80138a8:	4b82      	ldr	r3, [pc, #520]	; (8013ab4 <bot_rx+0x5c4>)
 80138aa:	f8d3 200a 	ldr.w	r2, [r3, #10]
 80138ae:	68c3      	ldr	r3, [r0, #12]
 80138b0:	fb03 f101 	mul.w	r1, r3, r1
 80138b4:	428a      	cmp	r2, r1
 80138b6:	d011      	beq.n	80138dc <bot_rx+0x3ec>
 80138b8:	2220      	movs	r2, #32
 80138ba:	2105      	movs	r1, #5
 80138bc:	4620      	mov	r0, r4
 80138be:	f7ff fdfd 	bl	80134bc <bot_error>
 80138c2:	e61e      	b.n	8013502 <bot_rx+0x12>
 80138c4:	2221      	movs	r2, #33	; 0x21
 80138c6:	2105      	movs	r1, #5
 80138c8:	4620      	mov	r0, r4
 80138ca:	f7ff fdf7 	bl	80134bc <bot_error>
 80138ce:	e618      	b.n	8013502 <bot_rx+0x12>
 80138d0:	2224      	movs	r2, #36	; 0x24
 80138d2:	2105      	movs	r1, #5
 80138d4:	4620      	mov	r0, r4
 80138d6:	f7ff fdf1 	bl	80134bc <bot_error>
 80138da:	e612      	b.n	8013502 <bot_rx+0x12>
 80138dc:	4b75      	ldr	r3, [pc, #468]	; (8013ab4 <bot_rx+0x5c4>)
 80138de:	2202      	movs	r2, #2
 80138e0:	705a      	strb	r2, [r3, #1]
 80138e2:	4620      	mov	r0, r4
 80138e4:	f7ff fd5c 	bl	80133a0 <bot_tx>
 80138e8:	e60b      	b.n	8013502 <bot_rx+0x12>
 80138ea:	4b71      	ldr	r3, [pc, #452]	; (8013ab0 <bot_rx+0x5c0>)
 80138ec:	691b      	ldr	r3, [r3, #16]
 80138ee:	4798      	blx	r3
 80138f0:	4a70      	ldr	r2, [pc, #448]	; (8013ab4 <bot_rx+0x5c4>)
 80138f2:	7cd1      	ldrb	r1, [r2, #19]
 80138f4:	7d13      	ldrb	r3, [r2, #20]
 80138f6:	041b      	lsls	r3, r3, #16
 80138f8:	ea43 6301 	orr.w	r3, r3, r1, lsl #24
 80138fc:	7d51      	ldrb	r1, [r2, #21]
 80138fe:	ea43 2301 	orr.w	r3, r3, r1, lsl #8
 8013902:	7d91      	ldrb	r1, [r2, #22]
 8013904:	430b      	orrs	r3, r1
 8013906:	f8c2 3234 	str.w	r3, [r2, #564]	; 0x234
 801390a:	7e15      	ldrb	r5, [r2, #24]
 801390c:	7e51      	ldrb	r1, [r2, #25]
 801390e:	ea41 2105 	orr.w	r1, r1, r5, lsl #8
 8013912:	f8c2 1238 	str.w	r1, [r2, #568]	; 0x238
 8013916:	6882      	ldr	r2, [r0, #8]
 8013918:	3a01      	subs	r2, #1
 801391a:	4293      	cmp	r3, r2
 801391c:	d813      	bhi.n	8013946 <bot_rx+0x456>
 801391e:	4b65      	ldr	r3, [pc, #404]	; (8013ab4 <bot_rx+0x5c4>)
 8013920:	7c9b      	ldrb	r3, [r3, #18]
 8013922:	f013 0fe0 	tst.w	r3, #224	; 0xe0
 8013926:	d114      	bne.n	8013952 <bot_rx+0x462>
 8013928:	4b62      	ldr	r3, [pc, #392]	; (8013ab4 <bot_rx+0x5c4>)
 801392a:	f8d3 200a 	ldr.w	r2, [r3, #10]
 801392e:	68c3      	ldr	r3, [r0, #12]
 8013930:	fb03 f101 	mul.w	r1, r3, r1
 8013934:	428a      	cmp	r2, r1
 8013936:	d112      	bne.n	801395e <bot_rx+0x46e>
 8013938:	4b5e      	ldr	r3, [pc, #376]	; (8013ab4 <bot_rx+0x5c4>)
 801393a:	2200      	movs	r2, #0
 801393c:	f8c3 2230 	str.w	r2, [r3, #560]	; 0x230
 8013940:	2203      	movs	r2, #3
 8013942:	705a      	strb	r2, [r3, #1]
 8013944:	e5dd      	b.n	8013502 <bot_rx+0x12>
 8013946:	2221      	movs	r2, #33	; 0x21
 8013948:	2105      	movs	r1, #5
 801394a:	4620      	mov	r0, r4
 801394c:	f7ff fdb6 	bl	80134bc <bot_error>
 8013950:	e5d7      	b.n	8013502 <bot_rx+0x12>
 8013952:	2224      	movs	r2, #36	; 0x24
 8013954:	2105      	movs	r1, #5
 8013956:	4620      	mov	r0, r4
 8013958:	f7ff fdb0 	bl	80134bc <bot_error>
 801395c:	e5d1      	b.n	8013502 <bot_rx+0x12>
 801395e:	2220      	movs	r2, #32
 8013960:	2105      	movs	r1, #5
 8013962:	4620      	mov	r0, r4
 8013964:	f7ff fdaa 	bl	80134bc <bot_error>
 8013968:	e5cb      	b.n	8013502 <bot_rx+0x12>
 801396a:	4b51      	ldr	r3, [pc, #324]	; (8013ab0 <bot_rx+0x5c0>)
 801396c:	691b      	ldr	r3, [r3, #16]
 801396e:	4798      	blx	r3
 8013970:	4a50      	ldr	r2, [pc, #320]	; (8013ab4 <bot_rx+0x5c4>)
 8013972:	7cd1      	ldrb	r1, [r2, #19]
 8013974:	7d13      	ldrb	r3, [r2, #20]
 8013976:	041b      	lsls	r3, r3, #16
 8013978:	ea43 6301 	orr.w	r3, r3, r1, lsl #24
 801397c:	7d51      	ldrb	r1, [r2, #21]
 801397e:	ea43 2301 	orr.w	r3, r3, r1, lsl #8
 8013982:	7d91      	ldrb	r1, [r2, #22]
 8013984:	430b      	orrs	r3, r1
 8013986:	f8c2 3234 	str.w	r3, [r2, #564]	; 0x234
 801398a:	6882      	ldr	r2, [r0, #8]
 801398c:	3a01      	subs	r2, #1
 801398e:	4293      	cmp	r3, r2
 8013990:	d80a      	bhi.n	80139a8 <bot_rx+0x4b8>
 8013992:	4b48      	ldr	r3, [pc, #288]	; (8013ab4 <bot_rx+0x5c4>)
 8013994:	7c9b      	ldrb	r3, [r3, #18]
 8013996:	f013 0f02 	tst.w	r3, #2
 801399a:	d00b      	beq.n	80139b4 <bot_rx+0x4c4>
 801399c:	2224      	movs	r2, #36	; 0x24
 801399e:	2105      	movs	r1, #5
 80139a0:	4620      	mov	r0, r4
 80139a2:	f7ff fd8b 	bl	80134bc <bot_error>
 80139a6:	e5ac      	b.n	8013502 <bot_rx+0x12>
 80139a8:	2221      	movs	r2, #33	; 0x21
 80139aa:	2105      	movs	r1, #5
 80139ac:	4620      	mov	r0, r4
 80139ae:	f7ff fd85 	bl	80134bc <bot_error>
 80139b2:	e5a6      	b.n	8013502 <bot_rx+0x12>
 80139b4:	4b3f      	ldr	r3, [pc, #252]	; (8013ab4 <bot_rx+0x5c4>)
 80139b6:	2204      	movs	r2, #4
 80139b8:	705a      	strb	r2, [r3, #1]
 80139ba:	2200      	movs	r2, #0
 80139bc:	f883 2029 	strb.w	r2, [r3, #41]	; 0x29
 80139c0:	f883 202a 	strb.w	r2, [r3, #42]	; 0x2a
 80139c4:	f883 202b 	strb.w	r2, [r3, #43]	; 0x2b
 80139c8:	f883 202c 	strb.w	r2, [r3, #44]	; 0x2c
 80139cc:	f883 202d 	strb.w	r2, [r3, #45]	; 0x2d
 80139d0:	4620      	mov	r0, r4
 80139d2:	f7ff fce5 	bl	80133a0 <bot_tx>
 80139d6:	e594      	b.n	8013502 <bot_rx+0x12>
 80139d8:	2700      	movs	r7, #0
 80139da:	9701      	str	r7, [sp, #4]
 80139dc:	9702      	str	r7, [sp, #8]
 80139de:	9703      	str	r7, [sp, #12]
 80139e0:	4d34      	ldr	r5, [pc, #208]	; (8013ab4 <bot_rx+0x5c4>)
 80139e2:	7e2e      	ldrb	r6, [r5, #24]
 80139e4:	7e6a      	ldrb	r2, [r5, #25]
 80139e6:	ea42 2606 	orr.w	r6, r2, r6, lsl #8
 80139ea:	4b31      	ldr	r3, [pc, #196]	; (8013ab0 <bot_rx+0x5c0>)
 80139ec:	691b      	ldr	r3, [r3, #16]
 80139ee:	4798      	blx	r3
 80139f0:	2208      	movs	r2, #8
 80139f2:	f88d 2007 	strb.w	r2, [sp, #7]
 80139f6:	6882      	ldr	r2, [r0, #8]
 80139f8:	0e11      	lsrs	r1, r2, #24
 80139fa:	f88d 1008 	strb.w	r1, [sp, #8]
 80139fe:	0c11      	lsrs	r1, r2, #16
 8013a00:	f88d 1009 	strb.w	r1, [sp, #9]
 8013a04:	0a11      	lsrs	r1, r2, #8
 8013a06:	f88d 100a 	strb.w	r1, [sp, #10]
 8013a0a:	f88d 200b 	strb.w	r2, [sp, #11]
 8013a0e:	2202      	movs	r2, #2
 8013a10:	f88d 200c 	strb.w	r2, [sp, #12]
 8013a14:	68c3      	ldr	r3, [r0, #12]
 8013a16:	0c1a      	lsrs	r2, r3, #16
 8013a18:	f88d 200d 	strb.w	r2, [sp, #13]
 8013a1c:	0a1a      	lsrs	r2, r3, #8
 8013a1e:	f88d 200e 	strb.w	r2, [sp, #14]
 8013a22:	f88d 300f 	strb.w	r3, [sp, #15]
 8013a26:	4632      	mov	r2, r6
 8013a28:	2e0c      	cmp	r6, #12
 8013a2a:	bf28      	it	cs
 8013a2c:	220c      	movcs	r2, #12
 8013a2e:	f8c5 2230 	str.w	r2, [r5, #560]	; 0x230
 8013a32:	a901      	add	r1, sp, #4
 8013a34:	f105 0030 	add.w	r0, r5, #48	; 0x30
 8013a38:	f7fd ff92 	bl	8011960 <memcpy>
 8013a3c:	2301      	movs	r3, #1
 8013a3e:	706b      	strb	r3, [r5, #1]
 8013a40:	f8d5 300a 	ldr.w	r3, [r5, #10]
 8013a44:	f8d5 2230 	ldr.w	r2, [r5, #560]	; 0x230
 8013a48:	1a9b      	subs	r3, r3, r2
 8013a4a:	f8c5 3029 	str.w	r3, [r5, #41]	; 0x29
 8013a4e:	f885 702d 	strb.w	r7, [r5, #45]	; 0x2d
 8013a52:	4620      	mov	r0, r4
 8013a54:	f7ff fca4 	bl	80133a0 <bot_tx>
 8013a58:	e553      	b.n	8013502 <bot_rx+0x12>
 8013a5a:	4b16      	ldr	r3, [pc, #88]	; (8013ab4 <bot_rx+0x5c4>)
 8013a5c:	2204      	movs	r2, #4
 8013a5e:	705a      	strb	r2, [r3, #1]
 8013a60:	2200      	movs	r2, #0
 8013a62:	f883 2029 	strb.w	r2, [r3, #41]	; 0x29
 8013a66:	f883 202a 	strb.w	r2, [r3, #42]	; 0x2a
 8013a6a:	f883 202b 	strb.w	r2, [r3, #43]	; 0x2b
 8013a6e:	f883 202c 	strb.w	r2, [r3, #44]	; 0x2c
 8013a72:	f883 202d 	strb.w	r2, [r3, #45]	; 0x2d
 8013a76:	4620      	mov	r0, r4
 8013a78:	f7ff fc92 	bl	80133a0 <bot_tx>
 8013a7c:	e541      	b.n	8013502 <bot_rx+0x12>
 8013a7e:	4b0d      	ldr	r3, [pc, #52]	; (8013ab4 <bot_rx+0x5c4>)
 8013a80:	2204      	movs	r2, #4
 8013a82:	705a      	strb	r2, [r3, #1]
 8013a84:	2200      	movs	r2, #0
 8013a86:	f883 2029 	strb.w	r2, [r3, #41]	; 0x29
 8013a8a:	f883 202a 	strb.w	r2, [r3, #42]	; 0x2a
 8013a8e:	f883 202b 	strb.w	r2, [r3, #43]	; 0x2b
 8013a92:	f883 202c 	strb.w	r2, [r3, #44]	; 0x2c
 8013a96:	f883 202d 	strb.w	r2, [r3, #45]	; 0x2d
 8013a9a:	4620      	mov	r0, r4
 8013a9c:	f7ff fc80 	bl	80133a0 <bot_tx>
 8013aa0:	e52f      	b.n	8013502 <bot_rx+0x12>
 8013aa2:	2220      	movs	r2, #32
 8013aa4:	2105      	movs	r1, #5
 8013aa6:	4620      	mov	r0, r4
 8013aa8:	f7ff fd08 	bl	80134bc <bot_error>
 8013aac:	e529      	b.n	8013502 <bot_rx+0x12>
 8013aae:	bf00      	nop
 8013ab0:	0801892c 	.word	0x0801892c
 8013ab4:	20000084 	.word	0x20000084
 8013ab8:	4d1f      	ldr	r5, [pc, #124]	; (8013b38 <bot_rx+0x648>)
 8013aba:	f8d5 1230 	ldr.w	r1, [r5, #560]	; 0x230
 8013abe:	f105 0030 	add.w	r0, r5, #48	; 0x30
 8013ac2:	6823      	ldr	r3, [r4, #0]
 8013ac4:	699b      	ldr	r3, [r3, #24]
 8013ac6:	2240      	movs	r2, #64	; 0x40
 8013ac8:	4401      	add	r1, r0
 8013aca:	2001      	movs	r0, #1
 8013acc:	4798      	blx	r3
 8013ace:	f8d5 3230 	ldr.w	r3, [r5, #560]	; 0x230
 8013ad2:	4418      	add	r0, r3
 8013ad4:	f8c5 0230 	str.w	r0, [r5, #560]	; 0x230
 8013ad8:	f5b0 7f00 	cmp.w	r0, #512	; 0x200
 8013adc:	f47f ad11 	bne.w	8013502 <bot_rx+0x12>
 8013ae0:	4b16      	ldr	r3, [pc, #88]	; (8013b3c <bot_rx+0x64c>)
 8013ae2:	68db      	ldr	r3, [r3, #12]
 8013ae4:	4814      	ldr	r0, [pc, #80]	; (8013b38 <bot_rx+0x648>)
 8013ae6:	2201      	movs	r2, #1
 8013ae8:	f8d0 1234 	ldr.w	r1, [r0, #564]	; 0x234
 8013aec:	3030      	adds	r0, #48	; 0x30
 8013aee:	4798      	blx	r3
 8013af0:	280b      	cmp	r0, #11
 8013af2:	d0f5      	beq.n	8013ae0 <bot_rx+0x5f0>
 8013af4:	4b10      	ldr	r3, [pc, #64]	; (8013b38 <bot_rx+0x648>)
 8013af6:	2200      	movs	r2, #0
 8013af8:	f8c3 2230 	str.w	r2, [r3, #560]	; 0x230
 8013afc:	f8d3 2234 	ldr.w	r2, [r3, #564]	; 0x234
 8013b00:	3201      	adds	r2, #1
 8013b02:	f8c3 2234 	str.w	r2, [r3, #564]	; 0x234
 8013b06:	f8d3 2238 	ldr.w	r2, [r3, #568]	; 0x238
 8013b0a:	3a01      	subs	r2, #1
 8013b0c:	f8c3 2238 	str.w	r2, [r3, #568]	; 0x238
 8013b10:	2a00      	cmp	r2, #0
 8013b12:	f47f acf6 	bne.w	8013502 <bot_rx+0x12>
 8013b16:	2204      	movs	r2, #4
 8013b18:	705a      	strb	r2, [r3, #1]
 8013b1a:	2200      	movs	r2, #0
 8013b1c:	f883 2029 	strb.w	r2, [r3, #41]	; 0x29
 8013b20:	f883 202a 	strb.w	r2, [r3, #42]	; 0x2a
 8013b24:	f883 202b 	strb.w	r2, [r3, #43]	; 0x2b
 8013b28:	f883 202c 	strb.w	r2, [r3, #44]	; 0x2c
 8013b2c:	f883 202d 	strb.w	r2, [r3, #45]	; 0x2d
 8013b30:	4620      	mov	r0, r4
 8013b32:	f7ff fc35 	bl	80133a0 <bot_tx>
 8013b36:	e4e4      	b.n	8013502 <bot_rx+0x12>
 8013b38:	20000084 	.word	0x20000084
 8013b3c:	0801892c 	.word	0x0801892c

08013b40 <bot_callback>:
 8013b40:	b508      	push	{r3, lr}
 8013b42:	2904      	cmp	r1, #4
 8013b44:	d002      	beq.n	8013b4c <bot_callback+0xc>
 8013b46:	2905      	cmp	r1, #5
 8013b48:	d003      	beq.n	8013b52 <bot_callback+0x12>
 8013b4a:	bd08      	pop	{r3, pc}
 8013b4c:	f7ff fc28 	bl	80133a0 <bot_tx>
 8013b50:	e7fb      	b.n	8013b4a <bot_callback+0xa>
 8013b52:	f7ff fccd 	bl	80134f0 <bot_rx>
 8013b56:	e7f8      	b.n	8013b4a <bot_callback+0xa>

08013b58 <msc_control>:
 8013b58:	b508      	push	{r3, lr}
 8013b5a:	780b      	ldrb	r3, [r1, #0]
 8013b5c:	f003 0363 	and.w	r3, r3, #99	; 0x63
 8013b60:	2b21      	cmp	r3, #33	; 0x21
 8013b62:	d118      	bne.n	8013b96 <msc_control+0x3e>
 8013b64:	784b      	ldrb	r3, [r1, #1]
 8013b66:	2bfe      	cmp	r3, #254	; 0xfe
 8013b68:	d006      	beq.n	8013b78 <msc_control+0x20>
 8013b6a:	2bff      	cmp	r3, #255	; 0xff
 8013b6c:	d00b      	beq.n	8013b86 <msc_control+0x2e>
 8013b6e:	480b      	ldr	r0, [pc, #44]	; (8013b9c <msc_control+0x44>)
 8013b70:	f7fd fdd4 	bl	801171c <kprintf>
 8013b74:	2000      	movs	r0, #0
 8013b76:	e00f      	b.n	8013b98 <msc_control+0x40>
 8013b78:	4b09      	ldr	r3, [pc, #36]	; (8013ba0 <msc_control+0x48>)
 8013b7a:	6583      	str	r3, [r0, #88]	; 0x58
 8013b7c:	2301      	movs	r3, #1
 8013b7e:	f8a0 305c 	strh.w	r3, [r0, #92]	; 0x5c
 8013b82:	4618      	mov	r0, r3
 8013b84:	e008      	b.n	8013b98 <msc_control+0x40>
 8013b86:	f44f 7210 	mov.w	r2, #576	; 0x240
 8013b8a:	2100      	movs	r1, #0
 8013b8c:	4804      	ldr	r0, [pc, #16]	; (8013ba0 <msc_control+0x48>)
 8013b8e:	f7fd fee0 	bl	8011952 <memset>
 8013b92:	2001      	movs	r0, #1
 8013b94:	e000      	b.n	8013b98 <msc_control+0x40>
 8013b96:	2000      	movs	r0, #0
 8013b98:	bd08      	pop	{r3, pc}
 8013b9a:	bf00      	nop
 8013b9c:	08018a64 	.word	0x08018a64
 8013ba0:	20000084 	.word	0x20000084

08013ba4 <check_msc>:
 8013ba4:	b510      	push	{r4, lr}
 8013ba6:	2100      	movs	r1, #0
 8013ba8:	481a      	ldr	r0, [pc, #104]	; (8013c14 <check_msc+0x70>)
 8013baa:	f7fe fda9 	bl	8012700 <hw_get_pin>
 8013bae:	2800      	cmp	r0, #0
 8013bb0:	d12f      	bne.n	8013c12 <check_msc+0x6e>
 8013bb2:	4c19      	ldr	r4, [pc, #100]	; (8013c18 <check_msc+0x74>)
 8013bb4:	6823      	ldr	r3, [r4, #0]
 8013bb6:	4798      	blx	r3
 8013bb8:	6863      	ldr	r3, [r4, #4]
 8013bba:	4798      	blx	r3
 8013bbc:	6923      	ldr	r3, [r4, #16]
 8013bbe:	4798      	blx	r3
 8013bc0:	4c16      	ldr	r4, [pc, #88]	; (8013c1c <check_msc+0x78>)
 8013bc2:	f504 7010 	add.w	r0, r4, #576	; 0x240
 8013bc6:	f7fe fdad 	bl	8012724 <usbd_hw_init>
 8013bca:	4b15      	ldr	r3, [pc, #84]	; (8013c20 <check_msc+0x7c>)
 8013bcc:	f8c4 3240 	str.w	r3, [r4, #576]	; 0x240
 8013bd0:	2240      	movs	r2, #64	; 0x40
 8013bd2:	f884 22a0 	strb.w	r2, [r4, #672]	; 0x2a0
 8013bd6:	f504 7229 	add.w	r2, r4, #676	; 0x2a4
 8013bda:	f8c4 2298 	str.w	r2, [r4, #664]	; 0x298
 8013bde:	f8c4 2294 	str.w	r2, [r4, #660]	; 0x294
 8013be2:	2218      	movs	r2, #24
 8013be4:	f8a4 229e 	strh.w	r2, [r4, #670]	; 0x29e
 8013be8:	4a0e      	ldr	r2, [pc, #56]	; (8013c24 <check_msc+0x80>)
 8013bea:	f8c4 2244 	str.w	r2, [r4, #580]	; 0x244
 8013bee:	4a0e      	ldr	r2, [pc, #56]	; (8013c28 <check_msc+0x84>)
 8013bf0:	f8c4 224c 	str.w	r2, [r4, #588]	; 0x24c
 8013bf4:	4a0d      	ldr	r2, [pc, #52]	; (8013c2c <check_msc+0x88>)
 8013bf6:	f8c4 2250 	str.w	r2, [r4, #592]	; 0x250
 8013bfa:	685b      	ldr	r3, [r3, #4]
 8013bfc:	2001      	movs	r0, #1
 8013bfe:	4798      	blx	r3
 8013c00:	f8d4 3240 	ldr.w	r3, [r4, #576]	; 0x240
 8013c04:	689b      	ldr	r3, [r3, #8]
 8013c06:	2001      	movs	r0, #1
 8013c08:	4798      	blx	r3
 8013c0a:	4809      	ldr	r0, [pc, #36]	; (8013c30 <check_msc+0x8c>)
 8013c0c:	f7fe ff8d 	bl	8012b2a <usbd_poll>
 8013c10:	e7fb      	b.n	8013c0a <check_msc+0x66>
 8013c12:	bd10      	pop	{r4, pc}
 8013c14:	40020000 	.word	0x40020000
 8013c18:	0801892c 	.word	0x0801892c
 8013c1c:	20000084 	.word	0x20000084
 8013c20:	08018718 	.word	0x08018718
 8013c24:	08013b59 	.word	0x08013b59
 8013c28:	080132f9 	.word	0x080132f9
 8013c2c:	08013349 	.word	0x08013349
 8013c30:	200002c4 	.word	0x200002c4

08013c34 <cdc_getdesc>:
 8013c34:	8843      	ldrh	r3, [r0, #2]
 8013c36:	0a18      	lsrs	r0, r3, #8
 8013c38:	b2db      	uxtb	r3, r3
 8013c3a:	2802      	cmp	r0, #2
 8013c3c:	d012      	beq.n	8013c64 <cdc_getdesc+0x30>
 8013c3e:	2803      	cmp	r0, #3
 8013c40:	d003      	beq.n	8013c4a <cdc_getdesc+0x16>
 8013c42:	2801      	cmp	r0, #1
 8013c44:	d008      	beq.n	8013c58 <cdc_getdesc+0x24>
 8013c46:	2000      	movs	r0, #0
 8013c48:	4770      	bx	lr
 8013c4a:	2b02      	cmp	r3, #2
 8013c4c:	d80d      	bhi.n	8013c6a <cdc_getdesc+0x36>
 8013c4e:	4808      	ldr	r0, [pc, #32]	; (8013c70 <cdc_getdesc+0x3c>)
 8013c50:	eb00 0383 	add.w	r3, r0, r3, lsl #2
 8013c54:	6e1b      	ldr	r3, [r3, #96]	; 0x60
 8013c56:	e000      	b.n	8013c5a <cdc_getdesc+0x26>
 8013c58:	4b05      	ldr	r3, [pc, #20]	; (8013c70 <cdc_getdesc+0x3c>)
 8013c5a:	7818      	ldrb	r0, [r3, #0]
 8013c5c:	600b      	str	r3, [r1, #0]
 8013c5e:	8010      	strh	r0, [r2, #0]
 8013c60:	2001      	movs	r0, #1
 8013c62:	4770      	bx	lr
 8013c64:	4b03      	ldr	r3, [pc, #12]	; (8013c74 <cdc_getdesc+0x40>)
 8013c66:	204b      	movs	r0, #75	; 0x4b
 8013c68:	e7f8      	b.n	8013c5c <cdc_getdesc+0x28>
 8013c6a:	2000      	movs	r0, #0
 8013c6c:	4770      	bx	lr
 8013c6e:	bf00      	nop
 8013c70:	0801881c 	.word	0x0801881c
 8013c74:	08018830 	.word	0x08018830

08013c78 <cdc_loopback>:
 8013c78:	b510      	push	{r4, lr}
 8013c7a:	b672      	cpsid	i
 8013c7c:	6803      	ldr	r3, [r0, #0]
 8013c7e:	699b      	ldr	r3, [r3, #24]
 8013c80:	2240      	movs	r2, #64	; 0x40
 8013c82:	490f      	ldr	r1, [pc, #60]	; (8013cc0 <cdc_loopback+0x48>)
 8013c84:	2001      	movs	r0, #1
 8013c86:	4798      	blx	r3
 8013c88:	4b0e      	ldr	r3, [pc, #56]	; (8013cc4 <cdc_loopback+0x4c>)
 8013c8a:	6018      	str	r0, [r3, #0]
 8013c8c:	2200      	movs	r2, #0
 8013c8e:	e009      	b.n	8013ca4 <cdc_loopback+0x2c>
 8013c90:	490d      	ldr	r1, [pc, #52]	; (8013cc8 <cdc_loopback+0x50>)
 8013c92:	700b      	strb	r3, [r1, #0]
 8013c94:	490a      	ldr	r1, [pc, #40]	; (8013cc0 <cdc_loopback+0x48>)
 8013c96:	5c8c      	ldrb	r4, [r1, r2]
 8013c98:	490c      	ldr	r1, [pc, #48]	; (8013ccc <cdc_loopback+0x54>)
 8013c9a:	54cc      	strb	r4, [r1, r3]
 8013c9c:	4b0c      	ldr	r3, [pc, #48]	; (8013cd0 <cdc_loopback+0x58>)
 8013c9e:	2102      	movs	r1, #2
 8013ca0:	7019      	strb	r1, [r3, #0]
 8013ca2:	3201      	adds	r2, #1
 8013ca4:	4282      	cmp	r2, r0
 8013ca6:	da09      	bge.n	8013cbc <cdc_loopback+0x44>
 8013ca8:	4b07      	ldr	r3, [pc, #28]	; (8013cc8 <cdc_loopback+0x50>)
 8013caa:	781b      	ldrb	r3, [r3, #0]
 8013cac:	3301      	adds	r3, #1
 8013cae:	f003 033f 	and.w	r3, r3, #63	; 0x3f
 8013cb2:	4908      	ldr	r1, [pc, #32]	; (8013cd4 <cdc_loopback+0x5c>)
 8013cb4:	7809      	ldrb	r1, [r1, #0]
 8013cb6:	4299      	cmp	r1, r3
 8013cb8:	d1ea      	bne.n	8013c90 <cdc_loopback+0x18>
 8013cba:	e7ef      	b.n	8013c9c <cdc_loopback+0x24>
 8013cbc:	b662      	cpsie	i
 8013cbe:	bd10      	pop	{r4, pc}
 8013cc0:	200010d8 	.word	0x200010d8
 8013cc4:	20001360 	.word	0x20001360
 8013cc8:	2000135b 	.word	0x2000135b
 8013ccc:	20001034 	.word	0x20001034
 8013cd0:	2000135a 	.word	0x2000135a
 8013cd4:	20001358 	.word	0x20001358

08013cd8 <cdc_setconf>:
 8013cd8:	b538      	push	{r3, r4, r5, lr}
 8013cda:	4604      	mov	r4, r0
 8013cdc:	b121      	cbz	r1, 8013ce8 <cdc_setconf+0x10>
 8013cde:	460d      	mov	r5, r1
 8013ce0:	2901      	cmp	r1, #1
 8013ce2:	d011      	beq.n	8013d08 <cdc_setconf+0x30>
 8013ce4:	2000      	movs	r0, #0
 8013ce6:	bd38      	pop	{r3, r4, r5, pc}
 8013ce8:	6803      	ldr	r3, [r0, #0]
 8013cea:	695b      	ldr	r3, [r3, #20]
 8013cec:	2082      	movs	r0, #130	; 0x82
 8013cee:	4798      	blx	r3
 8013cf0:	6823      	ldr	r3, [r4, #0]
 8013cf2:	695b      	ldr	r3, [r3, #20]
 8013cf4:	2081      	movs	r0, #129	; 0x81
 8013cf6:	4798      	blx	r3
 8013cf8:	6823      	ldr	r3, [r4, #0]
 8013cfa:	695b      	ldr	r3, [r3, #20]
 8013cfc:	2001      	movs	r0, #1
 8013cfe:	4798      	blx	r3
 8013d00:	2300      	movs	r3, #0
 8013d02:	63a3      	str	r3, [r4, #56]	; 0x38
 8013d04:	2001      	movs	r0, #1
 8013d06:	e7ee      	b.n	8013ce6 <cdc_setconf+0xe>
 8013d08:	6803      	ldr	r3, [r0, #0]
 8013d0a:	691b      	ldr	r3, [r3, #16]
 8013d0c:	2240      	movs	r2, #64	; 0x40
 8013d0e:	2102      	movs	r1, #2
 8013d10:	2001      	movs	r0, #1
 8013d12:	4798      	blx	r3
 8013d14:	6823      	ldr	r3, [r4, #0]
 8013d16:	691b      	ldr	r3, [r3, #16]
 8013d18:	2240      	movs	r2, #64	; 0x40
 8013d1a:	2102      	movs	r1, #2
 8013d1c:	2081      	movs	r0, #129	; 0x81
 8013d1e:	4798      	blx	r3
 8013d20:	6823      	ldr	r3, [r4, #0]
 8013d22:	691b      	ldr	r3, [r3, #16]
 8013d24:	2208      	movs	r2, #8
 8013d26:	2103      	movs	r1, #3
 8013d28:	2082      	movs	r0, #130	; 0x82
 8013d2a:	4798      	blx	r3
 8013d2c:	4b01      	ldr	r3, [pc, #4]	; (8013d34 <cdc_setconf+0x5c>)
 8013d2e:	63a3      	str	r3, [r4, #56]	; 0x38
 8013d30:	4628      	mov	r0, r5
 8013d32:	e7d8      	b.n	8013ce6 <cdc_setconf+0xe>
 8013d34:	08013c79 	.word	0x08013c79

08013d38 <cdc_control>:
 8013d38:	b508      	push	{r3, lr}
 8013d3a:	780b      	ldrb	r3, [r1, #0]
 8013d3c:	f003 0363 	and.w	r3, r3, #99	; 0x63
 8013d40:	2b21      	cmp	r3, #33	; 0x21
 8013d42:	d001      	beq.n	8013d48 <cdc_control+0x10>
 8013d44:	2000      	movs	r0, #0
 8013d46:	bd08      	pop	{r3, pc}
 8013d48:	888b      	ldrh	r3, [r1, #4]
 8013d4a:	b9b3      	cbnz	r3, 8013d7a <cdc_control+0x42>
 8013d4c:	784b      	ldrb	r3, [r1, #1]
 8013d4e:	2b21      	cmp	r3, #33	; 0x21
 8013d50:	d00c      	beq.n	8013d6c <cdc_control+0x34>
 8013d52:	2b22      	cmp	r3, #34	; 0x22
 8013d54:	d013      	beq.n	8013d7e <cdc_control+0x46>
 8013d56:	2b20      	cmp	r3, #32
 8013d58:	d001      	beq.n	8013d5e <cdc_control+0x26>
 8013d5a:	2000      	movs	r0, #0
 8013d5c:	e7f3      	b.n	8013d46 <cdc_control+0xe>
 8013d5e:	2207      	movs	r2, #7
 8013d60:	3108      	adds	r1, #8
 8013d62:	4808      	ldr	r0, [pc, #32]	; (8013d84 <cdc_control+0x4c>)
 8013d64:	f7fd fdfc 	bl	8011960 <memcpy>
 8013d68:	2001      	movs	r0, #1
 8013d6a:	e7ec      	b.n	8013d46 <cdc_control+0xe>
 8013d6c:	4b05      	ldr	r3, [pc, #20]	; (8013d84 <cdc_control+0x4c>)
 8013d6e:	6583      	str	r3, [r0, #88]	; 0x58
 8013d70:	2307      	movs	r3, #7
 8013d72:	f8a0 305c 	strh.w	r3, [r0, #92]	; 0x5c
 8013d76:	2001      	movs	r0, #1
 8013d78:	e7e5      	b.n	8013d46 <cdc_control+0xe>
 8013d7a:	2000      	movs	r0, #0
 8013d7c:	e7e3      	b.n	8013d46 <cdc_control+0xe>
 8013d7e:	2001      	movs	r0, #1
 8013d80:	e7e1      	b.n	8013d46 <cdc_control+0xe>
 8013d82:	bf00      	nop
 8013d84:	20000000 	.word	0x20000000

08013d88 <usb_available>:
 8013d88:	4b03      	ldr	r3, [pc, #12]	; (8013d98 <usb_available+0x10>)
 8013d8a:	7818      	ldrb	r0, [r3, #0]
 8013d8c:	4b03      	ldr	r3, [pc, #12]	; (8013d9c <usb_available+0x14>)
 8013d8e:	781b      	ldrb	r3, [r3, #0]
 8013d90:	1ac0      	subs	r0, r0, r3
 8013d92:	f000 003f 	and.w	r0, r0, #63	; 0x3f
 8013d96:	4770      	bx	lr
 8013d98:	2000135b 	.word	0x2000135b
 8013d9c:	20001358 	.word	0x20001358

08013da0 <usb_getc>:
 8013da0:	4b0a      	ldr	r3, [pc, #40]	; (8013dcc <usb_getc+0x2c>)
 8013da2:	781a      	ldrb	r2, [r3, #0]
 8013da4:	4b0a      	ldr	r3, [pc, #40]	; (8013dd0 <usb_getc+0x30>)
 8013da6:	781b      	ldrb	r3, [r3, #0]
 8013da8:	429a      	cmp	r2, r3
 8013daa:	d00c      	beq.n	8013dc6 <usb_getc+0x26>
 8013dac:	3301      	adds	r3, #1
 8013dae:	f003 033f 	and.w	r3, r3, #63	; 0x3f
 8013db2:	4a07      	ldr	r2, [pc, #28]	; (8013dd0 <usb_getc+0x30>)
 8013db4:	7013      	strb	r3, [r2, #0]
 8013db6:	4a07      	ldr	r2, [pc, #28]	; (8013dd4 <usb_getc+0x34>)
 8013db8:	5cd0      	ldrb	r0, [r2, r3]
 8013dba:	4b07      	ldr	r3, [pc, #28]	; (8013dd8 <usb_getc+0x38>)
 8013dbc:	781b      	ldrb	r3, [r3, #0]
 8013dbe:	eb00 2003 	add.w	r0, r0, r3, lsl #8
 8013dc2:	b280      	uxth	r0, r0
 8013dc4:	4770      	bx	lr
 8013dc6:	f44f 7080 	mov.w	r0, #256	; 0x100
 8013dca:	4770      	bx	lr
 8013dcc:	2000135b 	.word	0x2000135b
 8013dd0:	20001358 	.word	0x20001358
 8013dd4:	20001034 	.word	0x20001034
 8013dd8:	2000135a 	.word	0x2000135a

08013ddc <cdc_init_usbd>:
 8013ddc:	b510      	push	{r4, lr}
 8013dde:	4c11      	ldr	r4, [pc, #68]	; (8013e24 <cdc_init_usbd+0x48>)
 8013de0:	4b11      	ldr	r3, [pc, #68]	; (8013e28 <cdc_init_usbd+0x4c>)
 8013de2:	6023      	str	r3, [r4, #0]
 8013de4:	2208      	movs	r2, #8
 8013de6:	f884 2060 	strb.w	r2, [r4, #96]	; 0x60
 8013dea:	4a10      	ldr	r2, [pc, #64]	; (8013e2c <cdc_init_usbd+0x50>)
 8013dec:	65a2      	str	r2, [r4, #88]	; 0x58
 8013dee:	6562      	str	r2, [r4, #84]	; 0x54
 8013df0:	2278      	movs	r2, #120	; 0x78
 8013df2:	f8a4 205e 	strh.w	r2, [r4, #94]	; 0x5e
 8013df6:	4a0e      	ldr	r2, [pc, #56]	; (8013e30 <cdc_init_usbd+0x54>)
 8013df8:	60e2      	str	r2, [r4, #12]
 8013dfa:	4a0e      	ldr	r2, [pc, #56]	; (8013e34 <cdc_init_usbd+0x58>)
 8013dfc:	6062      	str	r2, [r4, #4]
 8013dfe:	4a0e      	ldr	r2, [pc, #56]	; (8013e38 <cdc_init_usbd+0x5c>)
 8013e00:	6122      	str	r2, [r4, #16]
 8013e02:	685b      	ldr	r3, [r3, #4]
 8013e04:	2001      	movs	r0, #1
 8013e06:	4798      	blx	r3
 8013e08:	6823      	ldr	r3, [r4, #0]
 8013e0a:	689b      	ldr	r3, [r3, #8]
 8013e0c:	2001      	movs	r0, #1
 8013e0e:	4798      	blx	r3
 8013e10:	2300      	movs	r3, #0
 8013e12:	4a0a      	ldr	r2, [pc, #40]	; (8013e3c <cdc_init_usbd+0x60>)
 8013e14:	7013      	strb	r3, [r2, #0]
 8013e16:	4a0a      	ldr	r2, [pc, #40]	; (8013e40 <cdc_init_usbd+0x64>)
 8013e18:	7013      	strb	r3, [r2, #0]
 8013e1a:	4a0a      	ldr	r2, [pc, #40]	; (8013e44 <cdc_init_usbd+0x68>)
 8013e1c:	7013      	strb	r3, [r2, #0]
 8013e1e:	4a0a      	ldr	r2, [pc, #40]	; (8013e48 <cdc_init_usbd+0x6c>)
 8013e20:	7013      	strb	r3, [r2, #0]
 8013e22:	bd10      	pop	{r4, pc}
 8013e24:	20001074 	.word	0x20001074
 8013e28:	08018718 	.word	0x08018718
 8013e2c:	200012d8 	.word	0x200012d8
 8013e30:	08013cd9 	.word	0x08013cd9
 8013e34:	08013d39 	.word	0x08013d39
 8013e38:	08013c35 	.word	0x08013c35
 8013e3c:	2000135c 	.word	0x2000135c
 8013e40:	20001359 	.word	0x20001359
 8013e44:	2000135b 	.word	0x2000135b
 8013e48:	20001358 	.word	0x20001358

08013e4c <OTG_FS_Handler>:
 8013e4c:	b508      	push	{r3, lr}
 8013e4e:	4802      	ldr	r0, [pc, #8]	; (8013e58 <OTG_FS_Handler+0xc>)
 8013e50:	f7fe fe6b 	bl	8012b2a <usbd_poll>
 8013e54:	bd08      	pop	{r3, pc}
 8013e56:	bf00      	nop
 8013e58:	20001074 	.word	0x20001074

08013e5c <fatfs_cache_init>:
 8013e5c:	2001      	movs	r0, #1
 8013e5e:	4770      	bx	lr

08013e60 <fatfs_cache_get_next_cluster>:
 8013e60:	2000      	movs	r0, #0
 8013e62:	4770      	bx	lr

08013e64 <fatfs_cache_set_next_cluster>:
 8013e64:	2001      	movs	r0, #1
 8013e66:	4770      	bx	lr

08013e68 <sd_init>:
 8013e68:	b510      	push	{r4, lr}
 8013e6a:	4c08      	ldr	r4, [pc, #32]	; (8013e8c <sd_init+0x24>)
 8013e6c:	6823      	ldr	r3, [r4, #0]
 8013e6e:	4798      	blx	r3
 8013e70:	6863      	ldr	r3, [r4, #4]
 8013e72:	4798      	blx	r3
 8013e74:	b920      	cbnz	r0, 8013e80 <sd_init+0x18>
 8013e76:	4b05      	ldr	r3, [pc, #20]	; (8013e8c <sd_init+0x24>)
 8013e78:	691b      	ldr	r3, [r3, #16]
 8013e7a:	4798      	blx	r3
 8013e7c:	6880      	ldr	r0, [r0, #8]
 8013e7e:	bd10      	pop	{r4, pc}
 8013e80:	4803      	ldr	r0, [pc, #12]	; (8013e90 <sd_init+0x28>)
 8013e82:	f7fd fc4b 	bl	801171c <kprintf>
 8013e86:	f04f 30ff 	mov.w	r0, #4294967295	; 0xffffffff
 8013e8a:	e7f8      	b.n	8013e7e <sd_init+0x16>
 8013e8c:	0801892c 	.word	0x0801892c
 8013e90:	08018a78 	.word	0x08018a78

08013e94 <sd_readsector>:
 8013e94:	b510      	push	{r4, lr}
 8013e96:	4604      	mov	r4, r0
 8013e98:	4608      	mov	r0, r1
 8013e9a:	4b03      	ldr	r3, [pc, #12]	; (8013ea8 <sd_readsector+0x14>)
 8013e9c:	689b      	ldr	r3, [r3, #8]
 8013e9e:	4621      	mov	r1, r4
 8013ea0:	4798      	blx	r3
 8013ea2:	2001      	movs	r0, #1
 8013ea4:	bd10      	pop	{r4, pc}
 8013ea6:	bf00      	nop
 8013ea8:	0801892c 	.word	0x0801892c

08013eac <sd_writesector>:
 8013eac:	b510      	push	{r4, lr}
 8013eae:	4604      	mov	r4, r0
 8013eb0:	4608      	mov	r0, r1
 8013eb2:	4b03      	ldr	r3, [pc, #12]	; (8013ec0 <sd_writesector+0x14>)
 8013eb4:	68db      	ldr	r3, [r3, #12]
 8013eb6:	4621      	mov	r1, r4
 8013eb8:	4798      	blx	r3
 8013eba:	2001      	movs	r0, #1
 8013ebc:	bd10      	pop	{r4, pc}
 8013ebe:	bf00      	nop
 8013ec0:	0801892c 	.word	0x0801892c

08013ec4 <fatfs_init>:
 8013ec4:	e92d 47f0 	stmdb	sp!, {r4, r5, r6, r7, r8, r9, sl, lr}
 8013ec8:	4604      	mov	r4, r0
 8013eca:	f04f 33ff 	mov.w	r3, #4294967295	; 0xffffffff
 8013ece:	f8c0 3240 	str.w	r3, [r0, #576]	; 0x240
 8013ed2:	2300      	movs	r3, #0
 8013ed4:	f8c0 3244 	str.w	r3, [r0, #580]	; 0x244
 8013ed8:	6243      	str	r3, [r0, #36]	; 0x24
 8013eda:	f002 fda6 	bl	8016a2a <fatfs_fat_init>
 8013ede:	6b23      	ldr	r3, [r4, #48]	; 0x30
 8013ee0:	2b00      	cmp	r3, #0
 8013ee2:	f000 80f9 	beq.w	80140d8 <fatfs_init+0x214>
 8013ee6:	f104 0540 	add.w	r5, r4, #64	; 0x40
 8013eea:	2201      	movs	r2, #1
 8013eec:	4629      	mov	r1, r5
 8013eee:	2000      	movs	r0, #0
 8013ef0:	4798      	blx	r3
 8013ef2:	2800      	cmp	r0, #0
 8013ef4:	f000 80f3 	beq.w	80140de <fatfs_init+0x21a>
 8013ef8:	f8b4 223e 	ldrh.w	r2, [r4, #574]	; 0x23e
 8013efc:	f64a 2355 	movw	r3, #43605	; 0xaa55
 8013f00:	429a      	cmp	r2, r3
 8013f02:	f040 80ef 	bne.w	80140e4 <fatfs_init+0x220>
 8013f06:	f894 223f 	ldrb.w	r2, [r4, #575]	; 0x23f
 8013f0a:	f894 323e 	ldrb.w	r3, [r4, #574]	; 0x23e
 8013f0e:	eb03 2302 	add.w	r3, r3, r2, lsl #8
 8013f12:	f64a 2255 	movw	r2, #43605	; 0xaa55
 8013f16:	4293      	cmp	r3, r2
 8013f18:	f040 80e7 	bne.w	80140ea <fatfs_init+0x226>
 8013f1c:	f894 3202 	ldrb.w	r3, [r4, #514]	; 0x202
 8013f20:	2b0f      	cmp	r3, #15
 8013f22:	d809      	bhi.n	8013f38 <fatfs_init+0x74>
 8013f24:	e8df f003 	tbb	[pc, r3]
 8013f28:	080808b1 	.word	0x080808b1
 8013f2c:	080b0b08 	.word	0x080b0b08
 8013f30:	0b080808 	.word	0x0b080808
 8013f34:	0b0b080b 	.word	0x0b0b080b
 8013f38:	2b06      	cmp	r3, #6
 8013f3a:	f200 80a6 	bhi.w	801408a <fatfs_init+0x1c6>
 8013f3e:	f894 2209 	ldrb.w	r2, [r4, #521]	; 0x209
 8013f42:	f894 3208 	ldrb.w	r3, [r4, #520]	; 0x208
 8013f46:	041b      	lsls	r3, r3, #16
 8013f48:	eb03 6302 	add.w	r3, r3, r2, lsl #24
 8013f4c:	f894 2207 	ldrb.w	r2, [r4, #519]	; 0x207
 8013f50:	eb03 2302 	add.w	r3, r3, r2, lsl #8
 8013f54:	f894 2206 	ldrb.w	r2, [r4, #518]	; 0x206
 8013f58:	4413      	add	r3, r2
 8013f5a:	61e3      	str	r3, [r4, #28]
 8013f5c:	6b23      	ldr	r3, [r4, #48]	; 0x30
 8013f5e:	2201      	movs	r2, #1
 8013f60:	4629      	mov	r1, r5
 8013f62:	69e0      	ldr	r0, [r4, #28]
 8013f64:	4798      	blx	r3
 8013f66:	2800      	cmp	r0, #0
 8013f68:	f000 80c2 	beq.w	80140f0 <fatfs_init+0x22c>
 8013f6c:	f894 304c 	ldrb.w	r3, [r4, #76]	; 0x4c
 8013f70:	f894 e04b 	ldrb.w	lr, [r4, #75]	; 0x4b
 8013f74:	eb0e 2e03 	add.w	lr, lr, r3, lsl #8
 8013f78:	f5be 7f00 	cmp.w	lr, #512	; 0x200
 8013f7c:	f040 80bb 	bne.w	80140f6 <fatfs_init+0x232>
 8013f80:	f894 604d 	ldrb.w	r6, [r4, #77]	; 0x4d
 8013f84:	7026      	strb	r6, [r4, #0]
 8013f86:	f894 704f 	ldrb.w	r7, [r4, #79]	; 0x4f
 8013f8a:	f894 504e 	ldrb.w	r5, [r4, #78]	; 0x4e
 8013f8e:	eb05 2c07 	add.w	ip, r5, r7, lsl #8
 8013f92:	fa1f fc8c 	uxth.w	ip, ip
 8013f96:	f894 0050 	ldrb.w	r0, [r4, #80]	; 0x50
 8013f9a:	f894 9052 	ldrb.w	r9, [r4, #82]	; 0x52
 8013f9e:	f894 8051 	ldrb.w	r8, [r4, #81]	; 0x51
 8013fa2:	eb08 2109 	add.w	r1, r8, r9, lsl #8
 8013fa6:	b289      	uxth	r1, r1
 8013fa8:	8521      	strh	r1, [r4, #40]	; 0x28
 8013faa:	f894 3057 	ldrb.w	r3, [r4, #87]	; 0x57
 8013fae:	f894 2056 	ldrb.w	r2, [r4, #86]	; 0x56
 8013fb2:	eb12 2203 	adds.w	r2, r2, r3, lsl #8
 8013fb6:	d06b      	beq.n	8014090 <fatfs_init+0x1cc>
 8013fb8:	6222      	str	r2, [r4, #32]
 8013fba:	f894 a06f 	ldrb.w	sl, [r4, #111]	; 0x6f
 8013fbe:	f894 306e 	ldrb.w	r3, [r4, #110]	; 0x6e
 8013fc2:	041b      	lsls	r3, r3, #16
 8013fc4:	eb03 630a 	add.w	r3, r3, sl, lsl #24
 8013fc8:	f894 a06d 	ldrb.w	sl, [r4, #109]	; 0x6d
 8013fcc:	eb03 230a 	add.w	r3, r3, sl, lsl #8
 8013fd0:	f894 a06c 	ldrb.w	sl, [r4, #108]	; 0x6c
 8013fd4:	4453      	add	r3, sl
 8013fd6:	60a3      	str	r3, [r4, #8]
 8013fd8:	f894 a071 	ldrb.w	sl, [r4, #113]	; 0x71
 8013fdc:	f894 3070 	ldrb.w	r3, [r4, #112]	; 0x70
 8013fe0:	eb03 230a 	add.w	r3, r3, sl, lsl #8
 8013fe4:	8323      	strh	r3, [r4, #24]
 8013fe6:	6a23      	ldr	r3, [r4, #32]
 8013fe8:	fb03 fa00 	mul.w	sl, r3, r0
 8013fec:	eb0c 030a 	add.w	r3, ip, sl
 8013ff0:	60e3      	str	r3, [r4, #12]
 8013ff2:	014b      	lsls	r3, r1, #5
 8013ff4:	f203 13ff 	addw	r3, r3, #511	; 0x1ff
 8013ff8:	125b      	asrs	r3, r3, #9
 8013ffa:	6123      	str	r3, [r4, #16]
 8013ffc:	69e1      	ldr	r1, [r4, #28]
 8013ffe:	4461      	add	r1, ip
 8014000:	6161      	str	r1, [r4, #20]
 8014002:	4451      	add	r1, sl
 8014004:	6061      	str	r1, [r4, #4]
 8014006:	f894 123f 	ldrb.w	r1, [r4, #575]	; 0x23f
 801400a:	f894 323e 	ldrb.w	r3, [r4, #574]	; 0x23e
 801400e:	eb03 2301 	add.w	r3, r3, r1, lsl #8
 8014012:	f64a 2155 	movw	r1, #43605	; 0xaa55
 8014016:	428b      	cmp	r3, r1
 8014018:	d170      	bne.n	80140fc <fatfs_init+0x238>
 801401a:	eb08 2809 	add.w	r8, r8, r9, lsl #8
 801401e:	f10e 39ff 	add.w	r9, lr, #4294967295	; 0xffffffff
 8014022:	eb09 1848 	add.w	r8, r9, r8, lsl #5
 8014026:	fb98 fefe 	sdiv	lr, r8, lr
 801402a:	2a00      	cmp	r2, #0
 801402c:	d040      	beq.n	80140b0 <fatfs_init+0x1ec>
 801402e:	4611      	mov	r1, r2
 8014030:	f894 2054 	ldrb.w	r2, [r4, #84]	; 0x54
 8014034:	f894 3053 	ldrb.w	r3, [r4, #83]	; 0x53
 8014038:	eb13 2302 	adds.w	r3, r3, r2, lsl #8
 801403c:	d10d      	bne.n	801405a <fatfs_init+0x196>
 801403e:	f894 3063 	ldrb.w	r3, [r4, #99]	; 0x63
 8014042:	f894 2062 	ldrb.w	r2, [r4, #98]	; 0x62
 8014046:	0412      	lsls	r2, r2, #16
 8014048:	eb02 6203 	add.w	r2, r2, r3, lsl #24
 801404c:	f894 3061 	ldrb.w	r3, [r4, #97]	; 0x61
 8014050:	eb02 2203 	add.w	r2, r2, r3, lsl #8
 8014054:	f894 3060 	ldrb.w	r3, [r4, #96]	; 0x60
 8014058:	4413      	add	r3, r2
 801405a:	eb05 2507 	add.w	r5, r5, r7, lsl #8
 801405e:	fb01 5000 	mla	r0, r1, r0, r5
 8014062:	4470      	add	r0, lr
 8014064:	1a1b      	subs	r3, r3, r0
 8014066:	2e00      	cmp	r6, #0
 8014068:	d04b      	beq.n	8014102 <fatfs_init+0x23e>
 801406a:	fbb3 f3f6 	udiv	r3, r3, r6
 801406e:	f640 72f4 	movw	r2, #4084	; 0xff4
 8014072:	4293      	cmp	r3, r2
 8014074:	d948      	bls.n	8014108 <fatfs_init+0x244>
 8014076:	f64f 72f4 	movw	r2, #65524	; 0xfff4
 801407a:	4293      	cmp	r3, r2
 801407c:	d827      	bhi.n	80140ce <fatfs_init+0x20a>
 801407e:	2000      	movs	r0, #0
 8014080:	60a0      	str	r0, [r4, #8]
 8014082:	f884 002d 	strb.w	r0, [r4, #45]	; 0x2d
 8014086:	e8bd 87f0 	ldmia.w	sp!, {r4, r5, r6, r7, r8, r9, sl, pc}
 801408a:	2300      	movs	r3, #0
 801408c:	61e3      	str	r3, [r4, #28]
 801408e:	e765      	b.n	8013f5c <fatfs_init+0x98>
 8014090:	f894 a067 	ldrb.w	sl, [r4, #103]	; 0x67
 8014094:	f894 3066 	ldrb.w	r3, [r4, #102]	; 0x66
 8014098:	041b      	lsls	r3, r3, #16
 801409a:	eb03 630a 	add.w	r3, r3, sl, lsl #24
 801409e:	f894 a065 	ldrb.w	sl, [r4, #101]	; 0x65
 80140a2:	eb03 230a 	add.w	r3, r3, sl, lsl #8
 80140a6:	f894 a064 	ldrb.w	sl, [r4, #100]	; 0x64
 80140aa:	4453      	add	r3, sl
 80140ac:	6223      	str	r3, [r4, #32]
 80140ae:	e784      	b.n	8013fba <fatfs_init+0xf6>
 80140b0:	f894 1067 	ldrb.w	r1, [r4, #103]	; 0x67
 80140b4:	f894 2066 	ldrb.w	r2, [r4, #102]	; 0x66
 80140b8:	0412      	lsls	r2, r2, #16
 80140ba:	eb02 6201 	add.w	r2, r2, r1, lsl #24
 80140be:	f894 1065 	ldrb.w	r1, [r4, #101]	; 0x65
 80140c2:	eb02 2201 	add.w	r2, r2, r1, lsl #8
 80140c6:	f894 1064 	ldrb.w	r1, [r4, #100]	; 0x64
 80140ca:	4411      	add	r1, r2
 80140cc:	e7b0      	b.n	8014030 <fatfs_init+0x16c>
 80140ce:	2301      	movs	r3, #1
 80140d0:	f884 302d 	strb.w	r3, [r4, #45]	; 0x2d
 80140d4:	2000      	movs	r0, #0
 80140d6:	e7d6      	b.n	8014086 <fatfs_init+0x1c2>
 80140d8:	f04f 30ff 	mov.w	r0, #4294967295	; 0xffffffff
 80140dc:	e7d3      	b.n	8014086 <fatfs_init+0x1c2>
 80140de:	f04f 30ff 	mov.w	r0, #4294967295	; 0xffffffff
 80140e2:	e7d0      	b.n	8014086 <fatfs_init+0x1c2>
 80140e4:	f06f 0002 	mvn.w	r0, #2
 80140e8:	e7cd      	b.n	8014086 <fatfs_init+0x1c2>
 80140ea:	f06f 0003 	mvn.w	r0, #3
 80140ee:	e7ca      	b.n	8014086 <fatfs_init+0x1c2>
 80140f0:	f04f 30ff 	mov.w	r0, #4294967295	; 0xffffffff
 80140f4:	e7c7      	b.n	8014086 <fatfs_init+0x1c2>
 80140f6:	f06f 0001 	mvn.w	r0, #1
 80140fa:	e7c4      	b.n	8014086 <fatfs_init+0x1c2>
 80140fc:	f06f 0002 	mvn.w	r0, #2
 8014100:	e7c1      	b.n	8014086 <fatfs_init+0x1c2>
 8014102:	f06f 0004 	mvn.w	r0, #4
 8014106:	e7be      	b.n	8014086 <fatfs_init+0x1c2>
 8014108:	f06f 0004 	mvn.w	r0, #4
 801410c:	e7bb      	b.n	8014086 <fatfs_init+0x1c2>

0801410e <fatfs_lba_of_cluster>:
 801410e:	f890 302d 	ldrb.w	r3, [r0, #45]	; 0x2d
 8014112:	b943      	cbnz	r3, 8014126 <fatfs_lba_of_cluster+0x18>
 8014114:	6843      	ldr	r3, [r0, #4]
 8014116:	8d02      	ldrh	r2, [r0, #40]	; 0x28
 8014118:	eb03 1322 	add.w	r3, r3, r2, asr #4
 801411c:	3902      	subs	r1, #2
 801411e:	7800      	ldrb	r0, [r0, #0]
 8014120:	fb00 3001 	mla	r0, r0, r1, r3
 8014124:	4770      	bx	lr
 8014126:	6843      	ldr	r3, [r0, #4]
 8014128:	3902      	subs	r1, #2
 801412a:	7800      	ldrb	r0, [r0, #0]
 801412c:	fb00 3001 	mla	r0, r0, r1, r3
 8014130:	4770      	bx	lr

08014132 <fatfs_sector_read>:
 8014132:	b510      	push	{r4, lr}
 8014134:	4604      	mov	r4, r0
 8014136:	4608      	mov	r0, r1
 8014138:	4611      	mov	r1, r2
 801413a:	6b24      	ldr	r4, [r4, #48]	; 0x30
 801413c:	461a      	mov	r2, r3
 801413e:	47a0      	blx	r4
 8014140:	bd10      	pop	{r4, pc}

08014142 <fatfs_sector_write>:
 8014142:	b510      	push	{r4, lr}
 8014144:	4604      	mov	r4, r0
 8014146:	4608      	mov	r0, r1
 8014148:	4611      	mov	r1, r2
 801414a:	6b64      	ldr	r4, [r4, #52]	; 0x34
 801414c:	461a      	mov	r2, r3
 801414e:	47a0      	blx	r4
 8014150:	bd10      	pop	{r4, pc}

08014152 <fatfs_sector_reader>:
 8014152:	e92d 41f0 	stmdb	sp!, {r4, r5, r6, r7, r8, lr}
 8014156:	4605      	mov	r5, r0
 8014158:	461f      	mov	r7, r3
 801415a:	f890 302d 	ldrb.w	r3, [r0, #45]	; 0x2d
 801415e:	b943      	cbnz	r3, 8014172 <fatfs_sector_reader+0x20>
 8014160:	b939      	cbnz	r1, 8014172 <fatfs_sector_reader+0x20>
 8014162:	6903      	ldr	r3, [r0, #16]
 8014164:	4293      	cmp	r3, r2
 8014166:	d92c      	bls.n	80141c2 <fatfs_sector_reader+0x70>
 8014168:	69c0      	ldr	r0, [r0, #28]
 801416a:	68eb      	ldr	r3, [r5, #12]
 801416c:	4418      	add	r0, r3
 801416e:	4410      	add	r0, r2
 8014170:	e014      	b.n	801419c <fatfs_sector_reader+0x4a>
 8014172:	7828      	ldrb	r0, [r5, #0]
 8014174:	fbb2 f6f0 	udiv	r6, r2, r0
 8014178:	fb06 2810 	mls	r8, r6, r0, r2
 801417c:	2400      	movs	r4, #0
 801417e:	e004      	b.n	801418a <fatfs_sector_reader+0x38>
 8014180:	4628      	mov	r0, r5
 8014182:	f002 fc96 	bl	8016ab2 <fatfs_find_next_cluster>
 8014186:	4601      	mov	r1, r0
 8014188:	3401      	adds	r4, #1
 801418a:	42b4      	cmp	r4, r6
 801418c:	d3f8      	bcc.n	8014180 <fatfs_sector_reader+0x2e>
 801418e:	f1b1 3fff 	cmp.w	r1, #4294967295	; 0xffffffff
 8014192:	d018      	beq.n	80141c6 <fatfs_sector_reader+0x74>
 8014194:	4628      	mov	r0, r5
 8014196:	f7ff ffba 	bl	801410e <fatfs_lba_of_cluster>
 801419a:	4440      	add	r0, r8
 801419c:	b12f      	cbz	r7, 80141aa <fatfs_sector_reader+0x58>
 801419e:	6b2b      	ldr	r3, [r5, #48]	; 0x30
 80141a0:	2201      	movs	r2, #1
 80141a2:	4639      	mov	r1, r7
 80141a4:	4798      	blx	r3
 80141a6:	e8bd 81f0 	ldmia.w	sp!, {r4, r5, r6, r7, r8, pc}
 80141aa:	f8d5 3240 	ldr.w	r3, [r5, #576]	; 0x240
 80141ae:	4283      	cmp	r3, r0
 80141b0:	d00b      	beq.n	80141ca <fatfs_sector_reader+0x78>
 80141b2:	f8c5 0240 	str.w	r0, [r5, #576]	; 0x240
 80141b6:	6b2b      	ldr	r3, [r5, #48]	; 0x30
 80141b8:	2201      	movs	r2, #1
 80141ba:	f105 0140 	add.w	r1, r5, #64	; 0x40
 80141be:	4798      	blx	r3
 80141c0:	e7f1      	b.n	80141a6 <fatfs_sector_reader+0x54>
 80141c2:	2000      	movs	r0, #0
 80141c4:	e7ef      	b.n	80141a6 <fatfs_sector_reader+0x54>
 80141c6:	2000      	movs	r0, #0
 80141c8:	e7ed      	b.n	80141a6 <fatfs_sector_reader+0x54>
 80141ca:	2001      	movs	r0, #1
 80141cc:	e7eb      	b.n	80141a6 <fatfs_sector_reader+0x54>

080141ce <fatfs_read_sector>:
 80141ce:	b570      	push	{r4, r5, r6, lr}
 80141d0:	4604      	mov	r4, r0
 80141d2:	4616      	mov	r6, r2
 80141d4:	461d      	mov	r5, r3
 80141d6:	f890 302d 	ldrb.w	r3, [r0, #45]	; 0x2d
 80141da:	b9ab      	cbnz	r3, 8014208 <fatfs_read_sector+0x3a>
 80141dc:	b9a1      	cbnz	r1, 8014208 <fatfs_read_sector+0x3a>
 80141de:	6903      	ldr	r3, [r0, #16]
 80141e0:	4293      	cmp	r3, r2
 80141e2:	d927      	bls.n	8014234 <fatfs_read_sector+0x66>
 80141e4:	69c0      	ldr	r0, [r0, #28]
 80141e6:	68e3      	ldr	r3, [r4, #12]
 80141e8:	4418      	add	r0, r3
 80141ea:	4410      	add	r0, r2
 80141ec:	b125      	cbz	r5, 80141f8 <fatfs_read_sector+0x2a>
 80141ee:	6b23      	ldr	r3, [r4, #48]	; 0x30
 80141f0:	2201      	movs	r2, #1
 80141f2:	4629      	mov	r1, r5
 80141f4:	4798      	blx	r3
 80141f6:	e010      	b.n	801421a <fatfs_read_sector+0x4c>
 80141f8:	f8c4 0240 	str.w	r0, [r4, #576]	; 0x240
 80141fc:	6b23      	ldr	r3, [r4, #48]	; 0x30
 80141fe:	2201      	movs	r2, #1
 8014200:	f104 0140 	add.w	r1, r4, #64	; 0x40
 8014204:	4798      	blx	r3
 8014206:	e008      	b.n	801421a <fatfs_read_sector+0x4c>
 8014208:	b145      	cbz	r5, 801421c <fatfs_read_sector+0x4e>
 801420a:	4620      	mov	r0, r4
 801420c:	f7ff ff7f 	bl	801410e <fatfs_lba_of_cluster>
 8014210:	6b23      	ldr	r3, [r4, #48]	; 0x30
 8014212:	2201      	movs	r2, #1
 8014214:	4629      	mov	r1, r5
 8014216:	4430      	add	r0, r6
 8014218:	4798      	blx	r3
 801421a:	bd70      	pop	{r4, r5, r6, pc}
 801421c:	4620      	mov	r0, r4
 801421e:	f7ff ff76 	bl	801410e <fatfs_lba_of_cluster>
 8014222:	4430      	add	r0, r6
 8014224:	f8c4 0240 	str.w	r0, [r4, #576]	; 0x240
 8014228:	6b23      	ldr	r3, [r4, #48]	; 0x30
 801422a:	2201      	movs	r2, #1
 801422c:	f104 0140 	add.w	r1, r4, #64	; 0x40
 8014230:	4798      	blx	r3
 8014232:	e7f2      	b.n	801421a <fatfs_read_sector+0x4c>
 8014234:	2000      	movs	r0, #0
 8014236:	e7f0      	b.n	801421a <fatfs_read_sector+0x4c>

08014238 <fatfs_write_sector>:
 8014238:	b5f8      	push	{r3, r4, r5, r6, r7, lr}
 801423a:	6b46      	ldr	r6, [r0, #52]	; 0x34
 801423c:	b36e      	cbz	r6, 801429a <fatfs_write_sector+0x62>
 801423e:	4604      	mov	r4, r0
 8014240:	4617      	mov	r7, r2
 8014242:	461d      	mov	r5, r3
 8014244:	f890 302d 	ldrb.w	r3, [r0, #45]	; 0x2d
 8014248:	b99b      	cbnz	r3, 8014272 <fatfs_write_sector+0x3a>
 801424a:	b991      	cbnz	r1, 8014272 <fatfs_write_sector+0x3a>
 801424c:	6903      	ldr	r3, [r0, #16]
 801424e:	4293      	cmp	r3, r2
 8014250:	d925      	bls.n	801429e <fatfs_write_sector+0x66>
 8014252:	69c0      	ldr	r0, [r0, #28]
 8014254:	68e2      	ldr	r2, [r4, #12]
 8014256:	4410      	add	r0, r2
 8014258:	4438      	add	r0, r7
 801425a:	b11d      	cbz	r5, 8014264 <fatfs_write_sector+0x2c>
 801425c:	2201      	movs	r2, #1
 801425e:	4629      	mov	r1, r5
 8014260:	47b0      	blx	r6
 8014262:	e00e      	b.n	8014282 <fatfs_write_sector+0x4a>
 8014264:	f8c4 0240 	str.w	r0, [r4, #576]	; 0x240
 8014268:	2201      	movs	r2, #1
 801426a:	f104 0140 	add.w	r1, r4, #64	; 0x40
 801426e:	47b0      	blx	r6
 8014270:	e007      	b.n	8014282 <fatfs_write_sector+0x4a>
 8014272:	b13d      	cbz	r5, 8014284 <fatfs_write_sector+0x4c>
 8014274:	4620      	mov	r0, r4
 8014276:	f7ff ff4a 	bl	801410e <fatfs_lba_of_cluster>
 801427a:	2201      	movs	r2, #1
 801427c:	4629      	mov	r1, r5
 801427e:	4438      	add	r0, r7
 8014280:	47b0      	blx	r6
 8014282:	bdf8      	pop	{r3, r4, r5, r6, r7, pc}
 8014284:	4620      	mov	r0, r4
 8014286:	f7ff ff42 	bl	801410e <fatfs_lba_of_cluster>
 801428a:	4438      	add	r0, r7
 801428c:	f8c4 0240 	str.w	r0, [r4, #576]	; 0x240
 8014290:	2201      	movs	r2, #1
 8014292:	f104 0140 	add.w	r1, r4, #64	; 0x40
 8014296:	47b0      	blx	r6
 8014298:	e7f3      	b.n	8014282 <fatfs_write_sector+0x4a>
 801429a:	2000      	movs	r0, #0
 801429c:	e7f1      	b.n	8014282 <fatfs_write_sector+0x4a>
 801429e:	2000      	movs	r0, #0
 80142a0:	e7ef      	b.n	8014282 <fatfs_write_sector+0x4a>

080142a2 <fatfs_show_details>:
 80142a2:	b510      	push	{r4, lr}
 80142a4:	4604      	mov	r4, r0
 80142a6:	480f      	ldr	r0, [pc, #60]	; (80142e4 <fatfs_show_details+0x42>)
 80142a8:	f7fd fa38 	bl	801171c <kprintf>
 80142ac:	f894 302d 	ldrb.w	r3, [r4, #45]	; 0x2d
 80142b0:	2b01      	cmp	r3, #1
 80142b2:	d014      	beq.n	80142de <fatfs_show_details+0x3c>
 80142b4:	490c      	ldr	r1, [pc, #48]	; (80142e8 <fatfs_show_details+0x46>)
 80142b6:	480d      	ldr	r0, [pc, #52]	; (80142ec <fatfs_show_details+0x4a>)
 80142b8:	f7fd fa30 	bl	801171c <kprintf>
 80142bc:	68a1      	ldr	r1, [r4, #8]
 80142be:	480c      	ldr	r0, [pc, #48]	; (80142f0 <fatfs_show_details+0x4e>)
 80142c0:	f7fd fa2c 	bl	801171c <kprintf>
 80142c4:	6961      	ldr	r1, [r4, #20]
 80142c6:	480b      	ldr	r0, [pc, #44]	; (80142f4 <fatfs_show_details+0x52>)
 80142c8:	f7fd fa28 	bl	801171c <kprintf>
 80142cc:	6861      	ldr	r1, [r4, #4]
 80142ce:	480a      	ldr	r0, [pc, #40]	; (80142f8 <fatfs_show_details+0x56>)
 80142d0:	f7fd fa24 	bl	801171c <kprintf>
 80142d4:	7821      	ldrb	r1, [r4, #0]
 80142d6:	4809      	ldr	r0, [pc, #36]	; (80142fc <fatfs_show_details+0x5a>)
 80142d8:	f7fd fa20 	bl	801171c <kprintf>
 80142dc:	bd10      	pop	{r4, pc}
 80142de:	4908      	ldr	r1, [pc, #32]	; (8014300 <fatfs_show_details+0x5e>)
 80142e0:	e7e9      	b.n	80142b6 <fatfs_show_details+0x14>
 80142e2:	bf00      	nop
 80142e4:	08018a9c 	.word	0x08018a9c
 80142e8:	08018a8c 	.word	0x08018a8c
 80142ec:	08018aac 	.word	0x08018aac
 80142f0:	08018ab8 	.word	0x08018ab8
 80142f4:	08018ad8 	.word	0x08018ad8
 80142f8:	08018af0 	.word	0x08018af0
 80142fc:	08018b0c 	.word	0x08018b0c
 8014300:	08018a94 	.word	0x08018a94

08014304 <fatfs_get_root_cluster>:
 8014304:	6880      	ldr	r0, [r0, #8]
 8014306:	4770      	bx	lr

08014308 <fatfs_get_file_entry>:
 8014308:	e92d 4ff0 	stmdb	sp!, {r4, r5, r6, r7, r8, r9, sl, fp, lr}
 801430c:	b0c7      	sub	sp, #284	; 0x11c
 801430e:	4606      	mov	r6, r0
 8014310:	4689      	mov	r9, r1
 8014312:	4690      	mov	r8, r2
 8014314:	469a      	mov	sl, r3
 8014316:	2101      	movs	r1, #1
 8014318:	4668      	mov	r0, sp
 801431a:	f002 f92b 	bl	8016574 <fatfs_lfn_cache_init>
 801431e:	2700      	movs	r7, #0
 8014320:	463a      	mov	r2, r7
 8014322:	2300      	movs	r3, #0
 8014324:	3701      	adds	r7, #1
 8014326:	4649      	mov	r1, r9
 8014328:	4630      	mov	r0, r6
 801432a:	f7ff ff12 	bl	8014152 <fatfs_sector_reader>
 801432e:	b398      	cbz	r0, 8014398 <fatfs_get_file_entry+0x90>
 8014330:	2400      	movs	r4, #0
 8014332:	e009      	b.n	8014348 <fatfs_get_file_entry+0x40>
 8014334:	4628      	mov	r0, r5
 8014336:	f002 f993 	bl	8016660 <fatfs_entry_lfn_invalid>
 801433a:	b1a8      	cbz	r0, 8014368 <fatfs_get_file_entry+0x60>
 801433c:	2100      	movs	r1, #0
 801433e:	4668      	mov	r0, sp
 8014340:	f002 f918 	bl	8016574 <fatfs_lfn_cache_init>
 8014344:	3401      	adds	r4, #1
 8014346:	b2e4      	uxtb	r4, r4
 8014348:	2c0f      	cmp	r4, #15
 801434a:	d8e9      	bhi.n	8014320 <fatfs_get_file_entry+0x18>
 801434c:	f106 0540 	add.w	r5, r6, #64	; 0x40
 8014350:	eb05 1544 	add.w	r5, r5, r4, lsl #5
 8014354:	4628      	mov	r0, r5
 8014356:	f002 f97a 	bl	801664e <fatfs_entry_lfn_text>
 801435a:	2800      	cmp	r0, #0
 801435c:	d0ea      	beq.n	8014334 <fatfs_get_file_entry+0x2c>
 801435e:	4629      	mov	r1, r5
 8014360:	4668      	mov	r0, sp
 8014362:	f002 f91c 	bl	801659e <fatfs_lfn_cache_entry>
 8014366:	e7ed      	b.n	8014344 <fatfs_get_file_entry+0x3c>
 8014368:	4629      	mov	r1, r5
 801436a:	4668      	mov	r0, sp
 801436c:	f002 f98c 	bl	8016688 <fatfs_entry_lfn_exists>
 8014370:	4683      	mov	fp, r0
 8014372:	b1a0      	cbz	r0, 801439e <fatfs_get_file_entry+0x96>
 8014374:	4668      	mov	r0, sp
 8014376:	f002 f957 	bl	8016628 <fatfs_lfn_cache_get>
 801437a:	4641      	mov	r1, r8
 801437c:	f000 fabc 	bl	80148f8 <fatfs_compare_names>
 8014380:	b920      	cbnz	r0, 801438c <fatfs_get_file_entry+0x84>
 8014382:	2100      	movs	r1, #0
 8014384:	4668      	mov	r0, sp
 8014386:	f002 f8f5 	bl	8016574 <fatfs_lfn_cache_init>
 801438a:	e7db      	b.n	8014344 <fatfs_get_file_entry+0x3c>
 801438c:	2220      	movs	r2, #32
 801438e:	4629      	mov	r1, r5
 8014390:	4650      	mov	r0, sl
 8014392:	f7fd fae5 	bl	8011960 <memcpy>
 8014396:	2001      	movs	r0, #1
 8014398:	b047      	add	sp, #284	; 0x11c
 801439a:	e8bd 8ff0 	ldmia.w	sp!, {r4, r5, r6, r7, r8, r9, sl, fp, pc}
 801439e:	4628      	mov	r0, r5
 80143a0:	f002 f98f 	bl	80166c2 <fatfs_entry_sfn_only>
 80143a4:	2800      	cmp	r0, #0
 80143a6:	d0cd      	beq.n	8014344 <fatfs_get_file_entry+0x3c>
 80143a8:	220d      	movs	r2, #13
 80143aa:	2100      	movs	r1, #0
 80143ac:	a842      	add	r0, sp, #264	; 0x108
 80143ae:	f7fd fad0 	bl	8011952 <memset>
 80143b2:	2300      	movs	r3, #0
 80143b4:	e006      	b.n	80143c4 <fatfs_get_file_entry+0xbc>
 80143b6:	5ce9      	ldrb	r1, [r5, r3]
 80143b8:	aa46      	add	r2, sp, #280	; 0x118
 80143ba:	441a      	add	r2, r3
 80143bc:	f802 1c10 	strb.w	r1, [r2, #-16]
 80143c0:	3301      	adds	r3, #1
 80143c2:	b2db      	uxtb	r3, r3
 80143c4:	2b07      	cmp	r3, #7
 80143c6:	d9f6      	bls.n	80143b6 <fatfs_get_file_entry+0xae>
 80143c8:	2308      	movs	r3, #8
 80143ca:	e001      	b.n	80143d0 <fatfs_get_file_entry+0xc8>
 80143cc:	3301      	adds	r3, #1
 80143ce:	b2db      	uxtb	r3, r3
 80143d0:	2b0a      	cmp	r3, #10
 80143d2:	d80a      	bhi.n	80143ea <fatfs_get_file_entry+0xe2>
 80143d4:	1c5a      	adds	r2, r3, #1
 80143d6:	5ce9      	ldrb	r1, [r5, r3]
 80143d8:	a846      	add	r0, sp, #280	; 0x118
 80143da:	4402      	add	r2, r0
 80143dc:	f802 1c10 	strb.w	r1, [r2, #-16]
 80143e0:	2920      	cmp	r1, #32
 80143e2:	d0f3      	beq.n	80143cc <fatfs_get_file_entry+0xc4>
 80143e4:	f04f 0b01 	mov.w	fp, #1
 80143e8:	e7f0      	b.n	80143cc <fatfs_get_file_entry+0xc4>
 80143ea:	f1bb 0f00 	cmp.w	fp, #0
 80143ee:	d00b      	beq.n	8014408 <fatfs_get_file_entry+0x100>
 80143f0:	f89d 3108 	ldrb.w	r3, [sp, #264]	; 0x108
 80143f4:	2b2e      	cmp	r3, #46	; 0x2e
 80143f6:	d003      	beq.n	8014400 <fatfs_get_file_entry+0xf8>
 80143f8:	232e      	movs	r3, #46	; 0x2e
 80143fa:	f88d 3110 	strb.w	r3, [sp, #272]	; 0x110
 80143fe:	e006      	b.n	801440e <fatfs_get_file_entry+0x106>
 8014400:	2320      	movs	r3, #32
 8014402:	f88d 3110 	strb.w	r3, [sp, #272]	; 0x110
 8014406:	e002      	b.n	801440e <fatfs_get_file_entry+0x106>
 8014408:	2320      	movs	r3, #32
 801440a:	f88d 3110 	strb.w	r3, [sp, #272]	; 0x110
 801440e:	4641      	mov	r1, r8
 8014410:	a842      	add	r0, sp, #264	; 0x108
 8014412:	f000 fa71 	bl	80148f8 <fatfs_compare_names>
 8014416:	b920      	cbnz	r0, 8014422 <fatfs_get_file_entry+0x11a>
 8014418:	2100      	movs	r1, #0
 801441a:	4668      	mov	r0, sp
 801441c:	f002 f8aa 	bl	8016574 <fatfs_lfn_cache_init>
 8014420:	e790      	b.n	8014344 <fatfs_get_file_entry+0x3c>
 8014422:	2220      	movs	r2, #32
 8014424:	4629      	mov	r1, r5
 8014426:	4650      	mov	r0, sl
 8014428:	f7fd fa9a 	bl	8011960 <memcpy>
 801442c:	2001      	movs	r0, #1
 801442e:	e7b3      	b.n	8014398 <fatfs_get_file_entry+0x90>

08014430 <fatfs_sfn_exists>:
 8014430:	e92d 43f8 	stmdb	sp!, {r3, r4, r5, r6, r7, r8, r9, lr}
 8014434:	4606      	mov	r6, r0
 8014436:	4688      	mov	r8, r1
 8014438:	4691      	mov	r9, r2
 801443a:	2700      	movs	r7, #0
 801443c:	463a      	mov	r2, r7
 801443e:	2300      	movs	r3, #0
 8014440:	3701      	adds	r7, #1
 8014442:	4641      	mov	r1, r8
 8014444:	4630      	mov	r0, r6
 8014446:	f7ff fe84 	bl	8014152 <fatfs_sector_reader>
 801444a:	4603      	mov	r3, r0
 801444c:	b300      	cbz	r0, 8014490 <fatfs_sfn_exists+0x60>
 801444e:	2400      	movs	r4, #0
 8014450:	e001      	b.n	8014456 <fatfs_sfn_exists+0x26>
 8014452:	3401      	adds	r4, #1
 8014454:	b2e4      	uxtb	r4, r4
 8014456:	2c0f      	cmp	r4, #15
 8014458:	d8f0      	bhi.n	801443c <fatfs_sfn_exists+0xc>
 801445a:	f106 0540 	add.w	r5, r6, #64	; 0x40
 801445e:	eb05 1544 	add.w	r5, r5, r4, lsl #5
 8014462:	4628      	mov	r0, r5
 8014464:	f002 f8f3 	bl	801664e <fatfs_entry_lfn_text>
 8014468:	2800      	cmp	r0, #0
 801446a:	d1f2      	bne.n	8014452 <fatfs_sfn_exists+0x22>
 801446c:	4628      	mov	r0, r5
 801446e:	f002 f8f7 	bl	8016660 <fatfs_entry_lfn_invalid>
 8014472:	2800      	cmp	r0, #0
 8014474:	d1ed      	bne.n	8014452 <fatfs_sfn_exists+0x22>
 8014476:	4628      	mov	r0, r5
 8014478:	f002 f923 	bl	80166c2 <fatfs_entry_sfn_only>
 801447c:	2800      	cmp	r0, #0
 801447e:	d0e8      	beq.n	8014452 <fatfs_sfn_exists+0x22>
 8014480:	220b      	movs	r2, #11
 8014482:	4649      	mov	r1, r9
 8014484:	4628      	mov	r0, r5
 8014486:	f7fd fac5 	bl	8011a14 <strncmp>
 801448a:	2800      	cmp	r0, #0
 801448c:	d1e1      	bne.n	8014452 <fatfs_sfn_exists+0x22>
 801448e:	2301      	movs	r3, #1
 8014490:	4618      	mov	r0, r3
 8014492:	e8bd 83f8 	ldmia.w	sp!, {r3, r4, r5, r6, r7, r8, r9, pc}

08014496 <fatfs_update_file_length>:
 8014496:	e92d 4ff8 	stmdb	sp!, {r3, r4, r5, r6, r7, r8, r9, sl, fp, lr}
 801449a:	469b      	mov	fp, r3
 801449c:	6b43      	ldr	r3, [r0, #52]	; 0x34
 801449e:	2b00      	cmp	r3, #0
 80144a0:	d03f      	beq.n	8014522 <fatfs_update_file_length+0x8c>
 80144a2:	4607      	mov	r7, r0
 80144a4:	4689      	mov	r9, r1
 80144a6:	4692      	mov	sl, r2
 80144a8:	f04f 0800 	mov.w	r8, #0
 80144ac:	4642      	mov	r2, r8
 80144ae:	2300      	movs	r3, #0
 80144b0:	f108 0801 	add.w	r8, r8, #1
 80144b4:	4649      	mov	r1, r9
 80144b6:	4638      	mov	r0, r7
 80144b8:	f7ff fe4b 	bl	8014152 <fatfs_sector_reader>
 80144bc:	4603      	mov	r3, r0
 80144be:	b368      	cbz	r0, 801451c <fatfs_update_file_length+0x86>
 80144c0:	2400      	movs	r4, #0
 80144c2:	e001      	b.n	80144c8 <fatfs_update_file_length+0x32>
 80144c4:	3401      	adds	r4, #1
 80144c6:	b2e4      	uxtb	r4, r4
 80144c8:	2c0f      	cmp	r4, #15
 80144ca:	d8ef      	bhi.n	80144ac <fatfs_update_file_length+0x16>
 80144cc:	f107 0640 	add.w	r6, r7, #64	; 0x40
 80144d0:	eb06 1544 	add.w	r5, r6, r4, lsl #5
 80144d4:	4628      	mov	r0, r5
 80144d6:	f002 f8ba 	bl	801664e <fatfs_entry_lfn_text>
 80144da:	2800      	cmp	r0, #0
 80144dc:	d1f2      	bne.n	80144c4 <fatfs_update_file_length+0x2e>
 80144de:	4628      	mov	r0, r5
 80144e0:	f002 f8be 	bl	8016660 <fatfs_entry_lfn_invalid>
 80144e4:	2800      	cmp	r0, #0
 80144e6:	d1ed      	bne.n	80144c4 <fatfs_update_file_length+0x2e>
 80144e8:	4628      	mov	r0, r5
 80144ea:	f002 f8ea 	bl	80166c2 <fatfs_entry_sfn_only>
 80144ee:	2800      	cmp	r0, #0
 80144f0:	d0e8      	beq.n	80144c4 <fatfs_update_file_length+0x2e>
 80144f2:	220b      	movs	r2, #11
 80144f4:	4651      	mov	r1, sl
 80144f6:	4628      	mov	r0, r5
 80144f8:	f7fd fa8c 	bl	8011a14 <strncmp>
 80144fc:	2800      	cmp	r0, #0
 80144fe:	d1e1      	bne.n	80144c4 <fatfs_update_file_length+0x2e>
 8014500:	f8c5 b01c 	str.w	fp, [r5, #28]
 8014504:	2220      	movs	r2, #32
 8014506:	4629      	mov	r1, r5
 8014508:	4628      	mov	r0, r5
 801450a:	f7fd fa29 	bl	8011960 <memcpy>
 801450e:	6b7b      	ldr	r3, [r7, #52]	; 0x34
 8014510:	2201      	movs	r2, #1
 8014512:	4631      	mov	r1, r6
 8014514:	f8d7 0240 	ldr.w	r0, [r7, #576]	; 0x240
 8014518:	4798      	blx	r3
 801451a:	4603      	mov	r3, r0
 801451c:	4618      	mov	r0, r3
 801451e:	e8bd 8ff8 	ldmia.w	sp!, {r3, r4, r5, r6, r7, r8, r9, sl, fp, pc}
 8014522:	2300      	movs	r3, #0
 8014524:	e7fa      	b.n	801451c <fatfs_update_file_length+0x86>

08014526 <fatfs_mark_file_deleted>:
 8014526:	6b43      	ldr	r3, [r0, #52]	; 0x34
 8014528:	2b00      	cmp	r3, #0
 801452a:	d041      	beq.n	80145b0 <fatfs_mark_file_deleted+0x8a>
 801452c:	e92d 47f0 	stmdb	sp!, {r4, r5, r6, r7, r8, r9, sl, lr}
 8014530:	4607      	mov	r7, r0
 8014532:	4689      	mov	r9, r1
 8014534:	4692      	mov	sl, r2
 8014536:	f04f 0800 	mov.w	r8, #0
 801453a:	4642      	mov	r2, r8
 801453c:	2300      	movs	r3, #0
 801453e:	f108 0801 	add.w	r8, r8, #1
 8014542:	4649      	mov	r1, r9
 8014544:	4638      	mov	r0, r7
 8014546:	f7ff fe04 	bl	8014152 <fatfs_sector_reader>
 801454a:	4603      	mov	r3, r0
 801454c:	b368      	cbz	r0, 80145aa <fatfs_mark_file_deleted+0x84>
 801454e:	2400      	movs	r4, #0
 8014550:	e001      	b.n	8014556 <fatfs_mark_file_deleted+0x30>
 8014552:	3401      	adds	r4, #1
 8014554:	b2e4      	uxtb	r4, r4
 8014556:	2c0f      	cmp	r4, #15
 8014558:	d8ef      	bhi.n	801453a <fatfs_mark_file_deleted+0x14>
 801455a:	f107 0640 	add.w	r6, r7, #64	; 0x40
 801455e:	eb06 1544 	add.w	r5, r6, r4, lsl #5
 8014562:	4628      	mov	r0, r5
 8014564:	f002 f873 	bl	801664e <fatfs_entry_lfn_text>
 8014568:	2800      	cmp	r0, #0
 801456a:	d1f2      	bne.n	8014552 <fatfs_mark_file_deleted+0x2c>
 801456c:	4628      	mov	r0, r5
 801456e:	f002 f877 	bl	8016660 <fatfs_entry_lfn_invalid>
 8014572:	2800      	cmp	r0, #0
 8014574:	d1ed      	bne.n	8014552 <fatfs_mark_file_deleted+0x2c>
 8014576:	4628      	mov	r0, r5
 8014578:	f002 f8a3 	bl	80166c2 <fatfs_entry_sfn_only>
 801457c:	2800      	cmp	r0, #0
 801457e:	d0e8      	beq.n	8014552 <fatfs_mark_file_deleted+0x2c>
 8014580:	220b      	movs	r2, #11
 8014582:	4651      	mov	r1, sl
 8014584:	4628      	mov	r0, r5
 8014586:	f7fd fa45 	bl	8011a14 <strncmp>
 801458a:	2800      	cmp	r0, #0
 801458c:	d1e1      	bne.n	8014552 <fatfs_mark_file_deleted+0x2c>
 801458e:	23e5      	movs	r3, #229	; 0xe5
 8014590:	702b      	strb	r3, [r5, #0]
 8014592:	2220      	movs	r2, #32
 8014594:	4629      	mov	r1, r5
 8014596:	4628      	mov	r0, r5
 8014598:	f7fd f9e2 	bl	8011960 <memcpy>
 801459c:	6b7b      	ldr	r3, [r7, #52]	; 0x34
 801459e:	2201      	movs	r2, #1
 80145a0:	4631      	mov	r1, r6
 80145a2:	f8d7 0240 	ldr.w	r0, [r7, #576]	; 0x240
 80145a6:	4798      	blx	r3
 80145a8:	4603      	mov	r3, r0
 80145aa:	4618      	mov	r0, r3
 80145ac:	e8bd 87f0 	ldmia.w	sp!, {r4, r5, r6, r7, r8, r9, sl, pc}
 80145b0:	2300      	movs	r3, #0
 80145b2:	4618      	mov	r0, r3
 80145b4:	4770      	bx	lr

080145b6 <fatfs_list_directory_start>:
 80145b6:	604a      	str	r2, [r1, #4]
 80145b8:	2300      	movs	r3, #0
 80145ba:	600b      	str	r3, [r1, #0]
 80145bc:	720b      	strb	r3, [r1, #8]
 80145be:	4770      	bx	lr

080145c0 <fatfs_list_directory_next>:
 80145c0:	e92d 43f0 	stmdb	sp!, {r4, r5, r6, r7, r8, r9, lr}
 80145c4:	b0c7      	sub	sp, #284	; 0x11c
 80145c6:	4606      	mov	r6, r0
 80145c8:	460f      	mov	r7, r1
 80145ca:	4690      	mov	r8, r2
 80145cc:	2100      	movs	r1, #0
 80145ce:	4668      	mov	r0, sp
 80145d0:	f001 ffd0 	bl	8016574 <fatfs_lfn_cache_init>
 80145d4:	e0a0      	b.n	8014718 <fatfs_list_directory_next+0x158>
 80145d6:	4628      	mov	r0, r5
 80145d8:	f002 f842 	bl	8016660 <fatfs_entry_lfn_invalid>
 80145dc:	b1b0      	cbz	r0, 801460c <fatfs_list_directory_next+0x4c>
 80145de:	2100      	movs	r1, #0
 80145e0:	4668      	mov	r0, sp
 80145e2:	f001 ffc7 	bl	8016574 <fatfs_lfn_cache_init>
 80145e6:	3401      	adds	r4, #1
 80145e8:	b2e4      	uxtb	r4, r4
 80145ea:	2c0f      	cmp	r4, #15
 80145ec:	f200 808f 	bhi.w	801470e <fatfs_list_directory_next+0x14e>
 80145f0:	f106 0540 	add.w	r5, r6, #64	; 0x40
 80145f4:	eb05 1544 	add.w	r5, r5, r4, lsl #5
 80145f8:	4628      	mov	r0, r5
 80145fa:	f002 f828 	bl	801664e <fatfs_entry_lfn_text>
 80145fe:	2800      	cmp	r0, #0
 8014600:	d0e9      	beq.n	80145d6 <fatfs_list_directory_next+0x16>
 8014602:	4629      	mov	r1, r5
 8014604:	4668      	mov	r0, sp
 8014606:	f001 ffca 	bl	801659e <fatfs_lfn_cache_entry>
 801460a:	e7ec      	b.n	80145e6 <fatfs_list_directory_next+0x26>
 801460c:	4629      	mov	r1, r5
 801460e:	4668      	mov	r0, sp
 8014610:	f002 f83a 	bl	8016688 <fatfs_entry_lfn_exists>
 8014614:	4681      	mov	r9, r0
 8014616:	b978      	cbnz	r0, 8014638 <fatfs_list_directory_next+0x78>
 8014618:	4628      	mov	r0, r5
 801461a:	f002 f852 	bl	80166c2 <fatfs_entry_sfn_only>
 801461e:	2800      	cmp	r0, #0
 8014620:	d0e1      	beq.n	80145e6 <fatfs_list_directory_next+0x26>
 8014622:	2100      	movs	r1, #0
 8014624:	4668      	mov	r0, sp
 8014626:	f001 ffa5 	bl	8016574 <fatfs_lfn_cache_init>
 801462a:	220d      	movs	r2, #13
 801462c:	2100      	movs	r1, #0
 801462e:	a842      	add	r0, sp, #264	; 0x108
 8014630:	f7fd f98f 	bl	8011952 <memset>
 8014634:	2300      	movs	r3, #0
 8014636:	e029      	b.n	801468c <fatfs_list_directory_next+0xcc>
 8014638:	4668      	mov	r0, sp
 801463a:	f001 fff5 	bl	8016628 <fatfs_lfn_cache_get>
 801463e:	4601      	mov	r1, r0
 8014640:	223f      	movs	r2, #63	; 0x3f
 8014642:	4640      	mov	r0, r8
 8014644:	f7fd fa02 	bl	8011a4c <strncpy>
 8014648:	4628      	mov	r0, r5
 801464a:	f002 f852 	bl	80166f2 <fatfs_entry_is_dir>
 801464e:	b190      	cbz	r0, 8014676 <fatfs_list_directory_next+0xb6>
 8014650:	2301      	movs	r3, #1
 8014652:	f888 3040 	strb.w	r3, [r8, #64]	; 0x40
 8014656:	69eb      	ldr	r3, [r5, #28]
 8014658:	f8c8 3048 	str.w	r3, [r8, #72]	; 0x48
 801465c:	8aaa      	ldrh	r2, [r5, #20]
 801465e:	8b6b      	ldrh	r3, [r5, #26]
 8014660:	ea43 4302 	orr.w	r3, r3, r2, lsl #16
 8014664:	f8c8 3044 	str.w	r3, [r8, #68]	; 0x44
 8014668:	3401      	adds	r4, #1
 801466a:	723c      	strb	r4, [r7, #8]
 801466c:	2301      	movs	r3, #1
 801466e:	4618      	mov	r0, r3
 8014670:	b047      	add	sp, #284	; 0x11c
 8014672:	e8bd 83f0 	ldmia.w	sp!, {r4, r5, r6, r7, r8, r9, pc}
 8014676:	2300      	movs	r3, #0
 8014678:	f888 3040 	strb.w	r3, [r8, #64]	; 0x40
 801467c:	e7eb      	b.n	8014656 <fatfs_list_directory_next+0x96>
 801467e:	5ce9      	ldrb	r1, [r5, r3]
 8014680:	aa46      	add	r2, sp, #280	; 0x118
 8014682:	441a      	add	r2, r3
 8014684:	f802 1c10 	strb.w	r1, [r2, #-16]
 8014688:	3301      	adds	r3, #1
 801468a:	b2db      	uxtb	r3, r3
 801468c:	2b07      	cmp	r3, #7
 801468e:	d9f6      	bls.n	801467e <fatfs_list_directory_next+0xbe>
 8014690:	2308      	movs	r3, #8
 8014692:	e001      	b.n	8014698 <fatfs_list_directory_next+0xd8>
 8014694:	3301      	adds	r3, #1
 8014696:	b2db      	uxtb	r3, r3
 8014698:	2b0a      	cmp	r3, #10
 801469a:	d80a      	bhi.n	80146b2 <fatfs_list_directory_next+0xf2>
 801469c:	1c5a      	adds	r2, r3, #1
 801469e:	5ce9      	ldrb	r1, [r5, r3]
 80146a0:	a846      	add	r0, sp, #280	; 0x118
 80146a2:	4402      	add	r2, r0
 80146a4:	f802 1c10 	strb.w	r1, [r2, #-16]
 80146a8:	2920      	cmp	r1, #32
 80146aa:	d0f3      	beq.n	8014694 <fatfs_list_directory_next+0xd4>
 80146ac:	f04f 0901 	mov.w	r9, #1
 80146b0:	e7f0      	b.n	8014694 <fatfs_list_directory_next+0xd4>
 80146b2:	f1b9 0f00 	cmp.w	r9, #0
 80146b6:	d00b      	beq.n	80146d0 <fatfs_list_directory_next+0x110>
 80146b8:	f89d 3108 	ldrb.w	r3, [sp, #264]	; 0x108
 80146bc:	2b2e      	cmp	r3, #46	; 0x2e
 80146be:	d003      	beq.n	80146c8 <fatfs_list_directory_next+0x108>
 80146c0:	232e      	movs	r3, #46	; 0x2e
 80146c2:	f88d 3110 	strb.w	r3, [sp, #272]	; 0x110
 80146c6:	e006      	b.n	80146d6 <fatfs_list_directory_next+0x116>
 80146c8:	2320      	movs	r3, #32
 80146ca:	f88d 3110 	strb.w	r3, [sp, #272]	; 0x110
 80146ce:	e002      	b.n	80146d6 <fatfs_list_directory_next+0x116>
 80146d0:	2320      	movs	r3, #32
 80146d2:	f88d 3110 	strb.w	r3, [sp, #272]	; 0x110
 80146d6:	a942      	add	r1, sp, #264	; 0x108
 80146d8:	4640      	mov	r0, r8
 80146da:	f000 f979 	bl	80149d0 <fatfs_get_sfn_display_name>
 80146de:	4628      	mov	r0, r5
 80146e0:	f002 f807 	bl	80166f2 <fatfs_entry_is_dir>
 80146e4:	b178      	cbz	r0, 8014706 <fatfs_list_directory_next+0x146>
 80146e6:	2301      	movs	r3, #1
 80146e8:	f888 3040 	strb.w	r3, [r8, #64]	; 0x40
 80146ec:	69eb      	ldr	r3, [r5, #28]
 80146ee:	f8c8 3048 	str.w	r3, [r8, #72]	; 0x48
 80146f2:	8aaa      	ldrh	r2, [r5, #20]
 80146f4:	8b6b      	ldrh	r3, [r5, #26]
 80146f6:	ea43 4302 	orr.w	r3, r3, r2, lsl #16
 80146fa:	f8c8 3044 	str.w	r3, [r8, #68]	; 0x44
 80146fe:	3401      	adds	r4, #1
 8014700:	723c      	strb	r4, [r7, #8]
 8014702:	2301      	movs	r3, #1
 8014704:	e7b3      	b.n	801466e <fatfs_list_directory_next+0xae>
 8014706:	2300      	movs	r3, #0
 8014708:	f888 3040 	strb.w	r3, [r8, #64]	; 0x40
 801470c:	e7ee      	b.n	80146ec <fatfs_list_directory_next+0x12c>
 801470e:	683b      	ldr	r3, [r7, #0]
 8014710:	3301      	adds	r3, #1
 8014712:	603b      	str	r3, [r7, #0]
 8014714:	2300      	movs	r3, #0
 8014716:	723b      	strb	r3, [r7, #8]
 8014718:	2300      	movs	r3, #0
 801471a:	683a      	ldr	r2, [r7, #0]
 801471c:	6879      	ldr	r1, [r7, #4]
 801471e:	4630      	mov	r0, r6
 8014720:	f7ff fd17 	bl	8014152 <fatfs_sector_reader>
 8014724:	4603      	mov	r3, r0
 8014726:	2800      	cmp	r0, #0
 8014728:	d0a1      	beq.n	801466e <fatfs_list_directory_next+0xae>
 801472a:	7a3c      	ldrb	r4, [r7, #8]
 801472c:	e75d      	b.n	80145ea <fatfs_list_directory_next+0x2a>
 801472e:	bf00      	nop

08014730 <FileString_StrCmpNoCase>:
 8014730:	b4f0      	push	{r4, r5, r6, r7}
 8014732:	4604      	mov	r4, r0
 8014734:	e011      	b.n	801475a <FileString_StrCmpNoCase+0x2a>
 8014736:	462a      	mov	r2, r5
 8014738:	f1a7 0341 	sub.w	r3, r7, #65	; 0x41
 801473c:	b2db      	uxtb	r3, r3
 801473e:	2b19      	cmp	r3, #25
 8014740:	d803      	bhi.n	801474a <FileString_StrCmpNoCase+0x1a>
 8014742:	f107 0020 	add.w	r0, r7, #32
 8014746:	b2c0      	uxtb	r0, r0
 8014748:	e000      	b.n	801474c <FileString_StrCmpNoCase+0x1c>
 801474a:	4638      	mov	r0, r7
 801474c:	1a10      	subs	r0, r2, r0
 801474e:	d112      	bne.n	8014776 <FileString_StrCmpNoCase+0x46>
 8014750:	b18d      	cbz	r5, 8014776 <FileString_StrCmpNoCase+0x46>
 8014752:	b187      	cbz	r7, 8014776 <FileString_StrCmpNoCase+0x46>
 8014754:	3401      	adds	r4, #1
 8014756:	3101      	adds	r1, #1
 8014758:	4632      	mov	r2, r6
 801475a:	1e56      	subs	r6, r2, #1
 801475c:	b152      	cbz	r2, 8014774 <FileString_StrCmpNoCase+0x44>
 801475e:	7825      	ldrb	r5, [r4, #0]
 8014760:	780f      	ldrb	r7, [r1, #0]
 8014762:	f1a5 0341 	sub.w	r3, r5, #65	; 0x41
 8014766:	b2db      	uxtb	r3, r3
 8014768:	2b19      	cmp	r3, #25
 801476a:	d8e4      	bhi.n	8014736 <FileString_StrCmpNoCase+0x6>
 801476c:	f105 0220 	add.w	r2, r5, #32
 8014770:	b2d2      	uxtb	r2, r2
 8014772:	e7e1      	b.n	8014738 <FileString_StrCmpNoCase+0x8>
 8014774:	4610      	mov	r0, r2
 8014776:	bcf0      	pop	{r4, r5, r6, r7}
 8014778:	4770      	bx	lr

0801477a <FileString_GetExtension>:
 801477a:	4601      	mov	r1, r0
 801477c:	4603      	mov	r3, r0
 801477e:	f04f 30ff 	mov.w	r0, #4294967295	; 0xffffffff
 8014782:	e000      	b.n	8014786 <FileString_GetExtension+0xc>
 8014784:	3301      	adds	r3, #1
 8014786:	781a      	ldrb	r2, [r3, #0]
 8014788:	b11a      	cbz	r2, 8014792 <FileString_GetExtension+0x18>
 801478a:	2a2e      	cmp	r2, #46	; 0x2e
 801478c:	d1fa      	bne.n	8014784 <FileString_GetExtension+0xa>
 801478e:	1a58      	subs	r0, r3, r1
 8014790:	e7f8      	b.n	8014784 <FileString_GetExtension+0xa>
 8014792:	4770      	bx	lr

08014794 <FileString_TrimLength>:
 8014794:	b410      	push	{r4}
 8014796:	4604      	mov	r4, r0
 8014798:	1e4b      	subs	r3, r1, #1
 801479a:	4403      	add	r3, r0
 801479c:	4608      	mov	r0, r1
 801479e:	b131      	cbz	r1, 80147ae <FileString_TrimLength+0x1a>
 80147a0:	781a      	ldrb	r2, [r3, #0]
 80147a2:	2a20      	cmp	r2, #32
 80147a4:	d103      	bne.n	80147ae <FileString_TrimLength+0x1a>
 80147a6:	1b18      	subs	r0, r3, r4
 80147a8:	3b01      	subs	r3, #1
 80147aa:	3901      	subs	r1, #1
 80147ac:	e7f7      	b.n	801479e <FileString_TrimLength+0xa>
 80147ae:	f85d 4b04 	ldr.w	r4, [sp], #4
 80147b2:	4770      	bx	lr

080147b4 <fatfs_total_path_levels>:
 80147b4:	4603      	mov	r3, r0
 80147b6:	b1d8      	cbz	r0, 80147f0 <fatfs_total_path_levels+0x3c>
 80147b8:	7801      	ldrb	r1, [r0, #0]
 80147ba:	292f      	cmp	r1, #47	; 0x2f
 80147bc:	d009      	beq.n	80147d2 <fatfs_total_path_levels+0x1e>
 80147be:	7842      	ldrb	r2, [r0, #1]
 80147c0:	2a3a      	cmp	r2, #58	; 0x3a
 80147c2:	d002      	beq.n	80147ca <fatfs_total_path_levels+0x16>
 80147c4:	7882      	ldrb	r2, [r0, #2]
 80147c6:	2a5c      	cmp	r2, #92	; 0x5c
 80147c8:	d115      	bne.n	80147f6 <fatfs_total_path_levels+0x42>
 80147ca:	3303      	adds	r3, #3
 80147cc:	215c      	movs	r1, #92	; 0x5c
 80147ce:	2000      	movs	r0, #0
 80147d0:	e003      	b.n	80147da <fatfs_total_path_levels+0x26>
 80147d2:	3301      	adds	r3, #1
 80147d4:	e7fb      	b.n	80147ce <fatfs_total_path_levels+0x1a>
 80147d6:	3301      	adds	r3, #1
 80147d8:	3001      	adds	r0, #1
 80147da:	781a      	ldrb	r2, [r3, #0]
 80147dc:	b132      	cbz	r2, 80147ec <fatfs_total_path_levels+0x38>
 80147de:	781a      	ldrb	r2, [r3, #0]
 80147e0:	2a00      	cmp	r2, #0
 80147e2:	d0f9      	beq.n	80147d8 <fatfs_total_path_levels+0x24>
 80147e4:	428a      	cmp	r2, r1
 80147e6:	d0f6      	beq.n	80147d6 <fatfs_total_path_levels+0x22>
 80147e8:	3301      	adds	r3, #1
 80147ea:	e7f8      	b.n	80147de <fatfs_total_path_levels+0x2a>
 80147ec:	3801      	subs	r0, #1
 80147ee:	4770      	bx	lr
 80147f0:	f04f 30ff 	mov.w	r0, #4294967295	; 0xffffffff
 80147f4:	4770      	bx	lr
 80147f6:	f04f 30ff 	mov.w	r0, #4294967295	; 0xffffffff
 80147fa:	4770      	bx	lr

080147fc <fatfs_get_substring>:
 80147fc:	b3e0      	cbz	r0, 8014878 <fatfs_get_substring+0x7c>
 80147fe:	e92d 4ff8 	stmdb	sp!, {r3, r4, r5, r6, r7, r8, r9, sl, fp, lr}
 8014802:	4689      	mov	r9, r1
 8014804:	4692      	mov	sl, r2
 8014806:	469b      	mov	fp, r3
 8014808:	4604      	mov	r4, r0
 801480a:	2b00      	cmp	r3, #0
 801480c:	dd37      	ble.n	801487e <fatfs_get_substring+0x82>
 801480e:	f890 8000 	ldrb.w	r8, [r0]
 8014812:	f1b8 0f2f 	cmp.w	r8, #47	; 0x2f
 8014816:	d00f      	beq.n	8014838 <fatfs_get_substring+0x3c>
 8014818:	7843      	ldrb	r3, [r0, #1]
 801481a:	2b3a      	cmp	r3, #58	; 0x3a
 801481c:	d002      	beq.n	8014824 <fatfs_get_substring+0x28>
 801481e:	7883      	ldrb	r3, [r0, #2]
 8014820:	2b5c      	cmp	r3, #92	; 0x5c
 8014822:	d12f      	bne.n	8014884 <fatfs_get_substring+0x88>
 8014824:	3403      	adds	r4, #3
 8014826:	f04f 085c 	mov.w	r8, #92	; 0x5c
 801482a:	4620      	mov	r0, r4
 801482c:	f7fd f8c2 	bl	80119b4 <strlen>
 8014830:	2300      	movs	r3, #0
 8014832:	461f      	mov	r7, r3
 8014834:	461d      	mov	r5, r3
 8014836:	e005      	b.n	8014844 <fatfs_get_substring+0x48>
 8014838:	3401      	adds	r4, #1
 801483a:	e7f6      	b.n	801482a <fatfs_get_substring+0x2e>
 801483c:	3701      	adds	r7, #1
 801483e:	e006      	b.n	801484e <fatfs_get_substring+0x52>
 8014840:	3401      	adds	r4, #1
 8014842:	3501      	adds	r5, #1
 8014844:	4285      	cmp	r5, r0
 8014846:	da0e      	bge.n	8014866 <fatfs_get_substring+0x6a>
 8014848:	7826      	ldrb	r6, [r4, #0]
 801484a:	4546      	cmp	r6, r8
 801484c:	d0f6      	beq.n	801483c <fatfs_get_substring+0x40>
 801484e:	454f      	cmp	r7, r9
 8014850:	d1f6      	bne.n	8014840 <fatfs_get_substring+0x44>
 8014852:	4546      	cmp	r6, r8
 8014854:	d0f4      	beq.n	8014840 <fatfs_get_substring+0x44>
 8014856:	f10b 32ff 	add.w	r2, fp, #4294967295	; 0xffffffff
 801485a:	429a      	cmp	r2, r3
 801485c:	ddf0      	ble.n	8014840 <fatfs_get_substring+0x44>
 801485e:	f80a 6003 	strb.w	r6, [sl, r3]
 8014862:	3301      	adds	r3, #1
 8014864:	e7ec      	b.n	8014840 <fatfs_get_substring+0x44>
 8014866:	2200      	movs	r2, #0
 8014868:	f80a 2003 	strb.w	r2, [sl, r3]
 801486c:	f89a 3000 	ldrb.w	r3, [sl]
 8014870:	b15b      	cbz	r3, 801488a <fatfs_get_substring+0x8e>
 8014872:	4610      	mov	r0, r2
 8014874:	e8bd 8ff8 	ldmia.w	sp!, {r3, r4, r5, r6, r7, r8, r9, sl, fp, pc}
 8014878:	f04f 30ff 	mov.w	r0, #4294967295	; 0xffffffff
 801487c:	4770      	bx	lr
 801487e:	f04f 30ff 	mov.w	r0, #4294967295	; 0xffffffff
 8014882:	e7f7      	b.n	8014874 <fatfs_get_substring+0x78>
 8014884:	f04f 30ff 	mov.w	r0, #4294967295	; 0xffffffff
 8014888:	e7f4      	b.n	8014874 <fatfs_get_substring+0x78>
 801488a:	f04f 30ff 	mov.w	r0, #4294967295	; 0xffffffff
 801488e:	e7f1      	b.n	8014874 <fatfs_get_substring+0x78>

08014890 <fatfs_split_path>:
 8014890:	e92d 43f8 	stmdb	sp!, {r3, r4, r5, r6, r7, r8, r9, lr}
 8014894:	4607      	mov	r7, r0
 8014896:	4688      	mov	r8, r1
 8014898:	4615      	mov	r5, r2
 801489a:	461e      	mov	r6, r3
 801489c:	f7ff ff8a 	bl	80147b4 <fatfs_total_path_levels>
 80148a0:	4604      	mov	r4, r0
 80148a2:	f1b0 3fff 	cmp.w	r0, #4294967295	; 0xffffffff
 80148a6:	d00b      	beq.n	80148c0 <fatfs_split_path+0x30>
 80148a8:	9b08      	ldr	r3, [sp, #32]
 80148aa:	4632      	mov	r2, r6
 80148ac:	4601      	mov	r1, r0
 80148ae:	4638      	mov	r0, r7
 80148b0:	f7ff ffa4 	bl	80147fc <fatfs_get_substring>
 80148b4:	4681      	mov	r9, r0
 80148b6:	b9e0      	cbnz	r0, 80148f2 <fatfs_split_path+0x62>
 80148b8:	b92c      	cbnz	r4, 80148c6 <fatfs_split_path+0x36>
 80148ba:	2300      	movs	r3, #0
 80148bc:	f888 3000 	strb.w	r3, [r8]
 80148c0:	4620      	mov	r0, r4
 80148c2:	e8bd 83f8 	ldmia.w	sp!, {r3, r4, r5, r6, r7, r8, r9, pc}
 80148c6:	4638      	mov	r0, r7
 80148c8:	f7fd f874 	bl	80119b4 <strlen>
 80148cc:	4604      	mov	r4, r0
 80148ce:	4630      	mov	r0, r6
 80148d0:	f7fd f870 	bl	80119b4 <strlen>
 80148d4:	1a20      	subs	r0, r4, r0
 80148d6:	42a8      	cmp	r0, r5
 80148d8:	dc00      	bgt.n	80148dc <fatfs_split_path+0x4c>
 80148da:	4605      	mov	r5, r0
 80148dc:	462a      	mov	r2, r5
 80148de:	4639      	mov	r1, r7
 80148e0:	4640      	mov	r0, r8
 80148e2:	f7fd f83d 	bl	8011960 <memcpy>
 80148e6:	3d01      	subs	r5, #1
 80148e8:	2300      	movs	r3, #0
 80148ea:	f808 3005 	strb.w	r3, [r8, r5]
 80148ee:	464c      	mov	r4, r9
 80148f0:	e7e6      	b.n	80148c0 <fatfs_split_path+0x30>
 80148f2:	f04f 34ff 	mov.w	r4, #4294967295	; 0xffffffff
 80148f6:	e7e3      	b.n	80148c0 <fatfs_split_path+0x30>

080148f8 <fatfs_compare_names>:
 80148f8:	e92d 47f0 	stmdb	sp!, {r4, r5, r6, r7, r8, r9, sl, lr}
 80148fc:	4680      	mov	r8, r0
 80148fe:	460f      	mov	r7, r1
 8014900:	f7ff ff3b 	bl	801477a <FileString_GetExtension>
 8014904:	4604      	mov	r4, r0
 8014906:	4638      	mov	r0, r7
 8014908:	f7ff ff37 	bl	801477a <FileString_GetExtension>
 801490c:	4605      	mov	r5, r0
 801490e:	f1b4 3fff 	cmp.w	r4, #4294967295	; 0xffffffff
 8014912:	d016      	beq.n	8014942 <fatfs_compare_names+0x4a>
 8014914:	f1b5 3fff 	cmp.w	r5, #4294967295	; 0xffffffff
 8014918:	d018      	beq.n	801494c <fatfs_compare_names+0x54>
 801491a:	f1b4 3fff 	cmp.w	r4, #4294967295	; 0xffffffff
 801491e:	d025      	beq.n	801496c <fatfs_compare_names+0x74>
 8014920:	1c66      	adds	r6, r4, #1
 8014922:	4446      	add	r6, r8
 8014924:	f105 0901 	add.w	r9, r5, #1
 8014928:	44b9      	add	r9, r7
 801492a:	4630      	mov	r0, r6
 801492c:	f7fd f842 	bl	80119b4 <strlen>
 8014930:	4682      	mov	sl, r0
 8014932:	4648      	mov	r0, r9
 8014934:	f7fd f83e 	bl	80119b4 <strlen>
 8014938:	4582      	cmp	sl, r0
 801493a:	d00c      	beq.n	8014956 <fatfs_compare_names+0x5e>
 801493c:	2000      	movs	r0, #0
 801493e:	e8bd 87f0 	ldmia.w	sp!, {r4, r5, r6, r7, r8, r9, sl, pc}
 8014942:	f1b0 3fff 	cmp.w	r0, #4294967295	; 0xffffffff
 8014946:	d0e5      	beq.n	8014914 <fatfs_compare_names+0x1c>
 8014948:	2000      	movs	r0, #0
 801494a:	e7f8      	b.n	801493e <fatfs_compare_names+0x46>
 801494c:	f1b4 3fff 	cmp.w	r4, #4294967295	; 0xffffffff
 8014950:	d0e3      	beq.n	801491a <fatfs_compare_names+0x22>
 8014952:	2000      	movs	r0, #0
 8014954:	e7f3      	b.n	801493e <fatfs_compare_names+0x46>
 8014956:	4630      	mov	r0, r6
 8014958:	f7fd f82c 	bl	80119b4 <strlen>
 801495c:	4602      	mov	r2, r0
 801495e:	4649      	mov	r1, r9
 8014960:	4630      	mov	r0, r6
 8014962:	f7ff fee5 	bl	8014730 <FileString_StrCmpNoCase>
 8014966:	b148      	cbz	r0, 801497c <fatfs_compare_names+0x84>
 8014968:	2000      	movs	r0, #0
 801496a:	e7e8      	b.n	801493e <fatfs_compare_names+0x46>
 801496c:	4640      	mov	r0, r8
 801496e:	f7fd f821 	bl	80119b4 <strlen>
 8014972:	4604      	mov	r4, r0
 8014974:	4638      	mov	r0, r7
 8014976:	f7fd f81d 	bl	80119b4 <strlen>
 801497a:	4605      	mov	r5, r0
 801497c:	4621      	mov	r1, r4
 801497e:	4640      	mov	r0, r8
 8014980:	f7ff ff08 	bl	8014794 <FileString_TrimLength>
 8014984:	4604      	mov	r4, r0
 8014986:	4629      	mov	r1, r5
 8014988:	4638      	mov	r0, r7
 801498a:	f7ff ff03 	bl	8014794 <FileString_TrimLength>
 801498e:	4284      	cmp	r4, r0
 8014990:	d107      	bne.n	80149a2 <fatfs_compare_names+0xaa>
 8014992:	4622      	mov	r2, r4
 8014994:	4639      	mov	r1, r7
 8014996:	4640      	mov	r0, r8
 8014998:	f7ff feca 	bl	8014730 <FileString_StrCmpNoCase>
 801499c:	b118      	cbz	r0, 80149a6 <fatfs_compare_names+0xae>
 801499e:	2000      	movs	r0, #0
 80149a0:	e7cd      	b.n	801493e <fatfs_compare_names+0x46>
 80149a2:	2000      	movs	r0, #0
 80149a4:	e7cb      	b.n	801493e <fatfs_compare_names+0x46>
 80149a6:	2001      	movs	r0, #1
 80149a8:	e7c9      	b.n	801493e <fatfs_compare_names+0x46>

080149aa <fatfs_string_ends_with_slash>:
 80149aa:	4603      	mov	r3, r0
 80149ac:	b908      	cbnz	r0, 80149b2 <fatfs_string_ends_with_slash+0x8>
 80149ae:	4770      	bx	lr
 80149b0:	3301      	adds	r3, #1
 80149b2:	781a      	ldrb	r2, [r3, #0]
 80149b4:	b142      	cbz	r2, 80149c8 <fatfs_string_ends_with_slash+0x1e>
 80149b6:	7859      	ldrb	r1, [r3, #1]
 80149b8:	2900      	cmp	r1, #0
 80149ba:	d1f9      	bne.n	80149b0 <fatfs_string_ends_with_slash+0x6>
 80149bc:	2a5c      	cmp	r2, #92	; 0x5c
 80149be:	d005      	beq.n	80149cc <fatfs_string_ends_with_slash+0x22>
 80149c0:	2a2f      	cmp	r2, #47	; 0x2f
 80149c2:	d1f5      	bne.n	80149b0 <fatfs_string_ends_with_slash+0x6>
 80149c4:	2001      	movs	r0, #1
 80149c6:	4770      	bx	lr
 80149c8:	2000      	movs	r0, #0
 80149ca:	4770      	bx	lr
 80149cc:	2001      	movs	r0, #1
 80149ce:	4770      	bx	lr

080149d0 <fatfs_get_sfn_display_name>:
 80149d0:	b410      	push	{r4}
 80149d2:	2400      	movs	r4, #0
 80149d4:	e002      	b.n	80149dc <fatfs_get_sfn_display_name+0xc>
 80149d6:	f800 3b01 	strb.w	r3, [r0], #1
 80149da:	3401      	adds	r4, #1
 80149dc:	780b      	ldrb	r3, [r1, #0]
 80149de:	b163      	cbz	r3, 80149fa <fatfs_get_sfn_display_name+0x2a>
 80149e0:	2c0b      	cmp	r4, #11
 80149e2:	dc0a      	bgt.n	80149fa <fatfs_get_sfn_display_name+0x2a>
 80149e4:	3101      	adds	r1, #1
 80149e6:	2b20      	cmp	r3, #32
 80149e8:	d0f8      	beq.n	80149dc <fatfs_get_sfn_display_name+0xc>
 80149ea:	f1a3 0241 	sub.w	r2, r3, #65	; 0x41
 80149ee:	b2d2      	uxtb	r2, r2
 80149f0:	2a19      	cmp	r2, #25
 80149f2:	d8f0      	bhi.n	80149d6 <fatfs_get_sfn_display_name+0x6>
 80149f4:	3320      	adds	r3, #32
 80149f6:	b2db      	uxtb	r3, r3
 80149f8:	e7ed      	b.n	80149d6 <fatfs_get_sfn_display_name+0x6>
 80149fa:	2300      	movs	r3, #0
 80149fc:	7003      	strb	r3, [r0, #0]
 80149fe:	2001      	movs	r0, #1
 8014a00:	f85d 4b04 	ldr.w	r4, [sp], #4
 8014a04:	4770      	bx	lr

08014a06 <fatfs_get_extension>:
 8014a06:	b570      	push	{r4, r5, r6, lr}
 8014a08:	4604      	mov	r4, r0
 8014a0a:	460d      	mov	r5, r1
 8014a0c:	4616      	mov	r6, r2
 8014a0e:	f7ff feb4 	bl	801477a <FileString_GetExtension>
 8014a12:	2800      	cmp	r0, #0
 8014a14:	dd1e      	ble.n	8014a54 <fatfs_get_extension+0x4e>
 8014a16:	b1fd      	cbz	r5, 8014a58 <fatfs_get_extension+0x52>
 8014a18:	b90e      	cbnz	r6, 8014a1e <fatfs_get_extension+0x18>
 8014a1a:	4630      	mov	r0, r6
 8014a1c:	e01b      	b.n	8014a56 <fatfs_get_extension+0x50>
 8014a1e:	3001      	adds	r0, #1
 8014a20:	4404      	add	r4, r0
 8014a22:	2000      	movs	r0, #0
 8014a24:	e004      	b.n	8014a30 <fatfs_get_extension+0x2a>
 8014a26:	4629      	mov	r1, r5
 8014a28:	f801 3b01 	strb.w	r3, [r1], #1
 8014a2c:	3001      	adds	r0, #1
 8014a2e:	460d      	mov	r5, r1
 8014a30:	7823      	ldrb	r3, [r4, #0]
 8014a32:	b15b      	cbz	r3, 8014a4c <fatfs_get_extension+0x46>
 8014a34:	1e72      	subs	r2, r6, #1
 8014a36:	4282      	cmp	r2, r0
 8014a38:	dd08      	ble.n	8014a4c <fatfs_get_extension+0x46>
 8014a3a:	3401      	adds	r4, #1
 8014a3c:	f1a3 0241 	sub.w	r2, r3, #65	; 0x41
 8014a40:	b2d2      	uxtb	r2, r2
 8014a42:	2a19      	cmp	r2, #25
 8014a44:	d8ef      	bhi.n	8014a26 <fatfs_get_extension+0x20>
 8014a46:	3320      	adds	r3, #32
 8014a48:	b2db      	uxtb	r3, r3
 8014a4a:	e7ec      	b.n	8014a26 <fatfs_get_extension+0x20>
 8014a4c:	2300      	movs	r3, #0
 8014a4e:	702b      	strb	r3, [r5, #0]
 8014a50:	2001      	movs	r0, #1
 8014a52:	e000      	b.n	8014a56 <fatfs_get_extension+0x50>
 8014a54:	2000      	movs	r0, #0
 8014a56:	bd70      	pop	{r4, r5, r6, pc}
 8014a58:	2000      	movs	r0, #0
 8014a5a:	e7fc      	b.n	8014a56 <fatfs_get_extension+0x50>

08014a5c <fatfs_create_path_string>:
 8014a5c:	b370      	cbz	r0, 8014abc <fatfs_create_path_string+0x60>
 8014a5e:	b4f0      	push	{r4, r5, r6, r7}
 8014a60:	4605      	mov	r5, r0
 8014a62:	b369      	cbz	r1, 8014ac0 <fatfs_create_path_string+0x64>
 8014a64:	b37a      	cbz	r2, 8014ac6 <fatfs_create_path_string+0x6a>
 8014a66:	2b00      	cmp	r3, #0
 8014a68:	dc0f      	bgt.n	8014a8a <fatfs_create_path_string+0x2e>
 8014a6a:	2000      	movs	r0, #0
 8014a6c:	e029      	b.n	8014ac2 <fatfs_create_path_string+0x66>
 8014a6e:	f802 4b01 	strb.w	r4, [r2], #1
 8014a72:	3001      	adds	r0, #1
 8014a74:	4627      	mov	r7, r4
 8014a76:	782c      	ldrb	r4, [r5, #0]
 8014a78:	b164      	cbz	r4, 8014a94 <fatfs_create_path_string+0x38>
 8014a7a:	1e9e      	subs	r6, r3, #2
 8014a7c:	4286      	cmp	r6, r0
 8014a7e:	dd09      	ble.n	8014a94 <fatfs_create_path_string+0x38>
 8014a80:	3501      	adds	r5, #1
 8014a82:	2c5c      	cmp	r4, #92	; 0x5c
 8014a84:	d1f3      	bne.n	8014a6e <fatfs_create_path_string+0x12>
 8014a86:	46a4      	mov	ip, r4
 8014a88:	e7f1      	b.n	8014a6e <fatfs_create_path_string+0x12>
 8014a8a:	f04f 0c2f 	mov.w	ip, #47	; 0x2f
 8014a8e:	2700      	movs	r7, #0
 8014a90:	4638      	mov	r0, r7
 8014a92:	e7f0      	b.n	8014a76 <fatfs_create_path_string+0x1a>
 8014a94:	2f5c      	cmp	r7, #92	; 0x5c
 8014a96:	d008      	beq.n	8014aaa <fatfs_create_path_string+0x4e>
 8014a98:	2f2f      	cmp	r7, #47	; 0x2f
 8014a9a:	d006      	beq.n	8014aaa <fatfs_create_path_string+0x4e>
 8014a9c:	f802 cb01 	strb.w	ip, [r2], #1
 8014aa0:	e003      	b.n	8014aaa <fatfs_create_path_string+0x4e>
 8014aa2:	3101      	adds	r1, #1
 8014aa4:	f802 4b01 	strb.w	r4, [r2], #1
 8014aa8:	3001      	adds	r0, #1
 8014aaa:	780c      	ldrb	r4, [r1, #0]
 8014aac:	b114      	cbz	r4, 8014ab4 <fatfs_create_path_string+0x58>
 8014aae:	1e5d      	subs	r5, r3, #1
 8014ab0:	4285      	cmp	r5, r0
 8014ab2:	dcf6      	bgt.n	8014aa2 <fatfs_create_path_string+0x46>
 8014ab4:	2300      	movs	r3, #0
 8014ab6:	7013      	strb	r3, [r2, #0]
 8014ab8:	2001      	movs	r0, #1
 8014aba:	e002      	b.n	8014ac2 <fatfs_create_path_string+0x66>
 8014abc:	2000      	movs	r0, #0
 8014abe:	4770      	bx	lr
 8014ac0:	2000      	movs	r0, #0
 8014ac2:	bcf0      	pop	{r4, r5, r6, r7}
 8014ac4:	4770      	bx	lr
 8014ac6:	2000      	movs	r0, #0
 8014ac8:	e7fb      	b.n	8014ac2 <fatfs_create_path_string+0x66>

08014aca <fatfs_find_free_dir_offset>:
 8014aca:	e92d 4ff0 	stmdb	sp!, {r4, r5, r6, r7, r8, r9, sl, fp, lr}
 8014ace:	b087      	sub	sp, #28
 8014ad0:	9103      	str	r1, [sp, #12]
 8014ad2:	f8dd a040 	ldr.w	sl, [sp, #64]	; 0x40
 8014ad6:	4693      	mov	fp, r2
 8014ad8:	2a00      	cmp	r2, #0
 8014ada:	d072      	beq.n	8014bc2 <fatfs_find_free_dir_offset+0xf8>
 8014adc:	4607      	mov	r7, r0
 8014ade:	4699      	mov	r9, r3
 8014ae0:	2300      	movs	r3, #0
 8014ae2:	9301      	str	r3, [sp, #4]
 8014ae4:	461d      	mov	r5, r3
 8014ae6:	9302      	str	r3, [sp, #8]
 8014ae8:	9b02      	ldr	r3, [sp, #8]
 8014aea:	461a      	mov	r2, r3
 8014aec:	4698      	mov	r8, r3
 8014aee:	3301      	adds	r3, #1
 8014af0:	9302      	str	r3, [sp, #8]
 8014af2:	2300      	movs	r3, #0
 8014af4:	9903      	ldr	r1, [sp, #12]
 8014af6:	4638      	mov	r0, r7
 8014af8:	f7ff fb2b 	bl	8014152 <fatfs_sector_reader>
 8014afc:	b3c0      	cbz	r0, 8014b70 <fatfs_find_free_dir_offset+0xa6>
 8014afe:	2400      	movs	r4, #0
 8014b00:	e002      	b.n	8014b08 <fatfs_find_free_dir_offset+0x3e>
 8014b02:	3501      	adds	r5, #1
 8014b04:	3401      	adds	r4, #1
 8014b06:	b2e4      	uxtb	r4, r4
 8014b08:	2c0f      	cmp	r4, #15
 8014b0a:	d8ed      	bhi.n	8014ae8 <fatfs_find_free_dir_offset+0x1e>
 8014b0c:	0166      	lsls	r6, r4, #5
 8014b0e:	f107 0040 	add.w	r0, r7, #64	; 0x40
 8014b12:	eb00 1044 	add.w	r0, r0, r4, lsl #5
 8014b16:	f001 fd9a 	bl	801664e <fatfs_entry_lfn_text>
 8014b1a:	b140      	cbz	r0, 8014b2e <fatfs_find_free_dir_offset+0x64>
 8014b1c:	2d00      	cmp	r5, #0
 8014b1e:	d1f0      	bne.n	8014b02 <fatfs_find_free_dir_offset+0x38>
 8014b20:	f8c9 8000 	str.w	r8, [r9]
 8014b24:	f88a 4000 	strb.w	r4, [sl]
 8014b28:	2301      	movs	r3, #1
 8014b2a:	9301      	str	r3, [sp, #4]
 8014b2c:	e7e9      	b.n	8014b02 <fatfs_find_free_dir_offset+0x38>
 8014b2e:	443e      	add	r6, r7
 8014b30:	f896 2040 	ldrb.w	r2, [r6, #64]	; 0x40
 8014b34:	2ae5      	cmp	r2, #229	; 0xe5
 8014b36:	d00c      	beq.n	8014b52 <fatfs_find_free_dir_offset+0x88>
 8014b38:	b9ba      	cbnz	r2, 8014b6a <fatfs_find_free_dir_offset+0xa0>
 8014b3a:	b92d      	cbnz	r5, 8014b48 <fatfs_find_free_dir_offset+0x7e>
 8014b3c:	f8c9 8000 	str.w	r8, [r9]
 8014b40:	f88a 4000 	strb.w	r4, [sl]
 8014b44:	2301      	movs	r3, #1
 8014b46:	9301      	str	r3, [sp, #4]
 8014b48:	3501      	adds	r5, #1
 8014b4a:	45ab      	cmp	fp, r5
 8014b4c:	dcda      	bgt.n	8014b04 <fatfs_find_free_dir_offset+0x3a>
 8014b4e:	2001      	movs	r0, #1
 8014b50:	e038      	b.n	8014bc4 <fatfs_find_free_dir_offset+0xfa>
 8014b52:	b92d      	cbnz	r5, 8014b60 <fatfs_find_free_dir_offset+0x96>
 8014b54:	f8c9 8000 	str.w	r8, [r9]
 8014b58:	f88a 4000 	strb.w	r4, [sl]
 8014b5c:	2301      	movs	r3, #1
 8014b5e:	9301      	str	r3, [sp, #4]
 8014b60:	3501      	adds	r5, #1
 8014b62:	45ab      	cmp	fp, r5
 8014b64:	dcce      	bgt.n	8014b04 <fatfs_find_free_dir_offset+0x3a>
 8014b66:	2001      	movs	r0, #1
 8014b68:	e02c      	b.n	8014bc4 <fatfs_find_free_dir_offset+0xfa>
 8014b6a:	9001      	str	r0, [sp, #4]
 8014b6c:	4605      	mov	r5, r0
 8014b6e:	e7c9      	b.n	8014b04 <fatfs_find_free_dir_offset+0x3a>
 8014b70:	aa05      	add	r2, sp, #20
 8014b72:	68b9      	ldr	r1, [r7, #8]
 8014b74:	4638      	mov	r0, r7
 8014b76:	f002 f818 	bl	8016baa <fatfs_find_blank_cluster>
 8014b7a:	b318      	cbz	r0, 8014bc4 <fatfs_find_free_dir_offset+0xfa>
 8014b7c:	9a05      	ldr	r2, [sp, #20]
 8014b7e:	9903      	ldr	r1, [sp, #12]
 8014b80:	4638      	mov	r0, r7
 8014b82:	f002 f8ae 	bl	8016ce2 <fatfs_fat_add_cluster_to_chain>
 8014b86:	b1e8      	cbz	r0, 8014bc4 <fatfs_find_free_dir_offset+0xfa>
 8014b88:	f44f 7200 	mov.w	r2, #512	; 0x200
 8014b8c:	2100      	movs	r1, #0
 8014b8e:	f107 0040 	add.w	r0, r7, #64	; 0x40
 8014b92:	f7fc fede 	bl	8011952 <memset>
 8014b96:	2400      	movs	r4, #0
 8014b98:	783b      	ldrb	r3, [r7, #0]
 8014b9a:	42a3      	cmp	r3, r4
 8014b9c:	d909      	bls.n	8014bb2 <fatfs_find_free_dir_offset+0xe8>
 8014b9e:	2300      	movs	r3, #0
 8014ba0:	4622      	mov	r2, r4
 8014ba2:	9905      	ldr	r1, [sp, #20]
 8014ba4:	4638      	mov	r0, r7
 8014ba6:	f7ff fb47 	bl	8014238 <fatfs_write_sector>
 8014baa:	b158      	cbz	r0, 8014bc4 <fatfs_find_free_dir_offset+0xfa>
 8014bac:	3401      	adds	r4, #1
 8014bae:	b2e4      	uxtb	r4, r4
 8014bb0:	e7f2      	b.n	8014b98 <fatfs_find_free_dir_offset+0xce>
 8014bb2:	9b01      	ldr	r3, [sp, #4]
 8014bb4:	b91b      	cbnz	r3, 8014bbe <fatfs_find_free_dir_offset+0xf4>
 8014bb6:	f8c9 8000 	str.w	r8, [r9]
 8014bba:	f88a 3000 	strb.w	r3, [sl]
 8014bbe:	2001      	movs	r0, #1
 8014bc0:	e000      	b.n	8014bc4 <fatfs_find_free_dir_offset+0xfa>
 8014bc2:	4610      	mov	r0, r2
 8014bc4:	b007      	add	sp, #28
 8014bc6:	e8bd 8ff0 	ldmia.w	sp!, {r4, r5, r6, r7, r8, r9, sl, fp, pc}

08014bca <fatfs_add_free_space>:
 8014bca:	e92d 41f0 	stmdb	sp!, {r4, r5, r6, r7, r8, lr}
 8014bce:	b082      	sub	sp, #8
 8014bd0:	4604      	mov	r4, r0
 8014bd2:	4688      	mov	r8, r1
 8014bd4:	4617      	mov	r7, r2
 8014bd6:	680e      	ldr	r6, [r1, #0]
 8014bd8:	6a43      	ldr	r3, [r0, #36]	; 0x24
 8014bda:	f1b3 3fff 	cmp.w	r3, #4294967295	; 0xffffffff
 8014bde:	d101      	bne.n	8014be4 <fatfs_add_free_space+0x1a>
 8014be0:	2500      	movs	r5, #0
 8014be2:	e007      	b.n	8014bf4 <fatfs_add_free_space+0x2a>
 8014be4:	f04f 31ff 	mov.w	r1, #4294967295	; 0xffffffff
 8014be8:	f001 ffa9 	bl	8016b3e <fatfs_set_fs_info_next_free_cluster>
 8014bec:	e7f8      	b.n	8014be0 <fatfs_add_free_space+0x16>
 8014bee:	f8c8 6000 	str.w	r6, [r8]
 8014bf2:	3501      	adds	r5, #1
 8014bf4:	42bd      	cmp	r5, r7
 8014bf6:	d215      	bcs.n	8014c24 <fatfs_add_free_space+0x5a>
 8014bf8:	aa01      	add	r2, sp, #4
 8014bfa:	68a1      	ldr	r1, [r4, #8]
 8014bfc:	4620      	mov	r0, r4
 8014bfe:	f001 ffd4 	bl	8016baa <fatfs_find_blank_cluster>
 8014c02:	4603      	mov	r3, r0
 8014c04:	b178      	cbz	r0, 8014c26 <fatfs_add_free_space+0x5c>
 8014c06:	9a01      	ldr	r2, [sp, #4]
 8014c08:	4631      	mov	r1, r6
 8014c0a:	4620      	mov	r0, r4
 8014c0c:	f002 f811 	bl	8016c32 <fatfs_fat_set_cluster>
 8014c10:	f04f 32ff 	mov.w	r2, #4294967295	; 0xffffffff
 8014c14:	9901      	ldr	r1, [sp, #4]
 8014c16:	4620      	mov	r0, r4
 8014c18:	f002 f80b 	bl	8016c32 <fatfs_fat_set_cluster>
 8014c1c:	9e01      	ldr	r6, [sp, #4]
 8014c1e:	2d00      	cmp	r5, #0
 8014c20:	d1e7      	bne.n	8014bf2 <fatfs_add_free_space+0x28>
 8014c22:	e7e4      	b.n	8014bee <fatfs_add_free_space+0x24>
 8014c24:	2301      	movs	r3, #1
 8014c26:	4618      	mov	r0, r3
 8014c28:	b002      	add	sp, #8
 8014c2a:	e8bd 81f0 	ldmia.w	sp!, {r4, r5, r6, r7, r8, pc}

08014c2e <fatfs_allocate_free_space>:
 8014c2e:	2b00      	cmp	r3, #0
 8014c30:	d03a      	beq.n	8014ca8 <fatfs_allocate_free_space+0x7a>
 8014c32:	e92d 41f0 	stmdb	sp!, {r4, r5, r6, r7, r8, lr}
 8014c36:	b082      	sub	sp, #8
 8014c38:	4604      	mov	r4, r0
 8014c3a:	460d      	mov	r5, r1
 8014c3c:	4616      	mov	r6, r2
 8014c3e:	461f      	mov	r7, r3
 8014c40:	6a43      	ldr	r3, [r0, #36]	; 0x24
 8014c42:	f1b3 3fff 	cmp.w	r3, #4294967295	; 0xffffffff
 8014c46:	d116      	bne.n	8014c76 <fatfs_allocate_free_space+0x48>
 8014c48:	7823      	ldrb	r3, [r4, #0]
 8014c4a:	025b      	lsls	r3, r3, #9
 8014c4c:	fbb7 f8f3 	udiv	r8, r7, r3
 8014c50:	fb08 f303 	mul.w	r3, r8, r3
 8014c54:	42bb      	cmp	r3, r7
 8014c56:	d001      	beq.n	8014c5c <fatfs_allocate_free_space+0x2e>
 8014c58:	f108 0801 	add.w	r8, r8, #1
 8014c5c:	b985      	cbnz	r5, 8014c80 <fatfs_allocate_free_space+0x52>
 8014c5e:	6833      	ldr	r3, [r6, #0]
 8014c60:	9301      	str	r3, [sp, #4]
 8014c62:	4642      	mov	r2, r8
 8014c64:	a901      	add	r1, sp, #4
 8014c66:	4620      	mov	r0, r4
 8014c68:	f7ff ffaf 	bl	8014bca <fatfs_add_free_space>
 8014c6c:	b100      	cbz	r0, 8014c70 <fatfs_allocate_free_space+0x42>
 8014c6e:	2001      	movs	r0, #1
 8014c70:	b002      	add	sp, #8
 8014c72:	e8bd 81f0 	ldmia.w	sp!, {r4, r5, r6, r7, r8, pc}
 8014c76:	f04f 31ff 	mov.w	r1, #4294967295	; 0xffffffff
 8014c7a:	f001 ff60 	bl	8016b3e <fatfs_set_fs_info_next_free_cluster>
 8014c7e:	e7e3      	b.n	8014c48 <fatfs_allocate_free_space+0x1a>
 8014c80:	aa01      	add	r2, sp, #4
 8014c82:	68a1      	ldr	r1, [r4, #8]
 8014c84:	4620      	mov	r0, r4
 8014c86:	f001 ff90 	bl	8016baa <fatfs_find_blank_cluster>
 8014c8a:	2800      	cmp	r0, #0
 8014c8c:	d0f0      	beq.n	8014c70 <fatfs_allocate_free_space+0x42>
 8014c8e:	f1b8 0f01 	cmp.w	r8, #1
 8014c92:	d1e6      	bne.n	8014c62 <fatfs_allocate_free_space+0x34>
 8014c94:	f04f 32ff 	mov.w	r2, #4294967295	; 0xffffffff
 8014c98:	9901      	ldr	r1, [sp, #4]
 8014c9a:	4620      	mov	r0, r4
 8014c9c:	f001 ffc9 	bl	8016c32 <fatfs_fat_set_cluster>
 8014ca0:	9b01      	ldr	r3, [sp, #4]
 8014ca2:	6033      	str	r3, [r6, #0]
 8014ca4:	2001      	movs	r0, #1
 8014ca6:	e7e3      	b.n	8014c70 <fatfs_allocate_free_space+0x42>
 8014ca8:	2000      	movs	r0, #0
 8014caa:	4770      	bx	lr

08014cac <fatfs_add_file_entry>:
 8014cac:	e92d 4ff0 	stmdb	sp!, {r4, r5, r6, r7, r8, r9, sl, fp, lr}
 8014cb0:	b091      	sub	sp, #68	; 0x44
 8014cb2:	9102      	str	r1, [sp, #8]
 8014cb4:	9203      	str	r2, [sp, #12]
 8014cb6:	461d      	mov	r5, r3
 8014cb8:	9304      	str	r3, [sp, #16]
 8014cba:	2300      	movs	r3, #0
 8014cbc:	9307      	str	r3, [sp, #28]
 8014cbe:	f88d 301b 	strb.w	r3, [sp, #27]
 8014cc2:	6b43      	ldr	r3, [r0, #52]	; 0x34
 8014cc4:	2b00      	cmp	r3, #0
 8014cc6:	f000 808a 	beq.w	8014dde <fatfs_add_file_entry+0x132>
 8014cca:	4682      	mov	sl, r0
 8014ccc:	460c      	mov	r4, r1
 8014cce:	4610      	mov	r0, r2
 8014cd0:	f001 fd1f 	bl	8016712 <fatfs_lfn_entries_required>
 8014cd4:	4607      	mov	r7, r0
 8014cd6:	b918      	cbnz	r0, 8014ce0 <fatfs_add_file_entry+0x34>
 8014cd8:	4638      	mov	r0, r7
 8014cda:	b011      	add	sp, #68	; 0x44
 8014cdc:	e8bd 8ff0 	ldmia.w	sp!, {r4, r5, r6, r7, r8, r9, sl, fp, pc}
 8014ce0:	f10d 031b 	add.w	r3, sp, #27
 8014ce4:	9300      	str	r3, [sp, #0]
 8014ce6:	ab07      	add	r3, sp, #28
 8014ce8:	1c42      	adds	r2, r0, #1
 8014cea:	4621      	mov	r1, r4
 8014cec:	4650      	mov	r0, sl
 8014cee:	f7ff feec 	bl	8014aca <fatfs_find_free_dir_offset>
 8014cf2:	2800      	cmp	r0, #0
 8014cf4:	d075      	beq.n	8014de2 <fatfs_add_file_entry+0x136>
 8014cf6:	462b      	mov	r3, r5
 8014cf8:	2600      	movs	r6, #0
 8014cfa:	f04f 090b 	mov.w	r9, #11
 8014cfe:	464a      	mov	r2, r9
 8014d00:	4631      	mov	r1, r6
 8014d02:	e009      	b.n	8014d18 <fatfs_add_file_entry+0x6c>
 8014d04:	084e      	lsrs	r6, r1, #1
 8014d06:	eb06 16c1 	add.w	r6, r6, r1, lsl #7
 8014d0a:	f813 1b01 	ldrb.w	r1, [r3], #1
 8014d0e:	fa51 f686 	uxtab	r6, r1, r6
 8014d12:	b2f1      	uxtb	r1, r6
 8014d14:	3a01      	subs	r2, #1
 8014d16:	b2d2      	uxtb	r2, r2
 8014d18:	2a00      	cmp	r2, #0
 8014d1a:	d1f3      	bne.n	8014d04 <fatfs_add_file_entry+0x58>
 8014d1c:	f8dd b01c 	ldr.w	fp, [sp, #28]
 8014d20:	f04f 0800 	mov.w	r8, #0
 8014d24:	4643      	mov	r3, r8
 8014d26:	9205      	str	r2, [sp, #20]
 8014d28:	4645      	mov	r5, r8
 8014d2a:	4688      	mov	r8, r1
 8014d2c:	461e      	mov	r6, r3
 8014d2e:	f8dd 900c 	ldr.w	r9, [sp, #12]
 8014d32:	e045      	b.n	8014dc0 <fatfs_add_file_entry+0x114>
 8014d34:	4607      	mov	r7, r0
 8014d36:	e7cf      	b.n	8014cd8 <fatfs_add_file_entry+0x2c>
 8014d38:	b14d      	cbz	r5, 8014d4e <fatfs_add_file_entry+0xa2>
 8014d3a:	b1cf      	cbz	r7, 8014d70 <fatfs_add_file_entry+0xc4>
 8014d3c:	3f01      	subs	r7, #1
 8014d3e:	3140      	adds	r1, #64	; 0x40
 8014d40:	4643      	mov	r3, r8
 8014d42:	463a      	mov	r2, r7
 8014d44:	4451      	add	r1, sl
 8014d46:	4648      	mov	r0, r9
 8014d48:	f001 fcf4 	bl	8016734 <fatfs_filename_to_lfn>
 8014d4c:	2601      	movs	r6, #1
 8014d4e:	3401      	adds	r4, #1
 8014d50:	b2e4      	uxtb	r4, r4
 8014d52:	2c0f      	cmp	r4, #15
 8014d54:	d827      	bhi.n	8014da6 <fatfs_add_file_entry+0xfa>
 8014d56:	0161      	lsls	r1, r4, #5
 8014d58:	b289      	uxth	r1, r1
 8014d5a:	2d00      	cmp	r5, #0
 8014d5c:	d1ec      	bne.n	8014d38 <fatfs_add_file_entry+0x8c>
 8014d5e:	9b07      	ldr	r3, [sp, #28]
 8014d60:	455b      	cmp	r3, fp
 8014d62:	d1e9      	bne.n	8014d38 <fatfs_add_file_entry+0x8c>
 8014d64:	f89d 301b 	ldrb.w	r3, [sp, #27]
 8014d68:	42a3      	cmp	r3, r4
 8014d6a:	d1e5      	bne.n	8014d38 <fatfs_add_file_entry+0x8c>
 8014d6c:	2501      	movs	r5, #1
 8014d6e:	e7e4      	b.n	8014d3a <fatfs_add_file_entry+0x8e>
 8014d70:	460d      	mov	r5, r1
 8014d72:	9b1c      	ldr	r3, [sp, #112]	; 0x70
 8014d74:	9300      	str	r3, [sp, #0]
 8014d76:	ab08      	add	r3, sp, #32
 8014d78:	9a1a      	ldr	r2, [sp, #104]	; 0x68
 8014d7a:	991b      	ldr	r1, [sp, #108]	; 0x6c
 8014d7c:	9804      	ldr	r0, [sp, #16]
 8014d7e:	f001 fd37 	bl	80167f0 <fatfs_sfn_create_entry>
 8014d82:	f105 0040 	add.w	r0, r5, #64	; 0x40
 8014d86:	2220      	movs	r2, #32
 8014d88:	eb0d 0102 	add.w	r1, sp, r2
 8014d8c:	4450      	add	r0, sl
 8014d8e:	f7fc fde7 	bl	8011960 <memcpy>
 8014d92:	f8da 3034 	ldr.w	r3, [sl, #52]	; 0x34
 8014d96:	2201      	movs	r2, #1
 8014d98:	f10a 0140 	add.w	r1, sl, #64	; 0x40
 8014d9c:	f8da 0240 	ldr.w	r0, [sl, #576]	; 0x240
 8014da0:	4798      	blx	r3
 8014da2:	4607      	mov	r7, r0
 8014da4:	e798      	b.n	8014cd8 <fatfs_add_file_entry+0x2c>
 8014da6:	b14e      	cbz	r6, 8014dbc <fatfs_add_file_entry+0x110>
 8014da8:	f8da 3034 	ldr.w	r3, [sl, #52]	; 0x34
 8014dac:	2201      	movs	r2, #1
 8014dae:	f10a 0140 	add.w	r1, sl, #64	; 0x40
 8014db2:	f8da 0240 	ldr.w	r0, [sl, #576]	; 0x240
 8014db6:	4798      	blx	r3
 8014db8:	b178      	cbz	r0, 8014dda <fatfs_add_file_entry+0x12e>
 8014dba:	2600      	movs	r6, #0
 8014dbc:	f8dd b00c 	ldr.w	fp, [sp, #12]
 8014dc0:	f10b 0301 	add.w	r3, fp, #1
 8014dc4:	9303      	str	r3, [sp, #12]
 8014dc6:	2300      	movs	r3, #0
 8014dc8:	465a      	mov	r2, fp
 8014dca:	9902      	ldr	r1, [sp, #8]
 8014dcc:	4650      	mov	r0, sl
 8014dce:	f7ff f9c0 	bl	8014152 <fatfs_sector_reader>
 8014dd2:	2800      	cmp	r0, #0
 8014dd4:	d0ae      	beq.n	8014d34 <fatfs_add_file_entry+0x88>
 8014dd6:	9c05      	ldr	r4, [sp, #20]
 8014dd8:	e7bb      	b.n	8014d52 <fatfs_add_file_entry+0xa6>
 8014dda:	4607      	mov	r7, r0
 8014ddc:	e77c      	b.n	8014cd8 <fatfs_add_file_entry+0x2c>
 8014dde:	2700      	movs	r7, #0
 8014de0:	e77a      	b.n	8014cd8 <fatfs_add_file_entry+0x2c>
 8014de2:	4607      	mov	r7, r0
 8014de4:	e778      	b.n	8014cd8 <fatfs_add_file_entry+0x2c>
	...

08014de8 <fatfs_calc_cluster_size>:
 8014de8:	b410      	push	{r4}
 8014dea:	4604      	mov	r4, r0
 8014dec:	460a      	mov	r2, r1
 8014dee:	b171      	cbz	r1, 8014e0e <fatfs_calc_cluster_size+0x26>
 8014df0:	2200      	movs	r2, #0
 8014df2:	4b0e      	ldr	r3, [pc, #56]	; (8014e2c <fatfs_calc_cluster_size+0x44>)
 8014df4:	eb03 03c2 	add.w	r3, r3, r2, lsl #3
 8014df8:	f893 0044 	ldrb.w	r0, [r3, #68]	; 0x44
 8014dfc:	b198      	cbz	r0, 8014e26 <fatfs_calc_cluster_size+0x3e>
 8014dfe:	4b0b      	ldr	r3, [pc, #44]	; (8014e2c <fatfs_calc_cluster_size+0x44>)
 8014e00:	eb03 03c2 	add.w	r3, r3, r2, lsl #3
 8014e04:	6c1b      	ldr	r3, [r3, #64]	; 0x40
 8014e06:	42a3      	cmp	r3, r4
 8014e08:	d20d      	bcs.n	8014e26 <fatfs_calc_cluster_size+0x3e>
 8014e0a:	3201      	adds	r2, #1
 8014e0c:	e7f1      	b.n	8014df2 <fatfs_calc_cluster_size+0xa>
 8014e0e:	4b07      	ldr	r3, [pc, #28]	; (8014e2c <fatfs_calc_cluster_size+0x44>)
 8014e10:	eb03 03c2 	add.w	r3, r3, r2, lsl #3
 8014e14:	7918      	ldrb	r0, [r3, #4]
 8014e16:	b130      	cbz	r0, 8014e26 <fatfs_calc_cluster_size+0x3e>
 8014e18:	4b04      	ldr	r3, [pc, #16]	; (8014e2c <fatfs_calc_cluster_size+0x44>)
 8014e1a:	f853 3032 	ldr.w	r3, [r3, r2, lsl #3]
 8014e1e:	42a3      	cmp	r3, r4
 8014e20:	d201      	bcs.n	8014e26 <fatfs_calc_cluster_size+0x3e>
 8014e22:	3201      	adds	r2, #1
 8014e24:	e7f3      	b.n	8014e0e <fatfs_calc_cluster_size+0x26>
 8014e26:	f85d 4b04 	ldr.w	r4, [sp], #4
 8014e2a:	4770      	bx	lr
 8014e2c:	20000008 	.word	0x20000008

08014e30 <fatfs_erase_fat>:
 8014e30:	b570      	push	{r4, r5, r6, lr}
 8014e32:	4604      	mov	r4, r0
 8014e34:	460d      	mov	r5, r1
 8014e36:	f100 0640 	add.w	r6, r0, #64	; 0x40
 8014e3a:	f44f 7200 	mov.w	r2, #512	; 0x200
 8014e3e:	2100      	movs	r1, #0
 8014e40:	4630      	mov	r0, r6
 8014e42:	f7fc fd86 	bl	8011952 <memset>
 8014e46:	b995      	cbnz	r5, 8014e6e <fatfs_erase_fat+0x3e>
 8014e48:	23f8      	movs	r3, #248	; 0xf8
 8014e4a:	f884 3040 	strb.w	r3, [r4, #64]	; 0x40
 8014e4e:	23ff      	movs	r3, #255	; 0xff
 8014e50:	f884 3041 	strb.w	r3, [r4, #65]	; 0x41
 8014e54:	f884 3042 	strb.w	r3, [r4, #66]	; 0x42
 8014e58:	f884 3043 	strb.w	r3, [r4, #67]	; 0x43
 8014e5c:	6b63      	ldr	r3, [r4, #52]	; 0x34
 8014e5e:	2201      	movs	r2, #1
 8014e60:	4631      	mov	r1, r6
 8014e62:	6960      	ldr	r0, [r4, #20]
 8014e64:	4798      	blx	r3
 8014e66:	4603      	mov	r3, r0
 8014e68:	b9e8      	cbnz	r0, 8014ea6 <fatfs_erase_fat+0x76>
 8014e6a:	4618      	mov	r0, r3
 8014e6c:	bd70      	pop	{r4, r5, r6, pc}
 8014e6e:	23f8      	movs	r3, #248	; 0xf8
 8014e70:	f884 3040 	strb.w	r3, [r4, #64]	; 0x40
 8014e74:	23ff      	movs	r3, #255	; 0xff
 8014e76:	f884 3041 	strb.w	r3, [r4, #65]	; 0x41
 8014e7a:	f884 3042 	strb.w	r3, [r4, #66]	; 0x42
 8014e7e:	220f      	movs	r2, #15
 8014e80:	f884 2043 	strb.w	r2, [r4, #67]	; 0x43
 8014e84:	f884 3044 	strb.w	r3, [r4, #68]	; 0x44
 8014e88:	f884 3045 	strb.w	r3, [r4, #69]	; 0x45
 8014e8c:	f884 3046 	strb.w	r3, [r4, #70]	; 0x46
 8014e90:	f884 3047 	strb.w	r3, [r4, #71]	; 0x47
 8014e94:	f884 3048 	strb.w	r3, [r4, #72]	; 0x48
 8014e98:	f884 3049 	strb.w	r3, [r4, #73]	; 0x49
 8014e9c:	f884 304a 	strb.w	r3, [r4, #74]	; 0x4a
 8014ea0:	f884 204b 	strb.w	r2, [r4, #75]	; 0x4b
 8014ea4:	e7da      	b.n	8014e5c <fatfs_erase_fat+0x2c>
 8014ea6:	f44f 7200 	mov.w	r2, #512	; 0x200
 8014eaa:	2100      	movs	r1, #0
 8014eac:	4630      	mov	r0, r6
 8014eae:	f7fc fd50 	bl	8011952 <memset>
 8014eb2:	2501      	movs	r5, #1
 8014eb4:	e000      	b.n	8014eb8 <fatfs_erase_fat+0x88>
 8014eb6:	3501      	adds	r5, #1
 8014eb8:	6a22      	ldr	r2, [r4, #32]
 8014eba:	f894 302c 	ldrb.w	r3, [r4, #44]	; 0x2c
 8014ebe:	fb03 f302 	mul.w	r3, r3, r2
 8014ec2:	42ab      	cmp	r3, r5
 8014ec4:	d909      	bls.n	8014eda <fatfs_erase_fat+0xaa>
 8014ec6:	6b63      	ldr	r3, [r4, #52]	; 0x34
 8014ec8:	6960      	ldr	r0, [r4, #20]
 8014eca:	2201      	movs	r2, #1
 8014ecc:	4631      	mov	r1, r6
 8014ece:	4428      	add	r0, r5
 8014ed0:	4798      	blx	r3
 8014ed2:	4603      	mov	r3, r0
 8014ed4:	2800      	cmp	r0, #0
 8014ed6:	d1ee      	bne.n	8014eb6 <fatfs_erase_fat+0x86>
 8014ed8:	e7c7      	b.n	8014e6a <fatfs_erase_fat+0x3a>
 8014eda:	2301      	movs	r3, #1
 8014edc:	e7c5      	b.n	8014e6a <fatfs_erase_fat+0x3a>

08014ede <fatfs_erase_sectors>:
 8014ede:	e92d 41f0 	stmdb	sp!, {r4, r5, r6, r7, r8, lr}
 8014ee2:	4605      	mov	r5, r0
 8014ee4:	460f      	mov	r7, r1
 8014ee6:	4616      	mov	r6, r2
 8014ee8:	f100 0840 	add.w	r8, r0, #64	; 0x40
 8014eec:	f44f 7200 	mov.w	r2, #512	; 0x200
 8014ef0:	2100      	movs	r1, #0
 8014ef2:	4640      	mov	r0, r8
 8014ef4:	f7fc fd2d 	bl	8011952 <memset>
 8014ef8:	2400      	movs	r4, #0
 8014efa:	42b4      	cmp	r4, r6
 8014efc:	da08      	bge.n	8014f10 <fatfs_erase_sectors+0x32>
 8014efe:	6b6b      	ldr	r3, [r5, #52]	; 0x34
 8014f00:	2201      	movs	r2, #1
 8014f02:	4641      	mov	r1, r8
 8014f04:	19e0      	adds	r0, r4, r7
 8014f06:	4798      	blx	r3
 8014f08:	4603      	mov	r3, r0
 8014f0a:	b110      	cbz	r0, 8014f12 <fatfs_erase_sectors+0x34>
 8014f0c:	3401      	adds	r4, #1
 8014f0e:	e7f4      	b.n	8014efa <fatfs_erase_sectors+0x1c>
 8014f10:	2301      	movs	r3, #1
 8014f12:	4618      	mov	r0, r3
 8014f14:	e8bd 81f0 	ldmia.w	sp!, {r4, r5, r6, r7, r8, pc}

08014f18 <fatfs_create_fsinfo_sector>:
 8014f18:	b570      	push	{r4, r5, r6, lr}
 8014f1a:	4604      	mov	r4, r0
 8014f1c:	460d      	mov	r5, r1
 8014f1e:	f100 0640 	add.w	r6, r0, #64	; 0x40
 8014f22:	f44f 7200 	mov.w	r2, #512	; 0x200
 8014f26:	2100      	movs	r1, #0
 8014f28:	4630      	mov	r0, r6
 8014f2a:	f7fc fd12 	bl	8011952 <memset>
 8014f2e:	2352      	movs	r3, #82	; 0x52
 8014f30:	f884 3040 	strb.w	r3, [r4, #64]	; 0x40
 8014f34:	f884 3041 	strb.w	r3, [r4, #65]	; 0x41
 8014f38:	2361      	movs	r3, #97	; 0x61
 8014f3a:	f884 3042 	strb.w	r3, [r4, #66]	; 0x42
 8014f3e:	2241      	movs	r2, #65	; 0x41
 8014f40:	f884 2043 	strb.w	r2, [r4, #67]	; 0x43
 8014f44:	2172      	movs	r1, #114	; 0x72
 8014f46:	f884 1224 	strb.w	r1, [r4, #548]	; 0x224
 8014f4a:	f884 1225 	strb.w	r1, [r4, #549]	; 0x225
 8014f4e:	f884 2226 	strb.w	r2, [r4, #550]	; 0x226
 8014f52:	f884 3227 	strb.w	r3, [r4, #551]	; 0x227
 8014f56:	23ff      	movs	r3, #255	; 0xff
 8014f58:	f884 3228 	strb.w	r3, [r4, #552]	; 0x228
 8014f5c:	f884 3229 	strb.w	r3, [r4, #553]	; 0x229
 8014f60:	f884 322a 	strb.w	r3, [r4, #554]	; 0x22a
 8014f64:	f884 322b 	strb.w	r3, [r4, #555]	; 0x22b
 8014f68:	f884 322c 	strb.w	r3, [r4, #556]	; 0x22c
 8014f6c:	f884 322d 	strb.w	r3, [r4, #557]	; 0x22d
 8014f70:	f884 322e 	strb.w	r3, [r4, #558]	; 0x22e
 8014f74:	f884 322f 	strb.w	r3, [r4, #559]	; 0x22f
 8014f78:	2355      	movs	r3, #85	; 0x55
 8014f7a:	f884 323e 	strb.w	r3, [r4, #574]	; 0x23e
 8014f7e:	23aa      	movs	r3, #170	; 0xaa
 8014f80:	f884 323f 	strb.w	r3, [r4, #575]	; 0x23f
 8014f84:	6b63      	ldr	r3, [r4, #52]	; 0x34
 8014f86:	2201      	movs	r2, #1
 8014f88:	4631      	mov	r1, r6
 8014f8a:	4628      	mov	r0, r5
 8014f8c:	4798      	blx	r3
 8014f8e:	b100      	cbz	r0, 8014f92 <fatfs_create_fsinfo_sector+0x7a>
 8014f90:	2001      	movs	r0, #1
 8014f92:	bd70      	pop	{r4, r5, r6, pc}

08014f94 <fatfs_create_boot_sector>:
 8014f94:	e92d 43f8 	stmdb	sp!, {r3, r4, r5, r6, r7, r8, r9, lr}
 8014f98:	4604      	mov	r4, r0
 8014f9a:	4688      	mov	r8, r1
 8014f9c:	4617      	mov	r7, r2
 8014f9e:	461e      	mov	r6, r3
 8014fa0:	9d08      	ldr	r5, [sp, #32]
 8014fa2:	f100 0940 	add.w	r9, r0, #64	; 0x40
 8014fa6:	f44f 7200 	mov.w	r2, #512	; 0x200
 8014faa:	2100      	movs	r1, #0
 8014fac:	4648      	mov	r0, r9
 8014fae:	f7fc fcd0 	bl	8011952 <memset>
 8014fb2:	23eb      	movs	r3, #235	; 0xeb
 8014fb4:	f884 3040 	strb.w	r3, [r4, #64]	; 0x40
 8014fb8:	233c      	movs	r3, #60	; 0x3c
 8014fba:	f884 3041 	strb.w	r3, [r4, #65]	; 0x41
 8014fbe:	2390      	movs	r3, #144	; 0x90
 8014fc0:	f884 3042 	strb.w	r3, [r4, #66]	; 0x42
 8014fc4:	234d      	movs	r3, #77	; 0x4d
 8014fc6:	f884 3043 	strb.w	r3, [r4, #67]	; 0x43
 8014fca:	2353      	movs	r3, #83	; 0x53
 8014fcc:	f884 3044 	strb.w	r3, [r4, #68]	; 0x44
 8014fd0:	2244      	movs	r2, #68	; 0x44
 8014fd2:	f884 2045 	strb.w	r2, [r4, #69]	; 0x45
 8014fd6:	224f      	movs	r2, #79	; 0x4f
 8014fd8:	f884 2046 	strb.w	r2, [r4, #70]	; 0x46
 8014fdc:	f884 3047 	strb.w	r3, [r4, #71]	; 0x47
 8014fe0:	2335      	movs	r3, #53	; 0x35
 8014fe2:	f884 3048 	strb.w	r3, [r4, #72]	; 0x48
 8014fe6:	232e      	movs	r3, #46	; 0x2e
 8014fe8:	f884 3049 	strb.w	r3, [r4, #73]	; 0x49
 8014fec:	2330      	movs	r3, #48	; 0x30
 8014fee:	f884 304a 	strb.w	r3, [r4, #74]	; 0x4a
 8014ff2:	2300      	movs	r3, #0
 8014ff4:	f884 304b 	strb.w	r3, [r4, #75]	; 0x4b
 8014ff8:	2302      	movs	r3, #2
 8014ffa:	f884 304c 	strb.w	r3, [r4, #76]	; 0x4c
 8014ffe:	4629      	mov	r1, r5
 8015000:	4638      	mov	r0, r7
 8015002:	f7ff fef1 	bl	8014de8 <fatfs_calc_cluster_size>
 8015006:	7020      	strb	r0, [r4, #0]
 8015008:	2800      	cmp	r0, #0
 801500a:	f000 8147 	beq.w	801529c <fatfs_create_boot_sector+0x308>
 801500e:	f884 004d 	strb.w	r0, [r4, #77]	; 0x4d
 8015012:	2d00      	cmp	r5, #0
 8015014:	d161      	bne.n	80150da <fatfs_create_boot_sector+0x146>
 8015016:	2308      	movs	r3, #8
 8015018:	8563      	strh	r3, [r4, #42]	; 0x2a
 801501a:	8d63      	ldrh	r3, [r4, #42]	; 0x2a
 801501c:	f884 304e 	strb.w	r3, [r4, #78]	; 0x4e
 8015020:	0a1b      	lsrs	r3, r3, #8
 8015022:	f884 304f 	strb.w	r3, [r4, #79]	; 0x4f
 8015026:	2302      	movs	r3, #2
 8015028:	f884 302c 	strb.w	r3, [r4, #44]	; 0x2c
 801502c:	f884 3050 	strb.w	r3, [r4, #80]	; 0x50
 8015030:	2d00      	cmp	r5, #0
 8015032:	d155      	bne.n	80150e0 <fatfs_create_boot_sector+0x14c>
 8015034:	f44f 7300 	mov.w	r3, #512	; 0x200
 8015038:	8523      	strh	r3, [r4, #40]	; 0x28
 801503a:	2300      	movs	r3, #0
 801503c:	f884 3051 	strb.w	r3, [r4, #81]	; 0x51
 8015040:	2302      	movs	r3, #2
 8015042:	f884 3052 	strb.w	r3, [r4, #82]	; 0x52
 8015046:	2300      	movs	r3, #0
 8015048:	f884 3053 	strb.w	r3, [r4, #83]	; 0x53
 801504c:	f884 3054 	strb.w	r3, [r4, #84]	; 0x54
 8015050:	23f8      	movs	r3, #248	; 0xf8
 8015052:	f884 3055 	strb.w	r3, [r4, #85]	; 0x55
 8015056:	2d00      	cmp	r5, #0
 8015058:	f040 8084 	bne.w	8015164 <fatfs_create_boot_sector+0x1d0>
 801505c:	fbb7 f3f0 	udiv	r3, r7, r0
 8015060:	3301      	adds	r3, #1
 8015062:	0a1b      	lsrs	r3, r3, #8
 8015064:	3301      	adds	r3, #1
 8015066:	6223      	str	r3, [r4, #32]
 8015068:	f884 3056 	strb.w	r3, [r4, #86]	; 0x56
 801506c:	f3c3 2307 	ubfx	r3, r3, #8, #8
 8015070:	f884 3057 	strb.w	r3, [r4, #87]	; 0x57
 8015074:	2300      	movs	r3, #0
 8015076:	f884 3058 	strb.w	r3, [r4, #88]	; 0x58
 801507a:	f884 3059 	strb.w	r3, [r4, #89]	; 0x59
 801507e:	f884 305a 	strb.w	r3, [r4, #90]	; 0x5a
 8015082:	f884 305b 	strb.w	r3, [r4, #91]	; 0x5b
 8015086:	2220      	movs	r2, #32
 8015088:	f884 205c 	strb.w	r2, [r4, #92]	; 0x5c
 801508c:	f884 305d 	strb.w	r3, [r4, #93]	; 0x5d
 8015090:	f884 305e 	strb.w	r3, [r4, #94]	; 0x5e
 8015094:	f884 305f 	strb.w	r3, [r4, #95]	; 0x5f
 8015098:	f884 7060 	strb.w	r7, [r4, #96]	; 0x60
 801509c:	f3c7 2207 	ubfx	r2, r7, #8, #8
 80150a0:	f884 2061 	strb.w	r2, [r4, #97]	; 0x61
 80150a4:	f3c7 4207 	ubfx	r2, r7, #16, #8
 80150a8:	f884 2062 	strb.w	r2, [r4, #98]	; 0x62
 80150ac:	0e3f      	lsrs	r7, r7, #24
 80150ae:	f884 7063 	strb.w	r7, [r4, #99]	; 0x63
 80150b2:	f884 3064 	strb.w	r3, [r4, #100]	; 0x64
 80150b6:	f884 3065 	strb.w	r3, [r4, #101]	; 0x65
 80150ba:	2329      	movs	r3, #41	; 0x29
 80150bc:	f884 3066 	strb.w	r3, [r4, #102]	; 0x66
 80150c0:	2312      	movs	r3, #18
 80150c2:	f884 3067 	strb.w	r3, [r4, #103]	; 0x67
 80150c6:	2334      	movs	r3, #52	; 0x34
 80150c8:	f884 3068 	strb.w	r3, [r4, #104]	; 0x68
 80150cc:	2356      	movs	r3, #86	; 0x56
 80150ce:	f884 3069 	strb.w	r3, [r4, #105]	; 0x69
 80150d2:	2378      	movs	r3, #120	; 0x78
 80150d4:	f884 306a 	strb.w	r3, [r4, #106]	; 0x6a
 80150d8:	e010      	b.n	80150fc <fatfs_create_boot_sector+0x168>
 80150da:	2320      	movs	r3, #32
 80150dc:	8563      	strh	r3, [r4, #42]	; 0x2a
 80150de:	e79c      	b.n	801501a <fatfs_create_boot_sector+0x86>
 80150e0:	2300      	movs	r3, #0
 80150e2:	8523      	strh	r3, [r4, #40]	; 0x28
 80150e4:	f884 3051 	strb.w	r3, [r4, #81]	; 0x51
 80150e8:	f884 3052 	strb.w	r3, [r4, #82]	; 0x52
 80150ec:	e7ab      	b.n	8015046 <fatfs_create_boot_sector+0xb2>
 80150ee:	f105 032b 	add.w	r3, r5, #43	; 0x2b
 80150f2:	4423      	add	r3, r4
 80150f4:	2220      	movs	r2, #32
 80150f6:	f883 2040 	strb.w	r2, [r3, #64]	; 0x40
 80150fa:	3501      	adds	r5, #1
 80150fc:	2d0a      	cmp	r5, #10
 80150fe:	dc0b      	bgt.n	8015118 <fatfs_create_boot_sector+0x184>
 8015100:	4630      	mov	r0, r6
 8015102:	f7fc fc57 	bl	80119b4 <strlen>
 8015106:	42a8      	cmp	r0, r5
 8015108:	ddf1      	ble.n	80150ee <fatfs_create_boot_sector+0x15a>
 801510a:	f105 032b 	add.w	r3, r5, #43	; 0x2b
 801510e:	5d72      	ldrb	r2, [r6, r5]
 8015110:	4423      	add	r3, r4
 8015112:	f883 2040 	strb.w	r2, [r3, #64]	; 0x40
 8015116:	e7f0      	b.n	80150fa <fatfs_create_boot_sector+0x166>
 8015118:	2346      	movs	r3, #70	; 0x46
 801511a:	f884 3076 	strb.w	r3, [r4, #118]	; 0x76
 801511e:	2341      	movs	r3, #65	; 0x41
 8015120:	f884 3077 	strb.w	r3, [r4, #119]	; 0x77
 8015124:	2354      	movs	r3, #84	; 0x54
 8015126:	f884 3078 	strb.w	r3, [r4, #120]	; 0x78
 801512a:	2331      	movs	r3, #49	; 0x31
 801512c:	f884 3079 	strb.w	r3, [r4, #121]	; 0x79
 8015130:	2336      	movs	r3, #54	; 0x36
 8015132:	f884 307a 	strb.w	r3, [r4, #122]	; 0x7a
 8015136:	2320      	movs	r3, #32
 8015138:	f884 307b 	strb.w	r3, [r4, #123]	; 0x7b
 801513c:	f884 307c 	strb.w	r3, [r4, #124]	; 0x7c
 8015140:	f884 307d 	strb.w	r3, [r4, #125]	; 0x7d
 8015144:	2355      	movs	r3, #85	; 0x55
 8015146:	f884 323e 	strb.w	r3, [r4, #574]	; 0x23e
 801514a:	23aa      	movs	r3, #170	; 0xaa
 801514c:	f884 323f 	strb.w	r3, [r4, #575]	; 0x23f
 8015150:	6b63      	ldr	r3, [r4, #52]	; 0x34
 8015152:	2201      	movs	r2, #1
 8015154:	4649      	mov	r1, r9
 8015156:	4640      	mov	r0, r8
 8015158:	4798      	blx	r3
 801515a:	2800      	cmp	r0, #0
 801515c:	f000 809f 	beq.w	801529e <fatfs_create_boot_sector+0x30a>
 8015160:	2001      	movs	r0, #1
 8015162:	e09c      	b.n	801529e <fatfs_create_boot_sector+0x30a>
 8015164:	2500      	movs	r5, #0
 8015166:	f884 5056 	strb.w	r5, [r4, #86]	; 0x56
 801516a:	f884 5057 	strb.w	r5, [r4, #87]	; 0x57
 801516e:	233f      	movs	r3, #63	; 0x3f
 8015170:	f884 3058 	strb.w	r3, [r4, #88]	; 0x58
 8015174:	f884 5059 	strb.w	r5, [r4, #89]	; 0x59
 8015178:	23ff      	movs	r3, #255	; 0xff
 801517a:	f884 305a 	strb.w	r3, [r4, #90]	; 0x5a
 801517e:	f884 505b 	strb.w	r5, [r4, #91]	; 0x5b
 8015182:	f884 505c 	strb.w	r5, [r4, #92]	; 0x5c
 8015186:	f884 505d 	strb.w	r5, [r4, #93]	; 0x5d
 801518a:	f884 505e 	strb.w	r5, [r4, #94]	; 0x5e
 801518e:	f884 505f 	strb.w	r5, [r4, #95]	; 0x5f
 8015192:	f884 7060 	strb.w	r7, [r4, #96]	; 0x60
 8015196:	f3c7 2307 	ubfx	r3, r7, #8, #8
 801519a:	f884 3061 	strb.w	r3, [r4, #97]	; 0x61
 801519e:	f3c7 4307 	ubfx	r3, r7, #16, #8
 80151a2:	f884 3062 	strb.w	r3, [r4, #98]	; 0x62
 80151a6:	0e3b      	lsrs	r3, r7, #24
 80151a8:	f884 3063 	strb.w	r3, [r4, #99]	; 0x63
 80151ac:	fbb7 f3f0 	udiv	r3, r7, r0
 80151b0:	3301      	adds	r3, #1
 80151b2:	09db      	lsrs	r3, r3, #7
 80151b4:	3301      	adds	r3, #1
 80151b6:	6223      	str	r3, [r4, #32]
 80151b8:	f884 3064 	strb.w	r3, [r4, #100]	; 0x64
 80151bc:	f3c3 2207 	ubfx	r2, r3, #8, #8
 80151c0:	f884 2065 	strb.w	r2, [r4, #101]	; 0x65
 80151c4:	f3c3 4207 	ubfx	r2, r3, #16, #8
 80151c8:	f884 2066 	strb.w	r2, [r4, #102]	; 0x66
 80151cc:	0e1b      	lsrs	r3, r3, #24
 80151ce:	f884 3067 	strb.w	r3, [r4, #103]	; 0x67
 80151d2:	f884 5068 	strb.w	r5, [r4, #104]	; 0x68
 80151d6:	f884 5069 	strb.w	r5, [r4, #105]	; 0x69
 80151da:	f884 506a 	strb.w	r5, [r4, #106]	; 0x6a
 80151de:	f884 506b 	strb.w	r5, [r4, #107]	; 0x6b
 80151e2:	68a3      	ldr	r3, [r4, #8]
 80151e4:	f884 306c 	strb.w	r3, [r4, #108]	; 0x6c
 80151e8:	f3c3 2207 	ubfx	r2, r3, #8, #8
 80151ec:	f884 206d 	strb.w	r2, [r4, #109]	; 0x6d
 80151f0:	f3c3 4207 	ubfx	r2, r3, #16, #8
 80151f4:	f884 206e 	strb.w	r2, [r4, #110]	; 0x6e
 80151f8:	0e1b      	lsrs	r3, r3, #24
 80151fa:	f884 306f 	strb.w	r3, [r4, #111]	; 0x6f
 80151fe:	8b23      	ldrh	r3, [r4, #24]
 8015200:	f884 3070 	strb.w	r3, [r4, #112]	; 0x70
 8015204:	0a1b      	lsrs	r3, r3, #8
 8015206:	f884 3071 	strb.w	r3, [r4, #113]	; 0x71
 801520a:	2306      	movs	r3, #6
 801520c:	f884 3072 	strb.w	r3, [r4, #114]	; 0x72
 8015210:	f884 5073 	strb.w	r5, [r4, #115]	; 0x73
 8015214:	f884 5080 	strb.w	r5, [r4, #128]	; 0x80
 8015218:	2329      	movs	r3, #41	; 0x29
 801521a:	f884 3082 	strb.w	r3, [r4, #130]	; 0x82
 801521e:	2312      	movs	r3, #18
 8015220:	f884 3083 	strb.w	r3, [r4, #131]	; 0x83
 8015224:	2334      	movs	r3, #52	; 0x34
 8015226:	f884 3084 	strb.w	r3, [r4, #132]	; 0x84
 801522a:	2356      	movs	r3, #86	; 0x56
 801522c:	f884 3085 	strb.w	r3, [r4, #133]	; 0x85
 8015230:	2378      	movs	r3, #120	; 0x78
 8015232:	f884 3086 	strb.w	r3, [r4, #134]	; 0x86
 8015236:	e006      	b.n	8015246 <fatfs_create_boot_sector+0x2b2>
 8015238:	f105 0347 	add.w	r3, r5, #71	; 0x47
 801523c:	4423      	add	r3, r4
 801523e:	2220      	movs	r2, #32
 8015240:	f883 2040 	strb.w	r2, [r3, #64]	; 0x40
 8015244:	3501      	adds	r5, #1
 8015246:	2d0a      	cmp	r5, #10
 8015248:	dc0b      	bgt.n	8015262 <fatfs_create_boot_sector+0x2ce>
 801524a:	4630      	mov	r0, r6
 801524c:	f7fc fbb2 	bl	80119b4 <strlen>
 8015250:	42a8      	cmp	r0, r5
 8015252:	ddf1      	ble.n	8015238 <fatfs_create_boot_sector+0x2a4>
 8015254:	f105 0347 	add.w	r3, r5, #71	; 0x47
 8015258:	5d72      	ldrb	r2, [r6, r5]
 801525a:	4423      	add	r3, r4
 801525c:	f883 2040 	strb.w	r2, [r3, #64]	; 0x40
 8015260:	e7f0      	b.n	8015244 <fatfs_create_boot_sector+0x2b0>
 8015262:	2346      	movs	r3, #70	; 0x46
 8015264:	f884 3092 	strb.w	r3, [r4, #146]	; 0x92
 8015268:	2341      	movs	r3, #65	; 0x41
 801526a:	f884 3093 	strb.w	r3, [r4, #147]	; 0x93
 801526e:	2354      	movs	r3, #84	; 0x54
 8015270:	f884 3094 	strb.w	r3, [r4, #148]	; 0x94
 8015274:	2333      	movs	r3, #51	; 0x33
 8015276:	f884 3095 	strb.w	r3, [r4, #149]	; 0x95
 801527a:	2332      	movs	r3, #50	; 0x32
 801527c:	f884 3096 	strb.w	r3, [r4, #150]	; 0x96
 8015280:	2320      	movs	r3, #32
 8015282:	f884 3097 	strb.w	r3, [r4, #151]	; 0x97
 8015286:	f884 3098 	strb.w	r3, [r4, #152]	; 0x98
 801528a:	f884 3099 	strb.w	r3, [r4, #153]	; 0x99
 801528e:	2355      	movs	r3, #85	; 0x55
 8015290:	f884 323e 	strb.w	r3, [r4, #574]	; 0x23e
 8015294:	23aa      	movs	r3, #170	; 0xaa
 8015296:	f884 323f 	strb.w	r3, [r4, #575]	; 0x23f
 801529a:	e759      	b.n	8015150 <fatfs_create_boot_sector+0x1bc>
 801529c:	2000      	movs	r0, #0
 801529e:	e8bd 83f8 	ldmia.w	sp!, {r3, r4, r5, r6, r7, r8, r9, pc}

080152a2 <fatfs_format_fat16>:
 80152a2:	b570      	push	{r4, r5, r6, lr}
 80152a4:	b082      	sub	sp, #8
 80152a6:	4604      	mov	r4, r0
 80152a8:	460e      	mov	r6, r1
 80152aa:	4615      	mov	r5, r2
 80152ac:	f04f 33ff 	mov.w	r3, #4294967295	; 0xffffffff
 80152b0:	f8c0 3240 	str.w	r3, [r0, #576]	; 0x240
 80152b4:	2300      	movs	r3, #0
 80152b6:	f8c0 3244 	str.w	r3, [r0, #580]	; 0x244
 80152ba:	6243      	str	r3, [r0, #36]	; 0x24
 80152bc:	f001 fbb5 	bl	8016a2a <fatfs_fat_init>
 80152c0:	6b23      	ldr	r3, [r4, #48]	; 0x30
 80152c2:	2b00      	cmp	r3, #0
 80152c4:	d035      	beq.n	8015332 <fatfs_format_fat16+0x90>
 80152c6:	6b63      	ldr	r3, [r4, #52]	; 0x34
 80152c8:	2b00      	cmp	r3, #0
 80152ca:	d035      	beq.n	8015338 <fatfs_format_fat16+0x96>
 80152cc:	2100      	movs	r1, #0
 80152ce:	f884 102d 	strb.w	r1, [r4, #45]	; 0x2d
 80152d2:	8321      	strh	r1, [r4, #24]
 80152d4:	60a1      	str	r1, [r4, #8]
 80152d6:	61e1      	str	r1, [r4, #28]
 80152d8:	9100      	str	r1, [sp, #0]
 80152da:	462b      	mov	r3, r5
 80152dc:	4632      	mov	r2, r6
 80152de:	4620      	mov	r0, r4
 80152e0:	f7ff fe58 	bl	8014f94 <fatfs_create_boot_sector>
 80152e4:	b908      	cbnz	r0, 80152ea <fatfs_format_fat16+0x48>
 80152e6:	b002      	add	sp, #8
 80152e8:	bd70      	pop	{r4, r5, r6, pc}
 80152ea:	8d61      	ldrh	r1, [r4, #42]	; 0x2a
 80152ec:	f894 302c 	ldrb.w	r3, [r4, #44]	; 0x2c
 80152f0:	6a22      	ldr	r2, [r4, #32]
 80152f2:	fb02 f203 	mul.w	r2, r2, r3
 80152f6:	188b      	adds	r3, r1, r2
 80152f8:	60e3      	str	r3, [r4, #12]
 80152fa:	8d23      	ldrh	r3, [r4, #40]	; 0x28
 80152fc:	015b      	lsls	r3, r3, #5
 80152fe:	f203 13ff 	addw	r3, r3, #511	; 0x1ff
 8015302:	125b      	asrs	r3, r3, #9
 8015304:	6123      	str	r3, [r4, #16]
 8015306:	69e3      	ldr	r3, [r4, #28]
 8015308:	440b      	add	r3, r1
 801530a:	6163      	str	r3, [r4, #20]
 801530c:	441a      	add	r2, r3
 801530e:	6062      	str	r2, [r4, #4]
 8015310:	2100      	movs	r1, #0
 8015312:	4620      	mov	r0, r4
 8015314:	f7ff fd8c 	bl	8014e30 <fatfs_erase_fat>
 8015318:	2800      	cmp	r0, #0
 801531a:	d0e4      	beq.n	80152e6 <fatfs_format_fat16+0x44>
 801531c:	69e1      	ldr	r1, [r4, #28]
 801531e:	68e3      	ldr	r3, [r4, #12]
 8015320:	6922      	ldr	r2, [r4, #16]
 8015322:	4419      	add	r1, r3
 8015324:	4620      	mov	r0, r4
 8015326:	f7ff fdda 	bl	8014ede <fatfs_erase_sectors>
 801532a:	2800      	cmp	r0, #0
 801532c:	d0db      	beq.n	80152e6 <fatfs_format_fat16+0x44>
 801532e:	2001      	movs	r0, #1
 8015330:	e7d9      	b.n	80152e6 <fatfs_format_fat16+0x44>
 8015332:	f04f 30ff 	mov.w	r0, #4294967295	; 0xffffffff
 8015336:	e7d6      	b.n	80152e6 <fatfs_format_fat16+0x44>
 8015338:	f04f 30ff 	mov.w	r0, #4294967295	; 0xffffffff
 801533c:	e7d3      	b.n	80152e6 <fatfs_format_fat16+0x44>

0801533e <fatfs_format_fat32>:
 801533e:	b570      	push	{r4, r5, r6, lr}
 8015340:	b082      	sub	sp, #8
 8015342:	4604      	mov	r4, r0
 8015344:	460e      	mov	r6, r1
 8015346:	4615      	mov	r5, r2
 8015348:	f04f 33ff 	mov.w	r3, #4294967295	; 0xffffffff
 801534c:	f8c0 3240 	str.w	r3, [r0, #576]	; 0x240
 8015350:	2300      	movs	r3, #0
 8015352:	f8c0 3244 	str.w	r3, [r0, #580]	; 0x244
 8015356:	6243      	str	r3, [r0, #36]	; 0x24
 8015358:	f001 fb67 	bl	8016a2a <fatfs_fat_init>
 801535c:	6b23      	ldr	r3, [r4, #48]	; 0x30
 801535e:	2b00      	cmp	r3, #0
 8015360:	d03b      	beq.n	80153da <fatfs_format_fat32+0x9c>
 8015362:	6b63      	ldr	r3, [r4, #52]	; 0x34
 8015364:	2b00      	cmp	r3, #0
 8015366:	d03b      	beq.n	80153e0 <fatfs_format_fat32+0xa2>
 8015368:	2301      	movs	r3, #1
 801536a:	f884 302d 	strb.w	r3, [r4, #45]	; 0x2d
 801536e:	8323      	strh	r3, [r4, #24]
 8015370:	2202      	movs	r2, #2
 8015372:	60a2      	str	r2, [r4, #8]
 8015374:	2100      	movs	r1, #0
 8015376:	61e1      	str	r1, [r4, #28]
 8015378:	9300      	str	r3, [sp, #0]
 801537a:	462b      	mov	r3, r5
 801537c:	4632      	mov	r2, r6
 801537e:	4620      	mov	r0, r4
 8015380:	f7ff fe08 	bl	8014f94 <fatfs_create_boot_sector>
 8015384:	4603      	mov	r3, r0
 8015386:	b910      	cbnz	r0, 801538e <fatfs_format_fat32+0x50>
 8015388:	4618      	mov	r0, r3
 801538a:	b002      	add	sp, #8
 801538c:	bd70      	pop	{r4, r5, r6, pc}
 801538e:	69e3      	ldr	r3, [r4, #28]
 8015390:	8d62      	ldrh	r2, [r4, #42]	; 0x2a
 8015392:	4413      	add	r3, r2
 8015394:	6163      	str	r3, [r4, #20]
 8015396:	f894 202c 	ldrb.w	r2, [r4, #44]	; 0x2c
 801539a:	6a21      	ldr	r1, [r4, #32]
 801539c:	fb01 3302 	mla	r3, r1, r2, r3
 80153a0:	6063      	str	r3, [r4, #4]
 80153a2:	8b21      	ldrh	r1, [r4, #24]
 80153a4:	4620      	mov	r0, r4
 80153a6:	f7ff fdb7 	bl	8014f18 <fatfs_create_fsinfo_sector>
 80153aa:	4603      	mov	r3, r0
 80153ac:	2800      	cmp	r0, #0
 80153ae:	d0eb      	beq.n	8015388 <fatfs_format_fat32+0x4a>
 80153b0:	2101      	movs	r1, #1
 80153b2:	4620      	mov	r0, r4
 80153b4:	f7ff fd3c 	bl	8014e30 <fatfs_erase_fat>
 80153b8:	4603      	mov	r3, r0
 80153ba:	2800      	cmp	r0, #0
 80153bc:	d0e4      	beq.n	8015388 <fatfs_format_fat32+0x4a>
 80153be:	68a1      	ldr	r1, [r4, #8]
 80153c0:	4620      	mov	r0, r4
 80153c2:	f7fe fea4 	bl	801410e <fatfs_lba_of_cluster>
 80153c6:	4601      	mov	r1, r0
 80153c8:	7822      	ldrb	r2, [r4, #0]
 80153ca:	4620      	mov	r0, r4
 80153cc:	f7ff fd87 	bl	8014ede <fatfs_erase_sectors>
 80153d0:	4603      	mov	r3, r0
 80153d2:	2800      	cmp	r0, #0
 80153d4:	d0d8      	beq.n	8015388 <fatfs_format_fat32+0x4a>
 80153d6:	2301      	movs	r3, #1
 80153d8:	e7d6      	b.n	8015388 <fatfs_format_fat32+0x4a>
 80153da:	f04f 33ff 	mov.w	r3, #4294967295	; 0xffffffff
 80153de:	e7d3      	b.n	8015388 <fatfs_format_fat32+0x4a>
 80153e0:	f04f 33ff 	mov.w	r3, #4294967295	; 0xffffffff
 80153e4:	e7d0      	b.n	8015388 <fatfs_format_fat32+0x4a>

080153e6 <fatfs_format>:
 80153e6:	b508      	push	{r3, lr}
 80153e8:	f5b1 0f80 	cmp.w	r1, #4194304	; 0x400000
 80153ec:	d802      	bhi.n	80153f4 <fatfs_format+0xe>
 80153ee:	f7ff ff58 	bl	80152a2 <fatfs_format_fat16>
 80153f2:	bd08      	pop	{r3, pc}
 80153f4:	f7ff ffa3 	bl	801533e <fatfs_format_fat32>
 80153f8:	e7fb      	b.n	80153f2 <fatfs_format+0xc>
 80153fa:	bf00      	nop

080153fc <fat_list_init>:
 80153fc:	2300      	movs	r3, #0
 80153fe:	6043      	str	r3, [r0, #4]
 8015400:	6003      	str	r3, [r0, #0]
 8015402:	4770      	bx	lr

08015404 <fat_list_remove>:
 8015404:	680b      	ldr	r3, [r1, #0]
 8015406:	b133      	cbz	r3, 8015416 <fat_list_remove+0x12>
 8015408:	684a      	ldr	r2, [r1, #4]
 801540a:	605a      	str	r2, [r3, #4]
 801540c:	684b      	ldr	r3, [r1, #4]
 801540e:	b12b      	cbz	r3, 801541c <fat_list_remove+0x18>
 8015410:	680a      	ldr	r2, [r1, #0]
 8015412:	601a      	str	r2, [r3, #0]
 8015414:	4770      	bx	lr
 8015416:	684b      	ldr	r3, [r1, #4]
 8015418:	6003      	str	r3, [r0, #0]
 801541a:	e7f7      	b.n	801540c <fat_list_remove+0x8>
 801541c:	680b      	ldr	r3, [r1, #0]
 801541e:	6043      	str	r3, [r0, #4]
 8015420:	4770      	bx	lr

08015422 <fat_list_insert_after>:
 8015422:	6011      	str	r1, [r2, #0]
 8015424:	684b      	ldr	r3, [r1, #4]
 8015426:	6053      	str	r3, [r2, #4]
 8015428:	b113      	cbz	r3, 8015430 <fat_list_insert_after+0xe>
 801542a:	601a      	str	r2, [r3, #0]
 801542c:	604a      	str	r2, [r1, #4]
 801542e:	4770      	bx	lr
 8015430:	6042      	str	r2, [r0, #4]
 8015432:	e7fb      	b.n	801542c <fat_list_insert_after+0xa>

08015434 <fat_list_insert_before>:
 8015434:	680b      	ldr	r3, [r1, #0]
 8015436:	6013      	str	r3, [r2, #0]
 8015438:	6051      	str	r1, [r2, #4]
 801543a:	680b      	ldr	r3, [r1, #0]
 801543c:	b113      	cbz	r3, 8015444 <fat_list_insert_before+0x10>
 801543e:	605a      	str	r2, [r3, #4]
 8015440:	600a      	str	r2, [r1, #0]
 8015442:	4770      	bx	lr
 8015444:	6002      	str	r2, [r0, #0]
 8015446:	e7fb      	b.n	8015440 <fat_list_insert_before+0xc>

08015448 <fat_list_insert_first>:
 8015448:	b508      	push	{r3, lr}
 801544a:	460a      	mov	r2, r1
 801544c:	6801      	ldr	r1, [r0, #0]
 801544e:	b111      	cbz	r1, 8015456 <fat_list_insert_first+0xe>
 8015450:	f7ff fff0 	bl	8015434 <fat_list_insert_before>
 8015454:	bd08      	pop	{r3, pc}
 8015456:	6002      	str	r2, [r0, #0]
 8015458:	6042      	str	r2, [r0, #4]
 801545a:	2300      	movs	r3, #0
 801545c:	6013      	str	r3, [r2, #0]
 801545e:	6053      	str	r3, [r2, #4]
 8015460:	e7f8      	b.n	8015454 <fat_list_insert_first+0xc>

08015462 <fat_list_insert_last>:
 8015462:	b508      	push	{r3, lr}
 8015464:	460a      	mov	r2, r1
 8015466:	6841      	ldr	r1, [r0, #4]
 8015468:	b111      	cbz	r1, 8015470 <fat_list_insert_last+0xe>
 801546a:	f7ff ffda 	bl	8015422 <fat_list_insert_after>
 801546e:	bd08      	pop	{r3, pc}
 8015470:	4611      	mov	r1, r2
 8015472:	f7ff ffe9 	bl	8015448 <fat_list_insert_first>
 8015476:	e7fa      	b.n	801546e <fat_list_insert_last+0xc>

08015478 <fat_list_pop_head>:
 8015478:	b510      	push	{r4, lr}
 801547a:	6804      	ldr	r4, [r0, #0]
 801547c:	b114      	cbz	r4, 8015484 <fat_list_pop_head+0xc>
 801547e:	4621      	mov	r1, r4
 8015480:	f7ff ffc0 	bl	8015404 <fat_list_remove>
 8015484:	4620      	mov	r0, r4
 8015486:	bd10      	pop	{r4, pc}

08015488 <_allocate_file>:
 8015488:	b510      	push	{r4, lr}
 801548a:	4807      	ldr	r0, [pc, #28]	; (80154a8 <_allocate_file+0x20>)
 801548c:	f7ff fff4 	bl	8015478 <fat_list_pop_head>
 8015490:	4604      	mov	r4, r0
 8015492:	b118      	cbz	r0, 801549c <_allocate_file+0x14>
 8015494:	4601      	mov	r1, r0
 8015496:	4805      	ldr	r0, [pc, #20]	; (80154ac <_allocate_file+0x24>)
 8015498:	f7ff ffe3 	bl	8015462 <fat_list_insert_last>
 801549c:	b10c      	cbz	r4, 80154a2 <_allocate_file+0x1a>
 801549e:	f5a4 742d 	sub.w	r4, r4, #692	; 0x2b4
 80154a2:	4620      	mov	r0, r4
 80154a4:	bd10      	pop	{r4, pc}
 80154a6:	bf00      	nop
 80154a8:	2000034c 	.word	0x2000034c
 80154ac:	20000354 	.word	0x20000354

080154b0 <_free_file>:
 80154b0:	b538      	push	{r3, r4, r5, lr}
 80154b2:	f500 742d 	add.w	r4, r0, #692	; 0x2b4
 80154b6:	4d05      	ldr	r5, [pc, #20]	; (80154cc <_free_file+0x1c>)
 80154b8:	4621      	mov	r1, r4
 80154ba:	f105 0008 	add.w	r0, r5, #8
 80154be:	f7ff ffa1 	bl	8015404 <fat_list_remove>
 80154c2:	4621      	mov	r1, r4
 80154c4:	4628      	mov	r0, r5
 80154c6:	f7ff ffcc 	bl	8015462 <fat_list_insert_last>
 80154ca:	bd38      	pop	{r3, r4, r5, pc}
 80154cc:	2000034c 	.word	0x2000034c

080154d0 <_check_file_open>:
 80154d0:	b570      	push	{r4, r5, r6, lr}
 80154d2:	4606      	mov	r6, r0
 80154d4:	4b0e      	ldr	r3, [pc, #56]	; (8015510 <_check_file_open+0x40>)
 80154d6:	689c      	ldr	r4, [r3, #8]
 80154d8:	e000      	b.n	80154dc <_check_file_open+0xc>
 80154da:	6864      	ldr	r4, [r4, #4]
 80154dc:	b1ac      	cbz	r4, 801550a <_check_file_open+0x3a>
 80154de:	f5a4 752d 	sub.w	r5, r4, #692	; 0x2b4
 80154e2:	42b5      	cmp	r5, r6
 80154e4:	d0f9      	beq.n	80154da <_check_file_open+0xa>
 80154e6:	f106 0114 	add.w	r1, r6, #20
 80154ea:	f5a4 7028 	sub.w	r0, r4, #672	; 0x2a0
 80154ee:	f7ff fa03 	bl	80148f8 <fatfs_compare_names>
 80154f2:	2800      	cmp	r0, #0
 80154f4:	d0f1      	beq.n	80154da <_check_file_open+0xa>
 80154f6:	f106 0154 	add.w	r1, r6, #84	; 0x54
 80154fa:	f5a4 7018 	sub.w	r0, r4, #608	; 0x260
 80154fe:	f7ff f9fb 	bl	80148f8 <fatfs_compare_names>
 8015502:	2800      	cmp	r0, #0
 8015504:	d0e9      	beq.n	80154da <_check_file_open+0xa>
 8015506:	2001      	movs	r0, #1
 8015508:	e000      	b.n	801550c <_check_file_open+0x3c>
 801550a:	2000      	movs	r0, #0
 801550c:	bd70      	pop	{r4, r5, r6, pc}
 801550e:	bf00      	nop
 8015510:	2000034c 	.word	0x2000034c

08015514 <_open_directory>:
 8015514:	e92d 41f0 	stmdb	sp!, {r4, r5, r6, r7, r8, lr}
 8015518:	b098      	sub	sp, #96	; 0x60
 801551a:	4606      	mov	r6, r0
 801551c:	460f      	mov	r7, r1
 801551e:	481a      	ldr	r0, [pc, #104]	; (8015588 <_open_directory+0x74>)
 8015520:	f7fe fef0 	bl	8014304 <fatfs_get_root_cluster>
 8015524:	4604      	mov	r4, r0
 8015526:	4630      	mov	r0, r6
 8015528:	f7ff f944 	bl	80147b4 <fatfs_total_path_levels>
 801552c:	4680      	mov	r8, r0
 801552e:	2500      	movs	r5, #0
 8015530:	e006      	b.n	8015540 <_open_directory+0x2c>
 8015532:	f8bd 0014 	ldrh.w	r0, [sp, #20]
 8015536:	f8bd 401a 	ldrh.w	r4, [sp, #26]
 801553a:	eb04 4400 	add.w	r4, r4, r0, lsl #16
 801553e:	3501      	adds	r5, #1
 8015540:	4545      	cmp	r5, r8
 8015542:	dc16      	bgt.n	8015572 <_open_directory+0x5e>
 8015544:	2340      	movs	r3, #64	; 0x40
 8015546:	aa08      	add	r2, sp, #32
 8015548:	4629      	mov	r1, r5
 801554a:	4630      	mov	r0, r6
 801554c:	f7ff f956 	bl	80147fc <fatfs_get_substring>
 8015550:	f1b0 3fff 	cmp.w	r0, #4294967295	; 0xffffffff
 8015554:	d013      	beq.n	801557e <_open_directory+0x6a>
 8015556:	466b      	mov	r3, sp
 8015558:	aa08      	add	r2, sp, #32
 801555a:	4621      	mov	r1, r4
 801555c:	480a      	ldr	r0, [pc, #40]	; (8015588 <_open_directory+0x74>)
 801555e:	f7fe fed3 	bl	8014308 <fatfs_get_file_entry>
 8015562:	b170      	cbz	r0, 8015582 <_open_directory+0x6e>
 8015564:	4668      	mov	r0, sp
 8015566:	f001 f8c4 	bl	80166f2 <fatfs_entry_is_dir>
 801556a:	4603      	mov	r3, r0
 801556c:	2800      	cmp	r0, #0
 801556e:	d1e0      	bne.n	8015532 <_open_directory+0x1e>
 8015570:	e001      	b.n	8015576 <_open_directory+0x62>
 8015572:	603c      	str	r4, [r7, #0]
 8015574:	2301      	movs	r3, #1
 8015576:	4618      	mov	r0, r3
 8015578:	b018      	add	sp, #96	; 0x60
 801557a:	e8bd 81f0 	ldmia.w	sp!, {r4, r5, r6, r7, r8, pc}
 801557e:	2300      	movs	r3, #0
 8015580:	e7f9      	b.n	8015576 <_open_directory+0x62>
 8015582:	2300      	movs	r3, #0
 8015584:	e7f7      	b.n	8015576 <_open_directory+0x62>
 8015586:	bf00      	nop
 8015588:	2000035c 	.word	0x2000035c

0801558c <_create_file>:
 801558c:	b5f0      	push	{r4, r5, r6, r7, lr}
 801558e:	b091      	sub	sp, #68	; 0x44
 8015590:	4b5e      	ldr	r3, [pc, #376]	; (801570c <_create_file+0x180>)
 8015592:	6c5b      	ldr	r3, [r3, #68]	; 0x44
 8015594:	2b00      	cmp	r3, #0
 8015596:	f000 80b6 	beq.w	8015706 <_create_file+0x17a>
 801559a:	4604      	mov	r4, r0
 801559c:	f7ff ff74 	bl	8015488 <_allocate_file>
 80155a0:	4606      	mov	r6, r0
 80155a2:	2800      	cmp	r0, #0
 80155a4:	f000 809a 	beq.w	80156dc <_create_file+0x150>
 80155a8:	f100 0514 	add.w	r5, r0, #20
 80155ac:	2240      	movs	r2, #64	; 0x40
 80155ae:	2100      	movs	r1, #0
 80155b0:	4628      	mov	r0, r5
 80155b2:	f7fc f9ce 	bl	8011952 <memset>
 80155b6:	f106 0754 	add.w	r7, r6, #84	; 0x54
 80155ba:	2240      	movs	r2, #64	; 0x40
 80155bc:	2100      	movs	r1, #0
 80155be:	4638      	mov	r0, r7
 80155c0:	f7fc f9c7 	bl	8011952 <memset>
 80155c4:	2240      	movs	r2, #64	; 0x40
 80155c6:	9200      	str	r2, [sp, #0]
 80155c8:	463b      	mov	r3, r7
 80155ca:	4629      	mov	r1, r5
 80155cc:	4620      	mov	r0, r4
 80155ce:	f7ff f95f 	bl	8014890 <fatfs_split_path>
 80155d2:	f1b0 3fff 	cmp.w	r0, #4294967295	; 0xffffffff
 80155d6:	d021      	beq.n	801561c <_create_file+0x90>
 80155d8:	4630      	mov	r0, r6
 80155da:	f7ff ff79 	bl	80154d0 <_check_file_open>
 80155de:	4604      	mov	r4, r0
 80155e0:	bb08      	cbnz	r0, 8015626 <_create_file+0x9a>
 80155e2:	7d33      	ldrb	r3, [r6, #20]
 80155e4:	bb23      	cbnz	r3, 8015630 <_create_file+0xa4>
 80155e6:	484a      	ldr	r0, [pc, #296]	; (8015710 <_create_file+0x184>)
 80155e8:	f7fe fe8c 	bl	8014304 <fatfs_get_root_cluster>
 80155ec:	6030      	str	r0, [r6, #0]
 80155ee:	ab08      	add	r3, sp, #32
 80155f0:	463a      	mov	r2, r7
 80155f2:	6831      	ldr	r1, [r6, #0]
 80155f4:	4846      	ldr	r0, [pc, #280]	; (8015710 <_create_file+0x184>)
 80155f6:	f7fe fe87 	bl	8014308 <fatfs_get_file_entry>
 80155fa:	2801      	cmp	r0, #1
 80155fc:	d023      	beq.n	8015646 <_create_file+0xba>
 80155fe:	4632      	mov	r2, r6
 8015600:	2300      	movs	r3, #0
 8015602:	f842 3f04 	str.w	r3, [r2, #4]!
 8015606:	2301      	movs	r3, #1
 8015608:	4619      	mov	r1, r3
 801560a:	4841      	ldr	r0, [pc, #260]	; (8015710 <_create_file+0x184>)
 801560c:	f7ff fb0f 	bl	8014c2e <fatfs_allocate_free_space>
 8015610:	bb88      	cbnz	r0, 8015676 <_create_file+0xea>
 8015612:	4630      	mov	r0, r6
 8015614:	f7ff ff4c 	bl	80154b0 <_free_file>
 8015618:	2600      	movs	r6, #0
 801561a:	e05f      	b.n	80156dc <_create_file+0x150>
 801561c:	4630      	mov	r0, r6
 801561e:	f7ff ff47 	bl	80154b0 <_free_file>
 8015622:	2600      	movs	r6, #0
 8015624:	e05a      	b.n	80156dc <_create_file+0x150>
 8015626:	4630      	mov	r0, r6
 8015628:	f7ff ff42 	bl	80154b0 <_free_file>
 801562c:	2600      	movs	r6, #0
 801562e:	e055      	b.n	80156dc <_create_file+0x150>
 8015630:	4631      	mov	r1, r6
 8015632:	4628      	mov	r0, r5
 8015634:	f7ff ff6e 	bl	8015514 <_open_directory>
 8015638:	2800      	cmp	r0, #0
 801563a:	d1d8      	bne.n	80155ee <_create_file+0x62>
 801563c:	4630      	mov	r0, r6
 801563e:	f7ff ff37 	bl	80154b0 <_free_file>
 8015642:	2600      	movs	r6, #0
 8015644:	e04a      	b.n	80156dc <_create_file+0x150>
 8015646:	4630      	mov	r0, r6
 8015648:	f7ff ff32 	bl	80154b0 <_free_file>
 801564c:	2600      	movs	r6, #0
 801564e:	e045      	b.n	80156dc <_create_file+0x150>
 8015650:	4622      	mov	r2, r4
 8015652:	a905      	add	r1, sp, #20
 8015654:	f106 0094 	add.w	r0, r6, #148	; 0x94
 8015658:	f001 f955 	bl	8016906 <fatfs_lfn_generate_tail>
 801565c:	4635      	mov	r5, r6
 801565e:	f855 1b94 	ldr.w	r1, [r5], #148
 8015662:	462a      	mov	r2, r5
 8015664:	482a      	ldr	r0, [pc, #168]	; (8015710 <_create_file+0x184>)
 8015666:	f7fe fee3 	bl	8014430 <fatfs_sfn_exists>
 801566a:	b188      	cbz	r0, 8015690 <_create_file+0x104>
 801566c:	3401      	adds	r4, #1
 801566e:	f242 730e 	movw	r3, #9998	; 0x270e
 8015672:	429c      	cmp	r4, r3
 8015674:	dc0c      	bgt.n	8015690 <_create_file+0x104>
 8015676:	4639      	mov	r1, r7
 8015678:	a805      	add	r0, sp, #20
 801567a:	f001 f8dd 	bl	8016838 <fatfs_lfn_create_sfn>
 801567e:	2c00      	cmp	r4, #0
 8015680:	d1e6      	bne.n	8015650 <_create_file+0xc4>
 8015682:	220b      	movs	r2, #11
 8015684:	a905      	add	r1, sp, #20
 8015686:	f106 0094 	add.w	r0, r6, #148	; 0x94
 801568a:	f7fc f969 	bl	8011960 <memcpy>
 801568e:	e7e5      	b.n	801565c <_create_file+0xd0>
 8015690:	f242 730f 	movw	r3, #9999	; 0x270f
 8015694:	429c      	cmp	r4, r3
 8015696:	d024      	beq.n	80156e2 <_create_file+0x156>
 8015698:	6831      	ldr	r1, [r6, #0]
 801569a:	2300      	movs	r3, #0
 801569c:	9302      	str	r3, [sp, #8]
 801569e:	9301      	str	r3, [sp, #4]
 80156a0:	6873      	ldr	r3, [r6, #4]
 80156a2:	9300      	str	r3, [sp, #0]
 80156a4:	462b      	mov	r3, r5
 80156a6:	463a      	mov	r2, r7
 80156a8:	4819      	ldr	r0, [pc, #100]	; (8015710 <_create_file+0x184>)
 80156aa:	f7ff faff 	bl	8014cac <fatfs_add_file_entry>
 80156ae:	b308      	cbz	r0, 80156f4 <_create_file+0x168>
 80156b0:	2300      	movs	r3, #0
 80156b2:	60f3      	str	r3, [r6, #12]
 80156b4:	60b3      	str	r3, [r6, #8]
 80156b6:	f04f 32ff 	mov.w	r2, #4294967295	; 0xffffffff
 80156ba:	f8c6 22a8 	str.w	r2, [r6, #680]	; 0x2a8
 80156be:	f8c6 32ac 	str.w	r3, [r6, #684]	; 0x2ac
 80156c2:	6133      	str	r3, [r6, #16]
 80156c4:	f8c6 20a0 	str.w	r2, [r6, #160]	; 0xa0
 80156c8:	f8c6 20a4 	str.w	r2, [r6, #164]	; 0xa4
 80156cc:	4c10      	ldr	r4, [pc, #64]	; (8015710 <_create_file+0x184>)
 80156ce:	4631      	mov	r1, r6
 80156d0:	4620      	mov	r0, r4
 80156d2:	f7fe fbc3 	bl	8013e5c <fatfs_cache_init>
 80156d6:	4620      	mov	r0, r4
 80156d8:	f001 f9d4 	bl	8016a84 <fatfs_fat_purge>
 80156dc:	4630      	mov	r0, r6
 80156de:	b011      	add	sp, #68	; 0x44
 80156e0:	bdf0      	pop	{r4, r5, r6, r7, pc}
 80156e2:	6871      	ldr	r1, [r6, #4]
 80156e4:	480a      	ldr	r0, [pc, #40]	; (8015710 <_create_file+0x184>)
 80156e6:	f001 fae7 	bl	8016cb8 <fatfs_free_cluster_chain>
 80156ea:	4630      	mov	r0, r6
 80156ec:	f7ff fee0 	bl	80154b0 <_free_file>
 80156f0:	2600      	movs	r6, #0
 80156f2:	e7f3      	b.n	80156dc <_create_file+0x150>
 80156f4:	6871      	ldr	r1, [r6, #4]
 80156f6:	4806      	ldr	r0, [pc, #24]	; (8015710 <_create_file+0x184>)
 80156f8:	f001 fade 	bl	8016cb8 <fatfs_free_cluster_chain>
 80156fc:	4630      	mov	r0, r6
 80156fe:	f7ff fed7 	bl	80154b0 <_free_file>
 8015702:	2600      	movs	r6, #0
 8015704:	e7ea      	b.n	80156dc <_create_file+0x150>
 8015706:	2600      	movs	r6, #0
 8015708:	e7e8      	b.n	80156dc <_create_file+0x150>
 801570a:	bf00      	nop
 801570c:	2000034c 	.word	0x2000034c
 8015710:	2000035c 	.word	0x2000035c

08015714 <_open_file>:
 8015714:	b5f0      	push	{r4, r5, r6, r7, lr}
 8015716:	b08b      	sub	sp, #44	; 0x2c
 8015718:	4605      	mov	r5, r0
 801571a:	f7ff feb5 	bl	8015488 <_allocate_file>
 801571e:	4604      	mov	r4, r0
 8015720:	b380      	cbz	r0, 8015784 <_open_file+0x70>
 8015722:	f100 0714 	add.w	r7, r0, #20
 8015726:	2240      	movs	r2, #64	; 0x40
 8015728:	2100      	movs	r1, #0
 801572a:	4638      	mov	r0, r7
 801572c:	f7fc f911 	bl	8011952 <memset>
 8015730:	f104 0654 	add.w	r6, r4, #84	; 0x54
 8015734:	2240      	movs	r2, #64	; 0x40
 8015736:	2100      	movs	r1, #0
 8015738:	4630      	mov	r0, r6
 801573a:	f7fc f90a 	bl	8011952 <memset>
 801573e:	2240      	movs	r2, #64	; 0x40
 8015740:	9200      	str	r2, [sp, #0]
 8015742:	4633      	mov	r3, r6
 8015744:	4639      	mov	r1, r7
 8015746:	4628      	mov	r0, r5
 8015748:	f7ff f8a2 	bl	8014890 <fatfs_split_path>
 801574c:	f1b0 3fff 	cmp.w	r0, #4294967295	; 0xffffffff
 8015750:	d01b      	beq.n	801578a <_open_file+0x76>
 8015752:	4620      	mov	r0, r4
 8015754:	f7ff febc 	bl	80154d0 <_check_file_open>
 8015758:	b9e0      	cbnz	r0, 8015794 <_open_file+0x80>
 801575a:	7d23      	ldrb	r3, [r4, #20]
 801575c:	b9fb      	cbnz	r3, 801579e <_open_file+0x8a>
 801575e:	4828      	ldr	r0, [pc, #160]	; (8015800 <_open_file+0xec>)
 8015760:	f7fe fdd0 	bl	8014304 <fatfs_get_root_cluster>
 8015764:	6020      	str	r0, [r4, #0]
 8015766:	ab02      	add	r3, sp, #8
 8015768:	4632      	mov	r2, r6
 801576a:	6821      	ldr	r1, [r4, #0]
 801576c:	4824      	ldr	r0, [pc, #144]	; (8015800 <_open_file+0xec>)
 801576e:	f7fe fdcb 	bl	8014308 <fatfs_get_file_entry>
 8015772:	b118      	cbz	r0, 801577c <_open_file+0x68>
 8015774:	a802      	add	r0, sp, #8
 8015776:	f000 ffc4 	bl	8016702 <fatfs_entry_is_file>
 801577a:	b9d8      	cbnz	r0, 80157b4 <_open_file+0xa0>
 801577c:	4620      	mov	r0, r4
 801577e:	f7ff fe97 	bl	80154b0 <_free_file>
 8015782:	2400      	movs	r4, #0
 8015784:	4620      	mov	r0, r4
 8015786:	b00b      	add	sp, #44	; 0x2c
 8015788:	bdf0      	pop	{r4, r5, r6, r7, pc}
 801578a:	4620      	mov	r0, r4
 801578c:	f7ff fe90 	bl	80154b0 <_free_file>
 8015790:	2400      	movs	r4, #0
 8015792:	e7f7      	b.n	8015784 <_open_file+0x70>
 8015794:	4620      	mov	r0, r4
 8015796:	f7ff fe8b 	bl	80154b0 <_free_file>
 801579a:	2400      	movs	r4, #0
 801579c:	e7f2      	b.n	8015784 <_open_file+0x70>
 801579e:	4621      	mov	r1, r4
 80157a0:	4638      	mov	r0, r7
 80157a2:	f7ff feb7 	bl	8015514 <_open_directory>
 80157a6:	2800      	cmp	r0, #0
 80157a8:	d1dd      	bne.n	8015766 <_open_file+0x52>
 80157aa:	4620      	mov	r0, r4
 80157ac:	f7ff fe80 	bl	80154b0 <_free_file>
 80157b0:	2400      	movs	r4, #0
 80157b2:	e7e7      	b.n	8015784 <_open_file+0x70>
 80157b4:	220b      	movs	r2, #11
 80157b6:	a902      	add	r1, sp, #8
 80157b8:	f104 0094 	add.w	r0, r4, #148	; 0x94
 80157bc:	f7fc f8d0 	bl	8011960 <memcpy>
 80157c0:	9b09      	ldr	r3, [sp, #36]	; 0x24
 80157c2:	60e3      	str	r3, [r4, #12]
 80157c4:	2200      	movs	r2, #0
 80157c6:	60a2      	str	r2, [r4, #8]
 80157c8:	f8bd 101c 	ldrh.w	r1, [sp, #28]
 80157cc:	f8bd 3022 	ldrh.w	r3, [sp, #34]	; 0x22
 80157d0:	eb03 4301 	add.w	r3, r3, r1, lsl #16
 80157d4:	6063      	str	r3, [r4, #4]
 80157d6:	f04f 33ff 	mov.w	r3, #4294967295	; 0xffffffff
 80157da:	f8c4 32a8 	str.w	r3, [r4, #680]	; 0x2a8
 80157de:	f8c4 22ac 	str.w	r2, [r4, #684]	; 0x2ac
 80157e2:	6122      	str	r2, [r4, #16]
 80157e4:	f8c4 30a0 	str.w	r3, [r4, #160]	; 0xa0
 80157e8:	f8c4 30a4 	str.w	r3, [r4, #164]	; 0xa4
 80157ec:	4d04      	ldr	r5, [pc, #16]	; (8015800 <_open_file+0xec>)
 80157ee:	4621      	mov	r1, r4
 80157f0:	4628      	mov	r0, r5
 80157f2:	f7fe fb33 	bl	8013e5c <fatfs_cache_init>
 80157f6:	4628      	mov	r0, r5
 80157f8:	f001 f944 	bl	8016a84 <fatfs_fat_purge>
 80157fc:	e7c2      	b.n	8015784 <_open_file+0x70>
 80157fe:	bf00      	nop
 8015800:	2000035c 	.word	0x2000035c

08015804 <_write_sectors>:
 8015804:	e92d 4ff0 	stmdb	sp!, {r4, r5, r6, r7, r8, r9, sl, fp, lr}
 8015808:	b085      	sub	sp, #20
 801580a:	4606      	mov	r6, r0
 801580c:	9201      	str	r2, [sp, #4]
 801580e:	469a      	mov	sl, r3
 8015810:	f04f 33ff 	mov.w	r3, #4294967295	; 0xffffffff
 8015814:	9303      	str	r3, [sp, #12]
 8015816:	4b36      	ldr	r3, [pc, #216]	; (80158f0 <_write_sectors+0xec>)
 8015818:	7c1b      	ldrb	r3, [r3, #16]
 801581a:	fbb1 f7f3 	udiv	r7, r1, r3
 801581e:	fb07 f803 	mul.w	r8, r7, r3
 8015822:	eba1 0b08 	sub.w	fp, r1, r8
 8015826:	eb0a 020b 	add.w	r2, sl, fp
 801582a:	4293      	cmp	r3, r2
 801582c:	d203      	bcs.n	8015836 <_write_sectors+0x32>
 801582e:	eba8 0801 	sub.w	r8, r8, r1
 8015832:	4498      	add	r8, r3
 8015834:	e000      	b.n	8015838 <_write_sectors+0x34>
 8015836:	46d0      	mov	r8, sl
 8015838:	f8d6 40a0 	ldr.w	r4, [r6, #160]	; 0xa0
 801583c:	42bc      	cmp	r4, r7
 801583e:	d007      	beq.n	8015850 <_write_sectors+0x4c>
 8015840:	428b      	cmp	r3, r1
 8015842:	d802      	bhi.n	801584a <_write_sectors+0x46>
 8015844:	1c63      	adds	r3, r4, #1
 8015846:	42bb      	cmp	r3, r7
 8015848:	d005      	beq.n	8015856 <_write_sectors+0x52>
 801584a:	6875      	ldr	r5, [r6, #4]
 801584c:	2400      	movs	r4, #0
 801584e:	e018      	b.n	8015882 <_write_sectors+0x7e>
 8015850:	f8d6 50a4 	ldr.w	r5, [r6, #164]	; 0xa4
 8015854:	e027      	b.n	80158a6 <_write_sectors+0xa2>
 8015856:	f8d6 50a4 	ldr.w	r5, [r6, #164]	; 0xa4
 801585a:	e012      	b.n	8015882 <_write_sectors+0x7e>
 801585c:	f8df 9094 	ldr.w	r9, [pc, #148]	; 80158f4 <_write_sectors+0xf0>
 8015860:	4629      	mov	r1, r5
 8015862:	4648      	mov	r0, r9
 8015864:	f001 f925 	bl	8016ab2 <fatfs_find_next_cluster>
 8015868:	4603      	mov	r3, r0
 801586a:	9002      	str	r0, [sp, #8]
 801586c:	4622      	mov	r2, r4
 801586e:	4631      	mov	r1, r6
 8015870:	4648      	mov	r0, r9
 8015872:	f7fe faf7 	bl	8013e64 <fatfs_cache_set_next_cluster>
 8015876:	9503      	str	r5, [sp, #12]
 8015878:	9d02      	ldr	r5, [sp, #8]
 801587a:	f1b5 3fff 	cmp.w	r5, #4294967295	; 0xffffffff
 801587e:	d00b      	beq.n	8015898 <_write_sectors+0x94>
 8015880:	3401      	adds	r4, #1
 8015882:	42bc      	cmp	r4, r7
 8015884:	d208      	bcs.n	8015898 <_write_sectors+0x94>
 8015886:	ab02      	add	r3, sp, #8
 8015888:	4622      	mov	r2, r4
 801588a:	4631      	mov	r1, r6
 801588c:	4819      	ldr	r0, [pc, #100]	; (80158f4 <_write_sectors+0xf0>)
 801588e:	f7fe fae7 	bl	8013e60 <fatfs_cache_get_next_cluster>
 8015892:	2800      	cmp	r0, #0
 8015894:	d1ef      	bne.n	8015876 <_write_sectors+0x72>
 8015896:	e7e1      	b.n	801585c <_write_sectors+0x58>
 8015898:	f1b5 3fff 	cmp.w	r5, #4294967295	; 0xffffffff
 801589c:	d014      	beq.n	80158c8 <_write_sectors+0xc4>
 801589e:	f8c6 50a4 	str.w	r5, [r6, #164]	; 0xa4
 80158a2:	f8c6 70a0 	str.w	r7, [r6, #160]	; 0xa0
 80158a6:	4c13      	ldr	r4, [pc, #76]	; (80158f4 <_write_sectors+0xf0>)
 80158a8:	4629      	mov	r1, r5
 80158aa:	4620      	mov	r0, r4
 80158ac:	f7fe fc2f 	bl	801410e <fatfs_lba_of_cluster>
 80158b0:	4643      	mov	r3, r8
 80158b2:	9a01      	ldr	r2, [sp, #4]
 80158b4:	eb00 010b 	add.w	r1, r0, fp
 80158b8:	4620      	mov	r0, r4
 80158ba:	f7fe fc42 	bl	8014142 <fatfs_sector_write>
 80158be:	b1a0      	cbz	r0, 80158ea <_write_sectors+0xe6>
 80158c0:	4640      	mov	r0, r8
 80158c2:	b005      	add	sp, #20
 80158c4:	e8bd 8ff0 	ldmia.w	sp!, {r4, r5, r6, r7, r8, r9, sl, fp, pc}
 80158c8:	4809      	ldr	r0, [pc, #36]	; (80158f0 <_write_sectors+0xec>)
 80158ca:	f810 2f10 	ldrb.w	r2, [r0, #16]!
 80158ce:	4492      	add	sl, r2
 80158d0:	f10a 3aff 	add.w	sl, sl, #4294967295	; 0xffffffff
 80158d4:	fbba f2f2 	udiv	r2, sl, r2
 80158d8:	a903      	add	r1, sp, #12
 80158da:	f7ff f976 	bl	8014bca <fatfs_add_free_space>
 80158de:	b108      	cbz	r0, 80158e4 <_write_sectors+0xe0>
 80158e0:	9d03      	ldr	r5, [sp, #12]
 80158e2:	e7dc      	b.n	801589e <_write_sectors+0x9a>
 80158e4:	f04f 0800 	mov.w	r8, #0
 80158e8:	e7ea      	b.n	80158c0 <_write_sectors+0xbc>
 80158ea:	f04f 0800 	mov.w	r8, #0
 80158ee:	e7e7      	b.n	80158c0 <_write_sectors+0xbc>
 80158f0:	2000034c 	.word	0x2000034c
 80158f4:	2000035c 	.word	0x2000035c

080158f8 <_read_sectors>:
 80158f8:	e92d 4ff0 	stmdb	sp!, {r4, r5, r6, r7, r8, r9, sl, fp, lr}
 80158fc:	b083      	sub	sp, #12
 80158fe:	4605      	mov	r5, r0
 8015900:	4691      	mov	r9, r2
 8015902:	4698      	mov	r8, r3
 8015904:	4b2c      	ldr	r3, [pc, #176]	; (80159b8 <_read_sectors+0xc0>)
 8015906:	7c1a      	ldrb	r2, [r3, #16]
 8015908:	fbb1 f7f2 	udiv	r7, r1, r2
 801590c:	fb07 f302 	mul.w	r3, r7, r2
 8015910:	eba1 0a03 	sub.w	sl, r1, r3
 8015914:	eb0a 0008 	add.w	r0, sl, r8
 8015918:	4282      	cmp	r2, r0
 801591a:	d202      	bcs.n	8015922 <_read_sectors+0x2a>
 801591c:	1a5b      	subs	r3, r3, r1
 801591e:	eb03 0802 	add.w	r8, r3, r2
 8015922:	f8d5 40a0 	ldr.w	r4, [r5, #160]	; 0xa0
 8015926:	42bc      	cmp	r4, r7
 8015928:	d007      	beq.n	801593a <_read_sectors+0x42>
 801592a:	428a      	cmp	r2, r1
 801592c:	d802      	bhi.n	8015934 <_read_sectors+0x3c>
 801592e:	1c63      	adds	r3, r4, #1
 8015930:	42bb      	cmp	r3, r7
 8015932:	d005      	beq.n	8015940 <_read_sectors+0x48>
 8015934:	686e      	ldr	r6, [r5, #4]
 8015936:	2400      	movs	r4, #0
 8015938:	e014      	b.n	8015964 <_read_sectors+0x6c>
 801593a:	f8d5 60a4 	ldr.w	r6, [r5, #164]	; 0xa4
 801593e:	e023      	b.n	8015988 <_read_sectors+0x90>
 8015940:	f8d5 60a4 	ldr.w	r6, [r5, #164]	; 0xa4
 8015944:	e00e      	b.n	8015964 <_read_sectors+0x6c>
 8015946:	f8df b074 	ldr.w	fp, [pc, #116]	; 80159bc <_read_sectors+0xc4>
 801594a:	4631      	mov	r1, r6
 801594c:	4658      	mov	r0, fp
 801594e:	f001 f8b0 	bl	8016ab2 <fatfs_find_next_cluster>
 8015952:	4603      	mov	r3, r0
 8015954:	9001      	str	r0, [sp, #4]
 8015956:	4622      	mov	r2, r4
 8015958:	4629      	mov	r1, r5
 801595a:	4658      	mov	r0, fp
 801595c:	f7fe fa82 	bl	8013e64 <fatfs_cache_set_next_cluster>
 8015960:	9e01      	ldr	r6, [sp, #4]
 8015962:	3401      	adds	r4, #1
 8015964:	42bc      	cmp	r4, r7
 8015966:	d208      	bcs.n	801597a <_read_sectors+0x82>
 8015968:	ab01      	add	r3, sp, #4
 801596a:	4622      	mov	r2, r4
 801596c:	4629      	mov	r1, r5
 801596e:	4813      	ldr	r0, [pc, #76]	; (80159bc <_read_sectors+0xc4>)
 8015970:	f7fe fa76 	bl	8013e60 <fatfs_cache_get_next_cluster>
 8015974:	2800      	cmp	r0, #0
 8015976:	d1f3      	bne.n	8015960 <_read_sectors+0x68>
 8015978:	e7e5      	b.n	8015946 <_read_sectors+0x4e>
 801597a:	f1b6 3fff 	cmp.w	r6, #4294967295	; 0xffffffff
 801597e:	d003      	beq.n	8015988 <_read_sectors+0x90>
 8015980:	f8c5 60a4 	str.w	r6, [r5, #164]	; 0xa4
 8015984:	f8c5 70a0 	str.w	r7, [r5, #160]	; 0xa0
 8015988:	f1b6 3fff 	cmp.w	r6, #4294967295	; 0xffffffff
 801598c:	d00e      	beq.n	80159ac <_read_sectors+0xb4>
 801598e:	4c0b      	ldr	r4, [pc, #44]	; (80159bc <_read_sectors+0xc4>)
 8015990:	4631      	mov	r1, r6
 8015992:	4620      	mov	r0, r4
 8015994:	f7fe fbbb 	bl	801410e <fatfs_lba_of_cluster>
 8015998:	4643      	mov	r3, r8
 801599a:	464a      	mov	r2, r9
 801599c:	eb00 010a 	add.w	r1, r0, sl
 80159a0:	4620      	mov	r0, r4
 80159a2:	f7fe fbc6 	bl	8014132 <fatfs_sector_read>
 80159a6:	b128      	cbz	r0, 80159b4 <_read_sectors+0xbc>
 80159a8:	4640      	mov	r0, r8
 80159aa:	e000      	b.n	80159ae <_read_sectors+0xb6>
 80159ac:	2000      	movs	r0, #0
 80159ae:	b003      	add	sp, #12
 80159b0:	e8bd 8ff0 	ldmia.w	sp!, {r4, r5, r6, r7, r8, r9, sl, fp, pc}
 80159b4:	2000      	movs	r0, #0
 80159b6:	e7fa      	b.n	80159ae <_read_sectors+0xb6>
 80159b8:	2000034c 	.word	0x2000034c
 80159bc:	2000035c 	.word	0x2000035c

080159c0 <_create_directory>:
 80159c0:	e92d 43f0 	stmdb	sp!, {r4, r5, r6, r7, r8, r9, lr}
 80159c4:	b091      	sub	sp, #68	; 0x44
 80159c6:	4605      	mov	r5, r0
 80159c8:	f7ff fd5e 	bl	8015488 <_allocate_file>
 80159cc:	2800      	cmp	r0, #0
 80159ce:	f000 80cd 	beq.w	8015b6c <_create_directory+0x1ac>
 80159d2:	4604      	mov	r4, r0
 80159d4:	f100 0614 	add.w	r6, r0, #20
 80159d8:	2240      	movs	r2, #64	; 0x40
 80159da:	2100      	movs	r1, #0
 80159dc:	4630      	mov	r0, r6
 80159de:	f7fb ffb8 	bl	8011952 <memset>
 80159e2:	f104 0754 	add.w	r7, r4, #84	; 0x54
 80159e6:	2240      	movs	r2, #64	; 0x40
 80159e8:	2100      	movs	r1, #0
 80159ea:	4638      	mov	r0, r7
 80159ec:	f7fb ffb1 	bl	8011952 <memset>
 80159f0:	2240      	movs	r2, #64	; 0x40
 80159f2:	9200      	str	r2, [sp, #0]
 80159f4:	463b      	mov	r3, r7
 80159f6:	4631      	mov	r1, r6
 80159f8:	4628      	mov	r0, r5
 80159fa:	f7fe ff49 	bl	8014890 <fatfs_split_path>
 80159fe:	f1b0 3fff 	cmp.w	r0, #4294967295	; 0xffffffff
 8015a02:	d036      	beq.n	8015a72 <_create_directory+0xb2>
 8015a04:	4620      	mov	r0, r4
 8015a06:	f7ff fd63 	bl	80154d0 <_check_file_open>
 8015a0a:	4680      	mov	r8, r0
 8015a0c:	2800      	cmp	r0, #0
 8015a0e:	d135      	bne.n	8015a7c <_create_directory+0xbc>
 8015a10:	7d23      	ldrb	r3, [r4, #20]
 8015a12:	2b00      	cmp	r3, #0
 8015a14:	d137      	bne.n	8015a86 <_create_directory+0xc6>
 8015a16:	4858      	ldr	r0, [pc, #352]	; (8015b78 <_create_directory+0x1b8>)
 8015a18:	f7fe fc74 	bl	8014304 <fatfs_get_root_cluster>
 8015a1c:	6020      	str	r0, [r4, #0]
 8015a1e:	ab08      	add	r3, sp, #32
 8015a20:	463a      	mov	r2, r7
 8015a22:	6821      	ldr	r1, [r4, #0]
 8015a24:	4854      	ldr	r0, [pc, #336]	; (8015b78 <_create_directory+0x1b8>)
 8015a26:	f7fe fc6f 	bl	8014308 <fatfs_get_file_entry>
 8015a2a:	2801      	cmp	r0, #1
 8015a2c:	d036      	beq.n	8015a9c <_create_directory+0xdc>
 8015a2e:	4622      	mov	r2, r4
 8015a30:	2300      	movs	r3, #0
 8015a32:	f842 3f04 	str.w	r3, [r2, #4]!
 8015a36:	2301      	movs	r3, #1
 8015a38:	4619      	mov	r1, r3
 8015a3a:	484f      	ldr	r0, [pc, #316]	; (8015b78 <_create_directory+0x1b8>)
 8015a3c:	f7ff f8f7 	bl	8014c2e <fatfs_allocate_free_space>
 8015a40:	4606      	mov	r6, r0
 8015a42:	b380      	cbz	r0, 8015aa6 <_create_directory+0xe6>
 8015a44:	f104 09a8 	add.w	r9, r4, #168	; 0xa8
 8015a48:	f44f 7200 	mov.w	r2, #512	; 0x200
 8015a4c:	2100      	movs	r1, #0
 8015a4e:	4648      	mov	r0, r9
 8015a50:	f7fb ff7f 	bl	8011952 <memset>
 8015a54:	4645      	mov	r5, r8
 8015a56:	4b49      	ldr	r3, [pc, #292]	; (8015b7c <_create_directory+0x1bc>)
 8015a58:	7c1b      	ldrb	r3, [r3, #16]
 8015a5a:	42ab      	cmp	r3, r5
 8015a5c:	dd2b      	ble.n	8015ab6 <_create_directory+0xf6>
 8015a5e:	464b      	mov	r3, r9
 8015a60:	462a      	mov	r2, r5
 8015a62:	6861      	ldr	r1, [r4, #4]
 8015a64:	4844      	ldr	r0, [pc, #272]	; (8015b78 <_create_directory+0x1b8>)
 8015a66:	f7fe fbe7 	bl	8014238 <fatfs_write_sector>
 8015a6a:	4606      	mov	r6, r0
 8015a6c:	b1f8      	cbz	r0, 8015aae <_create_directory+0xee>
 8015a6e:	3501      	adds	r5, #1
 8015a70:	e7f1      	b.n	8015a56 <_create_directory+0x96>
 8015a72:	4620      	mov	r0, r4
 8015a74:	f7ff fd1c 	bl	80154b0 <_free_file>
 8015a78:	2600      	movs	r6, #0
 8015a7a:	e078      	b.n	8015b6e <_create_directory+0x1ae>
 8015a7c:	4620      	mov	r0, r4
 8015a7e:	f7ff fd17 	bl	80154b0 <_free_file>
 8015a82:	2600      	movs	r6, #0
 8015a84:	e073      	b.n	8015b6e <_create_directory+0x1ae>
 8015a86:	4621      	mov	r1, r4
 8015a88:	4630      	mov	r0, r6
 8015a8a:	f7ff fd43 	bl	8015514 <_open_directory>
 8015a8e:	4606      	mov	r6, r0
 8015a90:	2800      	cmp	r0, #0
 8015a92:	d1c4      	bne.n	8015a1e <_create_directory+0x5e>
 8015a94:	4620      	mov	r0, r4
 8015a96:	f7ff fd0b 	bl	80154b0 <_free_file>
 8015a9a:	e068      	b.n	8015b6e <_create_directory+0x1ae>
 8015a9c:	4620      	mov	r0, r4
 8015a9e:	f7ff fd07 	bl	80154b0 <_free_file>
 8015aa2:	4646      	mov	r6, r8
 8015aa4:	e063      	b.n	8015b6e <_create_directory+0x1ae>
 8015aa6:	4620      	mov	r0, r4
 8015aa8:	f7ff fd02 	bl	80154b0 <_free_file>
 8015aac:	e05f      	b.n	8015b6e <_create_directory+0x1ae>
 8015aae:	4620      	mov	r0, r4
 8015ab0:	f7ff fcfe 	bl	80154b0 <_free_file>
 8015ab4:	e05b      	b.n	8015b6e <_create_directory+0x1ae>
 8015ab6:	4645      	mov	r5, r8
 8015ab8:	e012      	b.n	8015ae0 <_create_directory+0x120>
 8015aba:	220b      	movs	r2, #11
 8015abc:	a905      	add	r1, sp, #20
 8015abe:	f104 0094 	add.w	r0, r4, #148	; 0x94
 8015ac2:	f7fb ff4d 	bl	8011960 <memcpy>
 8015ac6:	4626      	mov	r6, r4
 8015ac8:	f856 1b94 	ldr.w	r1, [r6], #148
 8015acc:	4632      	mov	r2, r6
 8015ace:	482a      	ldr	r0, [pc, #168]	; (8015b78 <_create_directory+0x1b8>)
 8015ad0:	f7fe fcae 	bl	8014430 <fatfs_sfn_exists>
 8015ad4:	b188      	cbz	r0, 8015afa <_create_directory+0x13a>
 8015ad6:	3501      	adds	r5, #1
 8015ad8:	f242 730e 	movw	r3, #9998	; 0x270e
 8015adc:	429d      	cmp	r5, r3
 8015ade:	dc0c      	bgt.n	8015afa <_create_directory+0x13a>
 8015ae0:	4639      	mov	r1, r7
 8015ae2:	a805      	add	r0, sp, #20
 8015ae4:	f000 fea8 	bl	8016838 <fatfs_lfn_create_sfn>
 8015ae8:	2d00      	cmp	r5, #0
 8015aea:	d0e6      	beq.n	8015aba <_create_directory+0xfa>
 8015aec:	462a      	mov	r2, r5
 8015aee:	a905      	add	r1, sp, #20
 8015af0:	f104 0094 	add.w	r0, r4, #148	; 0x94
 8015af4:	f000 ff07 	bl	8016906 <fatfs_lfn_generate_tail>
 8015af8:	e7e5      	b.n	8015ac6 <_create_directory+0x106>
 8015afa:	f242 730f 	movw	r3, #9999	; 0x270f
 8015afe:	429d      	cmp	r5, r3
 8015b00:	d023      	beq.n	8015b4a <_create_directory+0x18a>
 8015b02:	6821      	ldr	r1, [r4, #0]
 8015b04:	2301      	movs	r3, #1
 8015b06:	9302      	str	r3, [sp, #8]
 8015b08:	2300      	movs	r3, #0
 8015b0a:	9301      	str	r3, [sp, #4]
 8015b0c:	6863      	ldr	r3, [r4, #4]
 8015b0e:	9300      	str	r3, [sp, #0]
 8015b10:	4633      	mov	r3, r6
 8015b12:	463a      	mov	r2, r7
 8015b14:	4818      	ldr	r0, [pc, #96]	; (8015b78 <_create_directory+0x1b8>)
 8015b16:	f7ff f8c9 	bl	8014cac <fatfs_add_file_entry>
 8015b1a:	4606      	mov	r6, r0
 8015b1c:	b1f0      	cbz	r0, 8015b5c <_create_directory+0x19c>
 8015b1e:	2300      	movs	r3, #0
 8015b20:	60e3      	str	r3, [r4, #12]
 8015b22:	60a3      	str	r3, [r4, #8]
 8015b24:	f04f 32ff 	mov.w	r2, #4294967295	; 0xffffffff
 8015b28:	f8c4 22a8 	str.w	r2, [r4, #680]	; 0x2a8
 8015b2c:	f8c4 32ac 	str.w	r3, [r4, #684]	; 0x2ac
 8015b30:	6123      	str	r3, [r4, #16]
 8015b32:	f8c4 20a0 	str.w	r2, [r4, #160]	; 0xa0
 8015b36:	f8c4 20a4 	str.w	r2, [r4, #164]	; 0xa4
 8015b3a:	480f      	ldr	r0, [pc, #60]	; (8015b78 <_create_directory+0x1b8>)
 8015b3c:	f000 ffa2 	bl	8016a84 <fatfs_fat_purge>
 8015b40:	4620      	mov	r0, r4
 8015b42:	f7ff fcb5 	bl	80154b0 <_free_file>
 8015b46:	2601      	movs	r6, #1
 8015b48:	e011      	b.n	8015b6e <_create_directory+0x1ae>
 8015b4a:	6861      	ldr	r1, [r4, #4]
 8015b4c:	480a      	ldr	r0, [pc, #40]	; (8015b78 <_create_directory+0x1b8>)
 8015b4e:	f001 f8b3 	bl	8016cb8 <fatfs_free_cluster_chain>
 8015b52:	4620      	mov	r0, r4
 8015b54:	f7ff fcac 	bl	80154b0 <_free_file>
 8015b58:	4646      	mov	r6, r8
 8015b5a:	e008      	b.n	8015b6e <_create_directory+0x1ae>
 8015b5c:	6861      	ldr	r1, [r4, #4]
 8015b5e:	4806      	ldr	r0, [pc, #24]	; (8015b78 <_create_directory+0x1b8>)
 8015b60:	f001 f8aa 	bl	8016cb8 <fatfs_free_cluster_chain>
 8015b64:	4620      	mov	r0, r4
 8015b66:	f7ff fca3 	bl	80154b0 <_free_file>
 8015b6a:	e000      	b.n	8015b6e <_create_directory+0x1ae>
 8015b6c:	2600      	movs	r6, #0
 8015b6e:	4630      	mov	r0, r6
 8015b70:	b011      	add	sp, #68	; 0x44
 8015b72:	e8bd 83f0 	ldmia.w	sp!, {r4, r5, r6, r7, r8, r9, pc}
 8015b76:	bf00      	nop
 8015b78:	2000035c 	.word	0x2000035c
 8015b7c:	2000034c 	.word	0x2000034c

08015b80 <fl_init>:
 8015b80:	b510      	push	{r4, lr}
 8015b82:	4c0f      	ldr	r4, [pc, #60]	; (8015bc0 <fl_init+0x40>)
 8015b84:	4620      	mov	r0, r4
 8015b86:	f7ff fc39 	bl	80153fc <fat_list_init>
 8015b8a:	f104 0008 	add.w	r0, r4, #8
 8015b8e:	f7ff fc35 	bl	80153fc <fat_list_init>
 8015b92:	2400      	movs	r4, #0
 8015b94:	e00d      	b.n	8015bb2 <fl_init+0x32>
 8015b96:	480a      	ldr	r0, [pc, #40]	; (8015bc0 <fl_init+0x40>)
 8015b98:	f200 4374 	addw	r3, r0, #1140	; 0x474
 8015b9c:	f44f 712f 	mov.w	r1, #700	; 0x2bc
 8015ba0:	fb01 f104 	mul.w	r1, r1, r4
 8015ba4:	f501 712c 	add.w	r1, r1, #688	; 0x2b0
 8015ba8:	4419      	add	r1, r3
 8015baa:	3104      	adds	r1, #4
 8015bac:	f7ff fc59 	bl	8015462 <fat_list_insert_last>
 8015bb0:	3401      	adds	r4, #1
 8015bb2:	2c02      	cmp	r4, #2
 8015bb4:	ddef      	ble.n	8015b96 <fl_init+0x16>
 8015bb6:	4b02      	ldr	r3, [pc, #8]	; (8015bc0 <fl_init+0x40>)
 8015bb8:	2201      	movs	r2, #1
 8015bba:	f8c3 2ca8 	str.w	r2, [r3, #3240]	; 0xca8
 8015bbe:	bd10      	pop	{r4, pc}
 8015bc0:	2000034c 	.word	0x2000034c

08015bc4 <fl_attach_locks>:
 8015bc4:	4b01      	ldr	r3, [pc, #4]	; (8015bcc <fl_attach_locks+0x8>)
 8015bc6:	6498      	str	r0, [r3, #72]	; 0x48
 8015bc8:	64d9      	str	r1, [r3, #76]	; 0x4c
 8015bca:	4770      	bx	lr
 8015bcc:	2000034c 	.word	0x2000034c

08015bd0 <fl_attach_media>:
 8015bd0:	b538      	push	{r3, r4, r5, lr}
 8015bd2:	4605      	mov	r5, r0
 8015bd4:	460c      	mov	r4, r1
 8015bd6:	4b0d      	ldr	r3, [pc, #52]	; (8015c0c <fl_attach_media+0x3c>)
 8015bd8:	f8d3 3ca8 	ldr.w	r3, [r3, #3240]	; 0xca8
 8015bdc:	b16b      	cbz	r3, 8015bfa <fl_attach_media+0x2a>
 8015bde:	480b      	ldr	r0, [pc, #44]	; (8015c0c <fl_attach_media+0x3c>)
 8015be0:	6405      	str	r5, [r0, #64]	; 0x40
 8015be2:	6444      	str	r4, [r0, #68]	; 0x44
 8015be4:	3010      	adds	r0, #16
 8015be6:	f7fe f96d 	bl	8013ec4 <fatfs_init>
 8015bea:	4604      	mov	r4, r0
 8015bec:	b940      	cbnz	r0, 8015c00 <fl_attach_media+0x30>
 8015bee:	4b07      	ldr	r3, [pc, #28]	; (8015c0c <fl_attach_media+0x3c>)
 8015bf0:	2201      	movs	r2, #1
 8015bf2:	f8c3 2cac 	str.w	r2, [r3, #3244]	; 0xcac
 8015bf6:	4620      	mov	r0, r4
 8015bf8:	bd38      	pop	{r3, r4, r5, pc}
 8015bfa:	f7ff ffc1 	bl	8015b80 <fl_init>
 8015bfe:	e7ee      	b.n	8015bde <fl_attach_media+0xe>
 8015c00:	4601      	mov	r1, r0
 8015c02:	4803      	ldr	r0, [pc, #12]	; (8015c10 <fl_attach_media+0x40>)
 8015c04:	f7fb fd8a 	bl	801171c <kprintf>
 8015c08:	e7f5      	b.n	8015bf6 <fl_attach_media+0x26>
 8015c0a:	bf00      	nop
 8015c0c:	2000034c 	.word	0x2000034c
 8015c10:	08018b28 	.word	0x08018b28

08015c14 <fl_shutdown>:
 8015c14:	b510      	push	{r4, lr}
 8015c16:	4b0a      	ldr	r3, [pc, #40]	; (8015c40 <fl_shutdown+0x2c>)
 8015c18:	f8d3 3ca8 	ldr.w	r3, [r3, #3240]	; 0xca8
 8015c1c:	b163      	cbz	r3, 8015c38 <fl_shutdown+0x24>
 8015c1e:	4b08      	ldr	r3, [pc, #32]	; (8015c40 <fl_shutdown+0x2c>)
 8015c20:	6c9b      	ldr	r3, [r3, #72]	; 0x48
 8015c22:	b103      	cbz	r3, 8015c26 <fl_shutdown+0x12>
 8015c24:	4798      	blx	r3
 8015c26:	4c06      	ldr	r4, [pc, #24]	; (8015c40 <fl_shutdown+0x2c>)
 8015c28:	f104 0010 	add.w	r0, r4, #16
 8015c2c:	f000 ff2a 	bl	8016a84 <fatfs_fat_purge>
 8015c30:	6ce3      	ldr	r3, [r4, #76]	; 0x4c
 8015c32:	b103      	cbz	r3, 8015c36 <fl_shutdown+0x22>
 8015c34:	4798      	blx	r3
 8015c36:	bd10      	pop	{r4, pc}
 8015c38:	f7ff ffa2 	bl	8015b80 <fl_init>
 8015c3c:	e7ef      	b.n	8015c1e <fl_shutdown+0xa>
 8015c3e:	bf00      	nop
 8015c40:	2000034c 	.word	0x2000034c

08015c44 <fl_fopen>:
 8015c44:	b5f8      	push	{r3, r4, r5, r6, r7, lr}
 8015c46:	4607      	mov	r7, r0
 8015c48:	460d      	mov	r5, r1
 8015c4a:	4b77      	ldr	r3, [pc, #476]	; (8015e28 <fl_fopen+0x1e4>)
 8015c4c:	f8d3 3ca8 	ldr.w	r3, [r3, #3240]	; 0xca8
 8015c50:	b173      	cbz	r3, 8015c70 <fl_fopen+0x2c>
 8015c52:	4b75      	ldr	r3, [pc, #468]	; (8015e28 <fl_fopen+0x1e4>)
 8015c54:	f8d3 3cac 	ldr.w	r3, [r3, #3244]	; 0xcac
 8015c58:	2b00      	cmp	r3, #0
 8015c5a:	f000 80e0 	beq.w	8015e1e <fl_fopen+0x1da>
 8015c5e:	2f00      	cmp	r7, #0
 8015c60:	f000 80df 	beq.w	8015e22 <fl_fopen+0x1de>
 8015c64:	2d00      	cmp	r5, #0
 8015c66:	f000 80c1 	beq.w	8015dec <fl_fopen+0x1a8>
 8015c6a:	2600      	movs	r6, #0
 8015c6c:	4634      	mov	r4, r6
 8015c6e:	e005      	b.n	8015c7c <fl_fopen+0x38>
 8015c70:	f7ff ff86 	bl	8015b80 <fl_init>
 8015c74:	e7ed      	b.n	8015c52 <fl_fopen+0xe>
 8015c76:	f046 0601 	orr.w	r6, r6, #1
 8015c7a:	3401      	adds	r4, #1
 8015c7c:	4628      	mov	r0, r5
 8015c7e:	f7fb fe99 	bl	80119b4 <strlen>
 8015c82:	42a0      	cmp	r0, r4
 8015c84:	f340 8098 	ble.w	8015db8 <fl_fopen+0x174>
 8015c88:	5d2b      	ldrb	r3, [r5, r4]
 8015c8a:	2b2b      	cmp	r3, #43	; 0x2b
 8015c8c:	d07e      	beq.n	8015d8c <fl_fopen+0x148>
 8015c8e:	d3f4      	bcc.n	8015c7a <fl_fopen+0x36>
 8015c90:	2b77      	cmp	r3, #119	; 0x77
 8015c92:	d8f2      	bhi.n	8015c7a <fl_fopen+0x36>
 8015c94:	2b41      	cmp	r3, #65	; 0x41
 8015c96:	d3f0      	bcc.n	8015c7a <fl_fopen+0x36>
 8015c98:	3b41      	subs	r3, #65	; 0x41
 8015c9a:	2b36      	cmp	r3, #54	; 0x36
 8015c9c:	d8ed      	bhi.n	8015c7a <fl_fopen+0x36>
 8015c9e:	a201      	add	r2, pc, #4	; (adr r2, 8015ca4 <fl_fopen+0x60>)
 8015ca0:	f852 f023 	ldr.w	pc, [r2, r3, lsl #2]
 8015ca4:	08015d87 	.word	0x08015d87
 8015ca8:	08015db3 	.word	0x08015db3
 8015cac:	08015c7b 	.word	0x08015c7b
 8015cb0:	08015c7b 	.word	0x08015c7b
 8015cb4:	08015c7b 	.word	0x08015c7b
 8015cb8:	08015c7b 	.word	0x08015c7b
 8015cbc:	08015c7b 	.word	0x08015c7b
 8015cc0:	08015c7b 	.word	0x08015c7b
 8015cc4:	08015c7b 	.word	0x08015c7b
 8015cc8:	08015c7b 	.word	0x08015c7b
 8015ccc:	08015c7b 	.word	0x08015c7b
 8015cd0:	08015c7b 	.word	0x08015c7b
 8015cd4:	08015c7b 	.word	0x08015c7b
 8015cd8:	08015c7b 	.word	0x08015c7b
 8015cdc:	08015c7b 	.word	0x08015c7b
 8015ce0:	08015c7b 	.word	0x08015c7b
 8015ce4:	08015c7b 	.word	0x08015c7b
 8015ce8:	08015c77 	.word	0x08015c77
 8015cec:	08015c7b 	.word	0x08015c7b
 8015cf0:	08015c7b 	.word	0x08015c7b
 8015cf4:	08015c7b 	.word	0x08015c7b
 8015cf8:	08015c7b 	.word	0x08015c7b
 8015cfc:	08015d81 	.word	0x08015d81
 8015d00:	08015c7b 	.word	0x08015c7b
 8015d04:	08015c7b 	.word	0x08015c7b
 8015d08:	08015c7b 	.word	0x08015c7b
 8015d0c:	08015c7b 	.word	0x08015c7b
 8015d10:	08015c7b 	.word	0x08015c7b
 8015d14:	08015c7b 	.word	0x08015c7b
 8015d18:	08015c7b 	.word	0x08015c7b
 8015d1c:	08015c7b 	.word	0x08015c7b
 8015d20:	08015c7b 	.word	0x08015c7b
 8015d24:	08015d87 	.word	0x08015d87
 8015d28:	08015db3 	.word	0x08015db3
 8015d2c:	08015c7b 	.word	0x08015c7b
 8015d30:	08015c7b 	.word	0x08015c7b
 8015d34:	08015c7b 	.word	0x08015c7b
 8015d38:	08015c7b 	.word	0x08015c7b
 8015d3c:	08015c7b 	.word	0x08015c7b
 8015d40:	08015c7b 	.word	0x08015c7b
 8015d44:	08015c7b 	.word	0x08015c7b
 8015d48:	08015c7b 	.word	0x08015c7b
 8015d4c:	08015c7b 	.word	0x08015c7b
 8015d50:	08015c7b 	.word	0x08015c7b
 8015d54:	08015c7b 	.word	0x08015c7b
 8015d58:	08015c7b 	.word	0x08015c7b
 8015d5c:	08015c7b 	.word	0x08015c7b
 8015d60:	08015c7b 	.word	0x08015c7b
 8015d64:	08015c7b 	.word	0x08015c7b
 8015d68:	08015c77 	.word	0x08015c77
 8015d6c:	08015c7b 	.word	0x08015c7b
 8015d70:	08015c7b 	.word	0x08015c7b
 8015d74:	08015c7b 	.word	0x08015c7b
 8015d78:	08015c7b 	.word	0x08015c7b
 8015d7c:	08015d81 	.word	0x08015d81
 8015d80:	f046 0632 	orr.w	r6, r6, #50	; 0x32
 8015d84:	e779      	b.n	8015c7a <fl_fopen+0x36>
 8015d86:	f046 0626 	orr.w	r6, r6, #38	; 0x26
 8015d8a:	e776      	b.n	8015c7a <fl_fopen+0x36>
 8015d8c:	f016 0f01 	tst.w	r6, #1
 8015d90:	d002      	beq.n	8015d98 <fl_fopen+0x154>
 8015d92:	f046 0602 	orr.w	r6, r6, #2
 8015d96:	e770      	b.n	8015c7a <fl_fopen+0x36>
 8015d98:	f016 0f02 	tst.w	r6, #2
 8015d9c:	d002      	beq.n	8015da4 <fl_fopen+0x160>
 8015d9e:	f046 0631 	orr.w	r6, r6, #49	; 0x31
 8015da2:	e76a      	b.n	8015c7a <fl_fopen+0x36>
 8015da4:	f016 0f04 	tst.w	r6, #4
 8015da8:	f43f af67 	beq.w	8015c7a <fl_fopen+0x36>
 8015dac:	f046 0627 	orr.w	r6, r6, #39	; 0x27
 8015db0:	e763      	b.n	8015c7a <fl_fopen+0x36>
 8015db2:	f046 0608 	orr.w	r6, r6, #8
 8015db6:	e760      	b.n	8015c7a <fl_fopen+0x36>
 8015db8:	4b1b      	ldr	r3, [pc, #108]	; (8015e28 <fl_fopen+0x1e4>)
 8015dba:	6c5b      	ldr	r3, [r3, #68]	; 0x44
 8015dbc:	b1c3      	cbz	r3, 8015df0 <fl_fopen+0x1ac>
 8015dbe:	4b1a      	ldr	r3, [pc, #104]	; (8015e28 <fl_fopen+0x1e4>)
 8015dc0:	6c9b      	ldr	r3, [r3, #72]	; 0x48
 8015dc2:	b103      	cbz	r3, 8015dc6 <fl_fopen+0x182>
 8015dc4:	4798      	blx	r3
 8015dc6:	f016 0401 	ands.w	r4, r6, #1
 8015dca:	d114      	bne.n	8015df6 <fl_fopen+0x1b2>
 8015dcc:	2500      	movs	r5, #0
 8015dce:	f016 0f20 	tst.w	r6, #32
 8015dd2:	d117      	bne.n	8015e04 <fl_fopen+0x1c0>
 8015dd4:	b91c      	cbnz	r4, 8015dde <fl_fopen+0x19a>
 8015dd6:	f016 0f20 	tst.w	r6, #32
 8015dda:	d000      	beq.n	8015dde <fl_fopen+0x19a>
 8015ddc:	b1bd      	cbz	r5, 8015e0e <fl_fopen+0x1ca>
 8015dde:	b10d      	cbz	r5, 8015de4 <fl_fopen+0x1a0>
 8015de0:	f885 62b0 	strb.w	r6, [r5, #688]	; 0x2b0
 8015de4:	4b10      	ldr	r3, [pc, #64]	; (8015e28 <fl_fopen+0x1e4>)
 8015de6:	6cdb      	ldr	r3, [r3, #76]	; 0x4c
 8015de8:	b103      	cbz	r3, 8015dec <fl_fopen+0x1a8>
 8015dea:	4798      	blx	r3
 8015dec:	4628      	mov	r0, r5
 8015dee:	bdf8      	pop	{r3, r4, r5, r6, r7, pc}
 8015df0:	f006 06d9 	and.w	r6, r6, #217	; 0xd9
 8015df4:	e7e3      	b.n	8015dbe <fl_fopen+0x17a>
 8015df6:	4638      	mov	r0, r7
 8015df8:	f7ff fc8c 	bl	8015714 <_open_file>
 8015dfc:	4605      	mov	r5, r0
 8015dfe:	2800      	cmp	r0, #0
 8015e00:	d1e8      	bne.n	8015dd4 <fl_fopen+0x190>
 8015e02:	e7e4      	b.n	8015dce <fl_fopen+0x18a>
 8015e04:	4638      	mov	r0, r7
 8015e06:	f7ff fbc1 	bl	801558c <_create_file>
 8015e0a:	4605      	mov	r5, r0
 8015e0c:	e7e2      	b.n	8015dd4 <fl_fopen+0x190>
 8015e0e:	f016 0f06 	tst.w	r6, #6
 8015e12:	d0e4      	beq.n	8015dde <fl_fopen+0x19a>
 8015e14:	4638      	mov	r0, r7
 8015e16:	f7ff fc7d 	bl	8015714 <_open_file>
 8015e1a:	4605      	mov	r5, r0
 8015e1c:	e7df      	b.n	8015dde <fl_fopen+0x19a>
 8015e1e:	2500      	movs	r5, #0
 8015e20:	e7e4      	b.n	8015dec <fl_fopen+0x1a8>
 8015e22:	463d      	mov	r5, r7
 8015e24:	e7e2      	b.n	8015dec <fl_fopen+0x1a8>
 8015e26:	bf00      	nop
 8015e28:	2000034c 	.word	0x2000034c

08015e2c <fl_fflush>:
 8015e2c:	b510      	push	{r4, lr}
 8015e2e:	4604      	mov	r4, r0
 8015e30:	4b11      	ldr	r3, [pc, #68]	; (8015e78 <fl_fflush+0x4c>)
 8015e32:	f8d3 3ca8 	ldr.w	r3, [r3, #3240]	; 0xca8
 8015e36:	b16b      	cbz	r3, 8015e54 <fl_fflush+0x28>
 8015e38:	b154      	cbz	r4, 8015e50 <fl_fflush+0x24>
 8015e3a:	4b0f      	ldr	r3, [pc, #60]	; (8015e78 <fl_fflush+0x4c>)
 8015e3c:	6c9b      	ldr	r3, [r3, #72]	; 0x48
 8015e3e:	b103      	cbz	r3, 8015e42 <fl_fflush+0x16>
 8015e40:	4798      	blx	r3
 8015e42:	f8d4 32ac 	ldr.w	r3, [r4, #684]	; 0x2ac
 8015e46:	b943      	cbnz	r3, 8015e5a <fl_fflush+0x2e>
 8015e48:	4b0b      	ldr	r3, [pc, #44]	; (8015e78 <fl_fflush+0x4c>)
 8015e4a:	6cdb      	ldr	r3, [r3, #76]	; 0x4c
 8015e4c:	b103      	cbz	r3, 8015e50 <fl_fflush+0x24>
 8015e4e:	4798      	blx	r3
 8015e50:	2000      	movs	r0, #0
 8015e52:	bd10      	pop	{r4, pc}
 8015e54:	f7ff fe94 	bl	8015b80 <fl_init>
 8015e58:	e7ee      	b.n	8015e38 <fl_fflush+0xc>
 8015e5a:	2301      	movs	r3, #1
 8015e5c:	f104 02a8 	add.w	r2, r4, #168	; 0xa8
 8015e60:	f8d4 12a8 	ldr.w	r1, [r4, #680]	; 0x2a8
 8015e64:	4620      	mov	r0, r4
 8015e66:	f7ff fccd 	bl	8015804 <_write_sectors>
 8015e6a:	2800      	cmp	r0, #0
 8015e6c:	d0ec      	beq.n	8015e48 <fl_fflush+0x1c>
 8015e6e:	2300      	movs	r3, #0
 8015e70:	f8c4 32ac 	str.w	r3, [r4, #684]	; 0x2ac
 8015e74:	e7e8      	b.n	8015e48 <fl_fflush+0x1c>
 8015e76:	bf00      	nop
 8015e78:	2000034c 	.word	0x2000034c

08015e7c <fl_fclose>:
 8015e7c:	b510      	push	{r4, lr}
 8015e7e:	4604      	mov	r4, r0
 8015e80:	4b17      	ldr	r3, [pc, #92]	; (8015ee0 <fl_fclose+0x64>)
 8015e82:	f8d3 3ca8 	ldr.w	r3, [r3, #3240]	; 0xca8
 8015e86:	b303      	cbz	r3, 8015eca <fl_fclose+0x4e>
 8015e88:	b1f4      	cbz	r4, 8015ec8 <fl_fclose+0x4c>
 8015e8a:	4b15      	ldr	r3, [pc, #84]	; (8015ee0 <fl_fclose+0x64>)
 8015e8c:	6c9b      	ldr	r3, [r3, #72]	; 0x48
 8015e8e:	b103      	cbz	r3, 8015e92 <fl_fclose+0x16>
 8015e90:	4798      	blx	r3
 8015e92:	4620      	mov	r0, r4
 8015e94:	f7ff ffca 	bl	8015e2c <fl_fflush>
 8015e98:	6923      	ldr	r3, [r4, #16]
 8015e9a:	b9cb      	cbnz	r3, 8015ed0 <fl_fclose+0x54>
 8015e9c:	2300      	movs	r3, #0
 8015e9e:	60a3      	str	r3, [r4, #8]
 8015ea0:	60e3      	str	r3, [r4, #12]
 8015ea2:	6063      	str	r3, [r4, #4]
 8015ea4:	f04f 32ff 	mov.w	r2, #4294967295	; 0xffffffff
 8015ea8:	f8c4 22a8 	str.w	r2, [r4, #680]	; 0x2a8
 8015eac:	f8c4 32ac 	str.w	r3, [r4, #684]	; 0x2ac
 8015eb0:	6123      	str	r3, [r4, #16]
 8015eb2:	4620      	mov	r0, r4
 8015eb4:	f7ff fafc 	bl	80154b0 <_free_file>
 8015eb8:	4c09      	ldr	r4, [pc, #36]	; (8015ee0 <fl_fclose+0x64>)
 8015eba:	f104 0010 	add.w	r0, r4, #16
 8015ebe:	f000 fde1 	bl	8016a84 <fatfs_fat_purge>
 8015ec2:	6ce3      	ldr	r3, [r4, #76]	; 0x4c
 8015ec4:	b103      	cbz	r3, 8015ec8 <fl_fclose+0x4c>
 8015ec6:	4798      	blx	r3
 8015ec8:	bd10      	pop	{r4, pc}
 8015eca:	f7ff fe59 	bl	8015b80 <fl_init>
 8015ece:	e7db      	b.n	8015e88 <fl_fclose+0xc>
 8015ed0:	68e3      	ldr	r3, [r4, #12]
 8015ed2:	f104 0294 	add.w	r2, r4, #148	; 0x94
 8015ed6:	6821      	ldr	r1, [r4, #0]
 8015ed8:	4802      	ldr	r0, [pc, #8]	; (8015ee4 <fl_fclose+0x68>)
 8015eda:	f7fe fadc 	bl	8014496 <fatfs_update_file_length>
 8015ede:	e7dd      	b.n	8015e9c <fl_fclose+0x20>
 8015ee0:	2000034c 	.word	0x2000034c
 8015ee4:	2000035c 	.word	0x2000035c

08015ee8 <fl_fread>:
 8015ee8:	e92d 47f0 	stmdb	sp!, {r4, r5, r6, r7, r8, r9, sl, lr}
 8015eec:	4682      	mov	sl, r0
 8015eee:	461c      	mov	r4, r3
 8015ef0:	fb02 f501 	mul.w	r5, r2, r1
 8015ef4:	4b3d      	ldr	r3, [pc, #244]	; (8015fec <fl_fread+0x104>)
 8015ef6:	f8d3 3ca8 	ldr.w	r3, [r3, #3240]	; 0xca8
 8015efa:	b1cb      	cbz	r3, 8015f30 <fl_fread+0x48>
 8015efc:	f1ba 0f00 	cmp.w	sl, #0
 8015f00:	d066      	beq.n	8015fd0 <fl_fread+0xe8>
 8015f02:	2c00      	cmp	r4, #0
 8015f04:	d067      	beq.n	8015fd6 <fl_fread+0xee>
 8015f06:	f894 32b0 	ldrb.w	r3, [r4, #688]	; 0x2b0
 8015f0a:	f013 0f01 	tst.w	r3, #1
 8015f0e:	d065      	beq.n	8015fdc <fl_fread+0xf4>
 8015f10:	2d00      	cmp	r5, #0
 8015f12:	d065      	beq.n	8015fe0 <fl_fread+0xf8>
 8015f14:	68a3      	ldr	r3, [r4, #8]
 8015f16:	68e2      	ldr	r2, [r4, #12]
 8015f18:	4293      	cmp	r3, r2
 8015f1a:	d264      	bcs.n	8015fe6 <fl_fread+0xfe>
 8015f1c:	18e9      	adds	r1, r5, r3
 8015f1e:	428a      	cmp	r2, r1
 8015f20:	d209      	bcs.n	8015f36 <fl_fread+0x4e>
 8015f22:	eba2 0903 	sub.w	r9, r2, r3
 8015f26:	0a5f      	lsrs	r7, r3, #9
 8015f28:	f3c3 0808 	ubfx	r8, r3, #0, #9
 8015f2c:	2500      	movs	r5, #0
 8015f2e:	e033      	b.n	8015f98 <fl_fread+0xb0>
 8015f30:	f7ff fe26 	bl	8015b80 <fl_init>
 8015f34:	e7e2      	b.n	8015efc <fl_fread+0x14>
 8015f36:	46a9      	mov	r9, r5
 8015f38:	e7f5      	b.n	8015f26 <fl_fread+0x3e>
 8015f3a:	f202 13ff 	addw	r3, r2, #511	; 0x1ff
 8015f3e:	e038      	b.n	8015fb2 <fl_fread+0xca>
 8015f40:	f8d4 32a8 	ldr.w	r3, [r4, #680]	; 0x2a8
 8015f44:	42bb      	cmp	r3, r7
 8015f46:	d011      	beq.n	8015f6c <fl_fread+0x84>
 8015f48:	f8d4 32ac 	ldr.w	r3, [r4, #684]	; 0x2ac
 8015f4c:	2b00      	cmp	r3, #0
 8015f4e:	d13b      	bne.n	8015fc8 <fl_fread+0xe0>
 8015f50:	2301      	movs	r3, #1
 8015f52:	f104 02a8 	add.w	r2, r4, #168	; 0xa8
 8015f56:	4639      	mov	r1, r7
 8015f58:	4620      	mov	r0, r4
 8015f5a:	f7ff fccd 	bl	80158f8 <_read_sectors>
 8015f5e:	2800      	cmp	r0, #0
 8015f60:	d03e      	beq.n	8015fe0 <fl_fread+0xf8>
 8015f62:	f8c4 72a8 	str.w	r7, [r4, #680]	; 0x2a8
 8015f66:	2300      	movs	r3, #0
 8015f68:	f8c4 32ac 	str.w	r3, [r4, #684]	; 0x2ac
 8015f6c:	f5c8 7300 	rsb	r3, r8, #512	; 0x200
 8015f70:	eba9 0605 	sub.w	r6, r9, r5
 8015f74:	429e      	cmp	r6, r3
 8015f76:	db00      	blt.n	8015f7a <fl_fread+0x92>
 8015f78:	461e      	mov	r6, r3
 8015f7a:	f104 01a8 	add.w	r1, r4, #168	; 0xa8
 8015f7e:	4632      	mov	r2, r6
 8015f80:	4441      	add	r1, r8
 8015f82:	eb0a 0005 	add.w	r0, sl, r5
 8015f86:	f7fb fceb 	bl	8011960 <memcpy>
 8015f8a:	3701      	adds	r7, #1
 8015f8c:	4435      	add	r5, r6
 8015f8e:	68a3      	ldr	r3, [r4, #8]
 8015f90:	441e      	add	r6, r3
 8015f92:	60a6      	str	r6, [r4, #8]
 8015f94:	f04f 0800 	mov.w	r8, #0
 8015f98:	45a9      	cmp	r9, r5
 8015f9a:	dd21      	ble.n	8015fe0 <fl_fread+0xf8>
 8015f9c:	f1b8 0f00 	cmp.w	r8, #0
 8015fa0:	d1ce      	bne.n	8015f40 <fl_fread+0x58>
 8015fa2:	eba9 0205 	sub.w	r2, r9, r5
 8015fa6:	f5b2 7f00 	cmp.w	r2, #512	; 0x200
 8015faa:	dbc9      	blt.n	8015f40 <fl_fread+0x58>
 8015fac:	4613      	mov	r3, r2
 8015fae:	2a00      	cmp	r2, #0
 8015fb0:	dbc3      	blt.n	8015f3a <fl_fread+0x52>
 8015fb2:	125b      	asrs	r3, r3, #9
 8015fb4:	eb0a 0205 	add.w	r2, sl, r5
 8015fb8:	4639      	mov	r1, r7
 8015fba:	4620      	mov	r0, r4
 8015fbc:	f7ff fc9c 	bl	80158f8 <_read_sectors>
 8015fc0:	b170      	cbz	r0, 8015fe0 <fl_fread+0xf8>
 8015fc2:	0246      	lsls	r6, r0, #9
 8015fc4:	4407      	add	r7, r0
 8015fc6:	e7e1      	b.n	8015f8c <fl_fread+0xa4>
 8015fc8:	4620      	mov	r0, r4
 8015fca:	f7ff ff2f 	bl	8015e2c <fl_fflush>
 8015fce:	e7bf      	b.n	8015f50 <fl_fread+0x68>
 8015fd0:	f04f 35ff 	mov.w	r5, #4294967295	; 0xffffffff
 8015fd4:	e004      	b.n	8015fe0 <fl_fread+0xf8>
 8015fd6:	f04f 35ff 	mov.w	r5, #4294967295	; 0xffffffff
 8015fda:	e001      	b.n	8015fe0 <fl_fread+0xf8>
 8015fdc:	f04f 35ff 	mov.w	r5, #4294967295	; 0xffffffff
 8015fe0:	4628      	mov	r0, r5
 8015fe2:	e8bd 87f0 	ldmia.w	sp!, {r4, r5, r6, r7, r8, r9, sl, pc}
 8015fe6:	f04f 35ff 	mov.w	r5, #4294967295	; 0xffffffff
 8015fea:	e7f9      	b.n	8015fe0 <fl_fread+0xf8>
 8015fec:	2000034c 	.word	0x2000034c

08015ff0 <fl_fgetc>:
 8015ff0:	b500      	push	{lr}
 8015ff2:	b083      	sub	sp, #12
 8015ff4:	4603      	mov	r3, r0
 8015ff6:	2200      	movs	r2, #0
 8015ff8:	f88d 2007 	strb.w	r2, [sp, #7]
 8015ffc:	2201      	movs	r2, #1
 8015ffe:	4611      	mov	r1, r2
 8016000:	f10d 0007 	add.w	r0, sp, #7
 8016004:	f7ff ff70 	bl	8015ee8 <fl_fread>
 8016008:	2801      	cmp	r0, #1
 801600a:	d002      	beq.n	8016012 <fl_fgetc+0x22>
 801600c:	b003      	add	sp, #12
 801600e:	f85d fb04 	ldr.w	pc, [sp], #4
 8016012:	f89d 0007 	ldrb.w	r0, [sp, #7]
 8016016:	e7f9      	b.n	801600c <fl_fgetc+0x1c>

08016018 <fl_fgets>:
 8016018:	b5f8      	push	{r3, r4, r5, r6, r7, lr}
 801601a:	1e0e      	subs	r6, r1, #0
 801601c:	dd10      	ble.n	8016040 <fl_fgets+0x28>
 801601e:	4605      	mov	r5, r0
 8016020:	4617      	mov	r7, r2
 8016022:	2400      	movs	r4, #0
 8016024:	1e73      	subs	r3, r6, #1
 8016026:	42a3      	cmp	r3, r4
 8016028:	dd0d      	ble.n	8016046 <fl_fgets+0x2e>
 801602a:	4638      	mov	r0, r7
 801602c:	f7ff ffe0 	bl	8015ff0 <fl_fgetc>
 8016030:	2800      	cmp	r0, #0
 8016032:	db08      	blt.n	8016046 <fl_fgets+0x2e>
 8016034:	1c63      	adds	r3, r4, #1
 8016036:	5528      	strb	r0, [r5, r4]
 8016038:	280a      	cmp	r0, #10
 801603a:	d003      	beq.n	8016044 <fl_fgets+0x2c>
 801603c:	461c      	mov	r4, r3
 801603e:	e7f1      	b.n	8016024 <fl_fgets+0xc>
 8016040:	2000      	movs	r0, #0
 8016042:	e007      	b.n	8016054 <fl_fgets+0x3c>
 8016044:	461c      	mov	r4, r3
 8016046:	2c00      	cmp	r4, #0
 8016048:	dd01      	ble.n	801604e <fl_fgets+0x36>
 801604a:	2300      	movs	r3, #0
 801604c:	552b      	strb	r3, [r5, r4]
 801604e:	2c00      	cmp	r4, #0
 8016050:	dd01      	ble.n	8016056 <fl_fgets+0x3e>
 8016052:	4628      	mov	r0, r5
 8016054:	bdf8      	pop	{r3, r4, r5, r6, r7, pc}
 8016056:	2000      	movs	r0, #0
 8016058:	e7fc      	b.n	8016054 <fl_fgets+0x3c>

0801605a <fl_fseek>:
 801605a:	b570      	push	{r4, r5, r6, lr}
 801605c:	4605      	mov	r5, r0
 801605e:	460e      	mov	r6, r1
 8016060:	4614      	mov	r4, r2
 8016062:	4a26      	ldr	r2, [pc, #152]	; (80160fc <fl_fseek+0xa2>)
 8016064:	f8d2 2ca8 	ldr.w	r2, [r2, #3240]	; 0xca8
 8016068:	b1d2      	cbz	r2, 80160a0 <fl_fseek+0x46>
 801606a:	2d00      	cmp	r5, #0
 801606c:	d043      	beq.n	80160f6 <fl_fseek+0x9c>
 801606e:	2c02      	cmp	r4, #2
 8016070:	d019      	beq.n	80160a6 <fl_fseek+0x4c>
 8016072:	4b22      	ldr	r3, [pc, #136]	; (80160fc <fl_fseek+0xa2>)
 8016074:	6c9a      	ldr	r2, [r3, #72]	; 0x48
 8016076:	b102      	cbz	r2, 801607a <fl_fseek+0x20>
 8016078:	4790      	blx	r2
 801607a:	f04f 33ff 	mov.w	r3, #4294967295	; 0xffffffff
 801607e:	f8c5 32a8 	str.w	r3, [r5, #680]	; 0x2a8
 8016082:	2300      	movs	r3, #0
 8016084:	f8c5 32ac 	str.w	r3, [r5, #684]	; 0x2ac
 8016088:	b994      	cbnz	r4, 80160b0 <fl_fseek+0x56>
 801608a:	60ae      	str	r6, [r5, #8]
 801608c:	68eb      	ldr	r3, [r5, #12]
 801608e:	429e      	cmp	r6, r3
 8016090:	d900      	bls.n	8016094 <fl_fseek+0x3a>
 8016092:	60ab      	str	r3, [r5, #8]
 8016094:	4b19      	ldr	r3, [pc, #100]	; (80160fc <fl_fseek+0xa2>)
 8016096:	6cdb      	ldr	r3, [r3, #76]	; 0x4c
 8016098:	b103      	cbz	r3, 801609c <fl_fseek+0x42>
 801609a:	4798      	blx	r3
 801609c:	4620      	mov	r0, r4
 801609e:	bd70      	pop	{r4, r5, r6, pc}
 80160a0:	f7ff fd6e 	bl	8015b80 <fl_init>
 80160a4:	e7e1      	b.n	801606a <fl_fseek+0x10>
 80160a6:	2e00      	cmp	r6, #0
 80160a8:	d0e3      	beq.n	8016072 <fl_fseek+0x18>
 80160aa:	f04f 34ff 	mov.w	r4, #4294967295	; 0xffffffff
 80160ae:	e7f5      	b.n	801609c <fl_fseek+0x42>
 80160b0:	2c01      	cmp	r4, #1
 80160b2:	d004      	beq.n	80160be <fl_fseek+0x64>
 80160b4:	2c02      	cmp	r4, #2
 80160b6:	d018      	beq.n	80160ea <fl_fseek+0x90>
 80160b8:	f04f 34ff 	mov.w	r4, #4294967295	; 0xffffffff
 80160bc:	e7ea      	b.n	8016094 <fl_fseek+0x3a>
 80160be:	2e00      	cmp	r6, #0
 80160c0:	db08      	blt.n	80160d4 <fl_fseek+0x7a>
 80160c2:	68ab      	ldr	r3, [r5, #8]
 80160c4:	4433      	add	r3, r6
 80160c6:	60ab      	str	r3, [r5, #8]
 80160c8:	68ea      	ldr	r2, [r5, #12]
 80160ca:	4293      	cmp	r3, r2
 80160cc:	d911      	bls.n	80160f2 <fl_fseek+0x98>
 80160ce:	60aa      	str	r2, [r5, #8]
 80160d0:	2400      	movs	r4, #0
 80160d2:	e7df      	b.n	8016094 <fl_fseek+0x3a>
 80160d4:	4272      	negs	r2, r6
 80160d6:	68ab      	ldr	r3, [r5, #8]
 80160d8:	4293      	cmp	r3, r2
 80160da:	d202      	bcs.n	80160e2 <fl_fseek+0x88>
 80160dc:	2400      	movs	r4, #0
 80160de:	60ac      	str	r4, [r5, #8]
 80160e0:	e7d8      	b.n	8016094 <fl_fseek+0x3a>
 80160e2:	4433      	add	r3, r6
 80160e4:	60ab      	str	r3, [r5, #8]
 80160e6:	2400      	movs	r4, #0
 80160e8:	e7d4      	b.n	8016094 <fl_fseek+0x3a>
 80160ea:	68eb      	ldr	r3, [r5, #12]
 80160ec:	60ab      	str	r3, [r5, #8]
 80160ee:	2400      	movs	r4, #0
 80160f0:	e7d0      	b.n	8016094 <fl_fseek+0x3a>
 80160f2:	2400      	movs	r4, #0
 80160f4:	e7ce      	b.n	8016094 <fl_fseek+0x3a>
 80160f6:	f04f 34ff 	mov.w	r4, #4294967295	; 0xffffffff
 80160fa:	e7cf      	b.n	801609c <fl_fseek+0x42>
 80160fc:	2000034c 	.word	0x2000034c

08016100 <fl_fgetpos>:
 8016100:	b170      	cbz	r0, 8016120 <fl_fgetpos+0x20>
 8016102:	b538      	push	{r3, r4, r5, lr}
 8016104:	460c      	mov	r4, r1
 8016106:	4605      	mov	r5, r0
 8016108:	4b08      	ldr	r3, [pc, #32]	; (801612c <fl_fgetpos+0x2c>)
 801610a:	6c9b      	ldr	r3, [r3, #72]	; 0x48
 801610c:	b103      	cbz	r3, 8016110 <fl_fgetpos+0x10>
 801610e:	4798      	blx	r3
 8016110:	68ab      	ldr	r3, [r5, #8]
 8016112:	6023      	str	r3, [r4, #0]
 8016114:	4b05      	ldr	r3, [pc, #20]	; (801612c <fl_fgetpos+0x2c>)
 8016116:	6cdb      	ldr	r3, [r3, #76]	; 0x4c
 8016118:	b12b      	cbz	r3, 8016126 <fl_fgetpos+0x26>
 801611a:	4798      	blx	r3
 801611c:	2000      	movs	r0, #0
 801611e:	bd38      	pop	{r3, r4, r5, pc}
 8016120:	f04f 30ff 	mov.w	r0, #4294967295	; 0xffffffff
 8016124:	4770      	bx	lr
 8016126:	2000      	movs	r0, #0
 8016128:	e7f9      	b.n	801611e <fl_fgetpos+0x1e>
 801612a:	bf00      	nop
 801612c:	2000034c 	.word	0x2000034c

08016130 <fl_ftell>:
 8016130:	b500      	push	{lr}
 8016132:	b083      	sub	sp, #12
 8016134:	2300      	movs	r3, #0
 8016136:	9301      	str	r3, [sp, #4]
 8016138:	a901      	add	r1, sp, #4
 801613a:	f7ff ffe1 	bl	8016100 <fl_fgetpos>
 801613e:	9801      	ldr	r0, [sp, #4]
 8016140:	b003      	add	sp, #12
 8016142:	f85d fb04 	ldr.w	pc, [sp], #4

08016146 <fl_feof>:
 8016146:	b510      	push	{r4, lr}
 8016148:	b190      	cbz	r0, 8016170 <fl_feof+0x2a>
 801614a:	4604      	mov	r4, r0
 801614c:	4b0a      	ldr	r3, [pc, #40]	; (8016178 <fl_feof+0x32>)
 801614e:	6c9b      	ldr	r3, [r3, #72]	; 0x48
 8016150:	b103      	cbz	r3, 8016154 <fl_feof+0xe>
 8016152:	4798      	blx	r3
 8016154:	68a2      	ldr	r2, [r4, #8]
 8016156:	68e3      	ldr	r3, [r4, #12]
 8016158:	429a      	cmp	r2, r3
 801615a:	d006      	beq.n	801616a <fl_feof+0x24>
 801615c:	2400      	movs	r4, #0
 801615e:	4b06      	ldr	r3, [pc, #24]	; (8016178 <fl_feof+0x32>)
 8016160:	6cdb      	ldr	r3, [r3, #76]	; 0x4c
 8016162:	b103      	cbz	r3, 8016166 <fl_feof+0x20>
 8016164:	4798      	blx	r3
 8016166:	4620      	mov	r0, r4
 8016168:	bd10      	pop	{r4, pc}
 801616a:	f04f 34ff 	mov.w	r4, #4294967295	; 0xffffffff
 801616e:	e7f6      	b.n	801615e <fl_feof+0x18>
 8016170:	f04f 34ff 	mov.w	r4, #4294967295	; 0xffffffff
 8016174:	e7f7      	b.n	8016166 <fl_feof+0x20>
 8016176:	bf00      	nop
 8016178:	2000034c 	.word	0x2000034c

0801617c <fl_fwrite>:
 801617c:	e92d 4ff0 	stmdb	sp!, {r4, r5, r6, r7, r8, r9, sl, fp, lr}
 8016180:	b083      	sub	sp, #12
 8016182:	4682      	mov	sl, r0
 8016184:	461c      	mov	r4, r3
 8016186:	fb02 f301 	mul.w	r3, r2, r1
 801618a:	9301      	str	r3, [sp, #4]
 801618c:	4699      	mov	r9, r3
 801618e:	4b52      	ldr	r3, [pc, #328]	; (80162d8 <fl_fwrite+0x15c>)
 8016190:	f8d3 3ca8 	ldr.w	r3, [r3, #3240]	; 0xca8
 8016194:	b1b3      	cbz	r3, 80161c4 <fl_fwrite+0x48>
 8016196:	2c00      	cmp	r4, #0
 8016198:	f000 809a 	beq.w	80162d0 <fl_fwrite+0x154>
 801619c:	4b4e      	ldr	r3, [pc, #312]	; (80162d8 <fl_fwrite+0x15c>)
 801619e:	6c9b      	ldr	r3, [r3, #72]	; 0x48
 80161a0:	b103      	cbz	r3, 80161a4 <fl_fwrite+0x28>
 80161a2:	4798      	blx	r3
 80161a4:	f894 32b0 	ldrb.w	r3, [r4, #688]	; 0x2b0
 80161a8:	f013 0f02 	tst.w	r3, #2
 80161ac:	d00d      	beq.n	80161ca <fl_fwrite+0x4e>
 80161ae:	f013 0f04 	tst.w	r3, #4
 80161b2:	d001      	beq.n	80161b8 <fl_fwrite+0x3c>
 80161b4:	68e3      	ldr	r3, [r4, #12]
 80161b6:	60a3      	str	r3, [r4, #8]
 80161b8:	68a3      	ldr	r3, [r4, #8]
 80161ba:	0a5f      	lsrs	r7, r3, #9
 80161bc:	f3c3 0808 	ubfx	r8, r3, #0, #9
 80161c0:	2500      	movs	r5, #0
 80161c2:	e037      	b.n	8016234 <fl_fwrite+0xb8>
 80161c4:	f7ff fcdc 	bl	8015b80 <fl_init>
 80161c8:	e7e5      	b.n	8016196 <fl_fwrite+0x1a>
 80161ca:	4b43      	ldr	r3, [pc, #268]	; (80162d8 <fl_fwrite+0x15c>)
 80161cc:	6cdb      	ldr	r3, [r3, #76]	; 0x4c
 80161ce:	b103      	cbz	r3, 80161d2 <fl_fwrite+0x56>
 80161d0:	4798      	blx	r3
 80161d2:	f04f 33ff 	mov.w	r3, #4294967295	; 0xffffffff
 80161d6:	9301      	str	r3, [sp, #4]
 80161d8:	e061      	b.n	801629e <fl_fwrite+0x122>
 80161da:	4620      	mov	r0, r4
 80161dc:	f7ff fe26 	bl	8015e2c <fl_fflush>
 80161e0:	e03b      	b.n	801625a <fl_fwrite+0xde>
 80161e2:	f5c8 7300 	rsb	r3, r8, #512	; 0x200
 80161e6:	eba9 0605 	sub.w	r6, r9, r5
 80161ea:	429e      	cmp	r6, r3
 80161ec:	d300      	bcc.n	80161f0 <fl_fwrite+0x74>
 80161ee:	461e      	mov	r6, r3
 80161f0:	f8d4 32a8 	ldr.w	r3, [r4, #680]	; 0x2a8
 80161f4:	42bb      	cmp	r3, r7
 80161f6:	d00b      	beq.n	8016210 <fl_fwrite+0x94>
 80161f8:	f8d4 32ac 	ldr.w	r3, [r4, #684]	; 0x2ac
 80161fc:	2b00      	cmp	r3, #0
 80161fe:	d152      	bne.n	80162a6 <fl_fwrite+0x12a>
 8016200:	f5b6 7f00 	cmp.w	r6, #512	; 0x200
 8016204:	d153      	bne.n	80162ae <fl_fwrite+0x132>
 8016206:	f8c4 72a8 	str.w	r7, [r4, #680]	; 0x2a8
 801620a:	2300      	movs	r3, #0
 801620c:	f8c4 32ac 	str.w	r3, [r4, #684]	; 0x2ac
 8016210:	f104 00a8 	add.w	r0, r4, #168	; 0xa8
 8016214:	4632      	mov	r2, r6
 8016216:	eb0a 0105 	add.w	r1, sl, r5
 801621a:	4440      	add	r0, r8
 801621c:	f7fb fba0 	bl	8011960 <memcpy>
 8016220:	2301      	movs	r3, #1
 8016222:	f8c4 32ac 	str.w	r3, [r4, #684]	; 0x2ac
 8016226:	4435      	add	r5, r6
 8016228:	68a3      	ldr	r3, [r4, #8]
 801622a:	441e      	add	r6, r3
 801622c:	60a6      	str	r6, [r4, #8]
 801622e:	3701      	adds	r7, #1
 8016230:	f04f 0800 	mov.w	r8, #0
 8016234:	454d      	cmp	r5, r9
 8016236:	d227      	bcs.n	8016288 <fl_fwrite+0x10c>
 8016238:	f1b8 0f00 	cmp.w	r8, #0
 801623c:	d1d1      	bne.n	80161e2 <fl_fwrite+0x66>
 801623e:	eba9 0605 	sub.w	r6, r9, r5
 8016242:	f5b6 7f00 	cmp.w	r6, #512	; 0x200
 8016246:	d3cc      	bcc.n	80161e2 <fl_fwrite+0x66>
 8016248:	f8d4 32a8 	ldr.w	r3, [r4, #680]	; 0x2a8
 801624c:	f1b3 3fff 	cmp.w	r3, #4294967295	; 0xffffffff
 8016250:	d00a      	beq.n	8016268 <fl_fwrite+0xec>
 8016252:	f8d4 32ac 	ldr.w	r3, [r4, #684]	; 0x2ac
 8016256:	2b00      	cmp	r3, #0
 8016258:	d1bf      	bne.n	80161da <fl_fwrite+0x5e>
 801625a:	f04f 33ff 	mov.w	r3, #4294967295	; 0xffffffff
 801625e:	f8c4 32a8 	str.w	r3, [r4, #680]	; 0x2a8
 8016262:	2300      	movs	r3, #0
 8016264:	f8c4 32ac 	str.w	r3, [r4, #684]	; 0x2ac
 8016268:	0a73      	lsrs	r3, r6, #9
 801626a:	eb0a 0205 	add.w	r2, sl, r5
 801626e:	4639      	mov	r1, r7
 8016270:	4620      	mov	r0, r4
 8016272:	f7ff fac7 	bl	8015804 <_write_sectors>
 8016276:	eb05 2540 	add.w	r5, r5, r0, lsl #9
 801627a:	68a3      	ldr	r3, [r4, #8]
 801627c:	eb03 2340 	add.w	r3, r3, r0, lsl #9
 8016280:	60a3      	str	r3, [r4, #8]
 8016282:	4407      	add	r7, r0
 8016284:	2800      	cmp	r0, #0
 8016286:	d1d3      	bne.n	8016230 <fl_fwrite+0xb4>
 8016288:	68a3      	ldr	r3, [r4, #8]
 801628a:	68e2      	ldr	r2, [r4, #12]
 801628c:	4293      	cmp	r3, r2
 801628e:	d902      	bls.n	8016296 <fl_fwrite+0x11a>
 8016290:	60e3      	str	r3, [r4, #12]
 8016292:	2301      	movs	r3, #1
 8016294:	6123      	str	r3, [r4, #16]
 8016296:	4b10      	ldr	r3, [pc, #64]	; (80162d8 <fl_fwrite+0x15c>)
 8016298:	6cdb      	ldr	r3, [r3, #76]	; 0x4c
 801629a:	b103      	cbz	r3, 801629e <fl_fwrite+0x122>
 801629c:	4798      	blx	r3
 801629e:	9801      	ldr	r0, [sp, #4]
 80162a0:	b003      	add	sp, #12
 80162a2:	e8bd 8ff0 	ldmia.w	sp!, {r4, r5, r6, r7, r8, r9, sl, fp, pc}
 80162a6:	4620      	mov	r0, r4
 80162a8:	f7ff fdc0 	bl	8015e2c <fl_fflush>
 80162ac:	e7a8      	b.n	8016200 <fl_fwrite+0x84>
 80162ae:	f104 0ba8 	add.w	fp, r4, #168	; 0xa8
 80162b2:	2301      	movs	r3, #1
 80162b4:	465a      	mov	r2, fp
 80162b6:	4639      	mov	r1, r7
 80162b8:	4620      	mov	r0, r4
 80162ba:	f7ff fb1d 	bl	80158f8 <_read_sectors>
 80162be:	2800      	cmp	r0, #0
 80162c0:	d1a1      	bne.n	8016206 <fl_fwrite+0x8a>
 80162c2:	f44f 7200 	mov.w	r2, #512	; 0x200
 80162c6:	2100      	movs	r1, #0
 80162c8:	4658      	mov	r0, fp
 80162ca:	f7fb fb42 	bl	8011952 <memset>
 80162ce:	e79a      	b.n	8016206 <fl_fwrite+0x8a>
 80162d0:	f04f 33ff 	mov.w	r3, #4294967295	; 0xffffffff
 80162d4:	9301      	str	r3, [sp, #4]
 80162d6:	e7e2      	b.n	801629e <fl_fwrite+0x122>
 80162d8:	2000034c 	.word	0x2000034c

080162dc <fl_fputc>:
 80162dc:	b510      	push	{r4, lr}
 80162de:	b082      	sub	sp, #8
 80162e0:	4604      	mov	r4, r0
 80162e2:	460b      	mov	r3, r1
 80162e4:	f88d 0007 	strb.w	r0, [sp, #7]
 80162e8:	2201      	movs	r2, #1
 80162ea:	4611      	mov	r1, r2
 80162ec:	f10d 0007 	add.w	r0, sp, #7
 80162f0:	f7ff ff44 	bl	801617c <fl_fwrite>
 80162f4:	2801      	cmp	r0, #1
 80162f6:	d001      	beq.n	80162fc <fl_fputc+0x20>
 80162f8:	b002      	add	sp, #8
 80162fa:	bd10      	pop	{r4, pc}
 80162fc:	4620      	mov	r0, r4
 80162fe:	e7fb      	b.n	80162f8 <fl_fputc+0x1c>

08016300 <fl_fputs>:
 8016300:	b570      	push	{r4, r5, r6, lr}
 8016302:	4605      	mov	r5, r0
 8016304:	460e      	mov	r6, r1
 8016306:	f7fb fb55 	bl	80119b4 <strlen>
 801630a:	4604      	mov	r4, r0
 801630c:	4633      	mov	r3, r6
 801630e:	4602      	mov	r2, r0
 8016310:	2101      	movs	r1, #1
 8016312:	4628      	mov	r0, r5
 8016314:	f7ff ff32 	bl	801617c <fl_fwrite>
 8016318:	4284      	cmp	r4, r0
 801631a:	d000      	beq.n	801631e <fl_fputs+0x1e>
 801631c:	bd70      	pop	{r4, r5, r6, pc}
 801631e:	4620      	mov	r0, r4
 8016320:	e7fc      	b.n	801631c <fl_fputs+0x1c>

08016322 <fl_remove>:
 8016322:	b510      	push	{r4, lr}
 8016324:	4604      	mov	r4, r0
 8016326:	4b14      	ldr	r3, [pc, #80]	; (8016378 <fl_remove+0x56>)
 8016328:	6c9b      	ldr	r3, [r3, #72]	; 0x48
 801632a:	b103      	cbz	r3, 801632e <fl_remove+0xc>
 801632c:	4798      	blx	r3
 801632e:	4913      	ldr	r1, [pc, #76]	; (801637c <fl_remove+0x5a>)
 8016330:	4620      	mov	r0, r4
 8016332:	f7ff fc87 	bl	8015c44 <fl_fopen>
 8016336:	4604      	mov	r4, r0
 8016338:	b1a8      	cbz	r0, 8016366 <fl_remove+0x44>
 801633a:	6841      	ldr	r1, [r0, #4]
 801633c:	4810      	ldr	r0, [pc, #64]	; (8016380 <fl_remove+0x5e>)
 801633e:	f000 fcbb 	bl	8016cb8 <fatfs_free_cluster_chain>
 8016342:	b198      	cbz	r0, 801636c <fl_remove+0x4a>
 8016344:	4622      	mov	r2, r4
 8016346:	f852 1b94 	ldr.w	r1, [r2], #148
 801634a:	480d      	ldr	r0, [pc, #52]	; (8016380 <fl_remove+0x5e>)
 801634c:	f7fe f8eb 	bl	8014526 <fatfs_mark_file_deleted>
 8016350:	b178      	cbz	r0, 8016372 <fl_remove+0x50>
 8016352:	4620      	mov	r0, r4
 8016354:	f7ff fd92 	bl	8015e7c <fl_fclose>
 8016358:	2400      	movs	r4, #0
 801635a:	4b07      	ldr	r3, [pc, #28]	; (8016378 <fl_remove+0x56>)
 801635c:	6cdb      	ldr	r3, [r3, #76]	; 0x4c
 801635e:	b103      	cbz	r3, 8016362 <fl_remove+0x40>
 8016360:	4798      	blx	r3
 8016362:	4620      	mov	r0, r4
 8016364:	bd10      	pop	{r4, pc}
 8016366:	f04f 34ff 	mov.w	r4, #4294967295	; 0xffffffff
 801636a:	e7f6      	b.n	801635a <fl_remove+0x38>
 801636c:	f04f 34ff 	mov.w	r4, #4294967295	; 0xffffffff
 8016370:	e7f3      	b.n	801635a <fl_remove+0x38>
 8016372:	f04f 34ff 	mov.w	r4, #4294967295	; 0xffffffff
 8016376:	e7f0      	b.n	801635a <fl_remove+0x38>
 8016378:	2000034c 	.word	0x2000034c
 801637c:	08018b5c 	.word	0x08018b5c
 8016380:	2000035c 	.word	0x2000035c

08016384 <fl_createdirectory>:
 8016384:	b510      	push	{r4, lr}
 8016386:	4604      	mov	r4, r0
 8016388:	4b0a      	ldr	r3, [pc, #40]	; (80163b4 <fl_createdirectory+0x30>)
 801638a:	f8d3 3ca8 	ldr.w	r3, [r3, #3240]	; 0xca8
 801638e:	b16b      	cbz	r3, 80163ac <fl_createdirectory+0x28>
 8016390:	4b08      	ldr	r3, [pc, #32]	; (80163b4 <fl_createdirectory+0x30>)
 8016392:	6c9b      	ldr	r3, [r3, #72]	; 0x48
 8016394:	b103      	cbz	r3, 8016398 <fl_createdirectory+0x14>
 8016396:	4798      	blx	r3
 8016398:	4620      	mov	r0, r4
 801639a:	f7ff fb11 	bl	80159c0 <_create_directory>
 801639e:	4604      	mov	r4, r0
 80163a0:	4b04      	ldr	r3, [pc, #16]	; (80163b4 <fl_createdirectory+0x30>)
 80163a2:	6cdb      	ldr	r3, [r3, #76]	; 0x4c
 80163a4:	b103      	cbz	r3, 80163a8 <fl_createdirectory+0x24>
 80163a6:	4798      	blx	r3
 80163a8:	4620      	mov	r0, r4
 80163aa:	bd10      	pop	{r4, pc}
 80163ac:	f7ff fbe8 	bl	8015b80 <fl_init>
 80163b0:	e7ee      	b.n	8016390 <fl_createdirectory+0xc>
 80163b2:	bf00      	nop
 80163b4:	2000034c 	.word	0x2000034c

080163b8 <fl_opendir>:
 80163b8:	b530      	push	{r4, r5, lr}
 80163ba:	b083      	sub	sp, #12
 80163bc:	4605      	mov	r5, r0
 80163be:	460c      	mov	r4, r1
 80163c0:	f04f 33ff 	mov.w	r3, #4294967295	; 0xffffffff
 80163c4:	9301      	str	r3, [sp, #4]
 80163c6:	4b16      	ldr	r3, [pc, #88]	; (8016420 <fl_opendir+0x68>)
 80163c8:	f8d3 3ca8 	ldr.w	r3, [r3, #3240]	; 0xca8
 80163cc:	b17b      	cbz	r3, 80163ee <fl_opendir+0x36>
 80163ce:	4b14      	ldr	r3, [pc, #80]	; (8016420 <fl_opendir+0x68>)
 80163d0:	6c9b      	ldr	r3, [r3, #72]	; 0x48
 80163d2:	b103      	cbz	r3, 80163d6 <fl_opendir+0x1e>
 80163d4:	4798      	blx	r3
 80163d6:	4628      	mov	r0, r5
 80163d8:	f7fe f9ec 	bl	80147b4 <fatfs_total_path_levels>
 80163dc:	f1b0 3fff 	cmp.w	r0, #4294967295	; 0xffffffff
 80163e0:	d008      	beq.n	80163f4 <fl_opendir+0x3c>
 80163e2:	a901      	add	r1, sp, #4
 80163e4:	4628      	mov	r0, r5
 80163e6:	f7ff f895 	bl	8015514 <_open_directory>
 80163ea:	b160      	cbz	r0, 8016406 <fl_opendir+0x4e>
 80163ec:	e006      	b.n	80163fc <fl_opendir+0x44>
 80163ee:	f7ff fbc7 	bl	8015b80 <fl_init>
 80163f2:	e7ec      	b.n	80163ce <fl_opendir+0x16>
 80163f4:	480b      	ldr	r0, [pc, #44]	; (8016424 <fl_opendir+0x6c>)
 80163f6:	f7fd ff85 	bl	8014304 <fatfs_get_root_cluster>
 80163fa:	9001      	str	r0, [sp, #4]
 80163fc:	9a01      	ldr	r2, [sp, #4]
 80163fe:	4621      	mov	r1, r4
 8016400:	4808      	ldr	r0, [pc, #32]	; (8016424 <fl_opendir+0x6c>)
 8016402:	f7fe f8d8 	bl	80145b6 <fatfs_list_directory_start>
 8016406:	4b06      	ldr	r3, [pc, #24]	; (8016420 <fl_opendir+0x68>)
 8016408:	6cdb      	ldr	r3, [r3, #76]	; 0x4c
 801640a:	b103      	cbz	r3, 801640e <fl_opendir+0x56>
 801640c:	4798      	blx	r3
 801640e:	9b01      	ldr	r3, [sp, #4]
 8016410:	f1b3 3fff 	cmp.w	r3, #4294967295	; 0xffffffff
 8016414:	d002      	beq.n	801641c <fl_opendir+0x64>
 8016416:	4620      	mov	r0, r4
 8016418:	b003      	add	sp, #12
 801641a:	bd30      	pop	{r4, r5, pc}
 801641c:	2000      	movs	r0, #0
 801641e:	e7fb      	b.n	8016418 <fl_opendir+0x60>
 8016420:	2000034c 	.word	0x2000034c
 8016424:	2000035c 	.word	0x2000035c

08016428 <fl_readdir>:
 8016428:	b570      	push	{r4, r5, r6, lr}
 801642a:	4604      	mov	r4, r0
 801642c:	460d      	mov	r5, r1
 801642e:	4b0e      	ldr	r3, [pc, #56]	; (8016468 <fl_readdir+0x40>)
 8016430:	f8d3 3ca8 	ldr.w	r3, [r3, #3240]	; 0xca8
 8016434:	b18b      	cbz	r3, 801645a <fl_readdir+0x32>
 8016436:	4b0c      	ldr	r3, [pc, #48]	; (8016468 <fl_readdir+0x40>)
 8016438:	6c9b      	ldr	r3, [r3, #72]	; 0x48
 801643a:	b103      	cbz	r3, 801643e <fl_readdir+0x16>
 801643c:	4798      	blx	r3
 801643e:	4e0a      	ldr	r6, [pc, #40]	; (8016468 <fl_readdir+0x40>)
 8016440:	462a      	mov	r2, r5
 8016442:	4621      	mov	r1, r4
 8016444:	f106 0010 	add.w	r0, r6, #16
 8016448:	f7fe f8ba 	bl	80145c0 <fatfs_list_directory_next>
 801644c:	4604      	mov	r4, r0
 801644e:	6cf3      	ldr	r3, [r6, #76]	; 0x4c
 8016450:	b103      	cbz	r3, 8016454 <fl_readdir+0x2c>
 8016452:	4798      	blx	r3
 8016454:	b124      	cbz	r4, 8016460 <fl_readdir+0x38>
 8016456:	2000      	movs	r0, #0
 8016458:	bd70      	pop	{r4, r5, r6, pc}
 801645a:	f7ff fb91 	bl	8015b80 <fl_init>
 801645e:	e7ea      	b.n	8016436 <fl_readdir+0xe>
 8016460:	f04f 30ff 	mov.w	r0, #4294967295	; 0xffffffff
 8016464:	e7f8      	b.n	8016458 <fl_readdir+0x30>
 8016466:	bf00      	nop
 8016468:	2000034c 	.word	0x2000034c

0801646c <fl_listdirectory>:
 801646c:	b510      	push	{r4, lr}
 801646e:	b096      	sub	sp, #88	; 0x58
 8016470:	4604      	mov	r4, r0
 8016472:	4b17      	ldr	r3, [pc, #92]	; (80164d0 <fl_listdirectory+0x64>)
 8016474:	f8d3 3ca8 	ldr.w	r3, [r3, #3240]	; 0xca8
 8016478:	b193      	cbz	r3, 80164a0 <fl_listdirectory+0x34>
 801647a:	4b15      	ldr	r3, [pc, #84]	; (80164d0 <fl_listdirectory+0x64>)
 801647c:	6c9b      	ldr	r3, [r3, #72]	; 0x48
 801647e:	b103      	cbz	r3, 8016482 <fl_listdirectory+0x16>
 8016480:	4798      	blx	r3
 8016482:	4621      	mov	r1, r4
 8016484:	4813      	ldr	r0, [pc, #76]	; (80164d4 <fl_listdirectory+0x68>)
 8016486:	f7fb f949 	bl	801171c <kprintf>
 801648a:	a913      	add	r1, sp, #76	; 0x4c
 801648c:	4620      	mov	r0, r4
 801648e:	f7ff ff93 	bl	80163b8 <fl_opendir>
 8016492:	b968      	cbnz	r0, 80164b0 <fl_listdirectory+0x44>
 8016494:	4b0e      	ldr	r3, [pc, #56]	; (80164d0 <fl_listdirectory+0x64>)
 8016496:	6cdb      	ldr	r3, [r3, #76]	; 0x4c
 8016498:	b103      	cbz	r3, 801649c <fl_listdirectory+0x30>
 801649a:	4798      	blx	r3
 801649c:	b016      	add	sp, #88	; 0x58
 801649e:	bd10      	pop	{r4, pc}
 80164a0:	f7ff fb6e 	bl	8015b80 <fl_init>
 80164a4:	e7e9      	b.n	801647a <fl_listdirectory+0xe>
 80164a6:	9a12      	ldr	r2, [sp, #72]	; 0x48
 80164a8:	4669      	mov	r1, sp
 80164aa:	480b      	ldr	r0, [pc, #44]	; (80164d8 <fl_listdirectory+0x6c>)
 80164ac:	f7fb f936 	bl	801171c <kprintf>
 80164b0:	4669      	mov	r1, sp
 80164b2:	a813      	add	r0, sp, #76	; 0x4c
 80164b4:	f7ff ffb8 	bl	8016428 <fl_readdir>
 80164b8:	2800      	cmp	r0, #0
 80164ba:	d1eb      	bne.n	8016494 <fl_listdirectory+0x28>
 80164bc:	f89d 3040 	ldrb.w	r3, [sp, #64]	; 0x40
 80164c0:	2b00      	cmp	r3, #0
 80164c2:	d0f0      	beq.n	80164a6 <fl_listdirectory+0x3a>
 80164c4:	4669      	mov	r1, sp
 80164c6:	4805      	ldr	r0, [pc, #20]	; (80164dc <fl_listdirectory+0x70>)
 80164c8:	f7fb f928 	bl	801171c <kprintf>
 80164cc:	e7f0      	b.n	80164b0 <fl_listdirectory+0x44>
 80164ce:	bf00      	nop
 80164d0:	2000034c 	.word	0x2000034c
 80164d4:	08018b60 	.word	0x08018b60
 80164d8:	08018b80 	.word	0x08018b80
 80164dc:	08018b74 	.word	0x08018b74

080164e0 <fl_closedir>:
 80164e0:	2000      	movs	r0, #0
 80164e2:	4770      	bx	lr

080164e4 <fl_is_dir>:
 80164e4:	b500      	push	{lr}
 80164e6:	b085      	sub	sp, #20
 80164e8:	a901      	add	r1, sp, #4
 80164ea:	f7ff ff65 	bl	80163b8 <fl_opendir>
 80164ee:	b100      	cbz	r0, 80164f2 <fl_is_dir+0xe>
 80164f0:	2001      	movs	r0, #1
 80164f2:	b005      	add	sp, #20
 80164f4:	f85d fb04 	ldr.w	pc, [sp], #4

080164f8 <fl_format>:
 80164f8:	b508      	push	{r3, lr}
 80164fa:	460a      	mov	r2, r1
 80164fc:	4601      	mov	r1, r0
 80164fe:	4802      	ldr	r0, [pc, #8]	; (8016508 <fl_format+0x10>)
 8016500:	f7fe ff71 	bl	80153e6 <fatfs_format>
 8016504:	bd08      	pop	{r3, pc}
 8016506:	bf00      	nop
 8016508:	2000035c 	.word	0x2000035c

0801650c <fatfs_itoa>:
 801650c:	b4f0      	push	{r4, r5, r6, r7}
 801650e:	b088      	sub	sp, #32
 8016510:	4604      	mov	r4, r0
 8016512:	460d      	mov	r5, r1
 8016514:	466e      	mov	r6, sp
 8016516:	4f15      	ldr	r7, [pc, #84]	; (801656c <fatfs_itoa+0x60>)
 8016518:	cf0f      	ldmia	r7!, {r0, r1, r2, r3}
 801651a:	c60f      	stmia	r6!, {r0, r1, r2, r3}
 801651c:	683b      	ldr	r3, [r7, #0]
 801651e:	7033      	strb	r3, [r6, #0]
 8016520:	a905      	add	r1, sp, #20
 8016522:	4b13      	ldr	r3, [pc, #76]	; (8016570 <fatfs_itoa+0x64>)
 8016524:	fba3 2304 	umull	r2, r3, r3, r4
 8016528:	08db      	lsrs	r3, r3, #3
 801652a:	4618      	mov	r0, r3
 801652c:	eb03 0383 	add.w	r3, r3, r3, lsl #2
 8016530:	eba4 0343 	sub.w	r3, r4, r3, lsl #1
 8016534:	460a      	mov	r2, r1
 8016536:	3101      	adds	r1, #1
 8016538:	ae08      	add	r6, sp, #32
 801653a:	4433      	add	r3, r6
 801653c:	f813 3c20 	ldrb.w	r3, [r3, #-32]
 8016540:	7013      	strb	r3, [r2, #0]
 8016542:	4623      	mov	r3, r4
 8016544:	4604      	mov	r4, r0
 8016546:	2b09      	cmp	r3, #9
 8016548:	d8eb      	bhi.n	8016522 <fatfs_itoa+0x16>
 801654a:	2300      	movs	r3, #0
 801654c:	700b      	strb	r3, [r1, #0]
 801654e:	e005      	b.n	801655c <fatfs_itoa+0x50>
 8016550:	4629      	mov	r1, r5
 8016552:	f812 3901 	ldrb.w	r3, [r2], #-1
 8016556:	f801 3b01 	strb.w	r3, [r1], #1
 801655a:	460d      	mov	r5, r1
 801655c:	ab05      	add	r3, sp, #20
 801655e:	429a      	cmp	r2, r3
 8016560:	d2f6      	bcs.n	8016550 <fatfs_itoa+0x44>
 8016562:	2300      	movs	r3, #0
 8016564:	702b      	strb	r3, [r5, #0]
 8016566:	b008      	add	sp, #32
 8016568:	bcf0      	pop	{r4, r5, r6, r7}
 801656a:	4770      	bx	lr
 801656c:	08018a00 	.word	0x08018a00
 8016570:	cccccccd 	.word	0xcccccccd

08016574 <fatfs_lfn_cache_init>:
 8016574:	b538      	push	{r3, r4, r5, lr}
 8016576:	2300      	movs	r3, #0
 8016578:	f880 3105 	strb.w	r3, [r0, #261]	; 0x105
 801657c:	b171      	cbz	r1, 801659c <fatfs_lfn_cache_init+0x28>
 801657e:	4605      	mov	r5, r0
 8016580:	2400      	movs	r4, #0
 8016582:	e009      	b.n	8016598 <fatfs_lfn_cache_init+0x24>
 8016584:	eb04 0044 	add.w	r0, r4, r4, lsl #1
 8016588:	eb04 0080 	add.w	r0, r4, r0, lsl #2
 801658c:	220d      	movs	r2, #13
 801658e:	2100      	movs	r1, #0
 8016590:	4428      	add	r0, r5
 8016592:	f7fb f9de 	bl	8011952 <memset>
 8016596:	3401      	adds	r4, #1
 8016598:	2c13      	cmp	r4, #19
 801659a:	ddf3      	ble.n	8016584 <fatfs_lfn_cache_init+0x10>
 801659c:	bd38      	pop	{r3, r4, r5, pc}

0801659e <fatfs_lfn_cache_entry>:
 801659e:	b430      	push	{r4, r5}
 80165a0:	780c      	ldrb	r4, [r1, #0]
 80165a2:	f004 041f 	and.w	r4, r4, #31
 80165a6:	2c14      	cmp	r4, #20
 80165a8:	d83c      	bhi.n	8016624 <fatfs_lfn_cache_entry+0x86>
 80165aa:	2c00      	cmp	r4, #0
 80165ac:	d03a      	beq.n	8016624 <fatfs_lfn_cache_entry+0x86>
 80165ae:	f890 3105 	ldrb.w	r3, [r0, #261]	; 0x105
 80165b2:	b90b      	cbnz	r3, 80165b8 <fatfs_lfn_cache_entry+0x1a>
 80165b4:	f880 4105 	strb.w	r4, [r0, #261]	; 0x105
 80165b8:	3c01      	subs	r4, #1
 80165ba:	784d      	ldrb	r5, [r1, #1]
 80165bc:	eb04 0244 	add.w	r2, r4, r4, lsl #1
 80165c0:	eb04 0282 	add.w	r2, r4, r2, lsl #2
 80165c4:	1883      	adds	r3, r0, r2
 80165c6:	5485      	strb	r5, [r0, r2]
 80165c8:	78ca      	ldrb	r2, [r1, #3]
 80165ca:	705a      	strb	r2, [r3, #1]
 80165cc:	794a      	ldrb	r2, [r1, #5]
 80165ce:	709a      	strb	r2, [r3, #2]
 80165d0:	79ca      	ldrb	r2, [r1, #7]
 80165d2:	70da      	strb	r2, [r3, #3]
 80165d4:	7a4a      	ldrb	r2, [r1, #9]
 80165d6:	711a      	strb	r2, [r3, #4]
 80165d8:	7b8a      	ldrb	r2, [r1, #14]
 80165da:	715a      	strb	r2, [r3, #5]
 80165dc:	7c0a      	ldrb	r2, [r1, #16]
 80165de:	719a      	strb	r2, [r3, #6]
 80165e0:	7c8a      	ldrb	r2, [r1, #18]
 80165e2:	71da      	strb	r2, [r3, #7]
 80165e4:	7d0a      	ldrb	r2, [r1, #20]
 80165e6:	721a      	strb	r2, [r3, #8]
 80165e8:	7d8a      	ldrb	r2, [r1, #22]
 80165ea:	725a      	strb	r2, [r3, #9]
 80165ec:	7e0a      	ldrb	r2, [r1, #24]
 80165ee:	729a      	strb	r2, [r3, #10]
 80165f0:	7f0a      	ldrb	r2, [r1, #28]
 80165f2:	72da      	strb	r2, [r3, #11]
 80165f4:	7f8a      	ldrb	r2, [r1, #30]
 80165f6:	731a      	strb	r2, [r3, #12]
 80165f8:	2300      	movs	r3, #0
 80165fa:	e001      	b.n	8016600 <fatfs_lfn_cache_entry+0x62>
 80165fc:	3301      	adds	r3, #1
 80165fe:	b2db      	uxtb	r3, r3
 8016600:	2b0c      	cmp	r3, #12
 8016602:	d80f      	bhi.n	8016624 <fatfs_lfn_cache_entry+0x86>
 8016604:	eb04 0244 	add.w	r2, r4, r4, lsl #1
 8016608:	eb04 0282 	add.w	r2, r4, r2, lsl #2
 801660c:	4402      	add	r2, r0
 801660e:	5cd2      	ldrb	r2, [r2, r3]
 8016610:	2aff      	cmp	r2, #255	; 0xff
 8016612:	d1f3      	bne.n	80165fc <fatfs_lfn_cache_entry+0x5e>
 8016614:	eb04 0244 	add.w	r2, r4, r4, lsl #1
 8016618:	eb04 0282 	add.w	r2, r4, r2, lsl #2
 801661c:	4402      	add	r2, r0
 801661e:	2120      	movs	r1, #32
 8016620:	54d1      	strb	r1, [r2, r3]
 8016622:	e7eb      	b.n	80165fc <fatfs_lfn_cache_entry+0x5e>
 8016624:	bc30      	pop	{r4, r5}
 8016626:	4770      	bx	lr

08016628 <fatfs_lfn_cache_get>:
 8016628:	f890 3105 	ldrb.w	r3, [r0, #261]	; 0x105
 801662c:	2b14      	cmp	r3, #20
 801662e:	d007      	beq.n	8016640 <fatfs_lfn_cache_get+0x18>
 8016630:	b153      	cbz	r3, 8016648 <fatfs_lfn_cache_get+0x20>
 8016632:	eb03 0243 	add.w	r2, r3, r3, lsl #1
 8016636:	eb03 0382 	add.w	r3, r3, r2, lsl #2
 801663a:	2200      	movs	r2, #0
 801663c:	54c2      	strb	r2, [r0, r3]
 801663e:	4770      	bx	lr
 8016640:	2300      	movs	r3, #0
 8016642:	f880 3104 	strb.w	r3, [r0, #260]	; 0x104
 8016646:	4770      	bx	lr
 8016648:	2300      	movs	r3, #0
 801664a:	7003      	strb	r3, [r0, #0]
 801664c:	4770      	bx	lr

0801664e <fatfs_entry_lfn_text>:
 801664e:	7ac3      	ldrb	r3, [r0, #11]
 8016650:	f003 030f 	and.w	r3, r3, #15
 8016654:	2b0f      	cmp	r3, #15
 8016656:	d001      	beq.n	801665c <fatfs_entry_lfn_text+0xe>
 8016658:	2000      	movs	r0, #0
 801665a:	4770      	bx	lr
 801665c:	2001      	movs	r0, #1
 801665e:	4770      	bx	lr

08016660 <fatfs_entry_lfn_invalid>:
 8016660:	7803      	ldrb	r3, [r0, #0]
 8016662:	b14b      	cbz	r3, 8016678 <fatfs_entry_lfn_invalid+0x18>
 8016664:	2be5      	cmp	r3, #229	; 0xe5
 8016666:	d009      	beq.n	801667c <fatfs_entry_lfn_invalid+0x1c>
 8016668:	7ac3      	ldrb	r3, [r0, #11]
 801666a:	2b08      	cmp	r3, #8
 801666c:	d008      	beq.n	8016680 <fatfs_entry_lfn_invalid+0x20>
 801666e:	f013 0f06 	tst.w	r3, #6
 8016672:	d007      	beq.n	8016684 <fatfs_entry_lfn_invalid+0x24>
 8016674:	2001      	movs	r0, #1
 8016676:	4770      	bx	lr
 8016678:	2001      	movs	r0, #1
 801667a:	4770      	bx	lr
 801667c:	2001      	movs	r0, #1
 801667e:	4770      	bx	lr
 8016680:	2001      	movs	r0, #1
 8016682:	4770      	bx	lr
 8016684:	2000      	movs	r0, #0
 8016686:	4770      	bx	lr

08016688 <fatfs_entry_lfn_exists>:
 8016688:	7acb      	ldrb	r3, [r1, #11]
 801668a:	2b0f      	cmp	r3, #15
 801668c:	d00d      	beq.n	80166aa <fatfs_entry_lfn_exists+0x22>
 801668e:	780a      	ldrb	r2, [r1, #0]
 8016690:	b16a      	cbz	r2, 80166ae <fatfs_entry_lfn_exists+0x26>
 8016692:	2ae5      	cmp	r2, #229	; 0xe5
 8016694:	d00d      	beq.n	80166b2 <fatfs_entry_lfn_exists+0x2a>
 8016696:	2b08      	cmp	r3, #8
 8016698:	d00d      	beq.n	80166b6 <fatfs_entry_lfn_exists+0x2e>
 801669a:	f013 0f06 	tst.w	r3, #6
 801669e:	d10c      	bne.n	80166ba <fatfs_entry_lfn_exists+0x32>
 80166a0:	f890 3105 	ldrb.w	r3, [r0, #261]	; 0x105
 80166a4:	b95b      	cbnz	r3, 80166be <fatfs_entry_lfn_exists+0x36>
 80166a6:	2000      	movs	r0, #0
 80166a8:	4770      	bx	lr
 80166aa:	2000      	movs	r0, #0
 80166ac:	4770      	bx	lr
 80166ae:	2000      	movs	r0, #0
 80166b0:	4770      	bx	lr
 80166b2:	2000      	movs	r0, #0
 80166b4:	4770      	bx	lr
 80166b6:	2000      	movs	r0, #0
 80166b8:	4770      	bx	lr
 80166ba:	2000      	movs	r0, #0
 80166bc:	4770      	bx	lr
 80166be:	2001      	movs	r0, #1
 80166c0:	4770      	bx	lr

080166c2 <fatfs_entry_sfn_only>:
 80166c2:	7ac3      	ldrb	r3, [r0, #11]
 80166c4:	2b0f      	cmp	r3, #15
 80166c6:	d00a      	beq.n	80166de <fatfs_entry_sfn_only+0x1c>
 80166c8:	7802      	ldrb	r2, [r0, #0]
 80166ca:	b152      	cbz	r2, 80166e2 <fatfs_entry_sfn_only+0x20>
 80166cc:	2ae5      	cmp	r2, #229	; 0xe5
 80166ce:	d00a      	beq.n	80166e6 <fatfs_entry_sfn_only+0x24>
 80166d0:	2b08      	cmp	r3, #8
 80166d2:	d00a      	beq.n	80166ea <fatfs_entry_sfn_only+0x28>
 80166d4:	f013 0f06 	tst.w	r3, #6
 80166d8:	d009      	beq.n	80166ee <fatfs_entry_sfn_only+0x2c>
 80166da:	2000      	movs	r0, #0
 80166dc:	4770      	bx	lr
 80166de:	2000      	movs	r0, #0
 80166e0:	4770      	bx	lr
 80166e2:	2000      	movs	r0, #0
 80166e4:	4770      	bx	lr
 80166e6:	2000      	movs	r0, #0
 80166e8:	4770      	bx	lr
 80166ea:	2000      	movs	r0, #0
 80166ec:	4770      	bx	lr
 80166ee:	2001      	movs	r0, #1
 80166f0:	4770      	bx	lr

080166f2 <fatfs_entry_is_dir>:
 80166f2:	7ac3      	ldrb	r3, [r0, #11]
 80166f4:	f013 0f10 	tst.w	r3, #16
 80166f8:	d001      	beq.n	80166fe <fatfs_entry_is_dir+0xc>
 80166fa:	2001      	movs	r0, #1
 80166fc:	4770      	bx	lr
 80166fe:	2000      	movs	r0, #0
 8016700:	4770      	bx	lr

08016702 <fatfs_entry_is_file>:
 8016702:	7ac3      	ldrb	r3, [r0, #11]
 8016704:	f013 0f20 	tst.w	r3, #32
 8016708:	d001      	beq.n	801670e <fatfs_entry_is_file+0xc>
 801670a:	2001      	movs	r0, #1
 801670c:	4770      	bx	lr
 801670e:	2000      	movs	r0, #0
 8016710:	4770      	bx	lr

08016712 <fatfs_lfn_entries_required>:
 8016712:	b508      	push	{r3, lr}
 8016714:	f7fb f94e 	bl	80119b4 <strlen>
 8016718:	4603      	mov	r3, r0
 801671a:	b130      	cbz	r0, 801672a <fatfs_lfn_entries_required+0x18>
 801671c:	330c      	adds	r3, #12
 801671e:	4804      	ldr	r0, [pc, #16]	; (8016730 <fatfs_lfn_entries_required+0x1e>)
 8016720:	fb80 2003 	smull	r2, r0, r0, r3
 8016724:	17db      	asrs	r3, r3, #31
 8016726:	ebc3 03a0 	rsb	r3, r3, r0, asr #2
 801672a:	4618      	mov	r0, r3
 801672c:	bd08      	pop	{r3, pc}
 801672e:	bf00      	nop
 8016730:	4ec4ec4f 	.word	0x4ec4ec4f

08016734 <fatfs_filename_to_lfn>:
 8016734:	e92d 47f0 	stmdb	sp!, {r4, r5, r6, r7, r8, r9, sl, lr}
 8016738:	b08e      	sub	sp, #56	; 0x38
 801673a:	4606      	mov	r6, r0
 801673c:	460c      	mov	r4, r1
 801673e:	4690      	mov	r8, r2
 8016740:	4699      	mov	r9, r3
 8016742:	ad01      	add	r5, sp, #4
 8016744:	4f29      	ldr	r7, [pc, #164]	; (80167ec <fatfs_filename_to_lfn+0xb8>)
 8016746:	cf0f      	ldmia	r7!, {r0, r1, r2, r3}
 8016748:	c50f      	stmia	r5!, {r0, r1, r2, r3}
 801674a:	cf0f      	ldmia	r7!, {r0, r1, r2, r3}
 801674c:	c50f      	stmia	r5!, {r0, r1, r2, r3}
 801674e:	cf0f      	ldmia	r7!, {r0, r1, r2, r3}
 8016750:	c50f      	stmia	r5!, {r0, r1, r2, r3}
 8016752:	683b      	ldr	r3, [r7, #0]
 8016754:	602b      	str	r3, [r5, #0]
 8016756:	4630      	mov	r0, r6
 8016758:	f7fb f92c 	bl	80119b4 <strlen>
 801675c:	4605      	mov	r5, r0
 801675e:	4630      	mov	r0, r6
 8016760:	f7ff ffd7 	bl	8016712 <fatfs_lfn_entries_required>
 8016764:	4682      	mov	sl, r0
 8016766:	eb08 0748 	add.w	r7, r8, r8, lsl #1
 801676a:	eb08 0787 	add.w	r7, r8, r7, lsl #2
 801676e:	2220      	movs	r2, #32
 8016770:	2100      	movs	r1, #0
 8016772:	4620      	mov	r0, r4
 8016774:	f7fb f8ed 	bl	8011952 <memset>
 8016778:	f10a 3aff 	add.w	sl, sl, #4294967295	; 0xffffffff
 801677c:	45c2      	cmp	sl, r8
 801677e:	d00a      	beq.n	8016796 <fatfs_filename_to_lfn+0x62>
 8016780:	fa5f f388 	uxtb.w	r3, r8
 8016784:	3301      	adds	r3, #1
 8016786:	b2db      	uxtb	r3, r3
 8016788:	7023      	strb	r3, [r4, #0]
 801678a:	230f      	movs	r3, #15
 801678c:	72e3      	strb	r3, [r4, #11]
 801678e:	f884 900d 	strb.w	r9, [r4, #13]
 8016792:	2300      	movs	r3, #0
 8016794:	e012      	b.n	80167bc <fatfs_filename_to_lfn+0x88>
 8016796:	f108 0301 	add.w	r3, r8, #1
 801679a:	b25b      	sxtb	r3, r3
 801679c:	f043 0340 	orr.w	r3, r3, #64	; 0x40
 80167a0:	b2db      	uxtb	r3, r3
 80167a2:	e7f1      	b.n	8016788 <fatfs_filename_to_lfn+0x54>
 80167a4:	42aa      	cmp	r2, r5
 80167a6:	d016      	beq.n	80167d6 <fatfs_filename_to_lfn+0xa2>
 80167a8:	aa0e      	add	r2, sp, #56	; 0x38
 80167aa:	eb02 0283 	add.w	r2, r2, r3, lsl #2
 80167ae:	f852 2c34 	ldr.w	r2, [r2, #-52]
 80167b2:	21ff      	movs	r1, #255	; 0xff
 80167b4:	54a1      	strb	r1, [r4, r2]
 80167b6:	3201      	adds	r2, #1
 80167b8:	54a1      	strb	r1, [r4, r2]
 80167ba:	3301      	adds	r3, #1
 80167bc:	2b0c      	cmp	r3, #12
 80167be:	dc12      	bgt.n	80167e6 <fatfs_filename_to_lfn+0xb2>
 80167c0:	19da      	adds	r2, r3, r7
 80167c2:	42aa      	cmp	r2, r5
 80167c4:	daee      	bge.n	80167a4 <fatfs_filename_to_lfn+0x70>
 80167c6:	a90e      	add	r1, sp, #56	; 0x38
 80167c8:	eb01 0183 	add.w	r1, r1, r3, lsl #2
 80167cc:	f851 1c34 	ldr.w	r1, [r1, #-52]
 80167d0:	5cb2      	ldrb	r2, [r6, r2]
 80167d2:	5462      	strb	r2, [r4, r1]
 80167d4:	e7f1      	b.n	80167ba <fatfs_filename_to_lfn+0x86>
 80167d6:	aa0e      	add	r2, sp, #56	; 0x38
 80167d8:	eb02 0283 	add.w	r2, r2, r3, lsl #2
 80167dc:	f852 2c34 	ldr.w	r2, [r2, #-52]
 80167e0:	2100      	movs	r1, #0
 80167e2:	54a1      	strb	r1, [r4, r2]
 80167e4:	e7e9      	b.n	80167ba <fatfs_filename_to_lfn+0x86>
 80167e6:	b00e      	add	sp, #56	; 0x38
 80167e8:	e8bd 87f0 	ldmia.w	sp!, {r4, r5, r6, r7, r8, r9, sl, pc}
 80167ec:	080188f8 	.word	0x080188f8

080167f0 <fatfs_sfn_create_entry>:
 80167f0:	b470      	push	{r4, r5, r6}
 80167f2:	9e03      	ldr	r6, [sp, #12]
 80167f4:	2400      	movs	r4, #0
 80167f6:	e002      	b.n	80167fe <fatfs_sfn_create_entry+0xe>
 80167f8:	5d05      	ldrb	r5, [r0, r4]
 80167fa:	551d      	strb	r5, [r3, r4]
 80167fc:	3401      	adds	r4, #1
 80167fe:	2c0a      	cmp	r4, #10
 8016800:	ddfa      	ble.n	80167f8 <fatfs_sfn_create_entry+0x8>
 8016802:	2000      	movs	r0, #0
 8016804:	7358      	strb	r0, [r3, #13]
 8016806:	7398      	strb	r0, [r3, #14]
 8016808:	73d8      	strb	r0, [r3, #15]
 801680a:	7458      	strb	r0, [r3, #17]
 801680c:	2420      	movs	r4, #32
 801680e:	741c      	strb	r4, [r3, #16]
 8016810:	74d8      	strb	r0, [r3, #19]
 8016812:	749c      	strb	r4, [r3, #18]
 8016814:	7598      	strb	r0, [r3, #22]
 8016816:	75d8      	strb	r0, [r3, #23]
 8016818:	7658      	strb	r0, [r3, #25]
 801681a:	761c      	strb	r4, [r3, #24]
 801681c:	b94e      	cbnz	r6, 8016832 <fatfs_sfn_create_entry+0x42>
 801681e:	72dc      	strb	r4, [r3, #11]
 8016820:	2000      	movs	r0, #0
 8016822:	7318      	strb	r0, [r3, #12]
 8016824:	f3c2 400f 	ubfx	r0, r2, #16, #16
 8016828:	8298      	strh	r0, [r3, #20]
 801682a:	835a      	strh	r2, [r3, #26]
 801682c:	61d9      	str	r1, [r3, #28]
 801682e:	bc70      	pop	{r4, r5, r6}
 8016830:	4770      	bx	lr
 8016832:	2010      	movs	r0, #16
 8016834:	72d8      	strb	r0, [r3, #11]
 8016836:	e7f3      	b.n	8016820 <fatfs_sfn_create_entry+0x30>

08016838 <fatfs_lfn_create_sfn>:
 8016838:	b5f0      	push	{r4, r5, r6, r7, lr}
 801683a:	b083      	sub	sp, #12
 801683c:	4606      	mov	r6, r0
 801683e:	460c      	mov	r4, r1
 8016840:	4608      	mov	r0, r1
 8016842:	f7fb f8b7 	bl	80119b4 <strlen>
 8016846:	7823      	ldrb	r3, [r4, #0]
 8016848:	2b2e      	cmp	r3, #46	; 0x2e
 801684a:	d05a      	beq.n	8016902 <fatfs_lfn_create_sfn+0xca>
 801684c:	4607      	mov	r7, r0
 801684e:	220b      	movs	r2, #11
 8016850:	2120      	movs	r1, #32
 8016852:	4630      	mov	r0, r6
 8016854:	f7fb f87d 	bl	8011952 <memset>
 8016858:	2203      	movs	r2, #3
 801685a:	2120      	movs	r1, #32
 801685c:	a801      	add	r0, sp, #4
 801685e:	f7fb f878 	bl	8011952 <memset>
 8016862:	f04f 35ff 	mov.w	r5, #4294967295	; 0xffffffff
 8016866:	2300      	movs	r3, #0
 8016868:	e000      	b.n	801686c <fatfs_lfn_create_sfn+0x34>
 801686a:	3301      	adds	r3, #1
 801686c:	42bb      	cmp	r3, r7
 801686e:	da04      	bge.n	801687a <fatfs_lfn_create_sfn+0x42>
 8016870:	5ce2      	ldrb	r2, [r4, r3]
 8016872:	2a2e      	cmp	r2, #46	; 0x2e
 8016874:	d1f9      	bne.n	801686a <fatfs_lfn_create_sfn+0x32>
 8016876:	461d      	mov	r5, r3
 8016878:	e7f7      	b.n	801686a <fatfs_lfn_create_sfn+0x32>
 801687a:	f1b5 3fff 	cmp.w	r5, #4294967295	; 0xffffffff
 801687e:	d010      	beq.n	80168a2 <fatfs_lfn_create_sfn+0x6a>
 8016880:	1c69      	adds	r1, r5, #1
 8016882:	460b      	mov	r3, r1
 8016884:	e000      	b.n	8016888 <fatfs_lfn_create_sfn+0x50>
 8016886:	3301      	adds	r3, #1
 8016888:	1cea      	adds	r2, r5, #3
 801688a:	429a      	cmp	r2, r3
 801688c:	db0a      	blt.n	80168a4 <fatfs_lfn_create_sfn+0x6c>
 801688e:	42bb      	cmp	r3, r7
 8016890:	daf9      	bge.n	8016886 <fatfs_lfn_create_sfn+0x4e>
 8016892:	1a5a      	subs	r2, r3, r1
 8016894:	5ce0      	ldrb	r0, [r4, r3]
 8016896:	f10d 0c08 	add.w	ip, sp, #8
 801689a:	4462      	add	r2, ip
 801689c:	f802 0c04 	strb.w	r0, [r2, #-4]
 80168a0:	e7f1      	b.n	8016886 <fatfs_lfn_create_sfn+0x4e>
 80168a2:	463d      	mov	r5, r7
 80168a4:	2100      	movs	r1, #0
 80168a6:	460b      	mov	r3, r1
 80168a8:	e004      	b.n	80168b4 <fatfs_lfn_create_sfn+0x7c>
 80168aa:	5472      	strb	r2, [r6, r1]
 80168ac:	3101      	adds	r1, #1
 80168ae:	2908      	cmp	r1, #8
 80168b0:	d010      	beq.n	80168d4 <fatfs_lfn_create_sfn+0x9c>
 80168b2:	3301      	adds	r3, #1
 80168b4:	42ab      	cmp	r3, r5
 80168b6:	da0d      	bge.n	80168d4 <fatfs_lfn_create_sfn+0x9c>
 80168b8:	5ce2      	ldrb	r2, [r4, r3]
 80168ba:	2a20      	cmp	r2, #32
 80168bc:	d0f7      	beq.n	80168ae <fatfs_lfn_create_sfn+0x76>
 80168be:	2a2e      	cmp	r2, #46	; 0x2e
 80168c0:	d0f5      	beq.n	80168ae <fatfs_lfn_create_sfn+0x76>
 80168c2:	f1a2 0061 	sub.w	r0, r2, #97	; 0x61
 80168c6:	b2c0      	uxtb	r0, r0
 80168c8:	2819      	cmp	r0, #25
 80168ca:	d8ee      	bhi.n	80168aa <fatfs_lfn_create_sfn+0x72>
 80168cc:	3a20      	subs	r2, #32
 80168ce:	5472      	strb	r2, [r6, r1]
 80168d0:	3101      	adds	r1, #1
 80168d2:	e7ec      	b.n	80168ae <fatfs_lfn_create_sfn+0x76>
 80168d4:	2308      	movs	r3, #8
 80168d6:	e001      	b.n	80168dc <fatfs_lfn_create_sfn+0xa4>
 80168d8:	54f2      	strb	r2, [r6, r3]
 80168da:	3301      	adds	r3, #1
 80168dc:	2b0a      	cmp	r3, #10
 80168de:	dc0d      	bgt.n	80168fc <fatfs_lfn_create_sfn+0xc4>
 80168e0:	f1a3 0208 	sub.w	r2, r3, #8
 80168e4:	a902      	add	r1, sp, #8
 80168e6:	440a      	add	r2, r1
 80168e8:	f812 2c04 	ldrb.w	r2, [r2, #-4]
 80168ec:	f1a2 0161 	sub.w	r1, r2, #97	; 0x61
 80168f0:	b2c9      	uxtb	r1, r1
 80168f2:	2919      	cmp	r1, #25
 80168f4:	d8f0      	bhi.n	80168d8 <fatfs_lfn_create_sfn+0xa0>
 80168f6:	3a20      	subs	r2, #32
 80168f8:	54f2      	strb	r2, [r6, r3]
 80168fa:	e7ee      	b.n	80168da <fatfs_lfn_create_sfn+0xa2>
 80168fc:	2001      	movs	r0, #1
 80168fe:	b003      	add	sp, #12
 8016900:	bdf0      	pop	{r4, r5, r6, r7, pc}
 8016902:	2000      	movs	r0, #0
 8016904:	e7fb      	b.n	80168fe <fatfs_lfn_create_sfn+0xc6>

08016906 <fatfs_lfn_generate_tail>:
 8016906:	4b14      	ldr	r3, [pc, #80]	; (8016958 <fatfs_lfn_generate_tail+0x52>)
 8016908:	429a      	cmp	r2, r3
 801690a:	d901      	bls.n	8016910 <fatfs_lfn_generate_tail+0xa>
 801690c:	2000      	movs	r0, #0
 801690e:	4770      	bx	lr
 8016910:	b570      	push	{r4, r5, r6, lr}
 8016912:	b084      	sub	sp, #16
 8016914:	4606      	mov	r6, r0
 8016916:	460d      	mov	r5, r1
 8016918:	4614      	mov	r4, r2
 801691a:	220c      	movs	r2, #12
 801691c:	2100      	movs	r1, #0
 801691e:	a801      	add	r0, sp, #4
 8016920:	f7fb f817 	bl	8011952 <memset>
 8016924:	237e      	movs	r3, #126	; 0x7e
 8016926:	f88d 3004 	strb.w	r3, [sp, #4]
 801692a:	f10d 0105 	add.w	r1, sp, #5
 801692e:	4620      	mov	r0, r4
 8016930:	f7ff fdec 	bl	801650c <fatfs_itoa>
 8016934:	220b      	movs	r2, #11
 8016936:	4629      	mov	r1, r5
 8016938:	4630      	mov	r0, r6
 801693a:	f7fb f811 	bl	8011960 <memcpy>
 801693e:	a801      	add	r0, sp, #4
 8016940:	f7fb f838 	bl	80119b4 <strlen>
 8016944:	4602      	mov	r2, r0
 8016946:	f1c0 0008 	rsb	r0, r0, #8
 801694a:	a901      	add	r1, sp, #4
 801694c:	4430      	add	r0, r6
 801694e:	f7fb f807 	bl	8011960 <memcpy>
 8016952:	2001      	movs	r0, #1
 8016954:	b004      	add	sp, #16
 8016956:	bd70      	pop	{r4, r5, r6, pc}
 8016958:	0001869f 	.word	0x0001869f

0801695c <fatfs_fat_writeback>:
 801695c:	b1d9      	cbz	r1, 8016996 <fatfs_fat_writeback+0x3a>
 801695e:	b570      	push	{r4, r5, r6, lr}
 8016960:	4603      	mov	r3, r0
 8016962:	460c      	mov	r4, r1
 8016964:	f8d1 2204 	ldr.w	r2, [r1, #516]	; 0x204
 8016968:	b18a      	cbz	r2, 801698e <fatfs_fat_writeback+0x32>
 801696a:	6b46      	ldr	r6, [r0, #52]	; 0x34
 801696c:	b166      	cbz	r6, 8016988 <fatfs_fat_writeback+0x2c>
 801696e:	f8d1 0200 	ldr.w	r0, [r1, #512]	; 0x200
 8016972:	6959      	ldr	r1, [r3, #20]
 8016974:	1a45      	subs	r5, r0, r1
 8016976:	3501      	adds	r5, #1
 8016978:	6a1a      	ldr	r2, [r3, #32]
 801697a:	4295      	cmp	r5, r2
 801697c:	d909      	bls.n	8016992 <fatfs_fat_writeback+0x36>
 801697e:	1a09      	subs	r1, r1, r0
 8016980:	440a      	add	r2, r1
 8016982:	4621      	mov	r1, r4
 8016984:	47b0      	blx	r6
 8016986:	b118      	cbz	r0, 8016990 <fatfs_fat_writeback+0x34>
 8016988:	2300      	movs	r3, #0
 801698a:	f8c4 3204 	str.w	r3, [r4, #516]	; 0x204
 801698e:	2001      	movs	r0, #1
 8016990:	bd70      	pop	{r4, r5, r6, pc}
 8016992:	2201      	movs	r2, #1
 8016994:	e7f5      	b.n	8016982 <fatfs_fat_writeback+0x26>
 8016996:	2000      	movs	r0, #0
 8016998:	4770      	bx	lr

0801699a <fatfs_fat_read_sector>:
 801699a:	b5f8      	push	{r3, r4, r5, r6, r7, lr}
 801699c:	4607      	mov	r7, r0
 801699e:	460d      	mov	r5, r1
 80169a0:	f8d0 4250 	ldr.w	r4, [r0, #592]	; 0x250
 80169a4:	2600      	movs	r6, #0
 80169a6:	e005      	b.n	80169b4 <fatfs_fat_read_sector+0x1a>
 80169a8:	f8d4 320c 	ldr.w	r3, [r4, #524]	; 0x20c
 80169ac:	b1a3      	cbz	r3, 80169d8 <fatfs_fat_read_sector+0x3e>
 80169ae:	4626      	mov	r6, r4
 80169b0:	f8d4 420c 	ldr.w	r4, [r4, #524]	; 0x20c
 80169b4:	b134      	cbz	r4, 80169c4 <fatfs_fat_read_sector+0x2a>
 80169b6:	f8d4 3200 	ldr.w	r3, [r4, #512]	; 0x200
 80169ba:	42ab      	cmp	r3, r5
 80169bc:	d8f4      	bhi.n	80169a8 <fatfs_fat_read_sector+0xe>
 80169be:	3301      	adds	r3, #1
 80169c0:	42ab      	cmp	r3, r5
 80169c2:	d9f1      	bls.n	80169a8 <fatfs_fat_read_sector+0xe>
 80169c4:	b184      	cbz	r4, 80169e8 <fatfs_fat_read_sector+0x4e>
 80169c6:	f8d4 3200 	ldr.w	r3, [r4, #512]	; 0x200
 80169ca:	1aeb      	subs	r3, r5, r3
 80169cc:	eb04 2343 	add.w	r3, r4, r3, lsl #9
 80169d0:	f8c4 3208 	str.w	r3, [r4, #520]	; 0x208
 80169d4:	4620      	mov	r0, r4
 80169d6:	bdf8      	pop	{r3, r4, r5, r6, r7, pc}
 80169d8:	b116      	cbz	r6, 80169e0 <fatfs_fat_read_sector+0x46>
 80169da:	f8c6 320c 	str.w	r3, [r6, #524]	; 0x20c
 80169de:	e7e6      	b.n	80169ae <fatfs_fat_read_sector+0x14>
 80169e0:	2300      	movs	r3, #0
 80169e2:	f8c7 3250 	str.w	r3, [r7, #592]	; 0x250
 80169e6:	e7e2      	b.n	80169ae <fatfs_fat_read_sector+0x14>
 80169e8:	f8d7 3250 	ldr.w	r3, [r7, #592]	; 0x250
 80169ec:	f8c6 320c 	str.w	r3, [r6, #524]	; 0x20c
 80169f0:	f8c7 6250 	str.w	r6, [r7, #592]	; 0x250
 80169f4:	f8d6 3204 	ldr.w	r3, [r6, #516]	; 0x204
 80169f8:	b95b      	cbnz	r3, 8016a12 <fatfs_fat_read_sector+0x78>
 80169fa:	f8c6 5200 	str.w	r5, [r6, #512]	; 0x200
 80169fe:	6b3b      	ldr	r3, [r7, #48]	; 0x30
 8016a00:	2201      	movs	r2, #1
 8016a02:	4631      	mov	r1, r6
 8016a04:	4628      	mov	r0, r5
 8016a06:	4798      	blx	r3
 8016a08:	b150      	cbz	r0, 8016a20 <fatfs_fat_read_sector+0x86>
 8016a0a:	f8c6 6208 	str.w	r6, [r6, #520]	; 0x208
 8016a0e:	4634      	mov	r4, r6
 8016a10:	e7e0      	b.n	80169d4 <fatfs_fat_read_sector+0x3a>
 8016a12:	4631      	mov	r1, r6
 8016a14:	4638      	mov	r0, r7
 8016a16:	f7ff ffa1 	bl	801695c <fatfs_fat_writeback>
 8016a1a:	2800      	cmp	r0, #0
 8016a1c:	d1ed      	bne.n	80169fa <fatfs_fat_read_sector+0x60>
 8016a1e:	e7d9      	b.n	80169d4 <fatfs_fat_read_sector+0x3a>
 8016a20:	f04f 33ff 	mov.w	r3, #4294967295	; 0xffffffff
 8016a24:	f8c6 3200 	str.w	r3, [r6, #512]	; 0x200
 8016a28:	e7d4      	b.n	80169d4 <fatfs_fat_read_sector+0x3a>

08016a2a <fatfs_fat_init>:
 8016a2a:	e92d 41f0 	stmdb	sp!, {r4, r5, r6, r7, r8, lr}
 8016a2e:	4606      	mov	r6, r0
 8016a30:	2400      	movs	r4, #0
 8016a32:	f8c0 4250 	str.w	r4, [r0, #592]	; 0x250
 8016a36:	2c00      	cmp	r4, #0
 8016a38:	dd01      	ble.n	8016a3e <fatfs_fat_init+0x14>
 8016a3a:	e8bd 81f0 	ldmia.w	sp!, {r4, r5, r6, r7, r8, pc}
 8016a3e:	eb04 1744 	add.w	r7, r4, r4, lsl #5
 8016a42:	eb06 1707 	add.w	r7, r6, r7, lsl #4
 8016a46:	f04f 33ff 	mov.w	r3, #4294967295	; 0xffffffff
 8016a4a:	f8c7 3454 	str.w	r3, [r7, #1108]	; 0x454
 8016a4e:	f04f 0800 	mov.w	r8, #0
 8016a52:	f8c7 8458 	str.w	r8, [r7, #1112]	; 0x458
 8016a56:	eb04 1544 	add.w	r5, r4, r4, lsl #5
 8016a5a:	012d      	lsls	r5, r5, #4
 8016a5c:	f505 7514 	add.w	r5, r5, #592	; 0x250
 8016a60:	4435      	add	r5, r6
 8016a62:	3504      	adds	r5, #4
 8016a64:	f44f 7200 	mov.w	r2, #512	; 0x200
 8016a68:	4641      	mov	r1, r8
 8016a6a:	4628      	mov	r0, r5
 8016a6c:	f7fa ff71 	bl	8011952 <memset>
 8016a70:	f8c7 845c 	str.w	r8, [r7, #1116]	; 0x45c
 8016a74:	f8d6 3250 	ldr.w	r3, [r6, #592]	; 0x250
 8016a78:	f8c7 3460 	str.w	r3, [r7, #1120]	; 0x460
 8016a7c:	f8c6 5250 	str.w	r5, [r6, #592]	; 0x250
 8016a80:	3401      	adds	r4, #1
 8016a82:	e7d8      	b.n	8016a36 <fatfs_fat_init+0xc>

08016a84 <fatfs_fat_purge>:
 8016a84:	b538      	push	{r3, r4, r5, lr}
 8016a86:	4605      	mov	r5, r0
 8016a88:	f8d0 4250 	ldr.w	r4, [r0, #592]	; 0x250
 8016a8c:	e001      	b.n	8016a92 <fatfs_fat_purge+0xe>
 8016a8e:	f8d4 420c 	ldr.w	r4, [r4, #524]	; 0x20c
 8016a92:	b15c      	cbz	r4, 8016aac <fatfs_fat_purge+0x28>
 8016a94:	f8d4 3204 	ldr.w	r3, [r4, #516]	; 0x204
 8016a98:	2b00      	cmp	r3, #0
 8016a9a:	d0f8      	beq.n	8016a8e <fatfs_fat_purge+0xa>
 8016a9c:	4621      	mov	r1, r4
 8016a9e:	4628      	mov	r0, r5
 8016aa0:	f7ff ff5c 	bl	801695c <fatfs_fat_writeback>
 8016aa4:	4603      	mov	r3, r0
 8016aa6:	2800      	cmp	r0, #0
 8016aa8:	d1f1      	bne.n	8016a8e <fatfs_fat_purge+0xa>
 8016aaa:	e000      	b.n	8016aae <fatfs_fat_purge+0x2a>
 8016aac:	2301      	movs	r3, #1
 8016aae:	4618      	mov	r0, r3
 8016ab0:	bd38      	pop	{r3, r4, r5, pc}

08016ab2 <fatfs_find_next_cluster>:
 8016ab2:	b570      	push	{r4, r5, r6, lr}
 8016ab4:	4604      	mov	r4, r0
 8016ab6:	460d      	mov	r5, r1
 8016ab8:	b901      	cbnz	r1, 8016abc <fatfs_find_next_cluster+0xa>
 8016aba:	2502      	movs	r5, #2
 8016abc:	f894 302d 	ldrb.w	r3, [r4, #45]	; 0x2d
 8016ac0:	b9d3      	cbnz	r3, 8016af8 <fatfs_find_next_cluster+0x46>
 8016ac2:	0a2e      	lsrs	r6, r5, #8
 8016ac4:	6961      	ldr	r1, [r4, #20]
 8016ac6:	4431      	add	r1, r6
 8016ac8:	4620      	mov	r0, r4
 8016aca:	f7ff ff66 	bl	801699a <fatfs_fat_read_sector>
 8016ace:	b380      	cbz	r0, 8016b32 <fatfs_find_next_cluster+0x80>
 8016ad0:	f894 202d 	ldrb.w	r2, [r4, #45]	; 0x2d
 8016ad4:	b992      	cbnz	r2, 8016afc <fatfs_find_next_cluster+0x4a>
 8016ad6:	eba5 2506 	sub.w	r5, r5, r6, lsl #8
 8016ada:	006d      	lsls	r5, r5, #1
 8016adc:	f8d0 3208 	ldr.w	r3, [r0, #520]	; 0x208
 8016ae0:	b2ad      	uxth	r5, r5
 8016ae2:	195a      	adds	r2, r3, r5
 8016ae4:	7852      	ldrb	r2, [r2, #1]
 8016ae6:	5d58      	ldrb	r0, [r3, r5]
 8016ae8:	eb00 2002 	add.w	r0, r0, r2, lsl #8
 8016aec:	f5a0 437f 	sub.w	r3, r0, #65280	; 0xff00
 8016af0:	3bf8      	subs	r3, #248	; 0xf8
 8016af2:	2b07      	cmp	r3, #7
 8016af4:	d920      	bls.n	8016b38 <fatfs_find_next_cluster+0x86>
 8016af6:	bd70      	pop	{r4, r5, r6, pc}
 8016af8:	09ee      	lsrs	r6, r5, #7
 8016afa:	e7e3      	b.n	8016ac4 <fatfs_find_next_cluster+0x12>
 8016afc:	eba5 15c6 	sub.w	r5, r5, r6, lsl #7
 8016b00:	00ad      	lsls	r5, r5, #2
 8016b02:	f8d0 1208 	ldr.w	r1, [r0, #520]	; 0x208
 8016b06:	b2ad      	uxth	r5, r5
 8016b08:	194a      	adds	r2, r1, r5
 8016b0a:	78d0      	ldrb	r0, [r2, #3]
 8016b0c:	7893      	ldrb	r3, [r2, #2]
 8016b0e:	041b      	lsls	r3, r3, #16
 8016b10:	eb03 6300 	add.w	r3, r3, r0, lsl #24
 8016b14:	7852      	ldrb	r2, [r2, #1]
 8016b16:	eb03 2302 	add.w	r3, r3, r2, lsl #8
 8016b1a:	5d4a      	ldrb	r2, [r1, r5]
 8016b1c:	4413      	add	r3, r2
 8016b1e:	f023 4070 	bic.w	r0, r3, #4026531840	; 0xf0000000
 8016b22:	f043 4370 	orr.w	r3, r3, #4026531840	; 0xf0000000
 8016b26:	3308      	adds	r3, #8
 8016b28:	2b07      	cmp	r3, #7
 8016b2a:	d8e4      	bhi.n	8016af6 <fatfs_find_next_cluster+0x44>
 8016b2c:	f04f 30ff 	mov.w	r0, #4294967295	; 0xffffffff
 8016b30:	e7e1      	b.n	8016af6 <fatfs_find_next_cluster+0x44>
 8016b32:	f04f 30ff 	mov.w	r0, #4294967295	; 0xffffffff
 8016b36:	e7de      	b.n	8016af6 <fatfs_find_next_cluster+0x44>
 8016b38:	f04f 30ff 	mov.w	r0, #4294967295	; 0xffffffff
 8016b3c:	e7db      	b.n	8016af6 <fatfs_find_next_cluster+0x44>

08016b3e <fatfs_set_fs_info_next_free_cluster>:
 8016b3e:	f890 302d 	ldrb.w	r3, [r0, #45]	; 0x2d
 8016b42:	b903      	cbnz	r3, 8016b46 <fatfs_set_fs_info_next_free_cluster+0x8>
 8016b44:	4770      	bx	lr
 8016b46:	b570      	push	{r4, r5, r6, lr}
 8016b48:	4604      	mov	r4, r0
 8016b4a:	460d      	mov	r5, r1
 8016b4c:	69c1      	ldr	r1, [r0, #28]
 8016b4e:	8b03      	ldrh	r3, [r0, #24]
 8016b50:	4419      	add	r1, r3
 8016b52:	f7ff ff22 	bl	801699a <fatfs_fat_read_sector>
 8016b56:	4606      	mov	r6, r0
 8016b58:	b330      	cbz	r0, 8016ba8 <fatfs_set_fs_info_next_free_cluster+0x6a>
 8016b5a:	f8d0 3208 	ldr.w	r3, [r0, #520]	; 0x208
 8016b5e:	f883 51ec 	strb.w	r5, [r3, #492]	; 0x1ec
 8016b62:	f8d0 3208 	ldr.w	r3, [r0, #520]	; 0x208
 8016b66:	f3c5 2207 	ubfx	r2, r5, #8, #8
 8016b6a:	f883 21ed 	strb.w	r2, [r3, #493]	; 0x1ed
 8016b6e:	f8d0 3208 	ldr.w	r3, [r0, #520]	; 0x208
 8016b72:	f3c5 4207 	ubfx	r2, r5, #16, #8
 8016b76:	f883 21ee 	strb.w	r2, [r3, #494]	; 0x1ee
 8016b7a:	f8d0 3208 	ldr.w	r3, [r0, #520]	; 0x208
 8016b7e:	0e2a      	lsrs	r2, r5, #24
 8016b80:	f883 21ef 	strb.w	r2, [r3, #495]	; 0x1ef
 8016b84:	2301      	movs	r3, #1
 8016b86:	f8c0 3204 	str.w	r3, [r0, #516]	; 0x204
 8016b8a:	6265      	str	r5, [r4, #36]	; 0x24
 8016b8c:	6b63      	ldr	r3, [r4, #52]	; 0x34
 8016b8e:	b123      	cbz	r3, 8016b9a <fatfs_set_fs_info_next_free_cluster+0x5c>
 8016b90:	2201      	movs	r2, #1
 8016b92:	4601      	mov	r1, r0
 8016b94:	f8d0 0200 	ldr.w	r0, [r0, #512]	; 0x200
 8016b98:	4798      	blx	r3
 8016b9a:	f04f 33ff 	mov.w	r3, #4294967295	; 0xffffffff
 8016b9e:	f8c6 3200 	str.w	r3, [r6, #512]	; 0x200
 8016ba2:	2300      	movs	r3, #0
 8016ba4:	f8c6 3204 	str.w	r3, [r6, #516]	; 0x204
 8016ba8:	bd70      	pop	{r4, r5, r6, pc}

08016baa <fatfs_find_blank_cluster>:
 8016baa:	b5f8      	push	{r3, r4, r5, r6, r7, lr}
 8016bac:	4605      	mov	r5, r0
 8016bae:	460e      	mov	r6, r1
 8016bb0:	4617      	mov	r7, r2
 8016bb2:	e016      	b.n	8016be2 <fatfs_find_blank_cluster+0x38>
 8016bb4:	09f4      	lsrs	r4, r6, #7
 8016bb6:	e019      	b.n	8016bec <fatfs_find_blank_cluster+0x42>
 8016bb8:	eba6 14c4 	sub.w	r4, r6, r4, lsl #7
 8016bbc:	00a4      	lsls	r4, r4, #2
 8016bbe:	f8d0 1208 	ldr.w	r1, [r0, #520]	; 0x208
 8016bc2:	b2a4      	uxth	r4, r4
 8016bc4:	190a      	adds	r2, r1, r4
 8016bc6:	78d0      	ldrb	r0, [r2, #3]
 8016bc8:	7893      	ldrb	r3, [r2, #2]
 8016bca:	041b      	lsls	r3, r3, #16
 8016bcc:	eb03 6300 	add.w	r3, r3, r0, lsl #24
 8016bd0:	7852      	ldrb	r2, [r2, #1]
 8016bd2:	eb03 2302 	add.w	r3, r3, r2, lsl #8
 8016bd6:	5d0a      	ldrb	r2, [r1, r4]
 8016bd8:	4413      	add	r3, r2
 8016bda:	f023 4370 	bic.w	r3, r3, #4026531840	; 0xf0000000
 8016bde:	e01d      	b.n	8016c1c <fatfs_find_blank_cluster+0x72>
 8016be0:	b303      	cbz	r3, 8016c24 <fatfs_find_blank_cluster+0x7a>
 8016be2:	f895 302d 	ldrb.w	r3, [r5, #45]	; 0x2d
 8016be6:	2b00      	cmp	r3, #0
 8016be8:	d1e4      	bne.n	8016bb4 <fatfs_find_blank_cluster+0xa>
 8016bea:	0a34      	lsrs	r4, r6, #8
 8016bec:	6a2b      	ldr	r3, [r5, #32]
 8016bee:	42a3      	cmp	r3, r4
 8016bf0:	d91b      	bls.n	8016c2a <fatfs_find_blank_cluster+0x80>
 8016bf2:	6969      	ldr	r1, [r5, #20]
 8016bf4:	4421      	add	r1, r4
 8016bf6:	4628      	mov	r0, r5
 8016bf8:	f7ff fecf 	bl	801699a <fatfs_fat_read_sector>
 8016bfc:	b1b8      	cbz	r0, 8016c2e <fatfs_find_blank_cluster+0x84>
 8016bfe:	f895 202d 	ldrb.w	r2, [r5, #45]	; 0x2d
 8016c02:	2a00      	cmp	r2, #0
 8016c04:	d1d8      	bne.n	8016bb8 <fatfs_find_blank_cluster+0xe>
 8016c06:	eba6 2404 	sub.w	r4, r6, r4, lsl #8
 8016c0a:	0064      	lsls	r4, r4, #1
 8016c0c:	f8d0 2208 	ldr.w	r2, [r0, #520]	; 0x208
 8016c10:	b2a4      	uxth	r4, r4
 8016c12:	1913      	adds	r3, r2, r4
 8016c14:	7859      	ldrb	r1, [r3, #1]
 8016c16:	5d13      	ldrb	r3, [r2, r4]
 8016c18:	eb03 2301 	add.w	r3, r3, r1, lsl #8
 8016c1c:	2b00      	cmp	r3, #0
 8016c1e:	d0df      	beq.n	8016be0 <fatfs_find_blank_cluster+0x36>
 8016c20:	3601      	adds	r6, #1
 8016c22:	e7dd      	b.n	8016be0 <fatfs_find_blank_cluster+0x36>
 8016c24:	603e      	str	r6, [r7, #0]
 8016c26:	2001      	movs	r0, #1
 8016c28:	e000      	b.n	8016c2c <fatfs_find_blank_cluster+0x82>
 8016c2a:	2000      	movs	r0, #0
 8016c2c:	bdf8      	pop	{r3, r4, r5, r6, r7, pc}
 8016c2e:	2000      	movs	r0, #0
 8016c30:	e7fc      	b.n	8016c2c <fatfs_find_blank_cluster+0x82>

08016c32 <fatfs_fat_set_cluster>:
 8016c32:	b5f8      	push	{r3, r4, r5, r6, r7, lr}
 8016c34:	4606      	mov	r6, r0
 8016c36:	460c      	mov	r4, r1
 8016c38:	4615      	mov	r5, r2
 8016c3a:	f890 302d 	ldrb.w	r3, [r0, #45]	; 0x2d
 8016c3e:	b9db      	cbnz	r3, 8016c78 <fatfs_fat_set_cluster+0x46>
 8016c40:	0a0f      	lsrs	r7, r1, #8
 8016c42:	6971      	ldr	r1, [r6, #20]
 8016c44:	4439      	add	r1, r7
 8016c46:	4630      	mov	r0, r6
 8016c48:	f7ff fea7 	bl	801699a <fatfs_fat_read_sector>
 8016c4c:	4603      	mov	r3, r0
 8016c4e:	b388      	cbz	r0, 8016cb4 <fatfs_fat_set_cluster+0x82>
 8016c50:	f896 202d 	ldrb.w	r2, [r6, #45]	; 0x2d
 8016c54:	b992      	cbnz	r2, 8016c7c <fatfs_fat_set_cluster+0x4a>
 8016c56:	eba4 2407 	sub.w	r4, r4, r7, lsl #8
 8016c5a:	0064      	lsls	r4, r4, #1
 8016c5c:	f8d0 2208 	ldr.w	r2, [r0, #520]	; 0x208
 8016c60:	b2a4      	uxth	r4, r4
 8016c62:	5515      	strb	r5, [r2, r4]
 8016c64:	f8d0 1208 	ldr.w	r1, [r0, #520]	; 0x208
 8016c68:	3401      	adds	r4, #1
 8016c6a:	f3c5 2507 	ubfx	r5, r5, #8, #8
 8016c6e:	550d      	strb	r5, [r1, r4]
 8016c70:	2001      	movs	r0, #1
 8016c72:	f8c3 0204 	str.w	r0, [r3, #516]	; 0x204
 8016c76:	bdf8      	pop	{r3, r4, r5, r6, r7, pc}
 8016c78:	09cf      	lsrs	r7, r1, #7
 8016c7a:	e7e2      	b.n	8016c42 <fatfs_fat_set_cluster+0x10>
 8016c7c:	eba4 14c7 	sub.w	r4, r4, r7, lsl #7
 8016c80:	00a4      	lsls	r4, r4, #2
 8016c82:	f8d0 2208 	ldr.w	r2, [r0, #520]	; 0x208
 8016c86:	b2a4      	uxth	r4, r4
 8016c88:	5515      	strb	r5, [r2, r4]
 8016c8a:	f8d0 1208 	ldr.w	r1, [r0, #520]	; 0x208
 8016c8e:	1c62      	adds	r2, r4, #1
 8016c90:	f3c5 2007 	ubfx	r0, r5, #8, #8
 8016c94:	5488      	strb	r0, [r1, r2]
 8016c96:	f8d3 1208 	ldr.w	r1, [r3, #520]	; 0x208
 8016c9a:	1ca2      	adds	r2, r4, #2
 8016c9c:	f3c5 4007 	ubfx	r0, r5, #16, #8
 8016ca0:	5488      	strb	r0, [r1, r2]
 8016ca2:	f8d3 2208 	ldr.w	r2, [r3, #520]	; 0x208
 8016ca6:	3403      	adds	r4, #3
 8016ca8:	0e2d      	lsrs	r5, r5, #24
 8016caa:	5515      	strb	r5, [r2, r4]
 8016cac:	2001      	movs	r0, #1
 8016cae:	f8c3 0204 	str.w	r0, [r3, #516]	; 0x204
 8016cb2:	e7e0      	b.n	8016c76 <fatfs_fat_set_cluster+0x44>
 8016cb4:	2000      	movs	r0, #0
 8016cb6:	e7de      	b.n	8016c76 <fatfs_fat_set_cluster+0x44>

08016cb8 <fatfs_free_cluster_chain>:
 8016cb8:	b570      	push	{r4, r5, r6, lr}
 8016cba:	4606      	mov	r6, r0
 8016cbc:	460c      	mov	r4, r1
 8016cbe:	1e63      	subs	r3, r4, #1
 8016cc0:	f113 0f03 	cmn.w	r3, #3
 8016cc4:	d80b      	bhi.n	8016cde <fatfs_free_cluster_chain+0x26>
 8016cc6:	4621      	mov	r1, r4
 8016cc8:	4630      	mov	r0, r6
 8016cca:	f7ff fef2 	bl	8016ab2 <fatfs_find_next_cluster>
 8016cce:	4605      	mov	r5, r0
 8016cd0:	2200      	movs	r2, #0
 8016cd2:	4621      	mov	r1, r4
 8016cd4:	4630      	mov	r0, r6
 8016cd6:	f7ff ffac 	bl	8016c32 <fatfs_fat_set_cluster>
 8016cda:	462c      	mov	r4, r5
 8016cdc:	e7ef      	b.n	8016cbe <fatfs_free_cluster_chain+0x6>
 8016cde:	2001      	movs	r0, #1
 8016ce0:	bd70      	pop	{r4, r5, r6, pc}

08016ce2 <fatfs_fat_add_cluster_to_chain>:
 8016ce2:	f1b1 3fff 	cmp.w	r1, #4294967295	; 0xffffffff
 8016ce6:	d01e      	beq.n	8016d26 <fatfs_fat_add_cluster_to_chain+0x44>
 8016ce8:	b570      	push	{r4, r5, r6, lr}
 8016cea:	4605      	mov	r5, r0
 8016cec:	460c      	mov	r4, r1
 8016cee:	4616      	mov	r6, r2
 8016cf0:	f04f 31ff 	mov.w	r1, #4294967295	; 0xffffffff
 8016cf4:	f1b4 3fff 	cmp.w	r4, #4294967295	; 0xffffffff
 8016cf8:	d009      	beq.n	8016d0e <fatfs_fat_add_cluster_to_chain+0x2c>
 8016cfa:	4621      	mov	r1, r4
 8016cfc:	4628      	mov	r0, r5
 8016cfe:	f7ff fed8 	bl	8016ab2 <fatfs_find_next_cluster>
 8016d02:	4621      	mov	r1, r4
 8016d04:	4604      	mov	r4, r0
 8016d06:	2800      	cmp	r0, #0
 8016d08:	d1f4      	bne.n	8016cf4 <fatfs_fat_add_cluster_to_chain+0x12>
 8016d0a:	2000      	movs	r0, #0
 8016d0c:	e00a      	b.n	8016d24 <fatfs_fat_add_cluster_to_chain+0x42>
 8016d0e:	4632      	mov	r2, r6
 8016d10:	4628      	mov	r0, r5
 8016d12:	f7ff ff8e 	bl	8016c32 <fatfs_fat_set_cluster>
 8016d16:	f04f 32ff 	mov.w	r2, #4294967295	; 0xffffffff
 8016d1a:	4631      	mov	r1, r6
 8016d1c:	4628      	mov	r0, r5
 8016d1e:	f7ff ff88 	bl	8016c32 <fatfs_fat_set_cluster>
 8016d22:	2001      	movs	r0, #1
 8016d24:	bd70      	pop	{r4, r5, r6, pc}
 8016d26:	2000      	movs	r0, #0
 8016d28:	4770      	bx	lr

08016d2a <fatfs_count_free_clusters>:
 8016d2a:	b5f8      	push	{r3, r4, r5, r6, r7, lr}
 8016d2c:	4604      	mov	r4, r0
 8016d2e:	2500      	movs	r5, #0
 8016d30:	462e      	mov	r6, r5
 8016d32:	e029      	b.n	8016d88 <fatfs_count_free_clusters+0x5e>
 8016d34:	3302      	adds	r3, #2
 8016d36:	f5b3 7f00 	cmp.w	r3, #512	; 0x200
 8016d3a:	d224      	bcs.n	8016d86 <fatfs_count_free_clusters+0x5c>
 8016d3c:	f894 202d 	ldrb.w	r2, [r4, #45]	; 0x2d
 8016d40:	b962      	cbnz	r2, 8016d5c <fatfs_count_free_clusters+0x32>
 8016d42:	f8d7 0208 	ldr.w	r0, [r7, #520]	; 0x208
 8016d46:	b299      	uxth	r1, r3
 8016d48:	1842      	adds	r2, r0, r1
 8016d4a:	f892 c001 	ldrb.w	ip, [r2, #1]
 8016d4e:	5c42      	ldrb	r2, [r0, r1]
 8016d50:	eb02 220c 	add.w	r2, r2, ip, lsl #8
 8016d54:	2a00      	cmp	r2, #0
 8016d56:	d1ed      	bne.n	8016d34 <fatfs_count_free_clusters+0xa>
 8016d58:	3501      	adds	r5, #1
 8016d5a:	e7eb      	b.n	8016d34 <fatfs_count_free_clusters+0xa>
 8016d5c:	f8d7 c208 	ldr.w	ip, [r7, #520]	; 0x208
 8016d60:	b298      	uxth	r0, r3
 8016d62:	eb0c 0100 	add.w	r1, ip, r0
 8016d66:	f891 e003 	ldrb.w	lr, [r1, #3]
 8016d6a:	788a      	ldrb	r2, [r1, #2]
 8016d6c:	0412      	lsls	r2, r2, #16
 8016d6e:	eb02 620e 	add.w	r2, r2, lr, lsl #24
 8016d72:	7849      	ldrb	r1, [r1, #1]
 8016d74:	eb02 2201 	add.w	r2, r2, r1, lsl #8
 8016d78:	f81c 1000 	ldrb.w	r1, [ip, r0]
 8016d7c:	42ca      	cmn	r2, r1
 8016d7e:	d100      	bne.n	8016d82 <fatfs_count_free_clusters+0x58>
 8016d80:	3501      	adds	r5, #1
 8016d82:	3304      	adds	r3, #4
 8016d84:	e7d7      	b.n	8016d36 <fatfs_count_free_clusters+0xc>
 8016d86:	3601      	adds	r6, #1
 8016d88:	6a23      	ldr	r3, [r4, #32]
 8016d8a:	42b3      	cmp	r3, r6
 8016d8c:	d908      	bls.n	8016da0 <fatfs_count_free_clusters+0x76>
 8016d8e:	6961      	ldr	r1, [r4, #20]
 8016d90:	4431      	add	r1, r6
 8016d92:	4620      	mov	r0, r4
 8016d94:	f7ff fe01 	bl	801699a <fatfs_fat_read_sector>
 8016d98:	4607      	mov	r7, r0
 8016d9a:	b108      	cbz	r0, 8016da0 <fatfs_count_free_clusters+0x76>
 8016d9c:	2300      	movs	r3, #0
 8016d9e:	e7ca      	b.n	8016d36 <fatfs_count_free_clusters+0xc>
 8016da0:	4628      	mov	r0, r5
 8016da2:	bdf8      	pop	{r3, r4, r5, r6, r7, pc}

08016da4 <crc7_one>:
 8016da4:	4048      	eors	r0, r1
 8016da6:	2300      	movs	r3, #0
 8016da8:	e005      	b.n	8016db6 <crc7_one+0x12>
 8016daa:	f080 0089 	eor.w	r0, r0, #137	; 0x89
 8016dae:	0040      	lsls	r0, r0, #1
 8016db0:	b2c0      	uxtb	r0, r0
 8016db2:	3301      	adds	r3, #1
 8016db4:	b2db      	uxtb	r3, r3
 8016db6:	2b07      	cmp	r3, #7
 8016db8:	d803      	bhi.n	8016dc2 <crc7_one+0x1e>
 8016dba:	f010 0f80 	tst.w	r0, #128	; 0x80
 8016dbe:	d0f6      	beq.n	8016dae <crc7_one+0xa>
 8016dc0:	e7f3      	b.n	8016daa <crc7_one+0x6>
 8016dc2:	4770      	bx	lr

08016dc4 <crc7>:
 8016dc4:	b570      	push	{r4, r5, r6, lr}
 8016dc6:	4606      	mov	r6, r0
 8016dc8:	460d      	mov	r5, r1
 8016dca:	2000      	movs	r0, #0
 8016dcc:	4604      	mov	r4, r0
 8016dce:	42ac      	cmp	r4, r5
 8016dd0:	d205      	bcs.n	8016dde <crc7+0x1a>
 8016dd2:	5d31      	ldrb	r1, [r6, r4]
 8016dd4:	f7ff ffe6 	bl	8016da4 <crc7_one>
 8016dd8:	3401      	adds	r4, #1
 8016dda:	b2e4      	uxtb	r4, r4
 8016ddc:	e7f7      	b.n	8016dce <crc7+0xa>
 8016dde:	f3c0 0047 	ubfx	r0, r0, #1, #8
 8016de2:	bd70      	pop	{r4, r5, r6, pc}

08016de4 <crc16_one>:
 8016de4:	0203      	lsls	r3, r0, #8
 8016de6:	ea43 2010 	orr.w	r0, r3, r0, lsr #8
 8016dea:	b280      	uxth	r0, r0
 8016dec:	4041      	eors	r1, r0
 8016dee:	f3c1 1303 	ubfx	r3, r1, #4, #4
 8016df2:	4059      	eors	r1, r3
 8016df4:	ea81 3101 	eor.w	r1, r1, r1, lsl #12
 8016df8:	b20b      	sxth	r3, r1
 8016dfa:	b288      	uxth	r0, r1
 8016dfc:	0140      	lsls	r0, r0, #5
 8016dfe:	f400 50ff 	and.w	r0, r0, #8160	; 0x1fe0
 8016e02:	4058      	eors	r0, r3
 8016e04:	b280      	uxth	r0, r0
 8016e06:	4770      	bx	lr

08016e08 <crc16>:
 8016e08:	b570      	push	{r4, r5, r6, lr}
 8016e0a:	4606      	mov	r6, r0
 8016e0c:	460d      	mov	r5, r1
 8016e0e:	2000      	movs	r0, #0
 8016e10:	4604      	mov	r4, r0
 8016e12:	42ac      	cmp	r4, r5
 8016e14:	d205      	bcs.n	8016e22 <crc16+0x1a>
 8016e16:	5d31      	ldrb	r1, [r6, r4]
 8016e18:	f7ff ffe4 	bl	8016de4 <crc16_one>
 8016e1c:	3401      	adds	r4, #1
 8016e1e:	b2a4      	uxth	r4, r4
 8016e20:	e7f7      	b.n	8016e12 <crc16+0xa>
 8016e22:	bd70      	pop	{r4, r5, r6, pc}

08016e24 <sd_spi_getcardinfo>:
 8016e24:	4800      	ldr	r0, [pc, #0]	; (8016e28 <sd_spi_getcardinfo+0x4>)
 8016e26:	4770      	bx	lr
 8016e28:	20000ffc 	.word	0x20000ffc

08016e2c <reset_prepare>:
 8016e2c:	b510      	push	{r4, lr}
 8016e2e:	f000 fd2d 	bl	801788c <hal_sd_spi_release>
 8016e32:	2400      	movs	r4, #0
 8016e34:	2c09      	cmp	r4, #9
 8016e36:	d805      	bhi.n	8016e44 <reset_prepare+0x18>
 8016e38:	20ff      	movs	r0, #255	; 0xff
 8016e3a:	f000 fd31 	bl	80178a0 <hal_sd_spi_txrx>
 8016e3e:	3401      	adds	r4, #1
 8016e40:	b2e4      	uxtb	r4, r4
 8016e42:	e7f7      	b.n	8016e34 <reset_prepare+0x8>
 8016e44:	bd10      	pop	{r4, pc}

08016e46 <send_command>:
 8016e46:	e92d 41f0 	stmdb	sp!, {r4, r5, r6, r7, r8, lr}
 8016e4a:	b082      	sub	sp, #8
 8016e4c:	4607      	mov	r7, r0
 8016e4e:	4688      	mov	r8, r1
 8016e50:	4614      	mov	r4, r2
 8016e52:	461d      	mov	r5, r3
 8016e54:	20ff      	movs	r0, #255	; 0xff
 8016e56:	f000 fd23 	bl	80178a0 <hal_sd_spi_txrx>
 8016e5a:	20ff      	movs	r0, #255	; 0xff
 8016e5c:	f000 fd20 	bl	80178a0 <hal_sd_spi_txrx>
 8016e60:	1e62      	subs	r2, r4, #1
 8016e62:	2a05      	cmp	r2, #5
 8016e64:	d855      	bhi.n	8016f12 <send_command+0xcc>
 8016e66:	e8df f002 	tbb	[pc, r2]
 8016e6a:	0303      	.short	0x0303
 8016e6c:	2a542a2c 	.word	0x2a542a2c
 8016e70:	2601      	movs	r6, #1
 8016e72:	f047 0340 	orr.w	r3, r7, #64	; 0x40
 8016e76:	f88d 3000 	strb.w	r3, [sp]
 8016e7a:	ea4f 6318 	mov.w	r3, r8, lsr #24
 8016e7e:	f88d 3001 	strb.w	r3, [sp, #1]
 8016e82:	f3c8 4307 	ubfx	r3, r8, #16, #8
 8016e86:	f88d 3002 	strb.w	r3, [sp, #2]
 8016e8a:	f3c8 2307 	ubfx	r3, r8, #8, #8
 8016e8e:	f88d 3003 	strb.w	r3, [sp, #3]
 8016e92:	f88d 8004 	strb.w	r8, [sp, #4]
 8016e96:	2105      	movs	r1, #5
 8016e98:	4668      	mov	r0, sp
 8016e9a:	f7ff ff93 	bl	8016dc4 <crc7>
 8016e9e:	0040      	lsls	r0, r0, #1
 8016ea0:	f040 0001 	orr.w	r0, r0, #1
 8016ea4:	f88d 0005 	strb.w	r0, [sp, #5]
 8016ea8:	2400      	movs	r4, #0
 8016eaa:	2c05      	cmp	r4, #5
 8016eac:	d80b      	bhi.n	8016ec6 <send_command+0x80>
 8016eae:	ab02      	add	r3, sp, #8
 8016eb0:	191a      	adds	r2, r3, r4
 8016eb2:	f812 0c08 	ldrb.w	r0, [r2, #-8]
 8016eb6:	f000 fcf3 	bl	80178a0 <hal_sd_spi_txrx>
 8016eba:	3401      	adds	r4, #1
 8016ebc:	e7f5      	b.n	8016eaa <send_command+0x64>
 8016ebe:	2605      	movs	r6, #5
 8016ec0:	e7d7      	b.n	8016e72 <send_command+0x2c>
 8016ec2:	2602      	movs	r6, #2
 8016ec4:	e7d5      	b.n	8016e72 <send_command+0x2c>
 8016ec6:	2f0c      	cmp	r7, #12
 8016ec8:	d002      	beq.n	8016ed0 <send_command+0x8a>
 8016eca:	20ff      	movs	r0, #255	; 0xff
 8016ecc:	2400      	movs	r4, #0
 8016ece:	e007      	b.n	8016ee0 <send_command+0x9a>
 8016ed0:	20ff      	movs	r0, #255	; 0xff
 8016ed2:	f000 fce5 	bl	80178a0 <hal_sd_spi_txrx>
 8016ed6:	e7f8      	b.n	8016eca <send_command+0x84>
 8016ed8:	20ff      	movs	r0, #255	; 0xff
 8016eda:	f000 fce1 	bl	80178a0 <hal_sd_spi_txrx>
 8016ede:	3401      	adds	r4, #1
 8016ee0:	f5b4 7f7a 	cmp.w	r4, #1000	; 0x3e8
 8016ee4:	d202      	bcs.n	8016eec <send_command+0xa6>
 8016ee6:	f010 0f80 	tst.w	r0, #128	; 0x80
 8016eea:	d1f5      	bne.n	8016ed8 <send_command+0x92>
 8016eec:	f5b4 7f7a 	cmp.w	r4, #1000	; 0x3e8
 8016ef0:	d011      	beq.n	8016f16 <send_command+0xd0>
 8016ef2:	f010 0f04 	tst.w	r0, #4
 8016ef6:	d113      	bne.n	8016f20 <send_command+0xda>
 8016ef8:	f010 0708 	ands.w	r7, r0, #8
 8016efc:	d112      	bne.n	8016f24 <send_command+0xde>
 8016efe:	7028      	strb	r0, [r5, #0]
 8016f00:	2401      	movs	r4, #1
 8016f02:	42a6      	cmp	r6, r4
 8016f04:	d908      	bls.n	8016f18 <send_command+0xd2>
 8016f06:	20ff      	movs	r0, #255	; 0xff
 8016f08:	f000 fcca 	bl	80178a0 <hal_sd_spi_txrx>
 8016f0c:	5528      	strb	r0, [r5, r4]
 8016f0e:	3401      	adds	r4, #1
 8016f10:	e7f7      	b.n	8016f02 <send_command+0xbc>
 8016f12:	270a      	movs	r7, #10
 8016f14:	e000      	b.n	8016f18 <send_command+0xd2>
 8016f16:	2701      	movs	r7, #1
 8016f18:	4638      	mov	r0, r7
 8016f1a:	b002      	add	sp, #8
 8016f1c:	e8bd 81f0 	ldmia.w	sp!, {r4, r5, r6, r7, r8, pc}
 8016f20:	2709      	movs	r7, #9
 8016f22:	e7f9      	b.n	8016f18 <send_command+0xd2>
 8016f24:	2702      	movs	r7, #2
 8016f26:	e7f7      	b.n	8016f18 <send_command+0xd2>

08016f28 <read_ocr>:
 8016f28:	b500      	push	{lr}
 8016f2a:	b083      	sub	sp, #12
 8016f2c:	466b      	mov	r3, sp
 8016f2e:	2204      	movs	r2, #4
 8016f30:	2100      	movs	r1, #0
 8016f32:	203a      	movs	r0, #58	; 0x3a
 8016f34:	f7ff ff87 	bl	8016e46 <send_command>
 8016f38:	b928      	cbnz	r0, 8016f46 <read_ocr+0x1e>
 8016f3a:	f89d 3001 	ldrb.w	r3, [sp, #1]
 8016f3e:	f99d 2001 	ldrsb.w	r2, [sp, #1]
 8016f42:	2a00      	cmp	r2, #0
 8016f44:	db02      	blt.n	8016f4c <read_ocr+0x24>
 8016f46:	b003      	add	sp, #12
 8016f48:	f85d fb04 	ldr.w	pc, [sp], #4
 8016f4c:	f013 0340 	ands.w	r3, r3, #64	; 0x40
 8016f50:	d003      	beq.n	8016f5a <read_ocr+0x32>
 8016f52:	4b04      	ldr	r3, [pc, #16]	; (8016f64 <read_ocr+0x3c>)
 8016f54:	2201      	movs	r2, #1
 8016f56:	701a      	strb	r2, [r3, #0]
 8016f58:	e7f5      	b.n	8016f46 <read_ocr+0x1e>
 8016f5a:	4a02      	ldr	r2, [pc, #8]	; (8016f64 <read_ocr+0x3c>)
 8016f5c:	2100      	movs	r1, #0
 8016f5e:	7011      	strb	r1, [r2, #0]
 8016f60:	4618      	mov	r0, r3
 8016f62:	e7f0      	b.n	8016f46 <read_ocr+0x1e>
 8016f64:	20000ffc 	.word	0x20000ffc

08016f68 <read_data>:
 8016f68:	b570      	push	{r4, r5, r6, lr}
 8016f6a:	4606      	mov	r6, r0
 8016f6c:	460d      	mov	r5, r1
 8016f6e:	20ff      	movs	r0, #255	; 0xff
 8016f70:	2400      	movs	r4, #0
 8016f72:	e003      	b.n	8016f7c <read_data+0x14>
 8016f74:	20ff      	movs	r0, #255	; 0xff
 8016f76:	f000 fc93 	bl	80178a0 <hal_sd_spi_txrx>
 8016f7a:	3401      	adds	r4, #1
 8016f7c:	4b13      	ldr	r3, [pc, #76]	; (8016fcc <read_data+0x64>)
 8016f7e:	429c      	cmp	r4, r3
 8016f80:	d801      	bhi.n	8016f86 <read_data+0x1e>
 8016f82:	28fe      	cmp	r0, #254	; 0xfe
 8016f84:	d1f6      	bne.n	8016f74 <read_data+0xc>
 8016f86:	4b12      	ldr	r3, [pc, #72]	; (8016fd0 <read_data+0x68>)
 8016f88:	429c      	cmp	r4, r3
 8016f8a:	d01b      	beq.n	8016fc4 <read_data+0x5c>
 8016f8c:	2400      	movs	r4, #0
 8016f8e:	42a5      	cmp	r5, r4
 8016f90:	d905      	bls.n	8016f9e <read_data+0x36>
 8016f92:	20ff      	movs	r0, #255	; 0xff
 8016f94:	f000 fc84 	bl	80178a0 <hal_sd_spi_txrx>
 8016f98:	5530      	strb	r0, [r6, r4]
 8016f9a:	3401      	adds	r4, #1
 8016f9c:	e7f7      	b.n	8016f8e <read_data+0x26>
 8016f9e:	20ff      	movs	r0, #255	; 0xff
 8016fa0:	f000 fc7e 	bl	80178a0 <hal_sd_spi_txrx>
 8016fa4:	b284      	uxth	r4, r0
 8016fa6:	0224      	lsls	r4, r4, #8
 8016fa8:	b2a4      	uxth	r4, r4
 8016faa:	20ff      	movs	r0, #255	; 0xff
 8016fac:	f000 fc78 	bl	80178a0 <hal_sd_spi_txrx>
 8016fb0:	b280      	uxth	r0, r0
 8016fb2:	4304      	orrs	r4, r0
 8016fb4:	4629      	mov	r1, r5
 8016fb6:	4630      	mov	r0, r6
 8016fb8:	f7ff ff26 	bl	8016e08 <crc16>
 8016fbc:	4284      	cmp	r4, r0
 8016fbe:	d103      	bne.n	8016fc8 <read_data+0x60>
 8016fc0:	2000      	movs	r0, #0
 8016fc2:	bd70      	pop	{r4, r5, r6, pc}
 8016fc4:	2003      	movs	r0, #3
 8016fc6:	e7fc      	b.n	8016fc2 <read_data+0x5a>
 8016fc8:	2004      	movs	r0, #4
 8016fca:	e7fa      	b.n	8016fc2 <read_data+0x5a>
 8016fcc:	0001869f 	.word	0x0001869f
 8016fd0:	000186a0 	.word	0x000186a0

08016fd4 <read_scr>:
 8016fd4:	b500      	push	{lr}
 8016fd6:	b083      	sub	sp, #12
 8016fd8:	466b      	mov	r3, sp
 8016fda:	2201      	movs	r2, #1
 8016fdc:	2100      	movs	r1, #0
 8016fde:	2037      	movs	r0, #55	; 0x37
 8016fe0:	f7ff ff31 	bl	8016e46 <send_command>
 8016fe4:	b110      	cbz	r0, 8016fec <read_scr+0x18>
 8016fe6:	b003      	add	sp, #12
 8016fe8:	f85d fb04 	ldr.w	pc, [sp], #4
 8016fec:	466b      	mov	r3, sp
 8016fee:	2201      	movs	r2, #1
 8016ff0:	2100      	movs	r1, #0
 8016ff2:	2033      	movs	r0, #51	; 0x33
 8016ff4:	f7ff ff27 	bl	8016e46 <send_command>
 8016ff8:	2800      	cmp	r0, #0
 8016ffa:	d1f4      	bne.n	8016fe6 <read_scr+0x12>
 8016ffc:	2108      	movs	r1, #8
 8016ffe:	4668      	mov	r0, sp
 8017000:	f7ff ffb2 	bl	8016f68 <read_data>
 8017004:	2800      	cmp	r0, #0
 8017006:	d1ee      	bne.n	8016fe6 <read_scr+0x12>
 8017008:	f89d 3001 	ldrb.w	r3, [sp, #1]
 801700c:	f003 0370 	and.w	r3, r3, #112	; 0x70
 8017010:	2b20      	cmp	r3, #32
 8017012:	d007      	beq.n	8017024 <read_scr+0x50>
 8017014:	2b30      	cmp	r3, #48	; 0x30
 8017016:	d009      	beq.n	801702c <read_scr+0x58>
 8017018:	2b40      	cmp	r3, #64	; 0x40
 801701a:	d1e4      	bne.n	8016fe6 <read_scr+0x12>
 801701c:	4b05      	ldr	r3, [pc, #20]	; (8017034 <read_scr+0x60>)
 801701e:	2202      	movs	r2, #2
 8017020:	701a      	strb	r2, [r3, #0]
 8017022:	e7e0      	b.n	8016fe6 <read_scr+0x12>
 8017024:	4a03      	ldr	r2, [pc, #12]	; (8017034 <read_scr+0x60>)
 8017026:	2100      	movs	r1, #0
 8017028:	7011      	strb	r1, [r2, #0]
 801702a:	e7f3      	b.n	8017014 <read_scr+0x40>
 801702c:	4a01      	ldr	r2, [pc, #4]	; (8017034 <read_scr+0x60>)
 801702e:	2101      	movs	r1, #1
 8017030:	7011      	strb	r1, [r2, #0]
 8017032:	e7f1      	b.n	8017018 <read_scr+0x44>
 8017034:	20000ffc 	.word	0x20000ffc

08017038 <read_csd>:
 8017038:	b510      	push	{r4, lr}
 801703a:	b084      	sub	sp, #16
 801703c:	466b      	mov	r3, sp
 801703e:	2201      	movs	r2, #1
 8017040:	2100      	movs	r1, #0
 8017042:	2009      	movs	r0, #9
 8017044:	f7ff feff 	bl	8016e46 <send_command>
 8017048:	b108      	cbz	r0, 801704e <read_csd+0x16>
 801704a:	b004      	add	sp, #16
 801704c:	bd10      	pop	{r4, pc}
 801704e:	2110      	movs	r1, #16
 8017050:	4668      	mov	r0, sp
 8017052:	f7ff ff89 	bl	8016f68 <read_data>
 8017056:	2800      	cmp	r0, #0
 8017058:	d1f7      	bne.n	801704a <read_csd+0x12>
 801705a:	4b20      	ldr	r3, [pc, #128]	; (80170dc <read_csd+0xa4>)
 801705c:	7819      	ldrb	r1, [r3, #0]
 801705e:	bb39      	cbnz	r1, 80170b0 <read_csd+0x78>
 8017060:	f89d 3005 	ldrb.w	r3, [sp, #5]
 8017064:	f003 000f 	and.w	r0, r3, #15
 8017068:	f89d 3006 	ldrb.w	r3, [sp, #6]
 801706c:	029b      	lsls	r3, r3, #10
 801706e:	f403 6340 	and.w	r3, r3, #3072	; 0xc00
 8017072:	f89d 2007 	ldrb.w	r2, [sp, #7]
 8017076:	ea43 0382 	orr.w	r3, r3, r2, lsl #2
 801707a:	f89d 2008 	ldrb.w	r2, [sp, #8]
 801707e:	ea43 1392 	orr.w	r3, r3, r2, lsr #6
 8017082:	f89d 2009 	ldrb.w	r2, [sp, #9]
 8017086:	0052      	lsls	r2, r2, #1
 8017088:	f002 0206 	and.w	r2, r2, #6
 801708c:	f89d 400a 	ldrb.w	r4, [sp, #10]
 8017090:	ea42 12d4 	orr.w	r2, r2, r4, lsr #7
 8017094:	3301      	adds	r3, #1
 8017096:	3202      	adds	r2, #2
 8017098:	4093      	lsls	r3, r2
 801709a:	4083      	lsls	r3, r0
 801709c:	0a5b      	lsrs	r3, r3, #9
 801709e:	4a0f      	ldr	r2, [pc, #60]	; (80170dc <read_csd+0xa4>)
 80170a0:	6093      	str	r3, [r2, #8]
 80170a2:	f44f 7300 	mov.w	r3, #512	; 0x200
 80170a6:	60d3      	str	r3, [r2, #12]
 80170a8:	2301      	movs	r3, #1
 80170aa:	6113      	str	r3, [r2, #16]
 80170ac:	4608      	mov	r0, r1
 80170ae:	e7cc      	b.n	801704a <read_csd+0x12>
 80170b0:	f89d 3007 	ldrb.w	r3, [sp, #7]
 80170b4:	041b      	lsls	r3, r3, #16
 80170b6:	f403 137c 	and.w	r3, r3, #4128768	; 0x3f0000
 80170ba:	f89d 2008 	ldrb.w	r2, [sp, #8]
 80170be:	ea43 2202 	orr.w	r2, r3, r2, lsl #8
 80170c2:	f89d 3009 	ldrb.w	r3, [sp, #9]
 80170c6:	4313      	orrs	r3, r2
 80170c8:	3301      	adds	r3, #1
 80170ca:	029b      	lsls	r3, r3, #10
 80170cc:	4a03      	ldr	r2, [pc, #12]	; (80170dc <read_csd+0xa4>)
 80170ce:	6093      	str	r3, [r2, #8]
 80170d0:	f44f 7300 	mov.w	r3, #512	; 0x200
 80170d4:	60d3      	str	r3, [r2, #12]
 80170d6:	2301      	movs	r3, #1
 80170d8:	6113      	str	r3, [r2, #16]
 80170da:	e7b6      	b.n	801704a <read_csd+0x12>
 80170dc:	20000ffc 	.word	0x20000ffc

080170e0 <read>:
 80170e0:	b5f0      	push	{r4, r5, r6, r7, lr}
 80170e2:	b083      	sub	sp, #12
 80170e4:	4604      	mov	r4, r0
 80170e6:	460d      	mov	r5, r1
 80170e8:	4616      	mov	r6, r2
 80170ea:	ab01      	add	r3, sp, #4
 80170ec:	2203      	movs	r2, #3
 80170ee:	2100      	movs	r1, #0
 80170f0:	200d      	movs	r0, #13
 80170f2:	f7ff fea8 	bl	8016e46 <send_command>
 80170f6:	4603      	mov	r3, r0
 80170f8:	bbc0      	cbnz	r0, 801716c <read+0x8c>
 80170fa:	f89d 3004 	ldrb.w	r3, [sp, #4]
 80170fe:	bba3      	cbnz	r3, 801716a <read+0x8a>
 8017100:	f89d 7005 	ldrb.w	r7, [sp, #5]
 8017104:	bbaf      	cbnz	r7, 8017172 <read+0x92>
 8017106:	4b1c      	ldr	r3, [pc, #112]	; (8017178 <read+0x98>)
 8017108:	781b      	ldrb	r3, [r3, #0]
 801710a:	b903      	cbnz	r3, 801710e <read+0x2e>
 801710c:	026d      	lsls	r5, r5, #9
 801710e:	2e01      	cmp	r6, #1
 8017110:	d015      	beq.n	801713e <read+0x5e>
 8017112:	ab01      	add	r3, sp, #4
 8017114:	2201      	movs	r2, #1
 8017116:	4629      	mov	r1, r5
 8017118:	2012      	movs	r0, #18
 801711a:	f7ff fe94 	bl	8016e46 <send_command>
 801711e:	4603      	mov	r3, r0
 8017120:	bb20      	cbnz	r0, 801716c <read+0x8c>
 8017122:	2500      	movs	r5, #0
 8017124:	42b5      	cmp	r5, r6
 8017126:	d214      	bcs.n	8017152 <read+0x72>
 8017128:	f44f 7100 	mov.w	r1, #512	; 0x200
 801712c:	4620      	mov	r0, r4
 801712e:	f7ff ff1b 	bl	8016f68 <read_data>
 8017132:	4603      	mov	r3, r0
 8017134:	b9d0      	cbnz	r0, 801716c <read+0x8c>
 8017136:	f504 7400 	add.w	r4, r4, #512	; 0x200
 801713a:	3501      	adds	r5, #1
 801713c:	e7f2      	b.n	8017124 <read+0x44>
 801713e:	ab01      	add	r3, sp, #4
 8017140:	2201      	movs	r2, #1
 8017142:	4629      	mov	r1, r5
 8017144:	2011      	movs	r0, #17
 8017146:	f7ff fe7e 	bl	8016e46 <send_command>
 801714a:	4603      	mov	r3, r0
 801714c:	2800      	cmp	r0, #0
 801714e:	d0e8      	beq.n	8017122 <read+0x42>
 8017150:	e00c      	b.n	801716c <read+0x8c>
 8017152:	2e01      	cmp	r6, #1
 8017154:	d801      	bhi.n	801715a <read+0x7a>
 8017156:	463b      	mov	r3, r7
 8017158:	e008      	b.n	801716c <read+0x8c>
 801715a:	ab01      	add	r3, sp, #4
 801715c:	2202      	movs	r2, #2
 801715e:	2100      	movs	r1, #0
 8017160:	200c      	movs	r0, #12
 8017162:	f7ff fe70 	bl	8016e46 <send_command>
 8017166:	4603      	mov	r3, r0
 8017168:	e000      	b.n	801716c <read+0x8c>
 801716a:	230b      	movs	r3, #11
 801716c:	4618      	mov	r0, r3
 801716e:	b003      	add	sp, #12
 8017170:	bdf0      	pop	{r4, r5, r6, r7, pc}
 8017172:	230b      	movs	r3, #11
 8017174:	e7fa      	b.n	801716c <read+0x8c>
 8017176:	bf00      	nop
 8017178:	20000ffc 	.word	0x20000ffc

0801717c <sd_spi_read>:
 801717c:	b570      	push	{r4, r5, r6, lr}
 801717e:	4604      	mov	r4, r0
 8017180:	460d      	mov	r5, r1
 8017182:	4616      	mov	r6, r2
 8017184:	f000 fb78 	bl	8017878 <hal_sd_spi_select>
 8017188:	4632      	mov	r2, r6
 801718a:	4629      	mov	r1, r5
 801718c:	4620      	mov	r0, r4
 801718e:	f7ff ffa7 	bl	80170e0 <read>
 8017192:	4604      	mov	r4, r0
 8017194:	f000 fb7a 	bl	801788c <hal_sd_spi_release>
 8017198:	4620      	mov	r0, r4
 801719a:	bd70      	pop	{r4, r5, r6, pc}

0801719c <write_data>:
 801719c:	b5f8      	push	{r3, r4, r5, r6, r7, lr}
 801719e:	4606      	mov	r6, r0
 80171a0:	460d      	mov	r5, r1
 80171a2:	f7ff fe31 	bl	8016e08 <crc16>
 80171a6:	4607      	mov	r7, r0
 80171a8:	2400      	movs	r4, #0
 80171aa:	42a5      	cmp	r5, r4
 80171ac:	d904      	bls.n	80171b8 <write_data+0x1c>
 80171ae:	5d30      	ldrb	r0, [r6, r4]
 80171b0:	f000 fb76 	bl	80178a0 <hal_sd_spi_txrx>
 80171b4:	3401      	adds	r4, #1
 80171b6:	e7f8      	b.n	80171aa <write_data+0xe>
 80171b8:	f3c7 2007 	ubfx	r0, r7, #8, #8
 80171bc:	f000 fb70 	bl	80178a0 <hal_sd_spi_txrx>
 80171c0:	b2f8      	uxtb	r0, r7
 80171c2:	f000 fb6d 	bl	80178a0 <hal_sd_spi_txrx>
 80171c6:	20ff      	movs	r0, #255	; 0xff
 80171c8:	2400      	movs	r4, #0
 80171ca:	4b16      	ldr	r3, [pc, #88]	; (8017224 <write_data+0x88>)
 80171cc:	429c      	cmp	r4, r3
 80171ce:	d806      	bhi.n	80171de <write_data+0x42>
 80171d0:	28ff      	cmp	r0, #255	; 0xff
 80171d2:	d104      	bne.n	80171de <write_data+0x42>
 80171d4:	20ff      	movs	r0, #255	; 0xff
 80171d6:	f000 fb63 	bl	80178a0 <hal_sd_spi_txrx>
 80171da:	3401      	adds	r4, #1
 80171dc:	e7f5      	b.n	80171ca <write_data+0x2e>
 80171de:	4b12      	ldr	r3, [pc, #72]	; (8017228 <write_data+0x8c>)
 80171e0:	429c      	cmp	r4, r3
 80171e2:	d016      	beq.n	8017212 <write_data+0x76>
 80171e4:	f000 001f 	and.w	r0, r0, #31
 80171e8:	280b      	cmp	r0, #11
 80171ea:	d014      	beq.n	8017216 <write_data+0x7a>
 80171ec:	280d      	cmp	r0, #13
 80171ee:	d014      	beq.n	801721a <write_data+0x7e>
 80171f0:	2000      	movs	r0, #0
 80171f2:	4604      	mov	r4, r0
 80171f4:	e003      	b.n	80171fe <write_data+0x62>
 80171f6:	20ff      	movs	r0, #255	; 0xff
 80171f8:	f000 fb52 	bl	80178a0 <hal_sd_spi_txrx>
 80171fc:	3401      	adds	r4, #1
 80171fe:	4b09      	ldr	r3, [pc, #36]	; (8017224 <write_data+0x88>)
 8017200:	429c      	cmp	r4, r3
 8017202:	d801      	bhi.n	8017208 <write_data+0x6c>
 8017204:	28ff      	cmp	r0, #255	; 0xff
 8017206:	d1f6      	bne.n	80171f6 <write_data+0x5a>
 8017208:	4b07      	ldr	r3, [pc, #28]	; (8017228 <write_data+0x8c>)
 801720a:	429c      	cmp	r4, r3
 801720c:	d007      	beq.n	801721e <write_data+0x82>
 801720e:	2000      	movs	r0, #0
 8017210:	bdf8      	pop	{r3, r4, r5, r6, r7, pc}
 8017212:	2003      	movs	r0, #3
 8017214:	e7fc      	b.n	8017210 <write_data+0x74>
 8017216:	2004      	movs	r0, #4
 8017218:	e7fa      	b.n	8017210 <write_data+0x74>
 801721a:	2008      	movs	r0, #8
 801721c:	e7f8      	b.n	8017210 <write_data+0x74>
 801721e:	2003      	movs	r0, #3
 8017220:	e7f6      	b.n	8017210 <write_data+0x74>
 8017222:	bf00      	nop
 8017224:	0001869f 	.word	0x0001869f
 8017228:	000186a0 	.word	0x000186a0

0801722c <write_data_token>:
 801722c:	b510      	push	{r4, lr}
 801722e:	4604      	mov	r4, r0
 8017230:	f000 fb36 	bl	80178a0 <hal_sd_spi_txrx>
 8017234:	2cfd      	cmp	r4, #253	; 0xfd
 8017236:	d00f      	beq.n	8017258 <write_data_token+0x2c>
 8017238:	2000      	movs	r0, #0
 801723a:	bd10      	pop	{r4, pc}
 801723c:	20ff      	movs	r0, #255	; 0xff
 801723e:	f000 fb2f 	bl	80178a0 <hal_sd_spi_txrx>
 8017242:	3401      	adds	r4, #1
 8017244:	4b07      	ldr	r3, [pc, #28]	; (8017264 <write_data_token+0x38>)
 8017246:	429c      	cmp	r4, r3
 8017248:	d801      	bhi.n	801724e <write_data_token+0x22>
 801724a:	28ff      	cmp	r0, #255	; 0xff
 801724c:	d1f6      	bne.n	801723c <write_data_token+0x10>
 801724e:	4b06      	ldr	r3, [pc, #24]	; (8017268 <write_data_token+0x3c>)
 8017250:	429c      	cmp	r4, r3
 8017252:	d004      	beq.n	801725e <write_data_token+0x32>
 8017254:	2000      	movs	r0, #0
 8017256:	e7f0      	b.n	801723a <write_data_token+0xe>
 8017258:	2000      	movs	r0, #0
 801725a:	4604      	mov	r4, r0
 801725c:	e7f2      	b.n	8017244 <write_data_token+0x18>
 801725e:	2003      	movs	r0, #3
 8017260:	e7eb      	b.n	801723a <write_data_token+0xe>
 8017262:	bf00      	nop
 8017264:	0001869f 	.word	0x0001869f
 8017268:	000186a0 	.word	0x000186a0

0801726c <write>:
 801726c:	b5f0      	push	{r4, r5, r6, r7, lr}
 801726e:	b083      	sub	sp, #12
 8017270:	4604      	mov	r4, r0
 8017272:	460e      	mov	r6, r1
 8017274:	4615      	mov	r5, r2
 8017276:	ab01      	add	r3, sp, #4
 8017278:	2203      	movs	r2, #3
 801727a:	2100      	movs	r1, #0
 801727c:	200d      	movs	r0, #13
 801727e:	f7ff fde2 	bl	8016e46 <send_command>
 8017282:	4603      	mov	r3, r0
 8017284:	2800      	cmp	r0, #0
 8017286:	d14f      	bne.n	8017328 <write+0xbc>
 8017288:	f89d 3004 	ldrb.w	r3, [sp, #4]
 801728c:	2b00      	cmp	r3, #0
 801728e:	d14a      	bne.n	8017326 <write+0xba>
 8017290:	f89d 7005 	ldrb.w	r7, [sp, #5]
 8017294:	2f00      	cmp	r7, #0
 8017296:	d14a      	bne.n	801732e <write+0xc2>
 8017298:	4b26      	ldr	r3, [pc, #152]	; (8017334 <write+0xc8>)
 801729a:	781b      	ldrb	r3, [r3, #0]
 801729c:	b903      	cbnz	r3, 80172a0 <write+0x34>
 801729e:	0276      	lsls	r6, r6, #9
 80172a0:	2d01      	cmp	r5, #1
 80172a2:	d018      	beq.n	80172d6 <write+0x6a>
 80172a4:	ab01      	add	r3, sp, #4
 80172a6:	2201      	movs	r2, #1
 80172a8:	2100      	movs	r1, #0
 80172aa:	2037      	movs	r0, #55	; 0x37
 80172ac:	f7ff fdcb 	bl	8016e46 <send_command>
 80172b0:	4603      	mov	r3, r0
 80172b2:	bbc8      	cbnz	r0, 8017328 <write+0xbc>
 80172b4:	ab01      	add	r3, sp, #4
 80172b6:	2201      	movs	r2, #1
 80172b8:	4629      	mov	r1, r5
 80172ba:	2017      	movs	r0, #23
 80172bc:	f7ff fdc3 	bl	8016e46 <send_command>
 80172c0:	4603      	mov	r3, r0
 80172c2:	bb88      	cbnz	r0, 8017328 <write+0xbc>
 80172c4:	ab01      	add	r3, sp, #4
 80172c6:	2201      	movs	r2, #1
 80172c8:	4631      	mov	r1, r6
 80172ca:	2019      	movs	r0, #25
 80172cc:	f7ff fdbb 	bl	8016e46 <send_command>
 80172d0:	4603      	mov	r3, r0
 80172d2:	b140      	cbz	r0, 80172e6 <write+0x7a>
 80172d4:	e028      	b.n	8017328 <write+0xbc>
 80172d6:	ab01      	add	r3, sp, #4
 80172d8:	2201      	movs	r2, #1
 80172da:	4631      	mov	r1, r6
 80172dc:	2018      	movs	r0, #24
 80172de:	f7ff fdb2 	bl	8016e46 <send_command>
 80172e2:	4603      	mov	r3, r0
 80172e4:	bb00      	cbnz	r0, 8017328 <write+0xbc>
 80172e6:	2600      	movs	r6, #0
 80172e8:	e00c      	b.n	8017304 <write+0x98>
 80172ea:	20fc      	movs	r0, #252	; 0xfc
 80172ec:	f7ff ff9e 	bl	801722c <write_data_token>
 80172f0:	f44f 7100 	mov.w	r1, #512	; 0x200
 80172f4:	4620      	mov	r0, r4
 80172f6:	f7ff ff51 	bl	801719c <write_data>
 80172fa:	4603      	mov	r3, r0
 80172fc:	b9a0      	cbnz	r0, 8017328 <write+0xbc>
 80172fe:	f504 7400 	add.w	r4, r4, #512	; 0x200
 8017302:	3601      	adds	r6, #1
 8017304:	42ae      	cmp	r6, r5
 8017306:	d205      	bcs.n	8017314 <write+0xa8>
 8017308:	2d01      	cmp	r5, #1
 801730a:	d1ee      	bne.n	80172ea <write+0x7e>
 801730c:	20fe      	movs	r0, #254	; 0xfe
 801730e:	f7ff ff8d 	bl	801722c <write_data_token>
 8017312:	e7ed      	b.n	80172f0 <write+0x84>
 8017314:	2d01      	cmp	r5, #1
 8017316:	d801      	bhi.n	801731c <write+0xb0>
 8017318:	463b      	mov	r3, r7
 801731a:	e005      	b.n	8017328 <write+0xbc>
 801731c:	20fd      	movs	r0, #253	; 0xfd
 801731e:	f7ff ff85 	bl	801722c <write_data_token>
 8017322:	463b      	mov	r3, r7
 8017324:	e000      	b.n	8017328 <write+0xbc>
 8017326:	230b      	movs	r3, #11
 8017328:	4618      	mov	r0, r3
 801732a:	b003      	add	sp, #12
 801732c:	bdf0      	pop	{r4, r5, r6, r7, pc}
 801732e:	230b      	movs	r3, #11
 8017330:	e7fa      	b.n	8017328 <write+0xbc>
 8017332:	bf00      	nop
 8017334:	20000ffc 	.word	0x20000ffc

08017338 <sd_spi_write>:
 8017338:	b570      	push	{r4, r5, r6, lr}
 801733a:	4604      	mov	r4, r0
 801733c:	460d      	mov	r5, r1
 801733e:	4616      	mov	r6, r2
 8017340:	f000 fa9a 	bl	8017878 <hal_sd_spi_select>
 8017344:	4632      	mov	r2, r6
 8017346:	4629      	mov	r1, r5
 8017348:	4620      	mov	r0, r4
 801734a:	f7ff ff8f 	bl	801726c <write>
 801734e:	4604      	mov	r4, r0
 8017350:	f000 fa9c 	bl	801788c <hal_sd_spi_release>
 8017354:	4620      	mov	r0, r4
 8017356:	bd70      	pop	{r4, r5, r6, pc}

08017358 <reset_idle>:
 8017358:	b510      	push	{r4, lr}
 801735a:	b084      	sub	sp, #16
 801735c:	466b      	mov	r3, sp
 801735e:	2201      	movs	r2, #1
 8017360:	2100      	movs	r1, #0
 8017362:	4608      	mov	r0, r1
 8017364:	f7ff fd6f 	bl	8016e46 <send_command>
 8017368:	4603      	mov	r3, r0
 801736a:	b110      	cbz	r0, 8017372 <reset_idle+0x1a>
 801736c:	4618      	mov	r0, r3
 801736e:	b004      	add	sp, #16
 8017370:	bd10      	pop	{r4, pc}
 8017372:	466b      	mov	r3, sp
 8017374:	2206      	movs	r2, #6
 8017376:	f44f 71d5 	mov.w	r1, #426	; 0x1aa
 801737a:	2008      	movs	r0, #8
 801737c:	f7ff fd63 	bl	8016e46 <send_command>
 8017380:	4603      	mov	r3, r0
 8017382:	2809      	cmp	r0, #9
 8017384:	d001      	beq.n	801738a <reset_idle+0x32>
 8017386:	2800      	cmp	r0, #0
 8017388:	d1f0      	bne.n	801736c <reset_idle+0x14>
 801738a:	2b09      	cmp	r3, #9
 801738c:	d031      	beq.n	80173f2 <reset_idle+0x9a>
 801738e:	f89d 2001 	ldrb.w	r2, [sp, #1]
 8017392:	f89d 3002 	ldrb.w	r3, [sp, #2]
 8017396:	041b      	lsls	r3, r3, #16
 8017398:	ea43 6302 	orr.w	r3, r3, r2, lsl #24
 801739c:	f89d 2003 	ldrb.w	r2, [sp, #3]
 80173a0:	ea43 2302 	orr.w	r3, r3, r2, lsl #8
 80173a4:	f89d 2004 	ldrb.w	r2, [sp, #4]
 80173a8:	4313      	orrs	r3, r2
 80173aa:	f5b3 7fd5 	cmp.w	r3, #426	; 0x1aa
 80173ae:	d169      	bne.n	8017484 <reset_idle+0x12c>
 80173b0:	2400      	movs	r4, #0
 80173b2:	e040      	b.n	8017436 <reset_idle+0xde>
 80173b4:	2064      	movs	r0, #100	; 0x64
 80173b6:	f000 fbd5 	bl	8017b64 <delay>
 80173ba:	3401      	adds	r4, #1
 80173bc:	f5b4 7f7a 	cmp.w	r4, #1000	; 0x3e8
 80173c0:	d219      	bcs.n	80173f6 <reset_idle+0x9e>
 80173c2:	f89d 3000 	ldrb.w	r3, [sp]
 80173c6:	f013 0f01 	tst.w	r3, #1
 80173ca:	d014      	beq.n	80173f6 <reset_idle+0x9e>
 80173cc:	466b      	mov	r3, sp
 80173ce:	2201      	movs	r2, #1
 80173d0:	2100      	movs	r1, #0
 80173d2:	2037      	movs	r0, #55	; 0x37
 80173d4:	f7ff fd37 	bl	8016e46 <send_command>
 80173d8:	4603      	mov	r3, r0
 80173da:	2800      	cmp	r0, #0
 80173dc:	d1c6      	bne.n	801736c <reset_idle+0x14>
 80173de:	466b      	mov	r3, sp
 80173e0:	2201      	movs	r2, #1
 80173e2:	2100      	movs	r1, #0
 80173e4:	2029      	movs	r0, #41	; 0x29
 80173e6:	f7ff fd2e 	bl	8016e46 <send_command>
 80173ea:	4603      	mov	r3, r0
 80173ec:	2800      	cmp	r0, #0
 80173ee:	d0e1      	beq.n	80173b4 <reset_idle+0x5c>
 80173f0:	e7bc      	b.n	801736c <reset_idle+0x14>
 80173f2:	2400      	movs	r4, #0
 80173f4:	e7e2      	b.n	80173bc <reset_idle+0x64>
 80173f6:	f5b4 7f7a 	cmp.w	r4, #1000	; 0x3e8
 80173fa:	d041      	beq.n	8017480 <reset_idle+0x128>
 80173fc:	4b23      	ldr	r3, [pc, #140]	; (801748c <reset_idle+0x134>)
 80173fe:	2200      	movs	r2, #0
 8017400:	701a      	strb	r2, [r3, #0]
 8017402:	4b22      	ldr	r3, [pc, #136]	; (801748c <reset_idle+0x134>)
 8017404:	781b      	ldrb	r3, [r3, #0]
 8017406:	b94b      	cbnz	r3, 801741c <reset_idle+0xc4>
 8017408:	466b      	mov	r3, sp
 801740a:	2201      	movs	r2, #1
 801740c:	f44f 7100 	mov.w	r1, #512	; 0x200
 8017410:	2010      	movs	r0, #16
 8017412:	f7ff fd18 	bl	8016e46 <send_command>
 8017416:	4603      	mov	r3, r0
 8017418:	2800      	cmp	r0, #0
 801741a:	d1a7      	bne.n	801736c <reset_idle+0x14>
 801741c:	f7ff fdda 	bl	8016fd4 <read_scr>
 8017420:	4603      	mov	r3, r0
 8017422:	2800      	cmp	r0, #0
 8017424:	d1a2      	bne.n	801736c <reset_idle+0x14>
 8017426:	f7ff fe07 	bl	8017038 <read_csd>
 801742a:	4603      	mov	r3, r0
 801742c:	e79e      	b.n	801736c <reset_idle+0x14>
 801742e:	200a      	movs	r0, #10
 8017430:	f000 fb98 	bl	8017b64 <delay>
 8017434:	3401      	adds	r4, #1
 8017436:	f5b4 7f7a 	cmp.w	r4, #1000	; 0x3e8
 801743a:	d218      	bcs.n	801746e <reset_idle+0x116>
 801743c:	f89d 3000 	ldrb.w	r3, [sp]
 8017440:	f013 0f01 	tst.w	r3, #1
 8017444:	d013      	beq.n	801746e <reset_idle+0x116>
 8017446:	466b      	mov	r3, sp
 8017448:	2201      	movs	r2, #1
 801744a:	2100      	movs	r1, #0
 801744c:	2037      	movs	r0, #55	; 0x37
 801744e:	f7ff fcfa 	bl	8016e46 <send_command>
 8017452:	4603      	mov	r3, r0
 8017454:	2800      	cmp	r0, #0
 8017456:	d189      	bne.n	801736c <reset_idle+0x14>
 8017458:	466b      	mov	r3, sp
 801745a:	2201      	movs	r2, #1
 801745c:	f04f 4180 	mov.w	r1, #1073741824	; 0x40000000
 8017460:	2029      	movs	r0, #41	; 0x29
 8017462:	f7ff fcf0 	bl	8016e46 <send_command>
 8017466:	4603      	mov	r3, r0
 8017468:	2800      	cmp	r0, #0
 801746a:	d0e0      	beq.n	801742e <reset_idle+0xd6>
 801746c:	e77e      	b.n	801736c <reset_idle+0x14>
 801746e:	f5b4 7f7a 	cmp.w	r4, #1000	; 0x3e8
 8017472:	d009      	beq.n	8017488 <reset_idle+0x130>
 8017474:	f7ff fd58 	bl	8016f28 <read_ocr>
 8017478:	4603      	mov	r3, r0
 801747a:	2800      	cmp	r0, #0
 801747c:	d0c1      	beq.n	8017402 <reset_idle+0xaa>
 801747e:	e775      	b.n	801736c <reset_idle+0x14>
 8017480:	230a      	movs	r3, #10
 8017482:	e773      	b.n	801736c <reset_idle+0x14>
 8017484:	230a      	movs	r3, #10
 8017486:	e771      	b.n	801736c <reset_idle+0x14>
 8017488:	230a      	movs	r3, #10
 801748a:	e76f      	b.n	801736c <reset_idle+0x14>
 801748c:	20000ffc 	.word	0x20000ffc

08017490 <sd_spi_reset>:
 8017490:	b510      	push	{r4, lr}
 8017492:	f000 fa17 	bl	80178c4 <hal_sd_spi_slow>
 8017496:	f7ff fcc9 	bl	8016e2c <reset_prepare>
 801749a:	f000 f9ed 	bl	8017878 <hal_sd_spi_select>
 801749e:	f7ff ff5b 	bl	8017358 <reset_idle>
 80174a2:	4604      	mov	r4, r0
 80174a4:	f000 f9f2 	bl	801788c <hal_sd_spi_release>
 80174a8:	b10c      	cbz	r4, 80174ae <sd_spi_reset+0x1e>
 80174aa:	4620      	mov	r0, r4
 80174ac:	bd10      	pop	{r4, pc}
 80174ae:	f000 fa11 	bl	80178d4 <hal_sd_spi_fast>
 80174b2:	e7fa      	b.n	80174aa <sd_spi_reset+0x1a>

080174b4 <flash_spi_getcardinfo>:
 80174b4:	4800      	ldr	r0, [pc, #0]	; (80174b8 <flash_spi_getcardinfo+0x4>)
 80174b6:	4770      	bx	lr
 80174b8:	20001010 	.word	0x20001010

080174bc <SPI_Flash_ReadSR>:
 80174bc:	b510      	push	{r4, lr}
 80174be:	f000 f981 	bl	80177c4 <hal_w25q_spi_select>
 80174c2:	2005      	movs	r0, #5
 80174c4:	f000 f992 	bl	80177ec <hal_w25q_spi_txrx>
 80174c8:	20ff      	movs	r0, #255	; 0xff
 80174ca:	f000 f98f 	bl	80177ec <hal_w25q_spi_txrx>
 80174ce:	4604      	mov	r4, r0
 80174d0:	f000 f982 	bl	80177d8 <hal_w25q_spi_release>
 80174d4:	4620      	mov	r0, r4
 80174d6:	bd10      	pop	{r4, pc}

080174d8 <SPI_FLASH_Write_SR>:
 80174d8:	b510      	push	{r4, lr}
 80174da:	4604      	mov	r4, r0
 80174dc:	f000 f972 	bl	80177c4 <hal_w25q_spi_select>
 80174e0:	2001      	movs	r0, #1
 80174e2:	f000 f983 	bl	80177ec <hal_w25q_spi_txrx>
 80174e6:	4620      	mov	r0, r4
 80174e8:	f000 f980 	bl	80177ec <hal_w25q_spi_txrx>
 80174ec:	f000 f974 	bl	80177d8 <hal_w25q_spi_release>
 80174f0:	bd10      	pop	{r4, pc}

080174f2 <SPI_FLASH_Write_Enable>:
 80174f2:	b508      	push	{r3, lr}
 80174f4:	f000 f966 	bl	80177c4 <hal_w25q_spi_select>
 80174f8:	2006      	movs	r0, #6
 80174fa:	f000 f977 	bl	80177ec <hal_w25q_spi_txrx>
 80174fe:	f000 f96b 	bl	80177d8 <hal_w25q_spi_release>
 8017502:	bd08      	pop	{r3, pc}

08017504 <SPI_FLASH_Write_Disable>:
 8017504:	b508      	push	{r3, lr}
 8017506:	f000 f95d 	bl	80177c4 <hal_w25q_spi_select>
 801750a:	2004      	movs	r0, #4
 801750c:	f000 f96e 	bl	80177ec <hal_w25q_spi_txrx>
 8017510:	f000 f962 	bl	80177d8 <hal_w25q_spi_release>
 8017514:	bd08      	pop	{r3, pc}

08017516 <SPI_Flash_ReadID>:
 8017516:	b538      	push	{r3, r4, r5, lr}
 8017518:	f000 f954 	bl	80177c4 <hal_w25q_spi_select>
 801751c:	2090      	movs	r0, #144	; 0x90
 801751e:	f000 f965 	bl	80177ec <hal_w25q_spi_txrx>
 8017522:	2000      	movs	r0, #0
 8017524:	f000 f962 	bl	80177ec <hal_w25q_spi_txrx>
 8017528:	2000      	movs	r0, #0
 801752a:	f000 f95f 	bl	80177ec <hal_w25q_spi_txrx>
 801752e:	2000      	movs	r0, #0
 8017530:	f000 f95c 	bl	80177ec <hal_w25q_spi_txrx>
 8017534:	20ff      	movs	r0, #255	; 0xff
 8017536:	f000 f959 	bl	80177ec <hal_w25q_spi_txrx>
 801753a:	0204      	lsls	r4, r0, #8
 801753c:	b2a5      	uxth	r5, r4
 801753e:	20ff      	movs	r0, #255	; 0xff
 8017540:	f000 f954 	bl	80177ec <hal_w25q_spi_txrx>
 8017544:	b284      	uxth	r4, r0
 8017546:	432c      	orrs	r4, r5
 8017548:	f000 f946 	bl	80177d8 <hal_w25q_spi_release>
 801754c:	4620      	mov	r0, r4
 801754e:	bd38      	pop	{r3, r4, r5, pc}

08017550 <SPI_Flash_Init>:
 8017550:	b508      	push	{r3, lr}
 8017552:	f000 f9c7 	bl	80178e4 <hal_w25q_spi_init>
 8017556:	f000 f93f 	bl	80177d8 <hal_w25q_spi_release>
 801755a:	f7ff ffdc 	bl	8017516 <SPI_Flash_ReadID>
 801755e:	4b05      	ldr	r3, [pc, #20]	; (8017574 <SPI_Flash_Init+0x24>)
 8017560:	8018      	strh	r0, [r3, #0]
 8017562:	4b05      	ldr	r3, [pc, #20]	; (8017578 <SPI_Flash_Init+0x28>)
 8017564:	f44f 7200 	mov.w	r2, #512	; 0x200
 8017568:	605a      	str	r2, [r3, #4]
 801756a:	f647 2212 	movw	r2, #31250	; 0x7a12
 801756e:	601a      	str	r2, [r3, #0]
 8017570:	bd08      	pop	{r3, pc}
 8017572:	bf00      	nop
 8017574:	20000078 	.word	0x20000078
 8017578:	20001010 	.word	0x20001010

0801757c <SPI_Flash_Read>:
 801757c:	b570      	push	{r4, r5, r6, lr}
 801757e:	4606      	mov	r6, r0
 8017580:	460c      	mov	r4, r1
 8017582:	4615      	mov	r5, r2
 8017584:	f000 f91e 	bl	80177c4 <hal_w25q_spi_select>
 8017588:	2003      	movs	r0, #3
 801758a:	f000 f92f 	bl	80177ec <hal_w25q_spi_txrx>
 801758e:	f3c4 4007 	ubfx	r0, r4, #16, #8
 8017592:	f000 f92b 	bl	80177ec <hal_w25q_spi_txrx>
 8017596:	f3c4 2007 	ubfx	r0, r4, #8, #8
 801759a:	f000 f927 	bl	80177ec <hal_w25q_spi_txrx>
 801759e:	b2e0      	uxtb	r0, r4
 80175a0:	f000 f924 	bl	80177ec <hal_w25q_spi_txrx>
 80175a4:	2400      	movs	r4, #0
 80175a6:	42ac      	cmp	r4, r5
 80175a8:	d206      	bcs.n	80175b8 <SPI_Flash_Read+0x3c>
 80175aa:	20ff      	movs	r0, #255	; 0xff
 80175ac:	f000 f91e 	bl	80177ec <hal_w25q_spi_txrx>
 80175b0:	5530      	strb	r0, [r6, r4]
 80175b2:	3401      	adds	r4, #1
 80175b4:	b2a4      	uxth	r4, r4
 80175b6:	e7f6      	b.n	80175a6 <SPI_Flash_Read+0x2a>
 80175b8:	f000 f90e 	bl	80177d8 <hal_w25q_spi_release>
 80175bc:	bd70      	pop	{r4, r5, r6, pc}

080175be <disk_read>:
 80175be:	b570      	push	{r4, r5, r6, lr}
 80175c0:	4606      	mov	r6, r0
 80175c2:	460d      	mov	r5, r1
 80175c4:	4614      	mov	r4, r2
 80175c6:	b154      	cbz	r4, 80175de <disk_read+0x20>
 80175c8:	f44f 7200 	mov.w	r2, #512	; 0x200
 80175cc:	0269      	lsls	r1, r5, #9
 80175ce:	4630      	mov	r0, r6
 80175d0:	f7ff ffd4 	bl	801757c <SPI_Flash_Read>
 80175d4:	3501      	adds	r5, #1
 80175d6:	f506 7600 	add.w	r6, r6, #512	; 0x200
 80175da:	3c01      	subs	r4, #1
 80175dc:	e7f3      	b.n	80175c6 <disk_read+0x8>
 80175de:	2000      	movs	r0, #0
 80175e0:	bd70      	pop	{r4, r5, r6, pc}

080175e2 <SPI_Flash_Wait_Busy>:
 80175e2:	b508      	push	{r3, lr}
 80175e4:	f7ff ff6a 	bl	80174bc <SPI_Flash_ReadSR>
 80175e8:	f010 0f01 	tst.w	r0, #1
 80175ec:	d1fa      	bne.n	80175e4 <SPI_Flash_Wait_Busy+0x2>
 80175ee:	bd08      	pop	{r3, pc}

080175f0 <SPI_Flash_Write_Page>:
 80175f0:	b570      	push	{r4, r5, r6, lr}
 80175f2:	4606      	mov	r6, r0
 80175f4:	460c      	mov	r4, r1
 80175f6:	4615      	mov	r5, r2
 80175f8:	f7ff ff7b 	bl	80174f2 <SPI_FLASH_Write_Enable>
 80175fc:	f000 f8e2 	bl	80177c4 <hal_w25q_spi_select>
 8017600:	2002      	movs	r0, #2
 8017602:	f000 f8f3 	bl	80177ec <hal_w25q_spi_txrx>
 8017606:	f3c4 4007 	ubfx	r0, r4, #16, #8
 801760a:	f000 f8ef 	bl	80177ec <hal_w25q_spi_txrx>
 801760e:	f3c4 2007 	ubfx	r0, r4, #8, #8
 8017612:	f000 f8eb 	bl	80177ec <hal_w25q_spi_txrx>
 8017616:	b2e0      	uxtb	r0, r4
 8017618:	f000 f8e8 	bl	80177ec <hal_w25q_spi_txrx>
 801761c:	2400      	movs	r4, #0
 801761e:	42ac      	cmp	r4, r5
 8017620:	d205      	bcs.n	801762e <SPI_Flash_Write_Page+0x3e>
 8017622:	5d30      	ldrb	r0, [r6, r4]
 8017624:	f000 f8e2 	bl	80177ec <hal_w25q_spi_txrx>
 8017628:	3401      	adds	r4, #1
 801762a:	b2a4      	uxth	r4, r4
 801762c:	e7f7      	b.n	801761e <SPI_Flash_Write_Page+0x2e>
 801762e:	f000 f8d3 	bl	80177d8 <hal_w25q_spi_release>
 8017632:	f7ff ffd6 	bl	80175e2 <SPI_Flash_Wait_Busy>
 8017636:	bd70      	pop	{r4, r5, r6, pc}

08017638 <SPI_Flash_Write_NoCheck>:
 8017638:	b5f8      	push	{r3, r4, r5, r6, r7, lr}
 801763a:	4607      	mov	r7, r0
 801763c:	460e      	mov	r6, r1
 801763e:	4614      	mov	r4, r2
 8017640:	b2cd      	uxtb	r5, r1
 8017642:	f5c5 7580 	rsb	r5, r5, #256	; 0x100
 8017646:	b2ad      	uxth	r5, r5
 8017648:	4295      	cmp	r5, r2
 801764a:	d303      	bcc.n	8017654 <SPI_Flash_Write_NoCheck+0x1c>
 801764c:	4615      	mov	r5, r2
 801764e:	e001      	b.n	8017654 <SPI_Flash_Write_NoCheck+0x1c>
 8017650:	f44f 7580 	mov.w	r5, #256	; 0x100
 8017654:	462a      	mov	r2, r5
 8017656:	4631      	mov	r1, r6
 8017658:	4638      	mov	r0, r7
 801765a:	f7ff ffc9 	bl	80175f0 <SPI_Flash_Write_Page>
 801765e:	42ac      	cmp	r4, r5
 8017660:	d008      	beq.n	8017674 <SPI_Flash_Write_NoCheck+0x3c>
 8017662:	442f      	add	r7, r5
 8017664:	442e      	add	r6, r5
 8017666:	1b64      	subs	r4, r4, r5
 8017668:	b2a4      	uxth	r4, r4
 801766a:	f5b4 7f80 	cmp.w	r4, #256	; 0x100
 801766e:	d8ef      	bhi.n	8017650 <SPI_Flash_Write_NoCheck+0x18>
 8017670:	4625      	mov	r5, r4
 8017672:	e7ef      	b.n	8017654 <SPI_Flash_Write_NoCheck+0x1c>
 8017674:	bdf8      	pop	{r3, r4, r5, r6, r7, pc}

08017676 <SPI_Flash_Erase_Chip>:
 8017676:	b508      	push	{r3, lr}
 8017678:	f7ff ff3b 	bl	80174f2 <SPI_FLASH_Write_Enable>
 801767c:	f7ff ffb1 	bl	80175e2 <SPI_Flash_Wait_Busy>
 8017680:	f000 f8a0 	bl	80177c4 <hal_w25q_spi_select>
 8017684:	20c7      	movs	r0, #199	; 0xc7
 8017686:	f000 f8b1 	bl	80177ec <hal_w25q_spi_txrx>
 801768a:	f000 f8a5 	bl	80177d8 <hal_w25q_spi_release>
 801768e:	f7ff ffa8 	bl	80175e2 <SPI_Flash_Wait_Busy>
 8017692:	bd08      	pop	{r3, pc}

08017694 <SPI_Flash_Erase_Sector>:
 8017694:	b510      	push	{r4, lr}
 8017696:	0304      	lsls	r4, r0, #12
 8017698:	f7ff ff2b 	bl	80174f2 <SPI_FLASH_Write_Enable>
 801769c:	f7ff ffa1 	bl	80175e2 <SPI_Flash_Wait_Busy>
 80176a0:	f000 f890 	bl	80177c4 <hal_w25q_spi_select>
 80176a4:	2020      	movs	r0, #32
 80176a6:	f000 f8a1 	bl	80177ec <hal_w25q_spi_txrx>
 80176aa:	f3c4 4007 	ubfx	r0, r4, #16, #8
 80176ae:	f000 f89d 	bl	80177ec <hal_w25q_spi_txrx>
 80176b2:	0a20      	lsrs	r0, r4, #8
 80176b4:	f000 00f0 	and.w	r0, r0, #240	; 0xf0
 80176b8:	f000 f898 	bl	80177ec <hal_w25q_spi_txrx>
 80176bc:	2000      	movs	r0, #0
 80176be:	f000 f895 	bl	80177ec <hal_w25q_spi_txrx>
 80176c2:	f000 f889 	bl	80177d8 <hal_w25q_spi_release>
 80176c6:	f7ff ff8c 	bl	80175e2 <SPI_Flash_Wait_Busy>
 80176ca:	bd10      	pop	{r4, pc}

080176cc <SPI_Flash_Write>:
 80176cc:	e92d 47f0 	stmdb	sp!, {r4, r5, r6, r7, r8, r9, sl, lr}
 80176d0:	4606      	mov	r6, r0
 80176d2:	4689      	mov	r9, r1
 80176d4:	4617      	mov	r7, r2
 80176d6:	ea4f 3811 	mov.w	r8, r1, lsr #12
 80176da:	f3c1 050b 	ubfx	r5, r1, #0, #12
 80176de:	f5c5 5480 	rsb	r4, r5, #4096	; 0x1000
 80176e2:	b2a4      	uxth	r4, r4
 80176e4:	4294      	cmp	r4, r2
 80176e6:	d304      	bcc.n	80176f2 <SPI_Flash_Write+0x26>
 80176e8:	4614      	mov	r4, r2
 80176ea:	e002      	b.n	80176f2 <SPI_Flash_Write+0x26>
 80176ec:	f44f 5480 	mov.w	r4, #4096	; 0x1000
 80176f0:	2500      	movs	r5, #0
 80176f2:	ea4f 3a08 	mov.w	sl, r8, lsl #12
 80176f6:	f44f 5280 	mov.w	r2, #4096	; 0x1000
 80176fa:	4651      	mov	r1, sl
 80176fc:	481b      	ldr	r0, [pc, #108]	; (801776c <SPI_Flash_Write+0xa0>)
 80176fe:	f7ff ff3d 	bl	801757c <SPI_Flash_Read>
 8017702:	2300      	movs	r3, #0
 8017704:	e001      	b.n	801770a <SPI_Flash_Write+0x3e>
 8017706:	3301      	adds	r3, #1
 8017708:	b29b      	uxth	r3, r3
 801770a:	429c      	cmp	r4, r3
 801770c:	d904      	bls.n	8017718 <SPI_Flash_Write+0x4c>
 801770e:	18ea      	adds	r2, r5, r3
 8017710:	4916      	ldr	r1, [pc, #88]	; (801776c <SPI_Flash_Write+0xa0>)
 8017712:	5c8a      	ldrb	r2, [r1, r2]
 8017714:	2aff      	cmp	r2, #255	; 0xff
 8017716:	d0f6      	beq.n	8017706 <SPI_Flash_Write+0x3a>
 8017718:	429c      	cmp	r4, r3
 801771a:	d811      	bhi.n	8017740 <SPI_Flash_Write+0x74>
 801771c:	4622      	mov	r2, r4
 801771e:	4649      	mov	r1, r9
 8017720:	4630      	mov	r0, r6
 8017722:	f7ff ff89 	bl	8017638 <SPI_Flash_Write_NoCheck>
 8017726:	42a7      	cmp	r7, r4
 8017728:	d01e      	beq.n	8017768 <SPI_Flash_Write+0x9c>
 801772a:	f108 0801 	add.w	r8, r8, #1
 801772e:	4426      	add	r6, r4
 8017730:	44a1      	add	r9, r4
 8017732:	1b3f      	subs	r7, r7, r4
 8017734:	b2bf      	uxth	r7, r7
 8017736:	f5b7 5f80 	cmp.w	r7, #4096	; 0x1000
 801773a:	d8d7      	bhi.n	80176ec <SPI_Flash_Write+0x20>
 801773c:	463c      	mov	r4, r7
 801773e:	e7d7      	b.n	80176f0 <SPI_Flash_Write+0x24>
 8017740:	4640      	mov	r0, r8
 8017742:	f7ff ffa7 	bl	8017694 <SPI_Flash_Erase_Sector>
 8017746:	2300      	movs	r3, #0
 8017748:	e005      	b.n	8017756 <SPI_Flash_Write+0x8a>
 801774a:	195a      	adds	r2, r3, r5
 801774c:	5cf0      	ldrb	r0, [r6, r3]
 801774e:	4907      	ldr	r1, [pc, #28]	; (801776c <SPI_Flash_Write+0xa0>)
 8017750:	5488      	strb	r0, [r1, r2]
 8017752:	3301      	adds	r3, #1
 8017754:	b29b      	uxth	r3, r3
 8017756:	429c      	cmp	r4, r3
 8017758:	d8f7      	bhi.n	801774a <SPI_Flash_Write+0x7e>
 801775a:	f44f 5280 	mov.w	r2, #4096	; 0x1000
 801775e:	4651      	mov	r1, sl
 8017760:	4802      	ldr	r0, [pc, #8]	; (801776c <SPI_Flash_Write+0xa0>)
 8017762:	f7ff ff69 	bl	8017638 <SPI_Flash_Write_NoCheck>
 8017766:	e7de      	b.n	8017726 <SPI_Flash_Write+0x5a>
 8017768:	e8bd 87f0 	ldmia.w	sp!, {r4, r5, r6, r7, r8, r9, sl, pc}
 801776c:	20001364 	.word	0x20001364

08017770 <disk_write>:
 8017770:	b570      	push	{r4, r5, r6, lr}
 8017772:	4606      	mov	r6, r0
 8017774:	460d      	mov	r5, r1
 8017776:	4614      	mov	r4, r2
 8017778:	b154      	cbz	r4, 8017790 <disk_write+0x20>
 801777a:	f44f 7200 	mov.w	r2, #512	; 0x200
 801777e:	0269      	lsls	r1, r5, #9
 8017780:	4630      	mov	r0, r6
 8017782:	f7ff ffa3 	bl	80176cc <SPI_Flash_Write>
 8017786:	3501      	adds	r5, #1
 8017788:	f506 7600 	add.w	r6, r6, #512	; 0x200
 801778c:	3c01      	subs	r4, #1
 801778e:	e7f3      	b.n	8017778 <disk_write+0x8>
 8017790:	2000      	movs	r0, #0
 8017792:	bd70      	pop	{r4, r5, r6, pc}

08017794 <SPI_Flash_PowerDown>:
 8017794:	b508      	push	{r3, lr}
 8017796:	f000 f815 	bl	80177c4 <hal_w25q_spi_select>
 801779a:	20b9      	movs	r0, #185	; 0xb9
 801779c:	f000 f826 	bl	80177ec <hal_w25q_spi_txrx>
 80177a0:	f000 f81a 	bl	80177d8 <hal_w25q_spi_release>
 80177a4:	2003      	movs	r0, #3
 80177a6:	f000 f9dd 	bl	8017b64 <delay>
 80177aa:	bd08      	pop	{r3, pc}

080177ac <SPI_Flash_WAKEUP>:
 80177ac:	b508      	push	{r3, lr}
 80177ae:	f000 f809 	bl	80177c4 <hal_w25q_spi_select>
 80177b2:	20ab      	movs	r0, #171	; 0xab
 80177b4:	f000 f81a 	bl	80177ec <hal_w25q_spi_txrx>
 80177b8:	f000 f80e 	bl	80177d8 <hal_w25q_spi_release>
 80177bc:	2003      	movs	r0, #3
 80177be:	f000 f9d1 	bl	8017b64 <delay>
 80177c2:	bd08      	pop	{r3, pc}

080177c4 <hal_w25q_spi_select>:
 80177c4:	b508      	push	{r3, lr}
 80177c6:	2200      	movs	r2, #0
 80177c8:	210f      	movs	r1, #15
 80177ca:	4802      	ldr	r0, [pc, #8]	; (80177d4 <hal_w25q_spi_select+0x10>)
 80177cc:	f7fa ff89 	bl	80126e2 <hw_set_pin>
 80177d0:	bd08      	pop	{r3, pc}
 80177d2:	bf00      	nop
 80177d4:	40020000 	.word	0x40020000

080177d8 <hal_w25q_spi_release>:
 80177d8:	b508      	push	{r3, lr}
 80177da:	2201      	movs	r2, #1
 80177dc:	210f      	movs	r1, #15
 80177de:	4802      	ldr	r0, [pc, #8]	; (80177e8 <hal_w25q_spi_release+0x10>)
 80177e0:	f7fa ff7f 	bl	80126e2 <hw_set_pin>
 80177e4:	bd08      	pop	{r3, pc}
 80177e6:	bf00      	nop
 80177e8:	40020000 	.word	0x40020000

080177ec <hal_w25q_spi_txrx>:
 80177ec:	4b07      	ldr	r3, [pc, #28]	; (801780c <hal_w25q_spi_txrx+0x20>)
 80177ee:	689b      	ldr	r3, [r3, #8]
 80177f0:	f013 0f02 	tst.w	r3, #2
 80177f4:	d0fa      	beq.n	80177ec <hal_w25q_spi_txrx>
 80177f6:	4b05      	ldr	r3, [pc, #20]	; (801780c <hal_w25q_spi_txrx+0x20>)
 80177f8:	60d8      	str	r0, [r3, #12]
 80177fa:	4b04      	ldr	r3, [pc, #16]	; (801780c <hal_w25q_spi_txrx+0x20>)
 80177fc:	689b      	ldr	r3, [r3, #8]
 80177fe:	f013 0f01 	tst.w	r3, #1
 8017802:	d0fa      	beq.n	80177fa <hal_w25q_spi_txrx+0xe>
 8017804:	4b01      	ldr	r3, [pc, #4]	; (801780c <hal_w25q_spi_txrx+0x20>)
 8017806:	68d8      	ldr	r0, [r3, #12]
 8017808:	b2c0      	uxtb	r0, r0
 801780a:	4770      	bx	lr
 801780c:	40013000 	.word	0x40013000

08017810 <hal_sd_spi_init>:
 8017810:	b510      	push	{r4, lr}
 8017812:	4b16      	ldr	r3, [pc, #88]	; (801786c <hal_sd_spi_init+0x5c>)
 8017814:	6c1a      	ldr	r2, [r3, #64]	; 0x40
 8017816:	f442 4280 	orr.w	r2, r2, #16384	; 0x4000
 801781a:	641a      	str	r2, [r3, #64]	; 0x40
 801781c:	6b1a      	ldr	r2, [r3, #48]	; 0x30
 801781e:	f042 0202 	orr.w	r2, r2, #2
 8017822:	631a      	str	r2, [r3, #48]	; 0x30
 8017824:	4c12      	ldr	r4, [pc, #72]	; (8017870 <hal_sd_spi_init+0x60>)
 8017826:	f240 32a5 	movw	r2, #933	; 0x3a5
 801782a:	210d      	movs	r1, #13
 801782c:	4620      	mov	r0, r4
 801782e:	f7fa ff1c 	bl	801266a <hw_cfg_pin>
 8017832:	f240 32a5 	movw	r2, #933	; 0x3a5
 8017836:	210e      	movs	r1, #14
 8017838:	4620      	mov	r0, r4
 801783a:	f7fa ff16 	bl	801266a <hw_cfg_pin>
 801783e:	f240 32a5 	movw	r2, #933	; 0x3a5
 8017842:	210f      	movs	r1, #15
 8017844:	4620      	mov	r0, r4
 8017846:	f7fa ff10 	bl	801266a <hw_cfg_pin>
 801784a:	f44f 7264 	mov.w	r2, #912	; 0x390
 801784e:	210c      	movs	r1, #12
 8017850:	4620      	mov	r0, r4
 8017852:	f7fa ff0a 	bl	801266a <hw_cfg_pin>
 8017856:	4b07      	ldr	r3, [pc, #28]	; (8017874 <hal_sd_spi_init+0x64>)
 8017858:	f44f 7259 	mov.w	r2, #868	; 0x364
 801785c:	601a      	str	r2, [r3, #0]
 801785e:	2201      	movs	r2, #1
 8017860:	210c      	movs	r1, #12
 8017862:	4620      	mov	r0, r4
 8017864:	f7fa ff3d 	bl	80126e2 <hw_set_pin>
 8017868:	bd10      	pop	{r4, pc}
 801786a:	bf00      	nop
 801786c:	40023800 	.word	0x40023800
 8017870:	40020400 	.word	0x40020400
 8017874:	40003800 	.word	0x40003800

08017878 <hal_sd_spi_select>:
 8017878:	b508      	push	{r3, lr}
 801787a:	2200      	movs	r2, #0
 801787c:	210c      	movs	r1, #12
 801787e:	4802      	ldr	r0, [pc, #8]	; (8017888 <hal_sd_spi_select+0x10>)
 8017880:	f7fa ff2f 	bl	80126e2 <hw_set_pin>
 8017884:	bd08      	pop	{r3, pc}
 8017886:	bf00      	nop
 8017888:	40020400 	.word	0x40020400

0801788c <hal_sd_spi_release>:
 801788c:	b508      	push	{r3, lr}
 801788e:	2201      	movs	r2, #1
 8017890:	210c      	movs	r1, #12
 8017892:	4802      	ldr	r0, [pc, #8]	; (801789c <hal_sd_spi_release+0x10>)
 8017894:	f7fa ff25 	bl	80126e2 <hw_set_pin>
 8017898:	bd08      	pop	{r3, pc}
 801789a:	bf00      	nop
 801789c:	40020400 	.word	0x40020400

080178a0 <hal_sd_spi_txrx>:
 80178a0:	4b07      	ldr	r3, [pc, #28]	; (80178c0 <hal_sd_spi_txrx+0x20>)
 80178a2:	689b      	ldr	r3, [r3, #8]
 80178a4:	f013 0f02 	tst.w	r3, #2
 80178a8:	d0fa      	beq.n	80178a0 <hal_sd_spi_txrx>
 80178aa:	4b05      	ldr	r3, [pc, #20]	; (80178c0 <hal_sd_spi_txrx+0x20>)
 80178ac:	60d8      	str	r0, [r3, #12]
 80178ae:	4b04      	ldr	r3, [pc, #16]	; (80178c0 <hal_sd_spi_txrx+0x20>)
 80178b0:	689b      	ldr	r3, [r3, #8]
 80178b2:	f013 0f01 	tst.w	r3, #1
 80178b6:	d0fa      	beq.n	80178ae <hal_sd_spi_txrx+0xe>
 80178b8:	4b01      	ldr	r3, [pc, #4]	; (80178c0 <hal_sd_spi_txrx+0x20>)
 80178ba:	68d8      	ldr	r0, [r3, #12]
 80178bc:	b2c0      	uxtb	r0, r0
 80178be:	4770      	bx	lr
 80178c0:	40003800 	.word	0x40003800

080178c4 <hal_sd_spi_slow>:
 80178c4:	4b02      	ldr	r3, [pc, #8]	; (80178d0 <hal_sd_spi_slow+0xc>)
 80178c6:	f44f 725f 	mov.w	r2, #892	; 0x37c
 80178ca:	601a      	str	r2, [r3, #0]
 80178cc:	4770      	bx	lr
 80178ce:	bf00      	nop
 80178d0:	40003800 	.word	0x40003800

080178d4 <hal_sd_spi_fast>:
 80178d4:	4b02      	ldr	r3, [pc, #8]	; (80178e0 <hal_sd_spi_fast+0xc>)
 80178d6:	f44f 7253 	mov.w	r2, #844	; 0x34c
 80178da:	601a      	str	r2, [r3, #0]
 80178dc:	4770      	bx	lr
 80178de:	bf00      	nop
 80178e0:	40003800 	.word	0x40003800

080178e4 <hal_w25q_spi_init>:
 80178e4:	b510      	push	{r4, lr}
 80178e6:	4b18      	ldr	r3, [pc, #96]	; (8017948 <hal_w25q_spi_init+0x64>)
 80178e8:	6c5a      	ldr	r2, [r3, #68]	; 0x44
 80178ea:	f442 5280 	orr.w	r2, r2, #4096	; 0x1000
 80178ee:	645a      	str	r2, [r3, #68]	; 0x44
 80178f0:	6b1a      	ldr	r2, [r3, #48]	; 0x30
 80178f2:	f042 0203 	orr.w	r2, r2, #3
 80178f6:	631a      	str	r2, [r3, #48]	; 0x30
 80178f8:	4c14      	ldr	r4, [pc, #80]	; (801794c <hal_w25q_spi_init+0x68>)
 80178fa:	f240 32a5 	movw	r2, #933	; 0x3a5
 80178fe:	2103      	movs	r1, #3
 8017900:	4620      	mov	r0, r4
 8017902:	f7fa feb2 	bl	801266a <hw_cfg_pin>
 8017906:	f240 32a5 	movw	r2, #933	; 0x3a5
 801790a:	2104      	movs	r1, #4
 801790c:	4620      	mov	r0, r4
 801790e:	f7fa feac 	bl	801266a <hw_cfg_pin>
 8017912:	f240 32a5 	movw	r2, #933	; 0x3a5
 8017916:	2105      	movs	r1, #5
 8017918:	4620      	mov	r0, r4
 801791a:	f7fa fea6 	bl	801266a <hw_cfg_pin>
 801791e:	f5a4 6480 	sub.w	r4, r4, #1024	; 0x400
 8017922:	f44f 7264 	mov.w	r2, #912	; 0x390
 8017926:	210f      	movs	r1, #15
 8017928:	4620      	mov	r0, r4
 801792a:	f7fa fe9e 	bl	801266a <hw_cfg_pin>
 801792e:	4b08      	ldr	r3, [pc, #32]	; (8017950 <hal_w25q_spi_init+0x6c>)
 8017930:	f44f 7259 	mov.w	r2, #868	; 0x364
 8017934:	601a      	str	r2, [r3, #0]
 8017936:	2201      	movs	r2, #1
 8017938:	210f      	movs	r1, #15
 801793a:	4620      	mov	r0, r4
 801793c:	f7fa fed1 	bl	80126e2 <hw_set_pin>
 8017940:	f7ff ffc8 	bl	80178d4 <hal_sd_spi_fast>
 8017944:	bd10      	pop	{r4, pc}
 8017946:	bf00      	nop
 8017948:	40023800 	.word	0x40023800
 801794c:	40020400 	.word	0x40020400
 8017950:	40013000 	.word	0x40013000

08017954 <hal_st7735_spi_init>:
 8017954:	b510      	push	{r4, lr}
 8017956:	4b14      	ldr	r3, [pc, #80]	; (80179a8 <hal_st7735_spi_init+0x54>)
 8017958:	6b1a      	ldr	r2, [r3, #48]	; 0x30
 801795a:	f042 0202 	orr.w	r2, r2, #2
 801795e:	631a      	str	r2, [r3, #48]	; 0x30
 8017960:	6b1a      	ldr	r2, [r3, #48]	; 0x30
 8017962:	f042 0204 	orr.w	r2, r2, #4
 8017966:	631a      	str	r2, [r3, #48]	; 0x30
 8017968:	4c10      	ldr	r4, [pc, #64]	; (80179ac <hal_st7735_spi_init+0x58>)
 801796a:	f44f 7264 	mov.w	r2, #912	; 0x390
 801796e:	210b      	movs	r1, #11
 8017970:	4620      	mov	r0, r4
 8017972:	f7fa fe7a 	bl	801266a <hw_cfg_pin>
 8017976:	f44f 7264 	mov.w	r2, #912	; 0x390
 801797a:	210a      	movs	r1, #10
 801797c:	4620      	mov	r0, r4
 801797e:	f7fa fe74 	bl	801266a <hw_cfg_pin>
 8017982:	f44f 7264 	mov.w	r2, #912	; 0x390
 8017986:	2100      	movs	r1, #0
 8017988:	4620      	mov	r0, r4
 801798a:	f7fa fe6e 	bl	801266a <hw_cfg_pin>
 801798e:	f44f 7264 	mov.w	r2, #912	; 0x390
 8017992:	2102      	movs	r1, #2
 8017994:	4620      	mov	r0, r4
 8017996:	f7fa fe68 	bl	801266a <hw_cfg_pin>
 801799a:	f44f 7264 	mov.w	r2, #912	; 0x390
 801799e:	2101      	movs	r1, #1
 80179a0:	4620      	mov	r0, r4
 80179a2:	f7fa fe62 	bl	801266a <hw_cfg_pin>
 80179a6:	bd10      	pop	{r4, pc}
 80179a8:	40023800 	.word	0x40023800
 80179ac:	40020400 	.word	0x40020400

080179b0 <hal_st7735_spi_select>:
 80179b0:	b508      	push	{r3, lr}
 80179b2:	2200      	movs	r2, #0
 80179b4:	4611      	mov	r1, r2
 80179b6:	4802      	ldr	r0, [pc, #8]	; (80179c0 <hal_st7735_spi_select+0x10>)
 80179b8:	f7fa fe93 	bl	80126e2 <hw_set_pin>
 80179bc:	bd08      	pop	{r3, pc}
 80179be:	bf00      	nop
 80179c0:	40020400 	.word	0x40020400

080179c4 <hal_st7735_spi_release>:
 80179c4:	b508      	push	{r3, lr}
 80179c6:	2201      	movs	r2, #1
 80179c8:	2100      	movs	r1, #0
 80179ca:	4802      	ldr	r0, [pc, #8]	; (80179d4 <hal_st7735_spi_release+0x10>)
 80179cc:	f7fa fe89 	bl	80126e2 <hw_set_pin>
 80179d0:	bd08      	pop	{r3, pc}
 80179d2:	bf00      	nop
 80179d4:	40020400 	.word	0x40020400

080179d8 <hal_st7735_spi_txrx>:
 80179d8:	b570      	push	{r4, r5, r6, lr}
 80179da:	4604      	mov	r4, r0
 80179dc:	2200      	movs	r2, #0
 80179de:	210a      	movs	r1, #10
 80179e0:	4812      	ldr	r0, [pc, #72]	; (8017a2c <hal_st7735_spi_txrx+0x54>)
 80179e2:	f7fa fe7e 	bl	80126e2 <hw_set_pin>
 80179e6:	2508      	movs	r5, #8
 80179e8:	e013      	b.n	8017a12 <hal_st7735_spi_txrx+0x3a>
 80179ea:	2201      	movs	r2, #1
 80179ec:	210b      	movs	r1, #11
 80179ee:	480f      	ldr	r0, [pc, #60]	; (8017a2c <hal_st7735_spi_txrx+0x54>)
 80179f0:	f7fa fe77 	bl	80126e2 <hw_set_pin>
 80179f4:	0064      	lsls	r4, r4, #1
 80179f6:	b2e4      	uxtb	r4, r4
 80179f8:	4e0c      	ldr	r6, [pc, #48]	; (8017a2c <hal_st7735_spi_txrx+0x54>)
 80179fa:	2201      	movs	r2, #1
 80179fc:	210a      	movs	r1, #10
 80179fe:	4630      	mov	r0, r6
 8017a00:	f7fa fe6f 	bl	80126e2 <hw_set_pin>
 8017a04:	2200      	movs	r2, #0
 8017a06:	210a      	movs	r1, #10
 8017a08:	4630      	mov	r0, r6
 8017a0a:	f7fa fe6a 	bl	80126e2 <hw_set_pin>
 8017a0e:	3d01      	subs	r5, #1
 8017a10:	b2ed      	uxtb	r5, r5
 8017a12:	b145      	cbz	r5, 8017a26 <hal_st7735_spi_txrx+0x4e>
 8017a14:	f014 0f80 	tst.w	r4, #128	; 0x80
 8017a18:	d1e7      	bne.n	80179ea <hal_st7735_spi_txrx+0x12>
 8017a1a:	2200      	movs	r2, #0
 8017a1c:	210b      	movs	r1, #11
 8017a1e:	4803      	ldr	r0, [pc, #12]	; (8017a2c <hal_st7735_spi_txrx+0x54>)
 8017a20:	f7fa fe5f 	bl	80126e2 <hw_set_pin>
 8017a24:	e7e6      	b.n	80179f4 <hal_st7735_spi_txrx+0x1c>
 8017a26:	2000      	movs	r0, #0
 8017a28:	bd70      	pop	{r4, r5, r6, pc}
 8017a2a:	bf00      	nop
 8017a2c:	40020400 	.word	0x40020400

08017a30 <hal_st7735_spi_slow>:
 8017a30:	4b02      	ldr	r3, [pc, #8]	; (8017a3c <hal_st7735_spi_slow+0xc>)
 8017a32:	f44f 725f 	mov.w	r2, #892	; 0x37c
 8017a36:	601a      	str	r2, [r3, #0]
 8017a38:	4770      	bx	lr
 8017a3a:	bf00      	nop
 8017a3c:	40003c00 	.word	0x40003c00

08017a40 <hal_st7735_spi_fast>:
 8017a40:	4b02      	ldr	r3, [pc, #8]	; (8017a4c <hal_st7735_spi_fast+0xc>)
 8017a42:	f44f 7253 	mov.w	r2, #844	; 0x34c
 8017a46:	601a      	str	r2, [r3, #0]
 8017a48:	4770      	bx	lr
 8017a4a:	bf00      	nop
 8017a4c:	40003c00 	.word	0x40003c00

08017a50 <panic>:
 8017a50:	b508      	push	{r3, lr}
 8017a52:	4601      	mov	r1, r0
 8017a54:	480d      	ldr	r0, [pc, #52]	; (8017a8c <panic+0x3c>)
 8017a56:	f7f9 fe61 	bl	801171c <kprintf>
 8017a5a:	f44f 7264 	mov.w	r2, #912	; 0x390
 8017a5e:	2108      	movs	r1, #8
 8017a60:	480b      	ldr	r0, [pc, #44]	; (8017a90 <panic+0x40>)
 8017a62:	f7fa fe02 	bl	801266a <hw_cfg_pin>
 8017a66:	4c0a      	ldr	r4, [pc, #40]	; (8017a90 <panic+0x40>)
 8017a68:	2201      	movs	r2, #1
 8017a6a:	2108      	movs	r1, #8
 8017a6c:	4620      	mov	r0, r4
 8017a6e:	f7fa fe38 	bl	80126e2 <hw_set_pin>
 8017a72:	2032      	movs	r0, #50	; 0x32
 8017a74:	f000 f876 	bl	8017b64 <delay>
 8017a78:	2200      	movs	r2, #0
 8017a7a:	2108      	movs	r1, #8
 8017a7c:	4620      	mov	r0, r4
 8017a7e:	f7fa fe30 	bl	80126e2 <hw_set_pin>
 8017a82:	2032      	movs	r0, #50	; 0x32
 8017a84:	f000 f86e 	bl	8017b64 <delay>
 8017a88:	e7ed      	b.n	8017a66 <panic+0x16>
 8017a8a:	bf00      	nop
 8017a8c:	08018b90 	.word	0x08018b90
 8017a90:	40020000 	.word	0x40020000

08017a94 <createList>:
 8017a94:	b508      	push	{r3, lr}
 8017a96:	2008      	movs	r0, #8
 8017a98:	f7fa faae 	bl	8011ff8 <malloc>
 8017a9c:	2200      	movs	r2, #0
 8017a9e:	6002      	str	r2, [r0, #0]
 8017aa0:	6042      	str	r2, [r0, #4]
 8017aa2:	bd08      	pop	{r3, pc}

08017aa4 <insert>:
 8017aa4:	b570      	push	{r4, r5, r6, lr}
 8017aa6:	4604      	mov	r4, r0
 8017aa8:	460e      	mov	r6, r1
 8017aaa:	2008      	movs	r0, #8
 8017aac:	f7fa faa4 	bl	8011ff8 <malloc>
 8017ab0:	4605      	mov	r5, r0
 8017ab2:	4630      	mov	r0, r6
 8017ab4:	f7f9 f86d 	bl	8010b92 <strdup>
 8017ab8:	6028      	str	r0, [r5, #0]
 8017aba:	2300      	movs	r3, #0
 8017abc:	606b      	str	r3, [r5, #4]
 8017abe:	6823      	ldr	r3, [r4, #0]
 8017ac0:	b143      	cbz	r3, 8017ad4 <insert+0x30>
 8017ac2:	461a      	mov	r2, r3
 8017ac4:	685b      	ldr	r3, [r3, #4]
 8017ac6:	2b00      	cmp	r3, #0
 8017ac8:	d1fb      	bne.n	8017ac2 <insert+0x1e>
 8017aca:	6055      	str	r5, [r2, #4]
 8017acc:	6863      	ldr	r3, [r4, #4]
 8017ace:	3301      	adds	r3, #1
 8017ad0:	6063      	str	r3, [r4, #4]
 8017ad2:	bd70      	pop	{r4, r5, r6, pc}
 8017ad4:	6025      	str	r5, [r4, #0]
 8017ad6:	e7f9      	b.n	8017acc <insert+0x28>

08017ad8 <printList>:
 8017ad8:	b510      	push	{r4, lr}
 8017ada:	6804      	ldr	r4, [r0, #0]
 8017adc:	b12c      	cbz	r4, 8017aea <printList+0x12>
 8017ade:	6821      	ldr	r1, [r4, #0]
 8017ae0:	4802      	ldr	r0, [pc, #8]	; (8017aec <printList+0x14>)
 8017ae2:	f7f9 fe1b 	bl	801171c <kprintf>
 8017ae6:	6864      	ldr	r4, [r4, #4]
 8017ae8:	e7f8      	b.n	8017adc <printList+0x4>
 8017aea:	bd10      	pop	{r4, pc}
 8017aec:	08018ba0 	.word	0x08018ba0

08017af0 <freeList>:
 8017af0:	b570      	push	{r4, r5, r6, lr}
 8017af2:	4606      	mov	r6, r0
 8017af4:	6804      	ldr	r4, [r0, #0]
 8017af6:	b144      	cbz	r4, 8017b0a <freeList+0x1a>
 8017af8:	6865      	ldr	r5, [r4, #4]
 8017afa:	6820      	ldr	r0, [r4, #0]
 8017afc:	f7fa fa8e 	bl	801201c <free>
 8017b00:	4620      	mov	r0, r4
 8017b02:	f7fa fa8b 	bl	801201c <free>
 8017b06:	462c      	mov	r4, r5
 8017b08:	e7f5      	b.n	8017af6 <freeList+0x6>
 8017b0a:	4630      	mov	r0, r6
 8017b0c:	f7fa fa86 	bl	801201c <free>
 8017b10:	bd70      	pop	{r4, r5, r6, pc}

08017b12 <getSizeList>:
 8017b12:	6840      	ldr	r0, [r0, #4]
 8017b14:	4770      	bx	lr

08017b16 <getValueAtIndex>:
 8017b16:	2900      	cmp	r1, #0
 8017b18:	db0d      	blt.n	8017b36 <getValueAtIndex+0x20>
 8017b1a:	6843      	ldr	r3, [r0, #4]
 8017b1c:	428b      	cmp	r3, r1
 8017b1e:	dd0c      	ble.n	8017b3a <getValueAtIndex+0x24>
 8017b20:	6800      	ldr	r0, [r0, #0]
 8017b22:	2300      	movs	r3, #0
 8017b24:	b130      	cbz	r0, 8017b34 <getValueAtIndex+0x1e>
 8017b26:	428b      	cmp	r3, r1
 8017b28:	d002      	beq.n	8017b30 <getValueAtIndex+0x1a>
 8017b2a:	6840      	ldr	r0, [r0, #4]
 8017b2c:	3301      	adds	r3, #1
 8017b2e:	e7f9      	b.n	8017b24 <getValueAtIndex+0xe>
 8017b30:	6800      	ldr	r0, [r0, #0]
 8017b32:	4770      	bx	lr
 8017b34:	4770      	bx	lr
 8017b36:	2000      	movs	r0, #0
 8017b38:	4770      	bx	lr
 8017b3a:	2000      	movs	r0, #0
 8017b3c:	4770      	bx	lr
 8017b3e:	bf00      	nop

08017b40 <cycleCount>:
 8017b40:	4b01      	ldr	r3, [pc, #4]	; (8017b48 <cycleCount+0x8>)
 8017b42:	e9d3 0100 	ldrd	r0, r1, [r3]
 8017b46:	4770      	bx	lr
 8017b48:	20001018 	.word	0x20001018

08017b4c <SysTick_Handler>:
 8017b4c:	4a04      	ldr	r2, [pc, #16]	; (8017b60 <SysTick_Handler+0x14>)
 8017b4e:	6813      	ldr	r3, [r2, #0]
 8017b50:	6851      	ldr	r1, [r2, #4]
 8017b52:	3301      	adds	r3, #1
 8017b54:	f141 0100 	adc.w	r1, r1, #0
 8017b58:	6013      	str	r3, [r2, #0]
 8017b5a:	6051      	str	r1, [r2, #4]
 8017b5c:	4770      	bx	lr
 8017b5e:	bf00      	nop
 8017b60:	20001018 	.word	0x20001018

08017b64 <delay>:
 8017b64:	b570      	push	{r4, r5, r6, lr}
 8017b66:	4606      	mov	r6, r0
 8017b68:	f7ff ffea 	bl	8017b40 <cycleCount>
 8017b6c:	1984      	adds	r4, r0, r6
 8017b6e:	f141 0500 	adc.w	r5, r1, #0
 8017b72:	f7ff ffe5 	bl	8017b40 <cycleCount>
 8017b76:	42a9      	cmp	r1, r5
 8017b78:	bf08      	it	eq
 8017b7a:	42a0      	cmpeq	r0, r4
 8017b7c:	d201      	bcs.n	8017b82 <delay+0x1e>
 8017b7e:	bf00      	nop
 8017b80:	e7f7      	b.n	8017b72 <delay+0xe>
 8017b82:	bd70      	pop	{r4, r5, r6, pc}

08017b84 <delay_us>:
 8017b84:	4b07      	ldr	r3, [pc, #28]	; (8017ba4 <delay_us+0x20>)
 8017b86:	685a      	ldr	r2, [r3, #4]
 8017b88:	4b07      	ldr	r3, [pc, #28]	; (8017ba8 <delay_us+0x24>)
 8017b8a:	681b      	ldr	r3, [r3, #0]
 8017b8c:	4907      	ldr	r1, [pc, #28]	; (8017bac <delay_us+0x28>)
 8017b8e:	fba1 1303 	umull	r1, r3, r1, r3
 8017b92:	0c9b      	lsrs	r3, r3, #18
 8017b94:	fb00 f003 	mul.w	r0, r0, r3
 8017b98:	4b02      	ldr	r3, [pc, #8]	; (8017ba4 <delay_us+0x20>)
 8017b9a:	685b      	ldr	r3, [r3, #4]
 8017b9c:	1a9b      	subs	r3, r3, r2
 8017b9e:	4283      	cmp	r3, r0
 8017ba0:	d3fa      	bcc.n	8017b98 <delay_us+0x14>
 8017ba2:	4770      	bx	lr
 8017ba4:	e0001000 	.word	0xe0001000
 8017ba8:	2000007c 	.word	0x2000007c
 8017bac:	431bde83 	.word	0x431bde83

08017bb0 <SetSysClock>:
 8017bb0:	4a1e      	ldr	r2, [pc, #120]	; (8017c2c <SetSysClock+0x7c>)
 8017bb2:	6813      	ldr	r3, [r2, #0]
 8017bb4:	f443 3380 	orr.w	r3, r3, #65536	; 0x10000
 8017bb8:	6013      	str	r3, [r2, #0]
 8017bba:	4b1c      	ldr	r3, [pc, #112]	; (8017c2c <SetSysClock+0x7c>)
 8017bbc:	681b      	ldr	r3, [r3, #0]
 8017bbe:	f413 3f00 	tst.w	r3, #131072	; 0x20000
 8017bc2:	d0fa      	beq.n	8017bba <SetSysClock+0xa>
 8017bc4:	4b19      	ldr	r3, [pc, #100]	; (8017c2c <SetSysClock+0x7c>)
 8017bc6:	6c1a      	ldr	r2, [r3, #64]	; 0x40
 8017bc8:	f042 5280 	orr.w	r2, r2, #268435456	; 0x10000000
 8017bcc:	641a      	str	r2, [r3, #64]	; 0x40
 8017bce:	4918      	ldr	r1, [pc, #96]	; (8017c30 <SetSysClock+0x80>)
 8017bd0:	680a      	ldr	r2, [r1, #0]
 8017bd2:	f442 4280 	orr.w	r2, r2, #16384	; 0x4000
 8017bd6:	600a      	str	r2, [r1, #0]
 8017bd8:	689a      	ldr	r2, [r3, #8]
 8017bda:	609a      	str	r2, [r3, #8]
 8017bdc:	689a      	ldr	r2, [r3, #8]
 8017bde:	f442 4200 	orr.w	r2, r2, #32768	; 0x8000
 8017be2:	609a      	str	r2, [r3, #8]
 8017be4:	689a      	ldr	r2, [r3, #8]
 8017be6:	f442 52a0 	orr.w	r2, r2, #5120	; 0x1400
 8017bea:	609a      	str	r2, [r3, #8]
 8017bec:	4a11      	ldr	r2, [pc, #68]	; (8017c34 <SetSysClock+0x84>)
 8017bee:	605a      	str	r2, [r3, #4]
 8017bf0:	681a      	ldr	r2, [r3, #0]
 8017bf2:	f042 7280 	orr.w	r2, r2, #16777216	; 0x1000000
 8017bf6:	601a      	str	r2, [r3, #0]
 8017bf8:	4b0c      	ldr	r3, [pc, #48]	; (8017c2c <SetSysClock+0x7c>)
 8017bfa:	681b      	ldr	r3, [r3, #0]
 8017bfc:	f013 7f00 	tst.w	r3, #33554432	; 0x2000000
 8017c00:	d0fa      	beq.n	8017bf8 <SetSysClock+0x48>
 8017c02:	4b0d      	ldr	r3, [pc, #52]	; (8017c38 <SetSysClock+0x88>)
 8017c04:	f240 7205 	movw	r2, #1797	; 0x705
 8017c08:	601a      	str	r2, [r3, #0]
 8017c0a:	f5a3 6380 	sub.w	r3, r3, #1024	; 0x400
 8017c0e:	689a      	ldr	r2, [r3, #8]
 8017c10:	f022 0203 	bic.w	r2, r2, #3
 8017c14:	609a      	str	r2, [r3, #8]
 8017c16:	689a      	ldr	r2, [r3, #8]
 8017c18:	f042 0202 	orr.w	r2, r2, #2
 8017c1c:	609a      	str	r2, [r3, #8]
 8017c1e:	4b03      	ldr	r3, [pc, #12]	; (8017c2c <SetSysClock+0x7c>)
 8017c20:	689b      	ldr	r3, [r3, #8]
 8017c22:	f003 030c 	and.w	r3, r3, #12
 8017c26:	2b08      	cmp	r3, #8
 8017c28:	d1f9      	bne.n	8017c1e <SetSysClock+0x6e>
 8017c2a:	4770      	bx	lr
 8017c2c:	40023800 	.word	0x40023800
 8017c30:	40007000 	.word	0x40007000
 8017c34:	07405408 	.word	0x07405408
 8017c38:	40023c00 	.word	0x40023c00

08017c3c <DWTInit>:
 8017c3c:	4a06      	ldr	r2, [pc, #24]	; (8017c58 <DWTInit+0x1c>)
 8017c3e:	68d3      	ldr	r3, [r2, #12]
 8017c40:	f043 7380 	orr.w	r3, r3, #16777216	; 0x1000000
 8017c44:	60d3      	str	r3, [r2, #12]
 8017c46:	4b05      	ldr	r3, [pc, #20]	; (8017c5c <DWTInit+0x20>)
 8017c48:	2200      	movs	r2, #0
 8017c4a:	605a      	str	r2, [r3, #4]
 8017c4c:	681a      	ldr	r2, [r3, #0]
 8017c4e:	f042 0201 	orr.w	r2, r2, #1
 8017c52:	601a      	str	r2, [r3, #0]
 8017c54:	4770      	bx	lr
 8017c56:	bf00      	nop
 8017c58:	e000edf0 	.word	0xe000edf0
 8017c5c:	e0001000 	.word	0xe0001000

08017c60 <init_systick>:
 8017c60:	4b09      	ldr	r3, [pc, #36]	; (8017c88 <init_systick+0x28>)
 8017c62:	2100      	movs	r1, #0
 8017c64:	6019      	str	r1, [r3, #0]
 8017c66:	681a      	ldr	r2, [r3, #0]
 8017c68:	f042 0204 	orr.w	r2, r2, #4
 8017c6c:	601a      	str	r2, [r3, #0]
 8017c6e:	681a      	ldr	r2, [r3, #0]
 8017c70:	f042 0202 	orr.w	r2, r2, #2
 8017c74:	601a      	str	r2, [r3, #0]
 8017c76:	3801      	subs	r0, #1
 8017c78:	6058      	str	r0, [r3, #4]
 8017c7a:	6099      	str	r1, [r3, #8]
 8017c7c:	681a      	ldr	r2, [r3, #0]
 8017c7e:	f042 0201 	orr.w	r2, r2, #1
 8017c82:	601a      	str	r2, [r3, #0]
 8017c84:	4770      	bx	lr
 8017c86:	bf00      	nop
 8017c88:	e000e010 	.word	0xe000e010

08017c8c <SystemCoreClockUpdate>:
 8017c8c:	4b22      	ldr	r3, [pc, #136]	; (8017d18 <SystemCoreClockUpdate+0x8c>)
 8017c8e:	689b      	ldr	r3, [r3, #8]
 8017c90:	f003 030c 	and.w	r3, r3, #12
 8017c94:	2b04      	cmp	r3, #4
 8017c96:	d014      	beq.n	8017cc2 <SystemCoreClockUpdate+0x36>
 8017c98:	2b08      	cmp	r3, #8
 8017c9a:	d016      	beq.n	8017cca <SystemCoreClockUpdate+0x3e>
 8017c9c:	b11b      	cbz	r3, 8017ca6 <SystemCoreClockUpdate+0x1a>
 8017c9e:	4b1f      	ldr	r3, [pc, #124]	; (8017d1c <SystemCoreClockUpdate+0x90>)
 8017ca0:	4a1f      	ldr	r2, [pc, #124]	; (8017d20 <SystemCoreClockUpdate+0x94>)
 8017ca2:	601a      	str	r2, [r3, #0]
 8017ca4:	e002      	b.n	8017cac <SystemCoreClockUpdate+0x20>
 8017ca6:	4b1d      	ldr	r3, [pc, #116]	; (8017d1c <SystemCoreClockUpdate+0x90>)
 8017ca8:	4a1d      	ldr	r2, [pc, #116]	; (8017d20 <SystemCoreClockUpdate+0x94>)
 8017caa:	601a      	str	r2, [r3, #0]
 8017cac:	4b1a      	ldr	r3, [pc, #104]	; (8017d18 <SystemCoreClockUpdate+0x8c>)
 8017cae:	689b      	ldr	r3, [r3, #8]
 8017cb0:	f3c3 1303 	ubfx	r3, r3, #4, #4
 8017cb4:	4a1b      	ldr	r2, [pc, #108]	; (8017d24 <SystemCoreClockUpdate+0x98>)
 8017cb6:	5cd1      	ldrb	r1, [r2, r3]
 8017cb8:	4a18      	ldr	r2, [pc, #96]	; (8017d1c <SystemCoreClockUpdate+0x90>)
 8017cba:	6813      	ldr	r3, [r2, #0]
 8017cbc:	40cb      	lsrs	r3, r1
 8017cbe:	6013      	str	r3, [r2, #0]
 8017cc0:	4770      	bx	lr
 8017cc2:	4b16      	ldr	r3, [pc, #88]	; (8017d1c <SystemCoreClockUpdate+0x90>)
 8017cc4:	4a18      	ldr	r2, [pc, #96]	; (8017d28 <SystemCoreClockUpdate+0x9c>)
 8017cc6:	601a      	str	r2, [r3, #0]
 8017cc8:	e7f0      	b.n	8017cac <SystemCoreClockUpdate+0x20>
 8017cca:	4b13      	ldr	r3, [pc, #76]	; (8017d18 <SystemCoreClockUpdate+0x8c>)
 8017ccc:	685a      	ldr	r2, [r3, #4]
 8017cce:	685b      	ldr	r3, [r3, #4]
 8017cd0:	f003 033f 	and.w	r3, r3, #63	; 0x3f
 8017cd4:	f412 0f80 	tst.w	r2, #4194304	; 0x400000
 8017cd8:	d013      	beq.n	8017d02 <SystemCoreClockUpdate+0x76>
 8017cda:	4a13      	ldr	r2, [pc, #76]	; (8017d28 <SystemCoreClockUpdate+0x9c>)
 8017cdc:	fbb2 f2f3 	udiv	r2, r2, r3
 8017ce0:	4b0d      	ldr	r3, [pc, #52]	; (8017d18 <SystemCoreClockUpdate+0x8c>)
 8017ce2:	685b      	ldr	r3, [r3, #4]
 8017ce4:	f3c3 1388 	ubfx	r3, r3, #6, #9
 8017ce8:	fb03 f302 	mul.w	r3, r3, r2
 8017cec:	4a0a      	ldr	r2, [pc, #40]	; (8017d18 <SystemCoreClockUpdate+0x8c>)
 8017cee:	6852      	ldr	r2, [r2, #4]
 8017cf0:	f3c2 4201 	ubfx	r2, r2, #16, #2
 8017cf4:	3201      	adds	r2, #1
 8017cf6:	0052      	lsls	r2, r2, #1
 8017cf8:	fbb3 f3f2 	udiv	r3, r3, r2
 8017cfc:	4a07      	ldr	r2, [pc, #28]	; (8017d1c <SystemCoreClockUpdate+0x90>)
 8017cfe:	6013      	str	r3, [r2, #0]
 8017d00:	e7d4      	b.n	8017cac <SystemCoreClockUpdate+0x20>
 8017d02:	4a07      	ldr	r2, [pc, #28]	; (8017d20 <SystemCoreClockUpdate+0x94>)
 8017d04:	fbb2 f2f3 	udiv	r2, r2, r3
 8017d08:	4b03      	ldr	r3, [pc, #12]	; (8017d18 <SystemCoreClockUpdate+0x8c>)
 8017d0a:	685b      	ldr	r3, [r3, #4]
 8017d0c:	f3c3 1388 	ubfx	r3, r3, #6, #9
 8017d10:	fb03 f302 	mul.w	r3, r3, r2
 8017d14:	e7ea      	b.n	8017cec <SystemCoreClockUpdate+0x60>
 8017d16:	bf00      	nop
 8017d18:	40023800 	.word	0x40023800
 8017d1c:	2000007c 	.word	0x2000007c
 8017d20:	00f42400 	.word	0x00f42400
 8017d24:	08018950 	.word	0x08018950
 8017d28:	017d7840 	.word	0x017d7840

08017d2c <set_sysclk_to_168>:
 8017d2c:	4a1f      	ldr	r2, [pc, #124]	; (8017dac <set_sysclk_to_168+0x80>)
 8017d2e:	6813      	ldr	r3, [r2, #0]
 8017d30:	f443 3380 	orr.w	r3, r3, #65536	; 0x10000
 8017d34:	6013      	str	r3, [r2, #0]
 8017d36:	4b1d      	ldr	r3, [pc, #116]	; (8017dac <set_sysclk_to_168+0x80>)
 8017d38:	681b      	ldr	r3, [r3, #0]
 8017d3a:	f413 3f00 	tst.w	r3, #131072	; 0x20000
 8017d3e:	d0fa      	beq.n	8017d36 <set_sysclk_to_168+0xa>
 8017d40:	4b1a      	ldr	r3, [pc, #104]	; (8017dac <set_sysclk_to_168+0x80>)
 8017d42:	6c1a      	ldr	r2, [r3, #64]	; 0x40
 8017d44:	f042 5280 	orr.w	r2, r2, #268435456	; 0x10000000
 8017d48:	641a      	str	r2, [r3, #64]	; 0x40
 8017d4a:	4919      	ldr	r1, [pc, #100]	; (8017db0 <set_sysclk_to_168+0x84>)
 8017d4c:	680a      	ldr	r2, [r1, #0]
 8017d4e:	f442 4280 	orr.w	r2, r2, #16384	; 0x4000
 8017d52:	600a      	str	r2, [r1, #0]
 8017d54:	689a      	ldr	r2, [r3, #8]
 8017d56:	609a      	str	r2, [r3, #8]
 8017d58:	689a      	ldr	r2, [r3, #8]
 8017d5a:	f442 52a0 	orr.w	r2, r2, #5120	; 0x1400
 8017d5e:	609a      	str	r2, [r3, #8]
 8017d60:	689a      	ldr	r2, [r3, #8]
 8017d62:	f442 4200 	orr.w	r2, r2, #32768	; 0x8000
 8017d66:	609a      	str	r2, [r3, #8]
 8017d68:	4a12      	ldr	r2, [pc, #72]	; (8017db4 <set_sysclk_to_168+0x88>)
 8017d6a:	605a      	str	r2, [r3, #4]
 8017d6c:	681a      	ldr	r2, [r3, #0]
 8017d6e:	f042 7280 	orr.w	r2, r2, #16777216	; 0x1000000
 8017d72:	601a      	str	r2, [r3, #0]
 8017d74:	4b0d      	ldr	r3, [pc, #52]	; (8017dac <set_sysclk_to_168+0x80>)
 8017d76:	681b      	ldr	r3, [r3, #0]
 8017d78:	f013 7f00 	tst.w	r3, #33554432	; 0x2000000
 8017d7c:	d0fa      	beq.n	8017d74 <set_sysclk_to_168+0x48>
 8017d7e:	4b0e      	ldr	r3, [pc, #56]	; (8017db8 <set_sysclk_to_168+0x8c>)
 8017d80:	f240 7205 	movw	r2, #1797	; 0x705
 8017d84:	601a      	str	r2, [r3, #0]
 8017d86:	f5a3 6380 	sub.w	r3, r3, #1024	; 0x400
 8017d8a:	689a      	ldr	r2, [r3, #8]
 8017d8c:	f022 0203 	bic.w	r2, r2, #3
 8017d90:	609a      	str	r2, [r3, #8]
 8017d92:	689a      	ldr	r2, [r3, #8]
 8017d94:	f042 0202 	orr.w	r2, r2, #2
 8017d98:	609a      	str	r2, [r3, #8]
 8017d9a:	4b04      	ldr	r3, [pc, #16]	; (8017dac <set_sysclk_to_168+0x80>)
 8017d9c:	689b      	ldr	r3, [r3, #8]
 8017d9e:	f013 0f08 	tst.w	r3, #8
 8017da2:	d0fa      	beq.n	8017d9a <set_sysclk_to_168+0x6e>
 8017da4:	4b05      	ldr	r3, [pc, #20]	; (8017dbc <set_sysclk_to_168+0x90>)
 8017da6:	4a06      	ldr	r2, [pc, #24]	; (8017dc0 <set_sysclk_to_168+0x94>)
 8017da8:	601a      	str	r2, [r3, #0]
 8017daa:	4770      	bx	lr
 8017dac:	40023800 	.word	0x40023800
 8017db0:	40007000 	.word	0x40007000
 8017db4:	07405408 	.word	0x07405408
 8017db8:	40023c00 	.word	0x40023c00
 8017dbc:	2000007c 	.word	0x2000007c
 8017dc0:	0a037a00 	.word	0x0a037a00

08017dc4 <Reset_Handler>:
 8017dc4:	b508      	push	{r3, lr}
 8017dc6:	4a22      	ldr	r2, [pc, #136]	; (8017e50 <Reset_Handler+0x8c>)
 8017dc8:	f8d2 3088 	ldr.w	r3, [r2, #136]	; 0x88
 8017dcc:	f443 0370 	orr.w	r3, r3, #15728640	; 0xf00000
 8017dd0:	f8c2 3088 	str.w	r3, [r2, #136]	; 0x88
 8017dd4:	f000 fc42 	bl	801865c <irq_disable>
 8017dd8:	4b1e      	ldr	r3, [pc, #120]	; (8017e54 <Reset_Handler+0x90>)
 8017dda:	4a1f      	ldr	r2, [pc, #124]	; (8017e58 <Reset_Handler+0x94>)
 8017ddc:	e003      	b.n	8017de6 <Reset_Handler+0x22>
 8017dde:	f812 1b01 	ldrb.w	r1, [r2], #1
 8017de2:	f803 1b01 	strb.w	r1, [r3], #1
 8017de6:	491d      	ldr	r1, [pc, #116]	; (8017e5c <Reset_Handler+0x98>)
 8017de8:	428b      	cmp	r3, r1
 8017dea:	d3f8      	bcc.n	8017dde <Reset_Handler+0x1a>
 8017dec:	4b1c      	ldr	r3, [pc, #112]	; (8017e60 <Reset_Handler+0x9c>)
 8017dee:	e002      	b.n	8017df6 <Reset_Handler+0x32>
 8017df0:	2200      	movs	r2, #0
 8017df2:	f803 2b01 	strb.w	r2, [r3], #1
 8017df6:	4a1b      	ldr	r2, [pc, #108]	; (8017e64 <Reset_Handler+0xa0>)
 8017df8:	4293      	cmp	r3, r2
 8017dfa:	d3f9      	bcc.n	8017df0 <Reset_Handler+0x2c>
 8017dfc:	4b1a      	ldr	r3, [pc, #104]	; (8017e68 <Reset_Handler+0xa4>)
 8017dfe:	6b1a      	ldr	r2, [r3, #48]	; 0x30
 8017e00:	f042 0201 	orr.w	r2, r2, #1
 8017e04:	631a      	str	r2, [r3, #48]	; 0x30
 8017e06:	6b1a      	ldr	r2, [r3, #48]	; 0x30
 8017e08:	f042 0202 	orr.w	r2, r2, #2
 8017e0c:	631a      	str	r2, [r3, #48]	; 0x30
 8017e0e:	6b1a      	ldr	r2, [r3, #48]	; 0x30
 8017e10:	f042 0204 	orr.w	r2, r2, #4
 8017e14:	631a      	str	r2, [r3, #48]	; 0x30
 8017e16:	4a15      	ldr	r2, [pc, #84]	; (8017e6c <Reset_Handler+0xa8>)
 8017e18:	4b0d      	ldr	r3, [pc, #52]	; (8017e50 <Reset_Handler+0x8c>)
 8017e1a:	609a      	str	r2, [r3, #8]
 8017e1c:	f7ff fec8 	bl	8017bb0 <SetSysClock>
 8017e20:	f7ff ff34 	bl	8017c8c <SystemCoreClockUpdate>
 8017e24:	f7ff ff82 	bl	8017d2c <set_sysclk_to_168>
 8017e28:	4b11      	ldr	r3, [pc, #68]	; (8017e70 <Reset_Handler+0xac>)
 8017e2a:	6818      	ldr	r0, [r3, #0]
 8017e2c:	4b11      	ldr	r3, [pc, #68]	; (8017e74 <Reset_Handler+0xb0>)
 8017e2e:	fba3 3000 	umull	r3, r0, r3, r0
 8017e32:	0980      	lsrs	r0, r0, #6
 8017e34:	f7ff ff14 	bl	8017c60 <init_systick>
 8017e38:	f7ff ff00 	bl	8017c3c <DWTInit>
 8017e3c:	f000 fb4a 	bl	80184d4 <uartinit>
 8017e40:	f7fa f800 	bl	8011e44 <meminit>
 8017e44:	f000 fc12 	bl	801866c <irq_enable>
 8017e48:	f000 fa64 	bl	8018314 <main>
 8017e4c:	bf00      	nop
 8017e4e:	e7fd      	b.n	8017e4c <Reset_Handler+0x88>
 8017e50:	e000ed00 	.word	0xe000ed00
 8017e54:	20000000 	.word	0x20000000
 8017e58:	08018c20 	.word	0x08018c20
 8017e5c:	20000080 	.word	0x20000080
 8017e60:	20000080 	.word	0x20000080
 8017e64:	200023ac 	.word	0x200023ac
 8017e68:	40023800 	.word	0x40023800
 8017e6c:	08010000 	.word	0x08010000
 8017e70:	2000007c 	.word	0x2000007c
 8017e74:	10624dd3 	.word	0x10624dd3

08017e78 <default_IRQ_Handler>:
 8017e78:	bf20      	wfe
 8017e7a:	e7fd      	b.n	8017e78 <default_IRQ_Handler>

08017e7c <unlock_flash>:
 8017e7c:	4b05      	ldr	r3, [pc, #20]	; (8017e94 <unlock_flash+0x18>)
 8017e7e:	691b      	ldr	r3, [r3, #16]
 8017e80:	2b00      	cmp	r3, #0
 8017e82:	db00      	blt.n	8017e86 <unlock_flash+0xa>
 8017e84:	4770      	bx	lr
 8017e86:	4b03      	ldr	r3, [pc, #12]	; (8017e94 <unlock_flash+0x18>)
 8017e88:	4a03      	ldr	r2, [pc, #12]	; (8017e98 <unlock_flash+0x1c>)
 8017e8a:	605a      	str	r2, [r3, #4]
 8017e8c:	f102 3288 	add.w	r2, r2, #2290649224	; 0x88888888
 8017e90:	605a      	str	r2, [r3, #4]
 8017e92:	e7f7      	b.n	8017e84 <unlock_flash+0x8>
 8017e94:	40023c00 	.word	0x40023c00
 8017e98:	45670123 	.word	0x45670123

08017e9c <lock_flash>:
 8017e9c:	4a02      	ldr	r2, [pc, #8]	; (8017ea8 <lock_flash+0xc>)
 8017e9e:	6913      	ldr	r3, [r2, #16]
 8017ea0:	f043 4300 	orr.w	r3, r3, #2147483648	; 0x80000000
 8017ea4:	6113      	str	r3, [r2, #16]
 8017ea6:	4770      	bx	lr
 8017ea8:	40023c00 	.word	0x40023c00

08017eac <erase_flash_sector>:
 8017eac:	b510      	push	{r4, lr}
 8017eae:	4604      	mov	r4, r0
 8017eb0:	f000 fbd4 	bl	801865c <irq_disable>
 8017eb4:	4b11      	ldr	r3, [pc, #68]	; (8017efc <erase_flash_sector+0x50>)
 8017eb6:	68db      	ldr	r3, [r3, #12]
 8017eb8:	f413 3f80 	tst.w	r3, #65536	; 0x10000
 8017ebc:	d1fa      	bne.n	8017eb4 <erase_flash_sector+0x8>
 8017ebe:	4b0f      	ldr	r3, [pc, #60]	; (8017efc <erase_flash_sector+0x50>)
 8017ec0:	691a      	ldr	r2, [r3, #16]
 8017ec2:	f042 0202 	orr.w	r2, r2, #2
 8017ec6:	611a      	str	r2, [r3, #16]
 8017ec8:	691a      	ldr	r2, [r3, #16]
 8017eca:	ea42 02c4 	orr.w	r2, r2, r4, lsl #3
 8017ece:	611a      	str	r2, [r3, #16]
 8017ed0:	691a      	ldr	r2, [r3, #16]
 8017ed2:	f442 3280 	orr.w	r2, r2, #65536	; 0x10000
 8017ed6:	611a      	str	r2, [r3, #16]
 8017ed8:	4b08      	ldr	r3, [pc, #32]	; (8017efc <erase_flash_sector+0x50>)
 8017eda:	68db      	ldr	r3, [r3, #12]
 8017edc:	f413 3f80 	tst.w	r3, #65536	; 0x10000
 8017ee0:	d1fa      	bne.n	8017ed8 <erase_flash_sector+0x2c>
 8017ee2:	4b06      	ldr	r3, [pc, #24]	; (8017efc <erase_flash_sector+0x50>)
 8017ee4:	691a      	ldr	r2, [r3, #16]
 8017ee6:	f022 0202 	bic.w	r2, r2, #2
 8017eea:	611a      	str	r2, [r3, #16]
 8017eec:	691a      	ldr	r2, [r3, #16]
 8017eee:	f022 0278 	bic.w	r2, r2, #120	; 0x78
 8017ef2:	611a      	str	r2, [r3, #16]
 8017ef4:	f000 fbba 	bl	801866c <irq_enable>
 8017ef8:	bd10      	pop	{r4, pc}
 8017efa:	bf00      	nop
 8017efc:	40023c00 	.word	0x40023c00

08017f00 <erase_flash_sector3>:
 8017f00:	b508      	push	{r3, lr}
 8017f02:	f000 fbab 	bl	801865c <irq_disable>
 8017f06:	4b11      	ldr	r3, [pc, #68]	; (8017f4c <erase_flash_sector3+0x4c>)
 8017f08:	68db      	ldr	r3, [r3, #12]
 8017f0a:	f413 3f80 	tst.w	r3, #65536	; 0x10000
 8017f0e:	d1fa      	bne.n	8017f06 <erase_flash_sector3+0x6>
 8017f10:	4b0e      	ldr	r3, [pc, #56]	; (8017f4c <erase_flash_sector3+0x4c>)
 8017f12:	691a      	ldr	r2, [r3, #16]
 8017f14:	f042 0202 	orr.w	r2, r2, #2
 8017f18:	611a      	str	r2, [r3, #16]
 8017f1a:	691a      	ldr	r2, [r3, #16]
 8017f1c:	f042 0218 	orr.w	r2, r2, #24
 8017f20:	611a      	str	r2, [r3, #16]
 8017f22:	691a      	ldr	r2, [r3, #16]
 8017f24:	f442 3280 	orr.w	r2, r2, #65536	; 0x10000
 8017f28:	611a      	str	r2, [r3, #16]
 8017f2a:	4b08      	ldr	r3, [pc, #32]	; (8017f4c <erase_flash_sector3+0x4c>)
 8017f2c:	68db      	ldr	r3, [r3, #12]
 8017f2e:	f413 3f80 	tst.w	r3, #65536	; 0x10000
 8017f32:	d1fa      	bne.n	8017f2a <erase_flash_sector3+0x2a>
 8017f34:	4b05      	ldr	r3, [pc, #20]	; (8017f4c <erase_flash_sector3+0x4c>)
 8017f36:	691a      	ldr	r2, [r3, #16]
 8017f38:	f022 0202 	bic.w	r2, r2, #2
 8017f3c:	611a      	str	r2, [r3, #16]
 8017f3e:	691a      	ldr	r2, [r3, #16]
 8017f40:	f022 0278 	bic.w	r2, r2, #120	; 0x78
 8017f44:	611a      	str	r2, [r3, #16]
 8017f46:	f000 fb91 	bl	801866c <irq_enable>
 8017f4a:	bd08      	pop	{r3, pc}
 8017f4c:	40023c00 	.word	0x40023c00

08017f50 <erase_flash_sector4>:
 8017f50:	b508      	push	{r3, lr}
 8017f52:	f000 fb83 	bl	801865c <irq_disable>
 8017f56:	4b11      	ldr	r3, [pc, #68]	; (8017f9c <erase_flash_sector4+0x4c>)
 8017f58:	68db      	ldr	r3, [r3, #12]
 8017f5a:	f413 3f80 	tst.w	r3, #65536	; 0x10000
 8017f5e:	d1fa      	bne.n	8017f56 <erase_flash_sector4+0x6>
 8017f60:	4b0e      	ldr	r3, [pc, #56]	; (8017f9c <erase_flash_sector4+0x4c>)
 8017f62:	691a      	ldr	r2, [r3, #16]
 8017f64:	f042 0202 	orr.w	r2, r2, #2
 8017f68:	611a      	str	r2, [r3, #16]
 8017f6a:	691a      	ldr	r2, [r3, #16]
 8017f6c:	f042 0220 	orr.w	r2, r2, #32
 8017f70:	611a      	str	r2, [r3, #16]
 8017f72:	691a      	ldr	r2, [r3, #16]
 8017f74:	f442 3280 	orr.w	r2, r2, #65536	; 0x10000
 8017f78:	611a      	str	r2, [r3, #16]
 8017f7a:	4b08      	ldr	r3, [pc, #32]	; (8017f9c <erase_flash_sector4+0x4c>)
 8017f7c:	68db      	ldr	r3, [r3, #12]
 8017f7e:	f413 3f80 	tst.w	r3, #65536	; 0x10000
 8017f82:	d1fa      	bne.n	8017f7a <erase_flash_sector4+0x2a>
 8017f84:	4b05      	ldr	r3, [pc, #20]	; (8017f9c <erase_flash_sector4+0x4c>)
 8017f86:	691a      	ldr	r2, [r3, #16]
 8017f88:	f022 0202 	bic.w	r2, r2, #2
 8017f8c:	611a      	str	r2, [r3, #16]
 8017f8e:	691a      	ldr	r2, [r3, #16]
 8017f90:	f022 0278 	bic.w	r2, r2, #120	; 0x78
 8017f94:	611a      	str	r2, [r3, #16]
 8017f96:	f000 fb69 	bl	801866c <irq_enable>
 8017f9a:	bd08      	pop	{r3, pc}
 8017f9c:	40023c00 	.word	0x40023c00

08017fa0 <erase_flash_sector5>:
 8017fa0:	b508      	push	{r3, lr}
 8017fa2:	f000 fb5b 	bl	801865c <irq_disable>
 8017fa6:	4b11      	ldr	r3, [pc, #68]	; (8017fec <erase_flash_sector5+0x4c>)
 8017fa8:	68db      	ldr	r3, [r3, #12]
 8017faa:	f413 3f80 	tst.w	r3, #65536	; 0x10000
 8017fae:	d1fa      	bne.n	8017fa6 <erase_flash_sector5+0x6>
 8017fb0:	4b0e      	ldr	r3, [pc, #56]	; (8017fec <erase_flash_sector5+0x4c>)
 8017fb2:	691a      	ldr	r2, [r3, #16]
 8017fb4:	f042 0202 	orr.w	r2, r2, #2
 8017fb8:	611a      	str	r2, [r3, #16]
 8017fba:	691a      	ldr	r2, [r3, #16]
 8017fbc:	f042 0228 	orr.w	r2, r2, #40	; 0x28
 8017fc0:	611a      	str	r2, [r3, #16]
 8017fc2:	691a      	ldr	r2, [r3, #16]
 8017fc4:	f442 3280 	orr.w	r2, r2, #65536	; 0x10000
 8017fc8:	611a      	str	r2, [r3, #16]
 8017fca:	4b08      	ldr	r3, [pc, #32]	; (8017fec <erase_flash_sector5+0x4c>)
 8017fcc:	68db      	ldr	r3, [r3, #12]
 8017fce:	f413 3f80 	tst.w	r3, #65536	; 0x10000
 8017fd2:	d1fa      	bne.n	8017fca <erase_flash_sector5+0x2a>
 8017fd4:	4b05      	ldr	r3, [pc, #20]	; (8017fec <erase_flash_sector5+0x4c>)
 8017fd6:	691a      	ldr	r2, [r3, #16]
 8017fd8:	f022 0202 	bic.w	r2, r2, #2
 8017fdc:	611a      	str	r2, [r3, #16]
 8017fde:	691a      	ldr	r2, [r3, #16]
 8017fe0:	f022 0278 	bic.w	r2, r2, #120	; 0x78
 8017fe4:	611a      	str	r2, [r3, #16]
 8017fe6:	f000 fb41 	bl	801866c <irq_enable>
 8017fea:	bd08      	pop	{r3, pc}
 8017fec:	40023c00 	.word	0x40023c00

08017ff0 <erase_flash_sector6>:
 8017ff0:	b508      	push	{r3, lr}
 8017ff2:	f000 fb33 	bl	801865c <irq_disable>
 8017ff6:	4b11      	ldr	r3, [pc, #68]	; (801803c <erase_flash_sector6+0x4c>)
 8017ff8:	68db      	ldr	r3, [r3, #12]
 8017ffa:	f413 3f80 	tst.w	r3, #65536	; 0x10000
 8017ffe:	d1fa      	bne.n	8017ff6 <erase_flash_sector6+0x6>
 8018000:	4b0e      	ldr	r3, [pc, #56]	; (801803c <erase_flash_sector6+0x4c>)
 8018002:	691a      	ldr	r2, [r3, #16]
 8018004:	f042 0202 	orr.w	r2, r2, #2
 8018008:	611a      	str	r2, [r3, #16]
 801800a:	691a      	ldr	r2, [r3, #16]
 801800c:	f042 0230 	orr.w	r2, r2, #48	; 0x30
 8018010:	611a      	str	r2, [r3, #16]
 8018012:	691a      	ldr	r2, [r3, #16]
 8018014:	f442 3280 	orr.w	r2, r2, #65536	; 0x10000
 8018018:	611a      	str	r2, [r3, #16]
 801801a:	4b08      	ldr	r3, [pc, #32]	; (801803c <erase_flash_sector6+0x4c>)
 801801c:	68db      	ldr	r3, [r3, #12]
 801801e:	f413 3f80 	tst.w	r3, #65536	; 0x10000
 8018022:	d1fa      	bne.n	801801a <erase_flash_sector6+0x2a>
 8018024:	4b05      	ldr	r3, [pc, #20]	; (801803c <erase_flash_sector6+0x4c>)
 8018026:	691a      	ldr	r2, [r3, #16]
 8018028:	f022 0202 	bic.w	r2, r2, #2
 801802c:	611a      	str	r2, [r3, #16]
 801802e:	691a      	ldr	r2, [r3, #16]
 8018030:	f022 0278 	bic.w	r2, r2, #120	; 0x78
 8018034:	611a      	str	r2, [r3, #16]
 8018036:	f000 fb19 	bl	801866c <irq_enable>
 801803a:	bd08      	pop	{r3, pc}
 801803c:	40023c00 	.word	0x40023c00

08018040 <erase_flash_sector7>:
 8018040:	b508      	push	{r3, lr}
 8018042:	f000 fb0b 	bl	801865c <irq_disable>
 8018046:	4b11      	ldr	r3, [pc, #68]	; (801808c <erase_flash_sector7+0x4c>)
 8018048:	68db      	ldr	r3, [r3, #12]
 801804a:	f413 3f80 	tst.w	r3, #65536	; 0x10000
 801804e:	d1fa      	bne.n	8018046 <erase_flash_sector7+0x6>
 8018050:	4b0e      	ldr	r3, [pc, #56]	; (801808c <erase_flash_sector7+0x4c>)
 8018052:	691a      	ldr	r2, [r3, #16]
 8018054:	f042 0202 	orr.w	r2, r2, #2
 8018058:	611a      	str	r2, [r3, #16]
 801805a:	691a      	ldr	r2, [r3, #16]
 801805c:	f042 0238 	orr.w	r2, r2, #56	; 0x38
 8018060:	611a      	str	r2, [r3, #16]
 8018062:	691a      	ldr	r2, [r3, #16]
 8018064:	f442 3280 	orr.w	r2, r2, #65536	; 0x10000
 8018068:	611a      	str	r2, [r3, #16]
 801806a:	4b08      	ldr	r3, [pc, #32]	; (801808c <erase_flash_sector7+0x4c>)
 801806c:	68db      	ldr	r3, [r3, #12]
 801806e:	f413 3f80 	tst.w	r3, #65536	; 0x10000
 8018072:	d1fa      	bne.n	801806a <erase_flash_sector7+0x2a>
 8018074:	4b05      	ldr	r3, [pc, #20]	; (801808c <erase_flash_sector7+0x4c>)
 8018076:	691a      	ldr	r2, [r3, #16]
 8018078:	f022 0202 	bic.w	r2, r2, #2
 801807c:	611a      	str	r2, [r3, #16]
 801807e:	691a      	ldr	r2, [r3, #16]
 8018080:	f022 0278 	bic.w	r2, r2, #120	; 0x78
 8018084:	611a      	str	r2, [r3, #16]
 8018086:	f000 faf1 	bl	801866c <irq_enable>
 801808a:	bd08      	pop	{r3, pc}
 801808c:	40023c00 	.word	0x40023c00

08018090 <erase_flash_sector8>:
 8018090:	b508      	push	{r3, lr}
 8018092:	f000 fae3 	bl	801865c <irq_disable>
 8018096:	4b11      	ldr	r3, [pc, #68]	; (80180dc <erase_flash_sector8+0x4c>)
 8018098:	68db      	ldr	r3, [r3, #12]
 801809a:	f413 3f80 	tst.w	r3, #65536	; 0x10000
 801809e:	d1fa      	bne.n	8018096 <erase_flash_sector8+0x6>
 80180a0:	4b0e      	ldr	r3, [pc, #56]	; (80180dc <erase_flash_sector8+0x4c>)
 80180a2:	691a      	ldr	r2, [r3, #16]
 80180a4:	f042 0202 	orr.w	r2, r2, #2
 80180a8:	611a      	str	r2, [r3, #16]
 80180aa:	691a      	ldr	r2, [r3, #16]
 80180ac:	f042 0240 	orr.w	r2, r2, #64	; 0x40
 80180b0:	611a      	str	r2, [r3, #16]
 80180b2:	691a      	ldr	r2, [r3, #16]
 80180b4:	f442 3280 	orr.w	r2, r2, #65536	; 0x10000
 80180b8:	611a      	str	r2, [r3, #16]
 80180ba:	4b08      	ldr	r3, [pc, #32]	; (80180dc <erase_flash_sector8+0x4c>)
 80180bc:	68db      	ldr	r3, [r3, #12]
 80180be:	f413 3f80 	tst.w	r3, #65536	; 0x10000
 80180c2:	d1fa      	bne.n	80180ba <erase_flash_sector8+0x2a>
 80180c4:	4b05      	ldr	r3, [pc, #20]	; (80180dc <erase_flash_sector8+0x4c>)
 80180c6:	691a      	ldr	r2, [r3, #16]
 80180c8:	f022 0202 	bic.w	r2, r2, #2
 80180cc:	611a      	str	r2, [r3, #16]
 80180ce:	691a      	ldr	r2, [r3, #16]
 80180d0:	f022 0278 	bic.w	r2, r2, #120	; 0x78
 80180d4:	611a      	str	r2, [r3, #16]
 80180d6:	f000 fac9 	bl	801866c <irq_enable>
 80180da:	bd08      	pop	{r3, pc}
 80180dc:	40023c00 	.word	0x40023c00

080180e0 <erase_flash_sector9>:
 80180e0:	b508      	push	{r3, lr}
 80180e2:	f000 fabb 	bl	801865c <irq_disable>
 80180e6:	4b11      	ldr	r3, [pc, #68]	; (801812c <erase_flash_sector9+0x4c>)
 80180e8:	68db      	ldr	r3, [r3, #12]
 80180ea:	f413 3f80 	tst.w	r3, #65536	; 0x10000
 80180ee:	d1fa      	bne.n	80180e6 <erase_flash_sector9+0x6>
 80180f0:	4b0e      	ldr	r3, [pc, #56]	; (801812c <erase_flash_sector9+0x4c>)
 80180f2:	691a      	ldr	r2, [r3, #16]
 80180f4:	f042 0202 	orr.w	r2, r2, #2
 80180f8:	611a      	str	r2, [r3, #16]
 80180fa:	691a      	ldr	r2, [r3, #16]
 80180fc:	f042 0248 	orr.w	r2, r2, #72	; 0x48
 8018100:	611a      	str	r2, [r3, #16]
 8018102:	691a      	ldr	r2, [r3, #16]
 8018104:	f442 3280 	orr.w	r2, r2, #65536	; 0x10000
 8018108:	611a      	str	r2, [r3, #16]
 801810a:	4b08      	ldr	r3, [pc, #32]	; (801812c <erase_flash_sector9+0x4c>)
 801810c:	68db      	ldr	r3, [r3, #12]
 801810e:	f413 3f80 	tst.w	r3, #65536	; 0x10000
 8018112:	d1fa      	bne.n	801810a <erase_flash_sector9+0x2a>
 8018114:	4b05      	ldr	r3, [pc, #20]	; (801812c <erase_flash_sector9+0x4c>)
 8018116:	691a      	ldr	r2, [r3, #16]
 8018118:	f022 0202 	bic.w	r2, r2, #2
 801811c:	611a      	str	r2, [r3, #16]
 801811e:	691a      	ldr	r2, [r3, #16]
 8018120:	f022 0278 	bic.w	r2, r2, #120	; 0x78
 8018124:	611a      	str	r2, [r3, #16]
 8018126:	f000 faa1 	bl	801866c <irq_enable>
 801812a:	bd08      	pop	{r3, pc}
 801812c:	40023c00 	.word	0x40023c00

08018130 <erase_flash_sector10>:
 8018130:	b508      	push	{r3, lr}
 8018132:	f000 fa93 	bl	801865c <irq_disable>
 8018136:	4b11      	ldr	r3, [pc, #68]	; (801817c <erase_flash_sector10+0x4c>)
 8018138:	68db      	ldr	r3, [r3, #12]
 801813a:	f413 3f80 	tst.w	r3, #65536	; 0x10000
 801813e:	d1fa      	bne.n	8018136 <erase_flash_sector10+0x6>
 8018140:	4b0e      	ldr	r3, [pc, #56]	; (801817c <erase_flash_sector10+0x4c>)
 8018142:	691a      	ldr	r2, [r3, #16]
 8018144:	f042 0202 	orr.w	r2, r2, #2
 8018148:	611a      	str	r2, [r3, #16]
 801814a:	691a      	ldr	r2, [r3, #16]
 801814c:	f042 0250 	orr.w	r2, r2, #80	; 0x50
 8018150:	611a      	str	r2, [r3, #16]
 8018152:	691a      	ldr	r2, [r3, #16]
 8018154:	f442 3280 	orr.w	r2, r2, #65536	; 0x10000
 8018158:	611a      	str	r2, [r3, #16]
 801815a:	4b08      	ldr	r3, [pc, #32]	; (801817c <erase_flash_sector10+0x4c>)
 801815c:	68db      	ldr	r3, [r3, #12]
 801815e:	f413 3f80 	tst.w	r3, #65536	; 0x10000
 8018162:	d1fa      	bne.n	801815a <erase_flash_sector10+0x2a>
 8018164:	4b05      	ldr	r3, [pc, #20]	; (801817c <erase_flash_sector10+0x4c>)
 8018166:	691a      	ldr	r2, [r3, #16]
 8018168:	f022 0202 	bic.w	r2, r2, #2
 801816c:	611a      	str	r2, [r3, #16]
 801816e:	691a      	ldr	r2, [r3, #16]
 8018170:	f022 0278 	bic.w	r2, r2, #120	; 0x78
 8018174:	611a      	str	r2, [r3, #16]
 8018176:	f000 fa79 	bl	801866c <irq_enable>
 801817a:	bd08      	pop	{r3, pc}
 801817c:	40023c00 	.word	0x40023c00

08018180 <erase_flash_sector11>:
 8018180:	b508      	push	{r3, lr}
 8018182:	f000 fa6b 	bl	801865c <irq_disable>
 8018186:	4b11      	ldr	r3, [pc, #68]	; (80181cc <erase_flash_sector11+0x4c>)
 8018188:	68db      	ldr	r3, [r3, #12]
 801818a:	f413 3f80 	tst.w	r3, #65536	; 0x10000
 801818e:	d1fa      	bne.n	8018186 <erase_flash_sector11+0x6>
 8018190:	4b0e      	ldr	r3, [pc, #56]	; (80181cc <erase_flash_sector11+0x4c>)
 8018192:	691a      	ldr	r2, [r3, #16]
 8018194:	f042 0202 	orr.w	r2, r2, #2
 8018198:	611a      	str	r2, [r3, #16]
 801819a:	691a      	ldr	r2, [r3, #16]
 801819c:	f042 0258 	orr.w	r2, r2, #88	; 0x58
 80181a0:	611a      	str	r2, [r3, #16]
 80181a2:	691a      	ldr	r2, [r3, #16]
 80181a4:	f442 3280 	orr.w	r2, r2, #65536	; 0x10000
 80181a8:	611a      	str	r2, [r3, #16]
 80181aa:	4b08      	ldr	r3, [pc, #32]	; (80181cc <erase_flash_sector11+0x4c>)
 80181ac:	68db      	ldr	r3, [r3, #12]
 80181ae:	f413 3f80 	tst.w	r3, #65536	; 0x10000
 80181b2:	d1fa      	bne.n	80181aa <erase_flash_sector11+0x2a>
 80181b4:	4b05      	ldr	r3, [pc, #20]	; (80181cc <erase_flash_sector11+0x4c>)
 80181b6:	691a      	ldr	r2, [r3, #16]
 80181b8:	f022 0202 	bic.w	r2, r2, #2
 80181bc:	611a      	str	r2, [r3, #16]
 80181be:	691a      	ldr	r2, [r3, #16]
 80181c0:	f022 0278 	bic.w	r2, r2, #120	; 0x78
 80181c4:	611a      	str	r2, [r3, #16]
 80181c6:	f000 fa51 	bl	801866c <irq_enable>
 80181ca:	bd08      	pop	{r3, pc}
 80181cc:	40023c00 	.word	0x40023c00

080181d0 <erase_flash_sector12>:
 80181d0:	b508      	push	{r3, lr}
 80181d2:	f000 fa43 	bl	801865c <irq_disable>
 80181d6:	4b11      	ldr	r3, [pc, #68]	; (801821c <erase_flash_sector12+0x4c>)
 80181d8:	68db      	ldr	r3, [r3, #12]
 80181da:	f413 3f80 	tst.w	r3, #65536	; 0x10000
 80181de:	d1fa      	bne.n	80181d6 <erase_flash_sector12+0x6>
 80181e0:	4b0e      	ldr	r3, [pc, #56]	; (801821c <erase_flash_sector12+0x4c>)
 80181e2:	691a      	ldr	r2, [r3, #16]
 80181e4:	f042 0202 	orr.w	r2, r2, #2
 80181e8:	611a      	str	r2, [r3, #16]
 80181ea:	691a      	ldr	r2, [r3, #16]
 80181ec:	f042 0260 	orr.w	r2, r2, #96	; 0x60
 80181f0:	611a      	str	r2, [r3, #16]
 80181f2:	691a      	ldr	r2, [r3, #16]
 80181f4:	f442 3280 	orr.w	r2, r2, #65536	; 0x10000
 80181f8:	611a      	str	r2, [r3, #16]
 80181fa:	4b08      	ldr	r3, [pc, #32]	; (801821c <erase_flash_sector12+0x4c>)
 80181fc:	68db      	ldr	r3, [r3, #12]
 80181fe:	f413 3f80 	tst.w	r3, #65536	; 0x10000
 8018202:	d1fa      	bne.n	80181fa <erase_flash_sector12+0x2a>
 8018204:	4b05      	ldr	r3, [pc, #20]	; (801821c <erase_flash_sector12+0x4c>)
 8018206:	691a      	ldr	r2, [r3, #16]
 8018208:	f022 0202 	bic.w	r2, r2, #2
 801820c:	611a      	str	r2, [r3, #16]
 801820e:	691a      	ldr	r2, [r3, #16]
 8018210:	f022 0278 	bic.w	r2, r2, #120	; 0x78
 8018214:	611a      	str	r2, [r3, #16]
 8018216:	f000 fa29 	bl	801866c <irq_enable>
 801821a:	bd08      	pop	{r3, pc}
 801821c:	40023c00 	.word	0x40023c00

08018220 <write_flash>:
 8018220:	4b0e      	ldr	r3, [pc, #56]	; (801825c <write_flash+0x3c>)
 8018222:	68db      	ldr	r3, [r3, #12]
 8018224:	f413 3f80 	tst.w	r3, #65536	; 0x10000
 8018228:	d1fa      	bne.n	8018220 <write_flash>
 801822a:	4b0c      	ldr	r3, [pc, #48]	; (801825c <write_flash+0x3c>)
 801822c:	691a      	ldr	r2, [r3, #16]
 801822e:	f042 0201 	orr.w	r2, r2, #1
 8018232:	611a      	str	r2, [r3, #16]
 8018234:	691a      	ldr	r2, [r3, #16]
 8018236:	f422 7240 	bic.w	r2, r2, #768	; 0x300
 801823a:	611a      	str	r2, [r3, #16]
 801823c:	691a      	ldr	r2, [r3, #16]
 801823e:	f442 7200 	orr.w	r2, r2, #512	; 0x200
 8018242:	611a      	str	r2, [r3, #16]
 8018244:	6001      	str	r1, [r0, #0]
 8018246:	4b05      	ldr	r3, [pc, #20]	; (801825c <write_flash+0x3c>)
 8018248:	68db      	ldr	r3, [r3, #12]
 801824a:	f413 3f80 	tst.w	r3, #65536	; 0x10000
 801824e:	d1fa      	bne.n	8018246 <write_flash+0x26>
 8018250:	4a02      	ldr	r2, [pc, #8]	; (801825c <write_flash+0x3c>)
 8018252:	6913      	ldr	r3, [r2, #16]
 8018254:	f023 0301 	bic.w	r3, r3, #1
 8018258:	6113      	str	r3, [r2, #16]
 801825a:	4770      	bx	lr
 801825c:	40023c00 	.word	0x40023c00

08018260 <getUrlTargetFileBoot>:
 8018260:	b570      	push	{r4, r5, r6, lr}
 8018262:	4914      	ldr	r1, [pc, #80]	; (80182b4 <getUrlTargetFileBoot+0x54>)
 8018264:	4814      	ldr	r0, [pc, #80]	; (80182b8 <getUrlTargetFileBoot+0x58>)
 8018266:	f7fd fced 	bl	8015c44 <fl_fopen>
 801826a:	4604      	mov	r4, r0
 801826c:	b1d0      	cbz	r0, 80182a4 <getUrlTargetFileBoot+0x44>
 801826e:	2202      	movs	r2, #2
 8018270:	2100      	movs	r1, #0
 8018272:	f7fd fef2 	bl	801605a <fl_fseek>
 8018276:	4620      	mov	r0, r4
 8018278:	f7fd ff5a 	bl	8016130 <fl_ftell>
 801827c:	4605      	mov	r5, r0
 801827e:	2200      	movs	r2, #0
 8018280:	4611      	mov	r1, r2
 8018282:	4620      	mov	r0, r4
 8018284:	f7fd fee9 	bl	801605a <fl_fseek>
 8018288:	1c68      	adds	r0, r5, #1
 801828a:	f7f9 feb5 	bl	8011ff8 <malloc>
 801828e:	4606      	mov	r6, r0
 8018290:	4623      	mov	r3, r4
 8018292:	2201      	movs	r2, #1
 8018294:	4629      	mov	r1, r5
 8018296:	f7fd fe27 	bl	8015ee8 <fl_fread>
 801829a:	4620      	mov	r0, r4
 801829c:	f7fd fdee 	bl	8015e7c <fl_fclose>
 80182a0:	4630      	mov	r0, r6
 80182a2:	bd70      	pop	{r4, r5, r6, pc}
 80182a4:	4805      	ldr	r0, [pc, #20]	; (80182bc <getUrlTargetFileBoot+0x5c>)
 80182a6:	f7f9 fa39 	bl	801171c <kprintf>
 80182aa:	4805      	ldr	r0, [pc, #20]	; (80182c0 <getUrlTargetFileBoot+0x60>)
 80182ac:	f7f9 fa36 	bl	801171c <kprintf>
 80182b0:	4626      	mov	r6, r4
 80182b2:	e7f5      	b.n	80182a0 <getUrlTargetFileBoot+0x40>
 80182b4:	08018b5c 	.word	0x08018b5c
 80182b8:	08018ba4 	.word	0x08018ba4
 80182bc:	08018bb4 	.word	0x08018bb4
 80182c0:	08018bcc 	.word	0x08018bcc

080182c4 <setUrlTargetFileBoot>:
 80182c4:	b570      	push	{r4, r5, r6, lr}
 80182c6:	4604      	mov	r4, r0
 80182c8:	4d0f      	ldr	r5, [pc, #60]	; (8018308 <setUrlTargetFileBoot+0x44>)
 80182ca:	4628      	mov	r0, r5
 80182cc:	f7fe f829 	bl	8016322 <fl_remove>
 80182d0:	490e      	ldr	r1, [pc, #56]	; (801830c <setUrlTargetFileBoot+0x48>)
 80182d2:	4628      	mov	r0, r5
 80182d4:	f7fd fcb6 	bl	8015c44 <fl_fopen>
 80182d8:	b188      	cbz	r0, 80182fe <setUrlTargetFileBoot+0x3a>
 80182da:	4605      	mov	r5, r0
 80182dc:	4620      	mov	r0, r4
 80182de:	f7f9 fb69 	bl	80119b4 <strlen>
 80182e2:	2600      	movs	r6, #0
 80182e4:	5426      	strb	r6, [r4, r0]
 80182e6:	4629      	mov	r1, r5
 80182e8:	4620      	mov	r0, r4
 80182ea:	f7fe f809 	bl	8016300 <fl_fputs>
 80182ee:	4629      	mov	r1, r5
 80182f0:	4630      	mov	r0, r6
 80182f2:	f7fd fff3 	bl	80162dc <fl_fputc>
 80182f6:	4628      	mov	r0, r5
 80182f8:	f7fd fdc0 	bl	8015e7c <fl_fclose>
 80182fc:	bd70      	pop	{r4, r5, r6, pc}
 80182fe:	4804      	ldr	r0, [pc, #16]	; (8018310 <setUrlTargetFileBoot+0x4c>)
 8018300:	f7f9 fa0c 	bl	801171c <kprintf>
 8018304:	e7fa      	b.n	80182fc <setUrlTargetFileBoot+0x38>
 8018306:	bf00      	nop
 8018308:	08018ba4 	.word	0x08018ba4
 801830c:	08018bd8 	.word	0x08018bd8
 8018310:	08018bdc 	.word	0x08018bdc

08018314 <main>:
 8018314:	b510      	push	{r4, lr}
 8018316:	4c1d      	ldr	r4, [pc, #116]	; (801838c <main+0x78>)
 8018318:	f44f 7270 	mov.w	r2, #960	; 0x3c0
 801831c:	2100      	movs	r1, #0
 801831e:	4620      	mov	r0, r4
 8018320:	f7fa f9a3 	bl	801266a <hw_cfg_pin>
 8018324:	f44f 7264 	mov.w	r2, #912	; 0x390
 8018328:	2108      	movs	r1, #8
 801832a:	4620      	mov	r0, r4
 801832c:	f7fa f99d 	bl	801266a <hw_cfg_pin>
 8018330:	2100      	movs	r1, #0
 8018332:	4816      	ldr	r0, [pc, #88]	; (801838c <main+0x78>)
 8018334:	f7fa f9e4 	bl	8012700 <hw_get_pin>
 8018338:	b138      	cbz	r0, 801834a <main+0x36>
 801833a:	2108      	movs	r1, #8
 801833c:	4813      	ldr	r0, [pc, #76]	; (801838c <main+0x78>)
 801833e:	f7fa f9e6 	bl	801270e <hw_toggle_pin>
 8018342:	2046      	movs	r0, #70	; 0x46
 8018344:	f7ff fc0e 	bl	8017b64 <delay>
 8018348:	e7f2      	b.n	8018330 <main+0x1c>
 801834a:	f7fb fd8d 	bl	8013e68 <sd_init>
 801834e:	4604      	mov	r4, r0
 8018350:	f7fd fc16 	bl	8015b80 <fl_init>
 8018354:	490e      	ldr	r1, [pc, #56]	; (8018390 <main+0x7c>)
 8018356:	480f      	ldr	r0, [pc, #60]	; (8018394 <main+0x80>)
 8018358:	f7fd fc3a 	bl	8015bd0 <fl_attach_media>
 801835c:	b158      	cbz	r0, 8018376 <main+0x62>
 801835e:	480e      	ldr	r0, [pc, #56]	; (8018398 <main+0x84>)
 8018360:	f7f9 f9dc 	bl	801171c <kprintf>
 8018364:	490d      	ldr	r1, [pc, #52]	; (801839c <main+0x88>)
 8018366:	4620      	mov	r0, r4
 8018368:	f7fe f8c6 	bl	80164f8 <fl_format>
 801836c:	b150      	cbz	r0, 8018384 <main+0x70>
 801836e:	480c      	ldr	r0, [pc, #48]	; (80183a0 <main+0x8c>)
 8018370:	f7f9 f9d4 	bl	801171c <kprintf>
 8018374:	e7e9      	b.n	801834a <main+0x36>
 8018376:	480b      	ldr	r0, [pc, #44]	; (80183a4 <main+0x90>)
 8018378:	f7fe f878 	bl	801646c <fl_listdirectory>
 801837c:	480a      	ldr	r0, [pc, #40]	; (80183a8 <main+0x94>)
 801837e:	f7ff fb67 	bl	8017a50 <panic>
 8018382:	e7fe      	b.n	8018382 <main+0x6e>
 8018384:	f04f 30ff 	mov.w	r0, #4294967295	; 0xffffffff
 8018388:	bd10      	pop	{r4, pc}
 801838a:	bf00      	nop
 801838c:	40020000 	.word	0x40020000
 8018390:	08013ead 	.word	0x08013ead
 8018394:	08013e95 	.word	0x08013e95
 8018398:	08018be8 	.word	0x08018be8
 801839c:	080189c4 	.word	0x080189c4
 80183a0:	08018c0c 	.word	0x08018c0c
 80183a4:	08018c18 	.word	0x08018c18
 80183a8:	08018c1c 	.word	0x08018c1c

080183ac <lexan>:
 80183ac:	b5f0      	push	{r4, r5, r6, r7, lr}
 80183ae:	469c      	mov	ip, r3
 80183b0:	9b05      	ldr	r3, [sp, #20]
 80183b2:	9f06      	ldr	r7, [sp, #24]
 80183b4:	2400      	movs	r4, #0
 80183b6:	4626      	mov	r6, r4
 80183b8:	e02a      	b.n	8018410 <lexan+0x64>
 80183ba:	3001      	adds	r0, #1
 80183bc:	7801      	ldrb	r1, [r0, #0]
 80183be:	2920      	cmp	r1, #32
 80183c0:	d0fb      	beq.n	80183ba <lexan+0xe>
 80183c2:	2909      	cmp	r1, #9
 80183c4:	d0f9      	beq.n	80183ba <lexan+0xe>
 80183c6:	290a      	cmp	r1, #10
 80183c8:	d013      	beq.n	80183f2 <lexan+0x46>
 80183ca:	b191      	cbz	r1, 80183f2 <lexan+0x46>
 80183cc:	00b5      	lsls	r5, r6, #2
 80183ce:	f843 4026 	str.w	r4, [r3, r6, lsl #2]
 80183d2:	2926      	cmp	r1, #38	; 0x26
 80183d4:	d011      	beq.n	80183fa <lexan+0x4e>
 80183d6:	293c      	cmp	r1, #60	; 0x3c
 80183d8:	d024      	beq.n	8018424 <lexan+0x78>
 80183da:	f04f 0e03 	mov.w	lr, #3
 80183de:	f847 e005 	str.w	lr, [r7, r5]
 80183e2:	2927      	cmp	r1, #39	; 0x27
 80183e4:	d02d      	beq.n	8018442 <lexan+0x96>
 80183e6:	2922      	cmp	r1, #34	; 0x22
 80183e8:	d02b      	beq.n	8018442 <lexan+0x96>
 80183ea:	1c65      	adds	r5, r4, #1
 80183ec:	5511      	strb	r1, [r2, r4]
 80183ee:	3001      	adds	r0, #1
 80183f0:	e03d      	b.n	801846e <lexan+0xc2>
 80183f2:	f8cc 4000 	str.w	r4, [ip]
 80183f6:	4630      	mov	r0, r6
 80183f8:	e013      	b.n	8018422 <lexan+0x76>
 80183fa:	f04f 0e00 	mov.w	lr, #0
 80183fe:	f847 e026 	str.w	lr, [r7, r6, lsl #2]
 8018402:	1c65      	adds	r5, r4, #1
 8018404:	5511      	strb	r1, [r2, r4]
 8018406:	f802 e005 	strb.w	lr, [r2, r5]
 801840a:	3402      	adds	r4, #2
 801840c:	3601      	adds	r6, #1
 801840e:	3001      	adds	r0, #1
 8018410:	7801      	ldrb	r1, [r0, #0]
 8018412:	2900      	cmp	r1, #0
 8018414:	d04a      	beq.n	80184ac <lexan+0x100>
 8018416:	290a      	cmp	r1, #10
 8018418:	d048      	beq.n	80184ac <lexan+0x100>
 801841a:	2e05      	cmp	r6, #5
 801841c:	d9ce      	bls.n	80183bc <lexan+0x10>
 801841e:	f04f 30ff 	mov.w	r0, #4294967295	; 0xffffffff
 8018422:	bdf0      	pop	{r4, r5, r6, r7, pc}
 8018424:	f04f 0e01 	mov.w	lr, #1
 8018428:	f847 e005 	str.w	lr, [r7, r5]
 801842c:	eb04 050e 	add.w	r5, r4, lr
 8018430:	5511      	strb	r1, [r2, r4]
 8018432:	f04f 0e00 	mov.w	lr, #0
 8018436:	f802 e005 	strb.w	lr, [r2, r5]
 801843a:	3402      	adds	r4, #2
 801843c:	3601      	adds	r6, #1
 801843e:	3001      	adds	r0, #1
 8018440:	e7e6      	b.n	8018410 <lexan+0x64>
 8018442:	3001      	adds	r0, #1
 8018444:	e001      	b.n	801844a <lexan+0x9e>
 8018446:	5515      	strb	r5, [r2, r4]
 8018448:	3401      	adds	r4, #1
 801844a:	f810 5b01 	ldrb.w	r5, [r0], #1
 801844e:	42a9      	cmp	r1, r5
 8018450:	d003      	beq.n	801845a <lexan+0xae>
 8018452:	2d0a      	cmp	r5, #10
 8018454:	d001      	beq.n	801845a <lexan+0xae>
 8018456:	2d00      	cmp	r5, #0
 8018458:	d1f5      	bne.n	8018446 <lexan+0x9a>
 801845a:	42a9      	cmp	r1, r5
 801845c:	d12a      	bne.n	80184b4 <lexan+0x108>
 801845e:	2100      	movs	r1, #0
 8018460:	5511      	strb	r1, [r2, r4]
 8018462:	3601      	adds	r6, #1
 8018464:	3401      	adds	r4, #1
 8018466:	e7d3      	b.n	8018410 <lexan+0x64>
 8018468:	5551      	strb	r1, [r2, r5]
 801846a:	3001      	adds	r0, #1
 801846c:	3501      	adds	r5, #1
 801846e:	7801      	ldrb	r1, [r0, #0]
 8018470:	290a      	cmp	r1, #10
 8018472:	d00e      	beq.n	8018492 <lexan+0xe6>
 8018474:	b169      	cbz	r1, 8018492 <lexan+0xe6>
 8018476:	293c      	cmp	r1, #60	; 0x3c
 8018478:	d00b      	beq.n	8018492 <lexan+0xe6>
 801847a:	293e      	cmp	r1, #62	; 0x3e
 801847c:	d009      	beq.n	8018492 <lexan+0xe6>
 801847e:	2920      	cmp	r1, #32
 8018480:	d007      	beq.n	8018492 <lexan+0xe6>
 8018482:	2909      	cmp	r1, #9
 8018484:	d005      	beq.n	8018492 <lexan+0xe6>
 8018486:	2926      	cmp	r1, #38	; 0x26
 8018488:	d003      	beq.n	8018492 <lexan+0xe6>
 801848a:	2927      	cmp	r1, #39	; 0x27
 801848c:	d001      	beq.n	8018492 <lexan+0xe6>
 801848e:	2922      	cmp	r1, #34	; 0x22
 8018490:	d1ea      	bne.n	8018468 <lexan+0xbc>
 8018492:	2927      	cmp	r1, #39	; 0x27
 8018494:	d011      	beq.n	80184ba <lexan+0x10e>
 8018496:	2922      	cmp	r1, #34	; 0x22
 8018498:	d012      	beq.n	80184c0 <lexan+0x114>
 801849a:	293c      	cmp	r1, #60	; 0x3c
 801849c:	d013      	beq.n	80184c6 <lexan+0x11a>
 801849e:	293e      	cmp	r1, #62	; 0x3e
 80184a0:	d014      	beq.n	80184cc <lexan+0x120>
 80184a2:	1c6c      	adds	r4, r5, #1
 80184a4:	2100      	movs	r1, #0
 80184a6:	5551      	strb	r1, [r2, r5]
 80184a8:	3601      	adds	r6, #1
 80184aa:	e7b1      	b.n	8018410 <lexan+0x64>
 80184ac:	f8cc 4000 	str.w	r4, [ip]
 80184b0:	4630      	mov	r0, r6
 80184b2:	e7b6      	b.n	8018422 <lexan+0x76>
 80184b4:	f04f 30ff 	mov.w	r0, #4294967295	; 0xffffffff
 80184b8:	e7b3      	b.n	8018422 <lexan+0x76>
 80184ba:	f04f 30ff 	mov.w	r0, #4294967295	; 0xffffffff
 80184be:	e7b0      	b.n	8018422 <lexan+0x76>
 80184c0:	f04f 30ff 	mov.w	r0, #4294967295	; 0xffffffff
 80184c4:	e7ad      	b.n	8018422 <lexan+0x76>
 80184c6:	f04f 30ff 	mov.w	r0, #4294967295	; 0xffffffff
 80184ca:	e7aa      	b.n	8018422 <lexan+0x76>
 80184cc:	f04f 30ff 	mov.w	r0, #4294967295	; 0xffffffff
 80184d0:	e7a7      	b.n	8018422 <lexan+0x76>
	...

080184d4 <uartinit>:
 80184d4:	b510      	push	{r4, lr}
 80184d6:	4a17      	ldr	r2, [pc, #92]	; (8018534 <uartinit+0x60>)
 80184d8:	6c53      	ldr	r3, [r2, #68]	; 0x44
 80184da:	f043 0310 	orr.w	r3, r3, #16
 80184de:	6453      	str	r3, [r2, #68]	; 0x44
 80184e0:	4c15      	ldr	r4, [pc, #84]	; (8018538 <uartinit+0x64>)
 80184e2:	f240 32a7 	movw	r2, #935	; 0x3a7
 80184e6:	2109      	movs	r1, #9
 80184e8:	4620      	mov	r0, r4
 80184ea:	f7fa f8be 	bl	801266a <hw_cfg_pin>
 80184ee:	f240 32a7 	movw	r2, #935	; 0x3a7
 80184f2:	210a      	movs	r1, #10
 80184f4:	4620      	mov	r0, r4
 80184f6:	f7fa f8b8 	bl	801266a <hw_cfg_pin>
 80184fa:	4b10      	ldr	r3, [pc, #64]	; (801853c <uartinit+0x68>)
 80184fc:	68da      	ldr	r2, [r3, #12]
 80184fe:	f422 5200 	bic.w	r2, r2, #8192	; 0x2000
 8018502:	60da      	str	r2, [r3, #12]
 8018504:	f240 22d9 	movw	r2, #729	; 0x2d9
 8018508:	609a      	str	r2, [r3, #8]
 801850a:	68da      	ldr	r2, [r3, #12]
 801850c:	f042 022c 	orr.w	r2, r2, #44	; 0x2c
 8018510:	60da      	str	r2, [r3, #12]
 8018512:	68da      	ldr	r2, [r3, #12]
 8018514:	f442 5200 	orr.w	r2, r2, #8192	; 0x2000
 8018518:	60da      	str	r2, [r3, #12]
 801851a:	4b09      	ldr	r3, [pc, #36]	; (8018540 <uartinit+0x6c>)
 801851c:	2220      	movs	r2, #32
 801851e:	605a      	str	r2, [r3, #4]
 8018520:	2300      	movs	r3, #0
 8018522:	4a08      	ldr	r2, [pc, #32]	; (8018544 <uartinit+0x70>)
 8018524:	7013      	strb	r3, [r2, #0]
 8018526:	4a08      	ldr	r2, [pc, #32]	; (8018548 <uartinit+0x74>)
 8018528:	7013      	strb	r3, [r2, #0]
 801852a:	4a08      	ldr	r2, [pc, #32]	; (801854c <uartinit+0x78>)
 801852c:	7013      	strb	r3, [r2, #0]
 801852e:	4a08      	ldr	r2, [pc, #32]	; (8018550 <uartinit+0x7c>)
 8018530:	7013      	strb	r3, [r2, #0]
 8018532:	bd10      	pop	{r4, pc}
 8018534:	40023800 	.word	0x40023800
 8018538:	40020000 	.word	0x40020000
 801853c:	40011000 	.word	0x40011000
 8018540:	e000e100 	.word	0xe000e100
 8018544:	20002364 	.word	0x20002364
 8018548:	20002366 	.word	0x20002366
 801854c:	20002367 	.word	0x20002367
 8018550:	20002368 	.word	0x20002368

08018554 <putcharuart>:
 8018554:	4b03      	ldr	r3, [pc, #12]	; (8018564 <putcharuart+0x10>)
 8018556:	681b      	ldr	r3, [r3, #0]
 8018558:	f013 0f80 	tst.w	r3, #128	; 0x80
 801855c:	d0fa      	beq.n	8018554 <putcharuart>
 801855e:	4b01      	ldr	r3, [pc, #4]	; (8018564 <putcharuart+0x10>)
 8018560:	6058      	str	r0, [r3, #4]
 8018562:	4770      	bx	lr
 8018564:	40011000 	.word	0x40011000

08018568 <getcharuart>:
 8018568:	4b04      	ldr	r3, [pc, #16]	; (801857c <getcharuart+0x14>)
 801856a:	681b      	ldr	r3, [r3, #0]
 801856c:	f013 0f20 	tst.w	r3, #32
 8018570:	d0fa      	beq.n	8018568 <getcharuart>
 8018572:	4b02      	ldr	r3, [pc, #8]	; (801857c <getcharuart+0x14>)
 8018574:	6858      	ldr	r0, [r3, #4]
 8018576:	b2c0      	uxtb	r0, r0
 8018578:	4770      	bx	lr
 801857a:	bf00      	nop
 801857c:	40011000 	.word	0x40011000

08018580 <putchar>:
 8018580:	b510      	push	{r4, lr}
 8018582:	4604      	mov	r4, r0
 8018584:	b2c0      	uxtb	r0, r0
 8018586:	f7ff ffe5 	bl	8018554 <putcharuart>
 801858a:	4620      	mov	r0, r4
 801858c:	bd10      	pop	{r4, pc}

0801858e <getchar>:
 801858e:	b508      	push	{r3, lr}
 8018590:	f7ff ffea 	bl	8018568 <getcharuart>
 8018594:	bd08      	pop	{r3, pc}

08018596 <usart_available>:
 8018596:	4b04      	ldr	r3, [pc, #16]	; (80185a8 <usart_available+0x12>)
 8018598:	7818      	ldrb	r0, [r3, #0]
 801859a:	4b04      	ldr	r3, [pc, #16]	; (80185ac <usart_available+0x16>)
 801859c:	781b      	ldrb	r3, [r3, #0]
 801859e:	1ac0      	subs	r0, r0, r3
 80185a0:	f000 003f 	and.w	r0, r0, #63	; 0x3f
 80185a4:	4770      	bx	lr
 80185a6:	bf00      	nop
 80185a8:	20002367 	.word	0x20002367
 80185ac:	20002368 	.word	0x20002368

080185b0 <usart_getc>:
 80185b0:	4b0a      	ldr	r3, [pc, #40]	; (80185dc <usart_getc+0x2c>)
 80185b2:	781a      	ldrb	r2, [r3, #0]
 80185b4:	4b0a      	ldr	r3, [pc, #40]	; (80185e0 <usart_getc+0x30>)
 80185b6:	781b      	ldrb	r3, [r3, #0]
 80185b8:	429a      	cmp	r2, r3
 80185ba:	d00c      	beq.n	80185d6 <usart_getc+0x26>
 80185bc:	3301      	adds	r3, #1
 80185be:	f003 033f 	and.w	r3, r3, #63	; 0x3f
 80185c2:	4a07      	ldr	r2, [pc, #28]	; (80185e0 <usart_getc+0x30>)
 80185c4:	7013      	strb	r3, [r2, #0]
 80185c6:	4a07      	ldr	r2, [pc, #28]	; (80185e4 <usart_getc+0x34>)
 80185c8:	5cd0      	ldrb	r0, [r2, r3]
 80185ca:	4b07      	ldr	r3, [pc, #28]	; (80185e8 <usart_getc+0x38>)
 80185cc:	781b      	ldrb	r3, [r3, #0]
 80185ce:	eb00 2003 	add.w	r0, r0, r3, lsl #8
 80185d2:	b280      	uxth	r0, r0
 80185d4:	4770      	bx	lr
 80185d6:	f44f 7080 	mov.w	r0, #256	; 0x100
 80185da:	4770      	bx	lr
 80185dc:	20002367 	.word	0x20002367
 80185e0:	20002368 	.word	0x20002368
 80185e4:	2000236c 	.word	0x2000236c
 80185e8:	20002365 	.word	0x20002365

080185ec <usart_readBytes>:
 80185ec:	b570      	push	{r4, r5, r6, lr}
 80185ee:	4604      	mov	r4, r0
 80185f0:	460e      	mov	r6, r1
 80185f2:	2500      	movs	r5, #0
 80185f4:	42b5      	cmp	r5, r6
 80185f6:	d209      	bcs.n	801860c <usart_readBytes+0x20>
 80185f8:	f7ff ffda 	bl	80185b0 <usart_getc>
 80185fc:	f804 0b01 	strb.w	r0, [r4], #1
 8018600:	3501      	adds	r5, #1
 8018602:	b2ed      	uxtb	r5, r5
 8018604:	2064      	movs	r0, #100	; 0x64
 8018606:	f7ff fabd 	bl	8017b84 <delay_us>
 801860a:	e7f3      	b.n	80185f4 <usart_readBytes+0x8>
 801860c:	4628      	mov	r0, r5
 801860e:	bd70      	pop	{r4, r5, r6, pc}

08018610 <USART1_Handler>:
 8018610:	b672      	cpsid	i
 8018612:	4b0d      	ldr	r3, [pc, #52]	; (8018648 <USART1_Handler+0x38>)
 8018614:	681b      	ldr	r3, [r3, #0]
 8018616:	f013 0f20 	tst.w	r3, #32
 801861a:	d012      	beq.n	8018642 <USART1_Handler+0x32>
 801861c:	4b0a      	ldr	r3, [pc, #40]	; (8018648 <USART1_Handler+0x38>)
 801861e:	685a      	ldr	r2, [r3, #4]
 8018620:	b2d2      	uxtb	r2, r2
 8018622:	4b0a      	ldr	r3, [pc, #40]	; (801864c <USART1_Handler+0x3c>)
 8018624:	781b      	ldrb	r3, [r3, #0]
 8018626:	3301      	adds	r3, #1
 8018628:	f003 033f 	and.w	r3, r3, #63	; 0x3f
 801862c:	4908      	ldr	r1, [pc, #32]	; (8018650 <USART1_Handler+0x40>)
 801862e:	7809      	ldrb	r1, [r1, #0]
 8018630:	4299      	cmp	r1, r3
 8018632:	d003      	beq.n	801863c <USART1_Handler+0x2c>
 8018634:	4905      	ldr	r1, [pc, #20]	; (801864c <USART1_Handler+0x3c>)
 8018636:	700b      	strb	r3, [r1, #0]
 8018638:	4906      	ldr	r1, [pc, #24]	; (8018654 <USART1_Handler+0x44>)
 801863a:	54ca      	strb	r2, [r1, r3]
 801863c:	4b06      	ldr	r3, [pc, #24]	; (8018658 <USART1_Handler+0x48>)
 801863e:	2202      	movs	r2, #2
 8018640:	701a      	strb	r2, [r3, #0]
 8018642:	b662      	cpsie	i
 8018644:	4770      	bx	lr
 8018646:	bf00      	nop
 8018648:	40011000 	.word	0x40011000
 801864c:	20002367 	.word	0x20002367
 8018650:	20002368 	.word	0x20002368
 8018654:	2000236c 	.word	0x2000236c
 8018658:	20002365 	.word	0x20002365

0801865c <irq_disable>:
 801865c:	f3ef 8003 	mrs	r0, PSR
 8018660:	b672      	cpsid	i
 8018662:	4770      	bx	lr

08018664 <irq_restore>:
 8018664:	f380 8803 	msr	PSR, r0
 8018668:	b662      	cpsie	i
 801866a:	4770      	bx	lr

0801866c <irq_enable>:
 801866c:	b662      	cpsie	i
 801866e:	4770      	bx	lr

08018670 <halt>:
 8018670:	b672      	cpsid	i

08018672 <dloop>:
 8018672:	e7fe      	b.n	8018672 <dloop>

08018674 <_ctype_>:
 8018674:	2000 2020 2020 2020 2020 0808 0808 2008     .         ..... 
 8018684:	2020 2020 2020 2020 2020 2020 2020 2020                     
 8018694:	0820 1010 1010 1010 1010 1010 1010 1010      ...............
 80186a4:	0410 0404 0404 0404 0404 1004 1010 1010     ................
 80186b4:	1010 4141 4141 4141 0101 0101 0101 0101     ..AAAAAA........
 80186c4:	0101 0101 0101 0101 0101 0101 1010 1010     ................
 80186d4:	1010 4242 4242 4242 0202 0202 0202 0202     ..BBBBBB........
 80186e4:	0202 0202 0202 0202 0202 0202 1010 1010     ................
 80186f4:	0020 0000                                    ...

080186f8 <a>:
 80186f8:	0000 0000 0fdb 3f49                         ......I?

08018700 <b>:
 8018700:	0fdb 3fc9 0fdb 3f49                         ...?..I?

08018708 <a>:
 8018708:	0000 0000 0a92 3f06 0fdb 3fc9 0a92 3f86     .......?...?...?

08018718 <usbd_otgfs>:
 8018718:	2b3d 0801 2be5 0801 2c89 0801 2cc5 0801     =+...+...,...,..
 8018728:	2d3d 0801 2e6d 0801 2f1d 0801 2f81 0801     =-..m..../.../..
 8018738:	2b65 0801 2bbb 0801 3019 0801 3009 0801     e+...+...0...0..
 8018748:	3299 0801                                   .2..

0801874c <device_desc>:
 801874c:	0112 0200 0000 4000 0483 5740 0100 0201     .......@..@W....
 801875c:	01fe 0000                                   ....

08018760 <config_desc>:
 8018760:	0209 0020 0101 c000 0932 0004 0200 0608     .. .....2.......
 8018770:	0050 0507 0201 0040 0700 8205 4002 0000     P.....@......@..

08018780 <dtable>:
 8018780:	8818 0801 87e0 0801 87bc 0801               ............

0801878c <db_inquiry>:
 801878c:	8000 0204 001f 0000 5453 204d 2020 2020     ........STM     
 801879c:	614d 7373 5320 6f74 6172 6567 2020 2020     Mass Storage    
 80187ac:	3030 3130                                   0001

080187b0 <db_mode_sence_6>:
 80187b0:	0003 0000                                   ....

080187b4 <db_mode_sence_10>:
 80187b4:	0600 0000 0000 0000                         ........

080187bc <prod_desc_en>:
 80187bc:	0322 004d 0053 0043 0020 0073 0064 002d     ".M.S.C. .s.d.-.
 80187cc:	0063 0061 0072 0064 0020 0064 0065 006d     c.a.r.d. .d.e.m.
 80187dc:	006f 0000                                   o...

080187e0 <manuf_desc_en>:
 80187e0:	0334 0048 006f 006d 0065 006d 0063 0075     4.H.o.m.e.m.c.u.
 80187f0:	0020 0066 0069 0072 006d 0077 0061 0072      .f.i.r.m.w.a.r.
 8018800:	0065 0020 0065 0078 0061 006d 0070 006c     e. .e.x.a.m.p.l.
 8018810:	0065 0073 0000 0000                         e.s.....

08018818 <lang_desc>:
 8018818:	0304 0409                                   ....

0801881c <device_desc>:
 801881c:	0112 0200 02ef 0801 0483 5740 0100 0201     ..........@W....
 801882c:	01fe 0000                                   ....

08018830 <config_desc>:
 8018830:	0209 004b 0102 c000 0832 000b 0202 0002     ..K.....2.......
 8018840:	0900 0004 0100 0202 0000 2405 1000 0501     ...........$....
 8018850:	0124 0100 2404 0002 2405 0006 0701 8205     $....$...$......
 8018860:	0803 ff00 0409 0001 0a02 0000 0700 0105     ................
 8018870:	4002 0100 0507 0281 0040 0001               .@......@...

0801887c <dtable>:
 801887c:	88f4 0801 88b0 0801 8888 0801               ............

08018888 <prod_desc_en>:
 8018888:	0324 0043 0044 0043 0020 004c 006f 006f     $.C.D.C. .L.o.o.
 8018898:	0070 0062 0061 0063 006b 0020 0064 0065     p.b.a.c.k. .d.e.
 80188a8:	006d 006f 0000 0000                         m.o.....

080188b0 <manuf_desc_en>:
 80188b0:	0340 004f 0070 0065 006e 0020 0073 006f     @.O.p.e.n. .s.o.
 80188c0:	0075 0072 0063 0065 0020 0055 0053 0042     u.r.c.e. .U.S.B.
 80188d0:	0020 0073 0074 0061 0063 006b 0020 0066      .s.t.a.c.k. .f.
 80188e0:	006f 0072 0020 0053 0054 004d 0033 0032     o.r. .S.T.M.3.2.
 80188f0:	0000 0000                                   ....

080188f4 <lang_desc>:
 80188f4:	0304 0409 0001 0000 0003 0000 0005 0000     ................
 8018904:	0007 0000 0009 0000 000e 0000 0010 0000     ................
 8018914:	0012 0000 0014 0000 0016 0000 0018 0000     ................
 8018924:	001c 0000 001e 0000                         ........

0801892c <sd_card_drv>:
 801892c:	7811 0801 7491 0801 717d 0801 7339 0801     .x...t..}q..9s..
 801893c:	6e25 0801                                   %n..

08018940 <w25qxxx_drv>:
 8018940:	7551 0801 75bf 0801 7771 0801 74b5 0801     Qu...u..qw...t..

08018950 <AHBPrescTable>:
	...
 8018958:	0201 0403 0706 0908                         ........

08018960 <APBPrescTable>:
 8018960:	0000 0000 0201 0403 3130 3332 3534 3736     ........01234567
 8018970:	3938 4241 4443 4645 4847 4a49 4c4b 4e4d     89ABCDEFGHIJKLMN
 8018980:	504f 5251 5453 5655 5857 5a59 0000 0000     OPQRSTUVWXYZ....
 8018990:	3130 3332 3534 3736 3938 6261 6463 6665     0123456789abcdef
 80189a0:	6867 6a69 6c6b 6e6d 706f 7271 7473 7675     ghijklmnopqrstuv
 80189b0:	7877 7a79 0000 0000 4e3c 4c55 3e4c 0000     wxyz....<NULL>..
 80189c0:	0920 0a0d 0000 0000 3130 3332 3534 3736      .......01234567
 80189d0:	3938 4241 4443 4645 4847 4a49 4c4b 4e4d     89ABCDEFGHIJKLMN
 80189e0:	504f 5251 5453 5655 5857 0059 3130 3332     OPQRSTUVWXY.0123
 80189f0:	3534 3736 3938 6261 6463 6665 0000 0000     456789abcdef....
 8018a00:	3130 3332 3534 3736 3938 4241 4443 4645     0123456789ABCDEF
 8018a10:	0000 0000 6e28 6c75 296c 0000 2020 7325     ....(null)..  %s
 8018a20:	000a 0000 2020 3025 7834 0020 2520 3230     ....  %04x . %02
 8018a30:	0078 0000 2020 0020 7265 6f72 2072 736d     x...   .error ms
 8018a40:	5f63 6567 6474 7365 0a63 0000 7265 6f72     c_getdesc...erro
 8018a50:	2072 736d 5f63 6567 6474 7365 2063 0a32     r msc_getdesc 2.
 8018a60:	0000 0000 7265 6f72 2072 736d 5f63 6f63     ....error msc_co
 8018a70:	746e 6f72 0a6c 0000 7265 6f72 2072 6e69     ntrol...error in
 8018a80:	7469 6d20 6d65 726f 0a79 0000 4146 3154     it memory...FAT1
 8018a90:	0036 0000 4146 3354 0032 0000 4146 2054     6...FAT32...FAT 
 8018aa0:	6564 6174 6c69 3a73 0a0d 0000 5420 7079     details:.... Typ
 8018ab0:	2065 253d 0073 0000 5220 6f6f 2074 6944     e =%s... Root Di
 8018ac0:	2072 6946 7372 2074 6c43 7375 6574 2072     r First Cluster 
 8018ad0:	203d 7825 0a0d 0000 4620 5441 4220 6765     = %x.... FAT Beg
 8018ae0:	6e69 4c20 4142 3d20 3020 2578 0d78 000a     in LBA = 0x%x...
 8018af0:	4320 756c 7473 7265 4220 6765 6e69 4c20      Cluster Begin L
 8018b00:	4142 3d20 3020 2578 0d78 000a 5320 6365     BA = 0x%x... Sec
 8018b10:	6f74 7372 5020 7265 4320 756c 7473 7265     tors Per Cluster
 8018b20:	3d20 2520 0d64 000a 4146 5f54 5346 203a      = %d...FAT_FS: 
 8018b30:	7245 6f72 2072 6f63 6c75 2064 6f6e 2074     Error could not 
 8018b40:	6f6c 6461 4620 5441 6420 7465 6961 736c     load FAT details
 8018b50:	2820 6425 2129 0a0d 0000 0000 0072 0000      (%d)!......r...
 8018b60:	0a0d 6944 6572 7463 726f 2079 7325 0a0d     ..Directory %s..
 8018b70:	0000 0000 7325 3c20 4944 3e52 0a0d 0000     ....%s <DIR>....
 8018b80:	7325 5b20 6425 6220 7479 7365 0d5d 000a     %s [%d bytes]...
 8018b90:	0a0a 700d 6e61 6369 203a 7325 0a0a 0000     ...panic: %s....
 8018ba0:	7325 000a 632f 6e6f 6966 2f67 656b 6e72     %s../config/kern
 8018bb0:	6c65 0000 7245 6f72 2172 6f20 6570 696e     el..Error! openi
 8018bc0:	676e 6620 6c69 0a65 0000 0000 756a 706d     ng file.....jump
 8018bd0:	6120 7070 000a 0000 0077 0000 6620 756f      app....w... fou
 8018be0:	646e 0a21 0000 0000 5245 4f52 3a52 4620     nd!.....ERROR: F
 8018bf0:	6961 656c 2064 6f74 6920 696e 2074 6966     ailed to init fi
 8018c00:	656c 7320 7379 6574 0a6d 0000 6f66 6d72     le system...form
 8018c10:	7461 6f20 0a6b 0000 002f 0000 6b6f 0000     at ok.../...ok..
