
kernel.elf:     file format elf32-littlearm


Disassembly of section .text:

08010000 <vector_table>:
 8010000:	00 00 02 20 c5 5b 01 08 9d 61 01 08 9d 61 01 08     ... .[...a...a..
 8010010:	9d 61 01 08 9d 61 01 08 9d 61 01 08 9d 61 01 08     .a...a...a...a..
 8010020:	9d 61 01 08 9d 61 01 08 9d 61 01 08 17 6a 01 08     .a...a...a...j..
 8010030:	9d 61 01 08 9d 61 01 08 dd 53 01 08 4d 59 01 08     .a...a...S..MY..
 8010040:	9d 61 01 08 9d 61 01 08 9d 61 01 08 9d 61 01 08     .a...a...a...a..
 8010050:	9d 61 01 08 9d 61 01 08 9d 61 01 08 9d 61 01 08     .a...a...a...a..
 8010060:	9d 61 01 08 9d 61 01 08 9d 61 01 08 9d 61 01 08     .a...a...a...a..
 8010070:	9d 61 01 08 9d 61 01 08 9d 61 01 08 9d 61 01 08     .a...a...a...a..
 8010080:	9d 61 01 08 9d 61 01 08 9d 61 01 08 9d 61 01 08     .a...a...a...a..
 8010090:	9d 61 01 08 9d 61 01 08 9d 61 01 08 9d 61 01 08     .a...a...a...a..
 80100a0:	9d 61 01 08 9d 61 01 08 9d 61 01 08 9d 61 01 08     .a...a...a...a..
 80100b0:	59 67 01 08 9d 61 01 08 9d 61 01 08 9d 61 01 08     Yg...a...a...a..
 80100c0:	9d 61 01 08 9d 61 01 08 9d 61 01 08 9d 61 01 08     .a...a...a...a..
 80100d0:	9d 61 01 08 59 63 01 08 9d 61 01 08 9d 61 01 08     .a..Yc...a...a..
 80100e0:	9d 61 01 08 9d 61 01 08 9d 61 01 08 9d 61 01 08     .a...a...a...a..
 80100f0:	9d 61 01 08 9d 61 01 08 9d 61 01 08 9d 61 01 08     .a...a...a...a..
 8010100:	9d 61 01 08 9d 61 01 08 9d 61 01 08 9d 61 01 08     .a...a...a...a..
 8010110:	9d 61 01 08 9d 61 01 08 9d 61 01 08 9d 61 01 08     .a...a...a...a..
 8010120:	9d 61 01 08 9d 61 01 08 9d 61 01 08 9d 61 01 08     .a...a...a...a..
 8010130:	9d 61 01 08 9d 61 01 08 9d 61 01 08 9d 61 01 08     .a...a...a...a..
 8010140:	9d 61 01 08 9d 61 01 08 9d 61 01 08 9d 61 01 08     .a...a...a...a..
 8010150:	9d 61 01 08 9d 61 01 08 9d 61 01 08 9d 61 01 08     .a...a...a...a..
 8010160:	9d 61 01 08 9d 61 01 08 9d 61 01 08 9d 61 01 08     .a...a...a...a..
 8010170:	9d 61 01 08 9d 61 01 08 9d 61 01 08 9d 61 01 08     .a...a...a...a..
 8010180:	9d 61 01 08 9d 61 01 08 9d 61 01 08 9d 61 01 08     .a...a...a...a..
 8010190:	9d 61 01 08 9d 61 01 08                             .a...a..

08010198 <fputc>:
 8010198:	b510      	push	{r4, lr}
 801019a:	4604      	mov	r4, r0
 801019c:	4608      	mov	r0, r1
 801019e:	b2e1      	uxtb	r1, r4
 80101a0:	f005 ff2e 	bl	8016000 <putc>
 80101a4:	f1b0 3fff 	cmp.w	r0, #4294967295	; 0xffffffff
 80101a8:	d001      	beq.n	80101ae <fputc+0x16>
 80101aa:	4620      	mov	r0, r4
 80101ac:	bd10      	pop	{r4, pc}
 80101ae:	f06f 0401 	mvn.w	r4, #1
 80101b2:	e7fa      	b.n	80101aa <fputc+0x12>

080101b4 <getchar>:
 80101b4:	b508      	push	{r3, lr}
 80101b6:	4b06      	ldr	r3, [pc, #24]	; (80101d0 <getchar+0x1c>)
 80101b8:	681b      	ldr	r3, [r3, #0]
 80101ba:	eb03 0383 	add.w	r3, r3, r3, lsl #2
 80101be:	011a      	lsls	r2, r3, #4
 80101c0:	4b04      	ldr	r3, [pc, #16]	; (80101d4 <getchar+0x20>)
 80101c2:	4413      	add	r3, r2
 80101c4:	f9b3 0032 	ldrsh.w	r0, [r3, #50]	; 0x32
 80101c8:	f002 f82b 	bl	8012222 <fgetc>
 80101cc:	bd08      	pop	{r3, pc}
 80101ce:	bf00      	nop
 80101d0:	20001298 	.word	0x20001298
 80101d4:	2000129c 	.word	0x2000129c

080101d8 <sinef>:
 80101d8:	b538      	push	{r3, r4, r5, lr}
 80101da:	ed2d 8b02 	vpush	{d8}
 80101de:	eeb0 8a40 	vmov.f32	s16, s0
 80101e2:	4604      	mov	r4, r0
 80101e4:	f002 f826 	bl	8012234 <numtestf>
 80101e8:	2801      	cmp	r0, #1
 80101ea:	f000 8085 	beq.w	80102f8 <sinef+0x120>
 80101ee:	2802      	cmp	r0, #2
 80101f0:	f000 8084 	beq.w	80102fc <sinef+0x124>
 80101f4:	2c00      	cmp	r4, #0
 80101f6:	d165      	bne.n	80102c4 <sinef+0xec>
 80101f8:	eeb5 8ac0 	vcmpe.f32	s16, #0.0
 80101fc:	eef1 fa10 	vmrs	APSR_nzcv, fpscr
 8010200:	d46a      	bmi.n	80102d8 <sinef+0x100>
 8010202:	eeb0 0a48 	vmov.f32	s0, s16
 8010206:	2501      	movs	r5, #1
 8010208:	eddf 7a3f 	vldr	s15, [pc, #252]	; 8010308 <sinef+0x130>
 801020c:	eeb4 0ae7 	vcmpe.f32	s0, s15
 8010210:	eef1 fa10 	vmrs	APSR_nzcv, fpscr
 8010214:	dc72      	bgt.n	80102fc <sinef+0x124>
 8010216:	eeb5 0ac0 	vcmpe.f32	s0, #0.0
 801021a:	eef1 fa10 	vmrs	APSR_nzcv, fpscr
 801021e:	d460      	bmi.n	80102e2 <sinef+0x10a>
 8010220:	eddf 7a3a 	vldr	s15, [pc, #232]	; 801030c <sinef+0x134>
 8010224:	ee20 0a27 	vmul.f32	s0, s0, s15
 8010228:	eef6 7a00 	vmov.f32	s15, #96	; 0x3f000000  0.5
 801022c:	ee30 0a27 	vadd.f32	s0, s0, s15
 8010230:	eebd 0ac0 	vcvt.s32.f32	s0, s0
 8010234:	eef8 8ac0 	vcvt.f32.s32	s17, s0
 8010238:	ee10 3a10 	vmov	r3, s0
 801023c:	f013 0f01 	tst.w	r3, #1
 8010240:	d000      	beq.n	8010244 <sinef+0x6c>
 8010242:	426d      	negs	r5, r5
 8010244:	b11c      	cbz	r4, 801024e <sinef+0x76>
 8010246:	eef6 7a00 	vmov.f32	s15, #96	; 0x3f000000  0.5
 801024a:	ee78 8ae7 	vsub.f32	s17, s17, s15
 801024e:	eeb0 0a48 	vmov.f32	s0, s16
 8010252:	f001 fbaa 	bl	80119aa <fabsf>
 8010256:	ed9f 8a2e 	vldr	s16, [pc, #184]	; 8010310 <sinef+0x138>
 801025a:	ee28 8a88 	vmul.f32	s16, s17, s16
 801025e:	ee30 0a48 	vsub.f32	s0, s0, s16
 8010262:	eddf 7a2c 	vldr	s15, [pc, #176]	; 8010314 <sinef+0x13c>
 8010266:	eeb4 0ae7 	vcmpe.f32	s0, s15
 801026a:	eef1 fa10 	vmrs	APSR_nzcv, fpscr
 801026e:	dd06      	ble.n	801027e <sinef+0xa6>
 8010270:	eddf 7a29 	vldr	s15, [pc, #164]	; 8010318 <sinef+0x140>
 8010274:	eeb4 0ae7 	vcmpe.f32	s0, s15
 8010278:	eef1 fa10 	vmrs	APSR_nzcv, fpscr
 801027c:	d41b      	bmi.n	80102b6 <sinef+0xde>
 801027e:	ee20 7a00 	vmul.f32	s14, s0, s0
 8010282:	eddf 7a26 	vldr	s15, [pc, #152]	; 801031c <sinef+0x144>
 8010286:	ee67 7a27 	vmul.f32	s15, s14, s15
 801028a:	eddf 6a25 	vldr	s13, [pc, #148]	; 8010320 <sinef+0x148>
 801028e:	ee77 7ae6 	vsub.f32	s15, s15, s13
 8010292:	ee67 7a87 	vmul.f32	s15, s15, s14
 8010296:	eddf 6a23 	vldr	s13, [pc, #140]	; 8010324 <sinef+0x14c>
 801029a:	ee77 7aa6 	vadd.f32	s15, s15, s13
 801029e:	ee67 7a87 	vmul.f32	s15, s15, s14
 80102a2:	eddf 6a21 	vldr	s13, [pc, #132]	; 8010328 <sinef+0x150>
 80102a6:	ee77 7ae6 	vsub.f32	s15, s15, s13
 80102aa:	ee67 7a87 	vmul.f32	s15, s15, s14
 80102ae:	ee60 7a27 	vmul.f32	s15, s0, s15
 80102b2:	ee30 0a27 	vadd.f32	s0, s0, s15
 80102b6:	ee07 5a90 	vmov	s15, r5
 80102ba:	eeb8 8ae7 	vcvt.f32.s32	s16, s15
 80102be:	ee28 8a00 	vmul.f32	s16, s16, s0
 80102c2:	e01b      	b.n	80102fc <sinef+0x124>
 80102c4:	eeb0 0a48 	vmov.f32	s0, s16
 80102c8:	f001 fb6f 	bl	80119aa <fabsf>
 80102cc:	eddf 7a17 	vldr	s15, [pc, #92]	; 801032c <sinef+0x154>
 80102d0:	ee30 0a27 	vadd.f32	s0, s0, s15
 80102d4:	2501      	movs	r5, #1
 80102d6:	e797      	b.n	8010208 <sinef+0x30>
 80102d8:	eeb1 0a48 	vneg.f32	s0, s16
 80102dc:	f04f 35ff 	mov.w	r5, #4294967295	; 0xffffffff
 80102e0:	e792      	b.n	8010208 <sinef+0x30>
 80102e2:	eddf 7a0a 	vldr	s15, [pc, #40]	; 801030c <sinef+0x134>
 80102e6:	ee20 0a27 	vmul.f32	s0, s0, s15
 80102ea:	eef6 7a00 	vmov.f32	s15, #96	; 0x3f000000  0.5
 80102ee:	ee30 0a67 	vsub.f32	s0, s0, s15
 80102f2:	eebd 0ac0 	vcvt.s32.f32	s0, s0
 80102f6:	e79d      	b.n	8010234 <sinef+0x5c>
 80102f8:	ed9f 8a0d 	vldr	s16, [pc, #52]	; 8010330 <sinef+0x158>
 80102fc:	eeb0 0a48 	vmov.f32	s0, s16
 8010300:	ecbd 8b02 	vpop	{d8}
 8010304:	bd38      	pop	{r3, r4, r5, pc}
 8010306:	bf00      	nop
 8010308:	4d490fdb 	.word	0x4d490fdb
 801030c:	3ea2f983 	.word	0x3ea2f983
 8010310:	40490fdb 	.word	0x40490fdb
 8010314:	b93504f3 	.word	0xb93504f3
 8010318:	393504f3 	.word	0x393504f3
 801031c:	362e9c5b 	.word	0x362e9c5b
 8010320:	394fb222 	.word	0x394fb222
 8010324:	3c08873e 	.word	0x3c08873e
 8010328:	3e2aaaa4 	.word	0x3e2aaaa4
 801032c:	3fc90fdb 	.word	0x3fc90fdb
 8010330:	4f7fd000 	.word	0x4f7fd000

08010334 <asinef>:
 8010334:	b538      	push	{r3, r4, r5, lr}
 8010336:	ed2d 8b02 	vpush	{d8}
 801033a:	eeb0 8a40 	vmov.f32	s16, s0
 801033e:	4604      	mov	r4, r0
 8010340:	f001 ff78 	bl	8012234 <numtestf>
 8010344:	1e43      	subs	r3, r0, #1
 8010346:	2b01      	cmp	r3, #1
 8010348:	d809      	bhi.n	801035e <asinef+0x2a>
 801034a:	2802      	cmp	r0, #2
 801034c:	d004      	beq.n	8010358 <asinef+0x24>
 801034e:	ed9f 0a49 	vldr	s0, [pc, #292]	; 8010474 <asinef+0x140>
 8010352:	ecbd 8b02 	vpop	{d8}
 8010356:	bd38      	pop	{r3, r4, r5, pc}
 8010358:	eeb0 0a48 	vmov.f32	s0, s16
 801035c:	e7f9      	b.n	8010352 <asinef+0x1e>
 801035e:	eeb0 0a48 	vmov.f32	s0, s16
 8010362:	f001 fb22 	bl	80119aa <fabsf>
 8010366:	eef6 7a00 	vmov.f32	s15, #96	; 0x3f000000  0.5
 801036a:	eeb4 0ae7 	vcmpe.f32	s0, s15
 801036e:	eef1 fa10 	vmrs	APSR_nzcv, fpscr
 8010372:	dd1d      	ble.n	80103b0 <asinef+0x7c>
 8010374:	f1c4 0501 	rsb	r5, r4, #1
 8010378:	eef7 7a00 	vmov.f32	s15, #112	; 0x3f800000  1.0
 801037c:	eeb4 0ae7 	vcmpe.f32	s0, s15
 8010380:	eef1 fa10 	vmrs	APSR_nzcv, fpscr
 8010384:	dd02      	ble.n	801038c <asinef+0x58>
 8010386:	ed9f 0a3c 	vldr	s0, [pc, #240]	; 8010478 <asinef+0x144>
 801038a:	e7e2      	b.n	8010352 <asinef+0x1e>
 801038c:	ee37 0ac0 	vsub.f32	s0, s15, s0
 8010390:	eef6 7a00 	vmov.f32	s15, #96	; 0x3f000000  0.5
 8010394:	ee60 8a27 	vmul.f32	s17, s0, s15
 8010398:	eeb0 0a68 	vmov.f32	s0, s17
 801039c:	f002 f9ee 	bl	801277c <sqrtf>
 80103a0:	eef8 7a00 	vmov.f32	s15, #128	; 0xc0000000 -2.0
 80103a4:	ee20 0a27 	vmul.f32	s0, s0, s15
 80103a8:	ed9f 7a34 	vldr	s14, [pc, #208]	; 801047c <asinef+0x148>
 80103ac:	2301      	movs	r3, #1
 80103ae:	e00c      	b.n	80103ca <asinef+0x96>
 80103b0:	eddf 7a33 	vldr	s15, [pc, #204]	; 8010480 <asinef+0x14c>
 80103b4:	eeb4 0ae7 	vcmpe.f32	s0, s15
 80103b8:	eef1 fa10 	vmrs	APSR_nzcv, fpscr
 80103bc:	d439      	bmi.n	8010432 <asinef+0xfe>
 80103be:	ee60 8a00 	vmul.f32	s17, s0, s0
 80103c2:	4625      	mov	r5, r4
 80103c4:	ed9f 7a2d 	vldr	s14, [pc, #180]	; 801047c <asinef+0x148>
 80103c8:	2300      	movs	r3, #0
 80103ca:	eddf 7a2d 	vldr	s15, [pc, #180]	; 8010480 <asinef+0x14c>
 80103ce:	eeb4 0ae7 	vcmpe.f32	s0, s15
 80103d2:	eef1 fa10 	vmrs	APSR_nzcv, fpscr
 80103d6:	da00      	bge.n	80103da <asinef+0xa6>
 80103d8:	b1cb      	cbz	r3, 801040e <asinef+0xda>
 80103da:	eddf 6a2a 	vldr	s13, [pc, #168]	; 8010484 <asinef+0x150>
 80103de:	ee68 6aa6 	vmul.f32	s13, s17, s13
 80103e2:	eddf 7a29 	vldr	s15, [pc, #164]	; 8010488 <asinef+0x154>
 80103e6:	ee76 6aa7 	vadd.f32	s13, s13, s15
 80103ea:	ee66 6aa8 	vmul.f32	s13, s13, s17
 80103ee:	eddf 7a27 	vldr	s15, [pc, #156]	; 801048c <asinef+0x158>
 80103f2:	ee78 7ae7 	vsub.f32	s15, s17, s15
 80103f6:	ee67 7aa8 	vmul.f32	s15, s15, s17
 80103fa:	ed9f 7a25 	vldr	s14, [pc, #148]	; 8010490 <asinef+0x15c>
 80103fe:	ee77 7a87 	vadd.f32	s15, s15, s14
 8010402:	ee86 7aa7 	vdiv.f32	s14, s13, s15
 8010406:	ee20 7a07 	vmul.f32	s14, s0, s14
 801040a:	ee37 7a00 	vadd.f32	s14, s14, s0
 801040e:	b9bc      	cbnz	r4, 8010440 <asinef+0x10c>
 8010410:	4b20      	ldr	r3, [pc, #128]	; (8010494 <asinef+0x160>)
 8010412:	eb03 0585 	add.w	r5, r3, r5, lsl #2
 8010416:	edd5 7a00 	vldr	s15, [r5]
 801041a:	ee37 7a87 	vadd.f32	s14, s15, s14
 801041e:	ee37 0a87 	vadd.f32	s0, s15, s14
 8010422:	eeb5 8ac0 	vcmpe.f32	s16, #0.0
 8010426:	eef1 fa10 	vmrs	APSR_nzcv, fpscr
 801042a:	d592      	bpl.n	8010352 <asinef+0x1e>
 801042c:	eeb1 0a40 	vneg.f32	s0, s0
 8010430:	e78f      	b.n	8010352 <asinef+0x1e>
 8010432:	eeb0 7a40 	vmov.f32	s14, s0
 8010436:	4625      	mov	r5, r4
 8010438:	eddf 8a10 	vldr	s17, [pc, #64]	; 801047c <asinef+0x148>
 801043c:	2300      	movs	r3, #0
 801043e:	e7c4      	b.n	80103ca <asinef+0x96>
 8010440:	eeb5 8ac0 	vcmpe.f32	s16, #0.0
 8010444:	eef1 fa10 	vmrs	APSR_nzcv, fpscr
 8010448:	d409      	bmi.n	801045e <asinef+0x12a>
 801044a:	4b12      	ldr	r3, [pc, #72]	; (8010494 <asinef+0x160>)
 801044c:	eb03 0585 	add.w	r5, r3, r5, lsl #2
 8010450:	ed95 0a00 	vldr	s0, [r5]
 8010454:	ee30 7a47 	vsub.f32	s14, s0, s14
 8010458:	ee30 0a07 	vadd.f32	s0, s0, s14
 801045c:	e779      	b.n	8010352 <asinef+0x1e>
 801045e:	4b0d      	ldr	r3, [pc, #52]	; (8010494 <asinef+0x160>)
 8010460:	eb03 0585 	add.w	r5, r3, r5, lsl #2
 8010464:	edd5 7a02 	vldr	s15, [r5, #8]
 8010468:	ee37 0a87 	vadd.f32	s0, s15, s14
 801046c:	ee37 0a80 	vadd.f32	s0, s15, s0
 8010470:	e76f      	b.n	8010352 <asinef+0x1e>
 8010472:	bf00      	nop
 8010474:	4eff0000 	.word	0x4eff0000
 8010478:	4f7fd000 	.word	0x4f7fd000
 801047c:	00000000 	.word	0x00000000
 8010480:	393504f3 	.word	0x393504f3
 8010484:	bf012065 	.word	0xbf012065
 8010488:	3f6f166b 	.word	0x3f6f166b
 801048c:	40b18d0b 	.word	0x40b18d0b
 8010490:	40b350f0 	.word	0x40b350f0
 8010494:	0801a7dc 	.word	0x0801a7dc

08010498 <printf>:
 8010498:	b40f      	push	{r0, r1, r2, r3}
 801049a:	b500      	push	{lr}
 801049c:	b083      	sub	sp, #12
 801049e:	a904      	add	r1, sp, #16
 80104a0:	f851 0b04 	ldr.w	r0, [r1], #4
 80104a4:	9101      	str	r1, [sp, #4]
 80104a6:	4b09      	ldr	r3, [pc, #36]	; (80104cc <printf+0x34>)
 80104a8:	681b      	ldr	r3, [r3, #0]
 80104aa:	eb03 0383 	add.w	r3, r3, r3, lsl #2
 80104ae:	011a      	lsls	r2, r3, #4
 80104b0:	4b07      	ldr	r3, [pc, #28]	; (80104d0 <printf+0x38>)
 80104b2:	4413      	add	r3, r2
 80104b4:	f9b3 3034 	ldrsh.w	r3, [r3, #52]	; 0x34
 80104b8:	4a06      	ldr	r2, [pc, #24]	; (80104d4 <printf+0x3c>)
 80104ba:	6fd2      	ldr	r2, [r2, #124]	; 0x7c
 80104bc:	f001 f8dc 	bl	8011678 <_fdoprnt>
 80104c0:	2000      	movs	r0, #0
 80104c2:	b003      	add	sp, #12
 80104c4:	f85d eb04 	ldr.w	lr, [sp], #4
 80104c8:	b004      	add	sp, #16
 80104ca:	4770      	bx	lr
 80104cc:	20001298 	.word	0x20001298
 80104d0:	2000129c 	.word	0x2000129c
 80104d4:	20001638 	.word	0x20001638

080104d8 <rand_r>:
 80104d8:	4602      	mov	r2, r0
 80104da:	6800      	ldr	r0, [r0, #0]
 80104dc:	f244 13a7 	movw	r3, #16807	; 0x41a7
 80104e0:	fb03 f300 	mul.w	r3, r3, r0
 80104e4:	f023 4000 	bic.w	r0, r3, #2147483648	; 0x80000000
 80104e8:	6010      	str	r0, [r2, #0]
 80104ea:	4770      	bx	lr

080104ec <rand>:
 80104ec:	b508      	push	{r3, lr}
 80104ee:	4802      	ldr	r0, [pc, #8]	; (80104f8 <rand+0xc>)
 80104f0:	f7ff fff2 	bl	80104d8 <rand_r>
 80104f4:	bd08      	pop	{r3, pc}
 80104f6:	bf00      	nop
 80104f8:	20000000 	.word	0x20000000

080104fc <srand>:
 80104fc:	4b01      	ldr	r3, [pc, #4]	; (8010504 <srand+0x8>)
 80104fe:	6018      	str	r0, [r3, #0]
 8010500:	4770      	bx	lr
 8010502:	bf00      	nop
 8010504:	20000000 	.word	0x20000000

08010508 <int_abs>:
 8010508:	2800      	cmp	r0, #0
 801050a:	dd00      	ble.n	801050e <int_abs+0x6>
 801050c:	4770      	bx	lr
 801050e:	4240      	negs	r0, r0
 8010510:	e7fc      	b.n	801050c <int_abs+0x4>

08010512 <labs>:
 8010512:	2800      	cmp	r0, #0
 8010514:	db00      	blt.n	8010518 <labs+0x6>
 8010516:	4770      	bx	lr
 8010518:	4240      	negs	r0, r0
 801051a:	e7fc      	b.n	8010516 <labs+0x4>

0801051c <abs>:
 801051c:	2800      	cmp	r0, #0
 801051e:	bfb8      	it	lt
 8010520:	4240      	neglt	r0, r0
 8010522:	4770      	bx	lr

08010524 <strndup>:
 8010524:	b570      	push	{r4, r5, r6, lr}
 8010526:	4605      	mov	r5, r0
 8010528:	f002 fae4 	bl	8012af4 <strnlen>
 801052c:	4604      	mov	r4, r0
 801052e:	3001      	adds	r0, #1
 8010530:	f001 fe30 	bl	8012194 <malloc>
 8010534:	4606      	mov	r6, r0
 8010536:	b128      	cbz	r0, 8010544 <strndup+0x20>
 8010538:	4622      	mov	r2, r4
 801053a:	4629      	mov	r1, r5
 801053c:	f002 fa4e 	bl	80129dc <strncpy>
 8010540:	2300      	movs	r3, #0
 8010542:	5533      	strb	r3, [r6, r4]
 8010544:	4630      	mov	r0, r6
 8010546:	bd70      	pop	{r4, r5, r6, pc}

08010548 <strdup>:
 8010548:	b510      	push	{r4, lr}
 801054a:	4604      	mov	r4, r0
 801054c:	f002 f9fa 	bl	8012944 <strlen>
 8010550:	4601      	mov	r1, r0
 8010552:	4620      	mov	r0, r4
 8010554:	f7ff ffe6 	bl	8010524 <strndup>
 8010558:	bd10      	pop	{r4, pc}

0801055a <atol>:
 801055a:	b410      	push	{r4}
 801055c:	4601      	mov	r1, r0
 801055e:	780b      	ldrb	r3, [r1, #0]
 8010560:	2b2b      	cmp	r3, #43	; 0x2b
 8010562:	d010      	beq.n	8010586 <atol+0x2c>
 8010564:	d807      	bhi.n	8010576 <atol+0x1c>
 8010566:	2b09      	cmp	r3, #9
 8010568:	d001      	beq.n	801056e <atol+0x14>
 801056a:	2b20      	cmp	r3, #32
 801056c:	d101      	bne.n	8010572 <atol+0x18>
 801056e:	3101      	adds	r1, #1
 8010570:	e7f5      	b.n	801055e <atol+0x4>
 8010572:	2400      	movs	r4, #0
 8010574:	e003      	b.n	801057e <atol+0x24>
 8010576:	2b2d      	cmp	r3, #45	; 0x2d
 8010578:	d103      	bne.n	8010582 <atol+0x28>
 801057a:	2401      	movs	r4, #1
 801057c:	3101      	adds	r1, #1
 801057e:	2000      	movs	r0, #0
 8010580:	e009      	b.n	8010596 <atol+0x3c>
 8010582:	2400      	movs	r4, #0
 8010584:	e7fb      	b.n	801057e <atol+0x24>
 8010586:	2400      	movs	r4, #0
 8010588:	e7f8      	b.n	801057c <atol+0x22>
 801058a:	eb00 0080 	add.w	r0, r0, r0, lsl #2
 801058e:	3101      	adds	r1, #1
 8010590:	eb03 0040 	add.w	r0, r3, r0, lsl #1
 8010594:	3830      	subs	r0, #48	; 0x30
 8010596:	780b      	ldrb	r3, [r1, #0]
 8010598:	f1a3 0230 	sub.w	r2, r3, #48	; 0x30
 801059c:	b2d2      	uxtb	r2, r2
 801059e:	2a09      	cmp	r2, #9
 80105a0:	d9f3      	bls.n	801058a <atol+0x30>
 80105a2:	b104      	cbz	r4, 80105a6 <atol+0x4c>
 80105a4:	4240      	negs	r0, r0
 80105a6:	f85d 4b04 	ldr.w	r4, [sp], #4
 80105aa:	4770      	bx	lr

080105ac <atoi>:
 80105ac:	b570      	push	{r4, r5, r6, lr}
 80105ae:	4605      	mov	r5, r0
 80105b0:	2400      	movs	r4, #0
 80105b2:	192e      	adds	r6, r5, r4
 80105b4:	4913      	ldr	r1, [pc, #76]	; (8010604 <atoi+0x58>)
 80105b6:	5d28      	ldrb	r0, [r5, r4]
 80105b8:	f002 fa27 	bl	8012a0a <chrnlst>
 80105bc:	4603      	mov	r3, r0
 80105be:	b108      	cbz	r0, 80105c4 <atoi+0x18>
 80105c0:	3401      	adds	r4, #1
 80105c2:	e7f6      	b.n	80105b2 <atoi+0x6>
 80105c4:	7832      	ldrb	r2, [r6, #0]
 80105c6:	2a2d      	cmp	r2, #45	; 0x2d
 80105c8:	d003      	beq.n	80105d2 <atoi+0x26>
 80105ca:	2a2b      	cmp	r2, #43	; 0x2b
 80105cc:	d004      	beq.n	80105d8 <atoi+0x2c>
 80105ce:	4618      	mov	r0, r3
 80105d0:	e00a      	b.n	80105e8 <atoi+0x3c>
 80105d2:	3401      	adds	r4, #1
 80105d4:	2001      	movs	r0, #1
 80105d6:	e007      	b.n	80105e8 <atoi+0x3c>
 80105d8:	3401      	adds	r4, #1
 80105da:	e005      	b.n	80105e8 <atoi+0x3c>
 80105dc:	eb03 0383 	add.w	r3, r3, r3, lsl #2
 80105e0:	3a30      	subs	r2, #48	; 0x30
 80105e2:	eb02 0343 	add.w	r3, r2, r3, lsl #1
 80105e6:	3401      	adds	r4, #1
 80105e8:	5d2a      	ldrb	r2, [r5, r4]
 80105ea:	f1a2 0130 	sub.w	r1, r2, #48	; 0x30
 80105ee:	b2c9      	uxtb	r1, r1
 80105f0:	2909      	cmp	r1, #9
 80105f2:	d9f3      	bls.n	80105dc <atoi+0x30>
 80105f4:	b120      	cbz	r0, 8010600 <atoi+0x54>
 80105f6:	f04f 30ff 	mov.w	r0, #4294967295	; 0xffffffff
 80105fa:	fb00 f003 	mul.w	r0, r0, r3
 80105fe:	bd70      	pop	{r4, r5, r6, pc}
 8010600:	2001      	movs	r0, #1
 8010602:	e7fa      	b.n	80105fa <atoi+0x4e>
 8010604:	0801a99c 	.word	0x0801a99c

08010608 <uitoa>:
 8010608:	b5f0      	push	{r4, r5, r6, r7, lr}
 801060a:	b08b      	sub	sp, #44	; 0x2c
 801060c:	4604      	mov	r4, r0
 801060e:	460e      	mov	r6, r1
 8010610:	4696      	mov	lr, r2
 8010612:	461d      	mov	r5, r3
 8010614:	af01      	add	r7, sp, #4
 8010616:	f8df c068 	ldr.w	ip, [pc, #104]	; 8010680 <uitoa+0x78>
 801061a:	e8bc 000f 	ldmia.w	ip!, {r0, r1, r2, r3}
 801061e:	c70f      	stmia	r7!, {r0, r1, r2, r3}
 8010620:	e8bc 000f 	ldmia.w	ip!, {r0, r1, r2, r3}
 8010624:	c70f      	stmia	r7!, {r0, r1, r2, r3}
 8010626:	f8dc 3000 	ldr.w	r3, [ip]
 801062a:	603b      	str	r3, [r7, #0]
 801062c:	f1be 0f00 	cmp.w	lr, #0
 8010630:	d01f      	beq.n	8010672 <uitoa+0x6a>
 8010632:	4671      	mov	r1, lr
 8010634:	1eab      	subs	r3, r5, #2
 8010636:	2b22      	cmp	r3, #34	; 0x22
 8010638:	d81d      	bhi.n	8010676 <uitoa+0x6e>
 801063a:	2000      	movs	r0, #0
 801063c:	e000      	b.n	8010640 <uitoa+0x38>
 801063e:	461c      	mov	r4, r3
 8010640:	fbb4 f2f5 	udiv	r2, r4, r5
 8010644:	fb05 4212 	mls	r2, r5, r2, r4
 8010648:	af0a      	add	r7, sp, #40	; 0x28
 801064a:	443a      	add	r2, r7
 801064c:	f812 2c24 	ldrb.w	r2, [r2, #-36]
 8010650:	5432      	strb	r2, [r6, r0]
 8010652:	3001      	adds	r0, #1
 8010654:	3901      	subs	r1, #1
 8010656:	d003      	beq.n	8010660 <uitoa+0x58>
 8010658:	fbb4 f3f5 	udiv	r3, r4, r5
 801065c:	42ac      	cmp	r4, r5
 801065e:	d2ee      	bcs.n	801063e <uitoa+0x36>
 8010660:	b159      	cbz	r1, 801067a <uitoa+0x72>
 8010662:	2300      	movs	r3, #0
 8010664:	5433      	strb	r3, [r6, r0]
 8010666:	4630      	mov	r0, r6
 8010668:	f002 f974 	bl	8012954 <strreverse>
 801066c:	4630      	mov	r0, r6
 801066e:	b00b      	add	sp, #44	; 0x2c
 8010670:	bdf0      	pop	{r4, r5, r6, r7, pc}
 8010672:	2000      	movs	r0, #0
 8010674:	e7fb      	b.n	801066e <uitoa+0x66>
 8010676:	2000      	movs	r0, #0
 8010678:	e7f9      	b.n	801066e <uitoa+0x66>
 801067a:	2000      	movs	r0, #0
 801067c:	e7f7      	b.n	801066e <uitoa+0x66>
 801067e:	bf00      	nop
 8010680:	0801a9a4 	.word	0x0801a9a4

08010684 <itoa>:
 8010684:	b1b2      	cbz	r2, 80106b4 <itoa+0x30>
 8010686:	b5f8      	push	{r3, r4, r5, r6, r7, lr}
 8010688:	460e      	mov	r6, r1
 801068a:	461c      	mov	r4, r3
 801068c:	4615      	mov	r5, r2
 801068e:	3b02      	subs	r3, #2
 8010690:	2b22      	cmp	r3, #34	; 0x22
 8010692:	d811      	bhi.n	80106b8 <itoa+0x34>
 8010694:	2800      	cmp	r0, #0
 8010696:	db08      	blt.n	80106aa <itoa+0x26>
 8010698:	2700      	movs	r7, #0
 801069a:	f7ff ff35 	bl	8010508 <int_abs>
 801069e:	4623      	mov	r3, r4
 80106a0:	462a      	mov	r2, r5
 80106a2:	19f1      	adds	r1, r6, r7
 80106a4:	f7ff ffb0 	bl	8010608 <uitoa>
 80106a8:	bdf8      	pop	{r3, r4, r5, r6, r7, pc}
 80106aa:	232d      	movs	r3, #45	; 0x2d
 80106ac:	700b      	strb	r3, [r1, #0]
 80106ae:	1e55      	subs	r5, r2, #1
 80106b0:	2701      	movs	r7, #1
 80106b2:	e7f2      	b.n	801069a <itoa+0x16>
 80106b4:	2000      	movs	r0, #0
 80106b6:	4770      	bx	lr
 80106b8:	2000      	movs	r0, #0
 80106ba:	e7f5      	b.n	80106a8 <itoa+0x24>

080106bc <ftoa>:
 80106bc:	b570      	push	{r4, r5, r6, lr}
 80106be:	ed2d 8b04 	vpush	{d8-d9}
 80106c2:	4606      	mov	r6, r0
 80106c4:	460d      	mov	r5, r1
 80106c6:	ee10 2a10 	vmov	r2, s0
 80106ca:	f022 4300 	bic.w	r3, r2, #2147483648	; 0x80000000
 80106ce:	f1b3 4fff 	cmp.w	r3, #2139095040	; 0x7f800000
 80106d2:	d81e      	bhi.n	8010712 <ftoa+0x56>
 80106d4:	eeb0 8a40 	vmov.f32	s16, s0
 80106d8:	eeb0 9a60 	vmov.f32	s18, s1
 80106dc:	f1b3 4fff 	cmp.w	r3, #2139095040	; 0x7f800000
 80106e0:	d034      	beq.n	801074c <ftoa+0x90>
 80106e2:	eeb5 0ac0 	vcmpe.f32	s0, #0.0
 80106e6:	eef1 fa10 	vmrs	APSR_nzcv, fpscr
 80106ea:	d476      	bmi.n	80107da <ftoa+0x11e>
 80106ec:	2001      	movs	r0, #1
 80106ee:	eeb0 0a48 	vmov.f32	s0, s16
 80106f2:	f001 fdc0 	bl	8012276 <logarithm>
 80106f6:	eefd 7ac0 	vcvt.s32.f32	s15, s0
 80106fa:	ee17 4a90 	vmov	r4, s15
 80106fe:	2c00      	cmp	r4, #0
 8010700:	da75      	bge.n	80107ee <ftoa+0x132>
 8010702:	4633      	mov	r3, r6
 8010704:	2230      	movs	r2, #48	; 0x30
 8010706:	f803 2b02 	strb.w	r2, [r3], #2
 801070a:	222e      	movs	r2, #46	; 0x2e
 801070c:	7072      	strb	r2, [r6, #1]
 801070e:	461e      	mov	r6, r3
 8010710:	e06d      	b.n	80107ee <ftoa+0x132>
 8010712:	226e      	movs	r2, #110	; 0x6e
 8010714:	7002      	strb	r2, [r0, #0]
 8010716:	2301      	movs	r3, #1
 8010718:	fbb3 f3f1 	udiv	r3, r3, r1
 801071c:	fb01 f303 	mul.w	r3, r1, r3
 8010720:	f1c3 0301 	rsb	r3, r3, #1
 8010724:	2161      	movs	r1, #97	; 0x61
 8010726:	54c1      	strb	r1, [r0, r3]
 8010728:	2302      	movs	r3, #2
 801072a:	fbb3 f3f5 	udiv	r3, r3, r5
 801072e:	fb05 f303 	mul.w	r3, r5, r3
 8010732:	f1c3 0302 	rsb	r3, r3, #2
 8010736:	54c2      	strb	r2, [r0, r3]
 8010738:	2303      	movs	r3, #3
 801073a:	fbb3 f3f5 	udiv	r3, r3, r5
 801073e:	fb05 f503 	mul.w	r5, r5, r3
 8010742:	f1c5 0503 	rsb	r5, r5, #3
 8010746:	2300      	movs	r3, #0
 8010748:	5543      	strb	r3, [r0, r5]
 801074a:	e089      	b.n	8010860 <ftoa+0x1a4>
 801074c:	2a00      	cmp	r2, #0
 801074e:	db1d      	blt.n	801078c <ftoa+0xd0>
 8010750:	2369      	movs	r3, #105	; 0x69
 8010752:	7003      	strb	r3, [r0, #0]
 8010754:	2301      	movs	r3, #1
 8010756:	fbb3 f3f1 	udiv	r3, r3, r1
 801075a:	fb01 f303 	mul.w	r3, r1, r3
 801075e:	f1c3 0301 	rsb	r3, r3, #1
 8010762:	226e      	movs	r2, #110	; 0x6e
 8010764:	54c2      	strb	r2, [r0, r3]
 8010766:	2302      	movs	r3, #2
 8010768:	fbb3 f3f1 	udiv	r3, r3, r1
 801076c:	fb01 f303 	mul.w	r3, r1, r3
 8010770:	f1c3 0302 	rsb	r3, r3, #2
 8010774:	2266      	movs	r2, #102	; 0x66
 8010776:	54c2      	strb	r2, [r0, r3]
 8010778:	2303      	movs	r3, #3
 801077a:	fbb3 f3f1 	udiv	r3, r3, r1
 801077e:	fb05 f503 	mul.w	r5, r5, r3
 8010782:	f1c5 0503 	rsb	r5, r5, #3
 8010786:	2300      	movs	r3, #0
 8010788:	5543      	strb	r3, [r0, r5]
 801078a:	e069      	b.n	8010860 <ftoa+0x1a4>
 801078c:	232d      	movs	r3, #45	; 0x2d
 801078e:	7003      	strb	r3, [r0, #0]
 8010790:	2301      	movs	r3, #1
 8010792:	fbb3 f3f1 	udiv	r3, r3, r1
 8010796:	fb01 f303 	mul.w	r3, r1, r3
 801079a:	f1c3 0301 	rsb	r3, r3, #1
 801079e:	2269      	movs	r2, #105	; 0x69
 80107a0:	54c2      	strb	r2, [r0, r3]
 80107a2:	2302      	movs	r3, #2
 80107a4:	fbb3 f3f1 	udiv	r3, r3, r1
 80107a8:	fb01 f303 	mul.w	r3, r1, r3
 80107ac:	f1c3 0302 	rsb	r3, r3, #2
 80107b0:	226e      	movs	r2, #110	; 0x6e
 80107b2:	54c2      	strb	r2, [r0, r3]
 80107b4:	2303      	movs	r3, #3
 80107b6:	fbb3 f3f1 	udiv	r3, r3, r1
 80107ba:	fb01 f303 	mul.w	r3, r1, r3
 80107be:	f1c3 0303 	rsb	r3, r3, #3
 80107c2:	2266      	movs	r2, #102	; 0x66
 80107c4:	54c2      	strb	r2, [r0, r3]
 80107c6:	2304      	movs	r3, #4
 80107c8:	fbb3 f3f1 	udiv	r3, r3, r1
 80107cc:	fb05 f503 	mul.w	r5, r5, r3
 80107d0:	f1c5 0504 	rsb	r5, r5, #4
 80107d4:	2300      	movs	r3, #0
 80107d6:	5543      	strb	r3, [r0, r5]
 80107d8:	e042      	b.n	8010860 <ftoa+0x1a4>
 80107da:	232d      	movs	r3, #45	; 0x2d
 80107dc:	f806 3b01 	strb.w	r3, [r6], #1
 80107e0:	1e4d      	subs	r5, r1, #1
 80107e2:	eeb1 8a40 	vneg.f32	s16, s0
 80107e6:	e781      	b.n	80106ec <ftoa+0x30>
 80107e8:	3c01      	subs	r4, #1
 80107ea:	461d      	mov	r5, r3
 80107ec:	4616      	mov	r6, r2
 80107ee:	eddf 7a21 	vldr	s15, [pc, #132]	; 8010874 <ftoa+0x1b8>
 80107f2:	ee79 7a27 	vadd.f32	s15, s18, s15
 80107f6:	eef4 7ac8 	vcmpe.f32	s15, s16
 80107fa:	eef1 fa10 	vmrs	APSR_nzcv, fpscr
 80107fe:	d401      	bmi.n	8010804 <ftoa+0x148>
 8010800:	2c00      	cmp	r4, #0
 8010802:	db27      	blt.n	8010854 <ftoa+0x198>
 8010804:	2d01      	cmp	r5, #1
 8010806:	d925      	bls.n	8010854 <ftoa+0x198>
 8010808:	ee07 4a90 	vmov	s15, r4
 801080c:	eef8 0ae7 	vcvt.f32.s32	s1, s15
 8010810:	eeb2 0a04 	vmov.f32	s0, #36	; 0x41200000  10.0
 8010814:	f001 fef0 	bl	80125f8 <powf>
 8010818:	eef0 8a40 	vmov.f32	s17, s0
 801081c:	ee88 0a28 	vdiv.f32	s0, s16, s17
 8010820:	f001 fde4 	bl	80123ec <floorf>
 8010824:	eefd 7ac0 	vcvt.s32.f32	s15, s0
 8010828:	eeb8 0ae7 	vcvt.f32.s32	s0, s15
 801082c:	ee60 8a28 	vmul.f32	s17, s0, s17
 8010830:	ee38 8a68 	vsub.f32	s16, s16, s17
 8010834:	4632      	mov	r2, r6
 8010836:	ee17 3a90 	vmov	r3, s15
 801083a:	3330      	adds	r3, #48	; 0x30
 801083c:	f802 3b01 	strb.w	r3, [r2], #1
 8010840:	1e6b      	subs	r3, r5, #1
 8010842:	2c00      	cmp	r4, #0
 8010844:	d1d0      	bne.n	80107e8 <ftoa+0x12c>
 8010846:	2b01      	cmp	r3, #1
 8010848:	d9ce      	bls.n	80107e8 <ftoa+0x12c>
 801084a:	1cb2      	adds	r2, r6, #2
 801084c:	232e      	movs	r3, #46	; 0x2e
 801084e:	7073      	strb	r3, [r6, #1]
 8010850:	1eab      	subs	r3, r5, #2
 8010852:	e7c9      	b.n	80107e8 <ftoa+0x12c>
 8010854:	f816 3c01 	ldrb.w	r3, [r6, #-1]
 8010858:	2b2e      	cmp	r3, #46	; 0x2e
 801085a:	d004      	beq.n	8010866 <ftoa+0x1aa>
 801085c:	2300      	movs	r3, #0
 801085e:	7033      	strb	r3, [r6, #0]
 8010860:	ecbd 8b04 	vpop	{d8-d9}
 8010864:	bd70      	pop	{r4, r5, r6, pc}
 8010866:	2d01      	cmp	r5, #1
 8010868:	d9f8      	bls.n	801085c <ftoa+0x1a0>
 801086a:	2330      	movs	r3, #48	; 0x30
 801086c:	f806 3b01 	strb.w	r3, [r6], #1
 8010870:	e7f4      	b.n	801085c <ftoa+0x1a0>
 8010872:	bf00      	nop
 8010874:	00000000 	.word	0x00000000

08010878 <bzero>:
 8010878:	2900      	cmp	r1, #0
 801087a:	dd04      	ble.n	8010886 <bzero+0xe>
 801087c:	2200      	movs	r2, #0
 801087e:	7002      	strb	r2, [r0, #0]
 8010880:	3001      	adds	r0, #1
 8010882:	3901      	subs	r1, #1
 8010884:	d1fa      	bne.n	801087c <bzero+0x4>
 8010886:	4770      	bx	lr

08010888 <sprntf>:
 8010888:	4603      	mov	r3, r0
 801088a:	b2c8      	uxtb	r0, r1
 801088c:	681a      	ldr	r2, [r3, #0]
 801088e:	1c51      	adds	r1, r2, #1
 8010890:	6019      	str	r1, [r3, #0]
 8010892:	7010      	strb	r0, [r2, #0]
 8010894:	4770      	bx	lr

08010896 <sprintf>:
 8010896:	b40e      	push	{r1, r2, r3}
 8010898:	b510      	push	{r4, lr}
 801089a:	b083      	sub	sp, #12
 801089c:	4604      	mov	r4, r0
 801089e:	a905      	add	r1, sp, #20
 80108a0:	f851 0b04 	ldr.w	r0, [r1], #4
 80108a4:	9400      	str	r4, [sp, #0]
 80108a6:	9101      	str	r1, [sp, #4]
 80108a8:	466b      	mov	r3, sp
 80108aa:	4a06      	ldr	r2, [pc, #24]	; (80108c4 <sprintf+0x2e>)
 80108ac:	f000 fee4 	bl	8011678 <_fdoprnt>
 80108b0:	9b00      	ldr	r3, [sp, #0]
 80108b2:	2200      	movs	r2, #0
 80108b4:	701a      	strb	r2, [r3, #0]
 80108b6:	4620      	mov	r0, r4
 80108b8:	b003      	add	sp, #12
 80108ba:	e8bd 4010 	ldmia.w	sp!, {r4, lr}
 80108be:	b003      	add	sp, #12
 80108c0:	4770      	bx	lr
 80108c2:	bf00      	nop
 80108c4:	08010889 	.word	0x08010889

080108c8 <_prtl10>:
 80108c8:	b410      	push	{r4}
 80108ca:	b085      	sub	sp, #20
 80108cc:	2300      	movs	r3, #0
 80108ce:	f88d 3004 	strb.w	r3, [sp, #4]
 80108d2:	2800      	cmp	r0, #0
 80108d4:	db15      	blt.n	8010902 <_prtl10+0x3a>
 80108d6:	4a2a      	ldr	r2, [pc, #168]	; (8010980 <_prtl10+0xb8>)
 80108d8:	fb82 3200 	smull	r3, r2, r2, r0
 80108dc:	17c3      	asrs	r3, r0, #31
 80108de:	ebc3 03a2 	rsb	r3, r3, r2, asr #2
 80108e2:	eb03 0383 	add.w	r3, r3, r3, lsl #2
 80108e6:	eba0 0343 	sub.w	r3, r0, r3, lsl #1
 80108ea:	b2db      	uxtb	r3, r3
 80108ec:	3330      	adds	r3, #48	; 0x30
 80108ee:	b2db      	uxtb	r3, r3
 80108f0:	f88d 3005 	strb.w	r3, [sp, #5]
 80108f4:	2800      	cmp	r0, #0
 80108f6:	db13      	blt.n	8010920 <_prtl10+0x58>
 80108f8:	230a      	movs	r3, #10
 80108fa:	fb90 f0f3 	sdiv	r0, r0, r3
 80108fe:	2202      	movs	r2, #2
 8010900:	e023      	b.n	801094a <_prtl10+0x82>
 8010902:	4a1f      	ldr	r2, [pc, #124]	; (8010980 <_prtl10+0xb8>)
 8010904:	fb82 3200 	smull	r3, r2, r2, r0
 8010908:	17c3      	asrs	r3, r0, #31
 801090a:	ebc3 03a2 	rsb	r3, r3, r2, asr #2
 801090e:	eb03 0383 	add.w	r3, r3, r3, lsl #2
 8010912:	eba0 0343 	sub.w	r3, r0, r3, lsl #1
 8010916:	b2db      	uxtb	r3, r3
 8010918:	f1c3 0330 	rsb	r3, r3, #48	; 0x30
 801091c:	b2db      	uxtb	r3, r3
 801091e:	e7e7      	b.n	80108f0 <_prtl10+0x28>
 8010920:	f06f 0309 	mvn.w	r3, #9
 8010924:	e7e9      	b.n	80108fa <_prtl10+0x32>
 8010926:	4c16      	ldr	r4, [pc, #88]	; (8010980 <_prtl10+0xb8>)
 8010928:	fb84 3400 	smull	r3, r4, r4, r0
 801092c:	17c3      	asrs	r3, r0, #31
 801092e:	ebc3 03a4 	rsb	r3, r3, r4, asr #2
 8010932:	461c      	mov	r4, r3
 8010934:	eb03 0383 	add.w	r3, r3, r3, lsl #2
 8010938:	eba0 0343 	sub.w	r3, r0, r3, lsl #1
 801093c:	3330      	adds	r3, #48	; 0x30
 801093e:	a804      	add	r0, sp, #16
 8010940:	4410      	add	r0, r2
 8010942:	f800 3c0c 	strb.w	r3, [r0, #-12]
 8010946:	4620      	mov	r0, r4
 8010948:	3201      	adds	r2, #1
 801094a:	2a0a      	cmp	r2, #10
 801094c:	ddeb      	ble.n	8010926 <_prtl10+0x5e>
 801094e:	230a      	movs	r3, #10
 8010950:	aa04      	add	r2, sp, #16
 8010952:	441a      	add	r2, r3
 8010954:	f812 2c0c 	ldrb.w	r2, [r2, #-12]
 8010958:	2a30      	cmp	r2, #48	; 0x30
 801095a:	d101      	bne.n	8010960 <_prtl10+0x98>
 801095c:	3b01      	subs	r3, #1
 801095e:	e7f7      	b.n	8010950 <_prtl10+0x88>
 8010960:	b903      	cbnz	r3, 8010964 <_prtl10+0x9c>
 8010962:	3301      	adds	r3, #1
 8010964:	2b00      	cmp	r3, #0
 8010966:	db07      	blt.n	8010978 <_prtl10+0xb0>
 8010968:	aa04      	add	r2, sp, #16
 801096a:	441a      	add	r2, r3
 801096c:	f812 2c0c 	ldrb.w	r2, [r2, #-12]
 8010970:	f801 2b01 	strb.w	r2, [r1], #1
 8010974:	3b01      	subs	r3, #1
 8010976:	e7f5      	b.n	8010964 <_prtl10+0x9c>
 8010978:	b005      	add	sp, #20
 801097a:	f85d 4b04 	ldr.w	r4, [sp], #4
 801097e:	4770      	bx	lr
 8010980:	66666667 	.word	0x66666667

08010984 <_prtl8>:
 8010984:	b410      	push	{r4}
 8010986:	b085      	sub	sp, #20
 8010988:	2300      	movs	r3, #0
 801098a:	f88d 3004 	strb.w	r3, [sp, #4]
 801098e:	2301      	movs	r3, #1
 8010990:	e008      	b.n	80109a4 <_prtl8+0x20>
 8010992:	f000 0207 	and.w	r2, r0, #7
 8010996:	3230      	adds	r2, #48	; 0x30
 8010998:	ac04      	add	r4, sp, #16
 801099a:	441c      	add	r4, r3
 801099c:	f804 2c0c 	strb.w	r2, [r4, #-12]
 80109a0:	10c0      	asrs	r0, r0, #3
 80109a2:	3301      	adds	r3, #1
 80109a4:	2b0b      	cmp	r3, #11
 80109a6:	ddf4      	ble.n	8010992 <_prtl8+0xe>
 80109a8:	f89d 300f 	ldrb.w	r3, [sp, #15]
 80109ac:	f003 0333 	and.w	r3, r3, #51	; 0x33
 80109b0:	f88d 300f 	strb.w	r3, [sp, #15]
 80109b4:	230b      	movs	r3, #11
 80109b6:	aa04      	add	r2, sp, #16
 80109b8:	441a      	add	r2, r3
 80109ba:	f812 2c0c 	ldrb.w	r2, [r2, #-12]
 80109be:	2a30      	cmp	r2, #48	; 0x30
 80109c0:	d101      	bne.n	80109c6 <_prtl8+0x42>
 80109c2:	3b01      	subs	r3, #1
 80109c4:	e7f7      	b.n	80109b6 <_prtl8+0x32>
 80109c6:	b903      	cbnz	r3, 80109ca <_prtl8+0x46>
 80109c8:	3301      	adds	r3, #1
 80109ca:	2b00      	cmp	r3, #0
 80109cc:	db07      	blt.n	80109de <_prtl8+0x5a>
 80109ce:	aa04      	add	r2, sp, #16
 80109d0:	441a      	add	r2, r3
 80109d2:	f812 2c0c 	ldrb.w	r2, [r2, #-12]
 80109d6:	f801 2b01 	strb.w	r2, [r1], #1
 80109da:	3b01      	subs	r3, #1
 80109dc:	e7f5      	b.n	80109ca <_prtl8+0x46>
 80109de:	b005      	add	sp, #20
 80109e0:	f85d 4b04 	ldr.w	r4, [sp], #4
 80109e4:	4770      	bx	lr

080109e6 <_prtl16>:
 80109e6:	b410      	push	{r4}
 80109e8:	b085      	sub	sp, #20
 80109ea:	2300      	movs	r3, #0
 80109ec:	f88d 3004 	strb.w	r3, [sp, #4]
 80109f0:	2301      	movs	r3, #1
 80109f2:	e009      	b.n	8010a08 <_prtl16+0x22>
 80109f4:	f000 020f 	and.w	r2, r0, #15
 80109f8:	4c11      	ldr	r4, [pc, #68]	; (8010a40 <_prtl16+0x5a>)
 80109fa:	5ca4      	ldrb	r4, [r4, r2]
 80109fc:	aa04      	add	r2, sp, #16
 80109fe:	441a      	add	r2, r3
 8010a00:	f802 4c0c 	strb.w	r4, [r2, #-12]
 8010a04:	1100      	asrs	r0, r0, #4
 8010a06:	3301      	adds	r3, #1
 8010a08:	2b08      	cmp	r3, #8
 8010a0a:	ddf3      	ble.n	80109f4 <_prtl16+0xe>
 8010a0c:	2308      	movs	r3, #8
 8010a0e:	aa04      	add	r2, sp, #16
 8010a10:	441a      	add	r2, r3
 8010a12:	f812 2c0c 	ldrb.w	r2, [r2, #-12]
 8010a16:	2a30      	cmp	r2, #48	; 0x30
 8010a18:	d101      	bne.n	8010a1e <_prtl16+0x38>
 8010a1a:	3b01      	subs	r3, #1
 8010a1c:	e7f7      	b.n	8010a0e <_prtl16+0x28>
 8010a1e:	b943      	cbnz	r3, 8010a32 <_prtl16+0x4c>
 8010a20:	3301      	adds	r3, #1
 8010a22:	e006      	b.n	8010a32 <_prtl16+0x4c>
 8010a24:	aa04      	add	r2, sp, #16
 8010a26:	441a      	add	r2, r3
 8010a28:	f812 2c0c 	ldrb.w	r2, [r2, #-12]
 8010a2c:	f801 2b01 	strb.w	r2, [r1], #1
 8010a30:	3b01      	subs	r3, #1
 8010a32:	2b00      	cmp	r3, #0
 8010a34:	daf6      	bge.n	8010a24 <_prtl16+0x3e>
 8010a36:	b005      	add	sp, #20
 8010a38:	f85d 4b04 	ldr.w	r4, [sp], #4
 8010a3c:	4770      	bx	lr
 8010a3e:	bf00      	nop
 8010a40:	0801a9c8 	.word	0x0801a9c8

08010a44 <_prtX16>:
 8010a44:	b410      	push	{r4}
 8010a46:	b085      	sub	sp, #20
 8010a48:	2300      	movs	r3, #0
 8010a4a:	f88d 3004 	strb.w	r3, [sp, #4]
 8010a4e:	2301      	movs	r3, #1
 8010a50:	e009      	b.n	8010a66 <_prtX16+0x22>
 8010a52:	f000 020f 	and.w	r2, r0, #15
 8010a56:	4c11      	ldr	r4, [pc, #68]	; (8010a9c <_prtX16+0x58>)
 8010a58:	5ca4      	ldrb	r4, [r4, r2]
 8010a5a:	aa04      	add	r2, sp, #16
 8010a5c:	441a      	add	r2, r3
 8010a5e:	f802 4c0c 	strb.w	r4, [r2, #-12]
 8010a62:	1100      	asrs	r0, r0, #4
 8010a64:	3301      	adds	r3, #1
 8010a66:	2b08      	cmp	r3, #8
 8010a68:	ddf3      	ble.n	8010a52 <_prtX16+0xe>
 8010a6a:	2308      	movs	r3, #8
 8010a6c:	aa04      	add	r2, sp, #16
 8010a6e:	441a      	add	r2, r3
 8010a70:	f812 2c0c 	ldrb.w	r2, [r2, #-12]
 8010a74:	2a30      	cmp	r2, #48	; 0x30
 8010a76:	d101      	bne.n	8010a7c <_prtX16+0x38>
 8010a78:	3b01      	subs	r3, #1
 8010a7a:	e7f7      	b.n	8010a6c <_prtX16+0x28>
 8010a7c:	b943      	cbnz	r3, 8010a90 <_prtX16+0x4c>
 8010a7e:	3301      	adds	r3, #1
 8010a80:	e006      	b.n	8010a90 <_prtX16+0x4c>
 8010a82:	aa04      	add	r2, sp, #16
 8010a84:	441a      	add	r2, r3
 8010a86:	f812 2c0c 	ldrb.w	r2, [r2, #-12]
 8010a8a:	f801 2b01 	strb.w	r2, [r1], #1
 8010a8e:	3b01      	subs	r3, #1
 8010a90:	2b00      	cmp	r3, #0
 8010a92:	daf6      	bge.n	8010a82 <_prtX16+0x3e>
 8010a94:	b005      	add	sp, #20
 8010a96:	f85d 4b04 	ldr.w	r4, [sp], #4
 8010a9a:	4770      	bx	lr
 8010a9c:	0801a9dc 	.word	0x0801a9dc

08010aa0 <_prtl2>:
 8010aa0:	b410      	push	{r4}
 8010aa2:	b08b      	sub	sp, #44	; 0x2c
 8010aa4:	2300      	movs	r3, #0
 8010aa6:	f88d 3004 	strb.w	r3, [sp, #4]
 8010aaa:	2301      	movs	r3, #1
 8010aac:	e006      	b.n	8010abc <_prtl2+0x1c>
 8010aae:	2431      	movs	r4, #49	; 0x31
 8010ab0:	aa0a      	add	r2, sp, #40	; 0x28
 8010ab2:	441a      	add	r2, r3
 8010ab4:	f802 4c24 	strb.w	r4, [r2, #-36]
 8010ab8:	1040      	asrs	r0, r0, #1
 8010aba:	3301      	adds	r3, #1
 8010abc:	2b20      	cmp	r3, #32
 8010abe:	dc04      	bgt.n	8010aca <_prtl2+0x2a>
 8010ac0:	f010 0f01 	tst.w	r0, #1
 8010ac4:	d1f3      	bne.n	8010aae <_prtl2+0xe>
 8010ac6:	2430      	movs	r4, #48	; 0x30
 8010ac8:	e7f2      	b.n	8010ab0 <_prtl2+0x10>
 8010aca:	2320      	movs	r3, #32
 8010acc:	aa0a      	add	r2, sp, #40	; 0x28
 8010ace:	441a      	add	r2, r3
 8010ad0:	f812 2c24 	ldrb.w	r2, [r2, #-36]
 8010ad4:	2a30      	cmp	r2, #48	; 0x30
 8010ad6:	d101      	bne.n	8010adc <_prtl2+0x3c>
 8010ad8:	3b01      	subs	r3, #1
 8010ada:	e7f7      	b.n	8010acc <_prtl2+0x2c>
 8010adc:	b943      	cbnz	r3, 8010af0 <_prtl2+0x50>
 8010ade:	3301      	adds	r3, #1
 8010ae0:	e006      	b.n	8010af0 <_prtl2+0x50>
 8010ae2:	aa0a      	add	r2, sp, #40	; 0x28
 8010ae4:	441a      	add	r2, r3
 8010ae6:	f812 2c24 	ldrb.w	r2, [r2, #-36]
 8010aea:	f801 2b01 	strb.w	r2, [r1], #1
 8010aee:	3b01      	subs	r3, #1
 8010af0:	2b00      	cmp	r3, #0
 8010af2:	daf6      	bge.n	8010ae2 <_prtl2+0x42>
 8010af4:	b00b      	add	sp, #44	; 0x2c
 8010af6:	f85d 4b04 	ldr.w	r4, [sp], #4
 8010afa:	4770      	bx	lr

08010afc <_doprnt>:
 8010afc:	e92d 4ff0 	stmdb	sp!, {r4, r5, r6, r7, r8, r9, sl, fp, lr}
 8010b00:	b089      	sub	sp, #36	; 0x24
 8010b02:	4604      	mov	r4, r0
 8010b04:	9101      	str	r1, [sp, #4]
 8010b06:	4616      	mov	r6, r2
 8010b08:	4625      	mov	r5, r4
 8010b0a:	f815 0b01 	ldrb.w	r0, [r5], #1
 8010b0e:	2825      	cmp	r0, #37	; 0x25
 8010b10:	d005      	beq.n	8010b1e <_doprnt+0x22>
 8010b12:	2800      	cmp	r0, #0
 8010b14:	f000 8094 	beq.w	8010c40 <_doprnt+0x144>
 8010b18:	47b0      	blx	r6
 8010b1a:	462c      	mov	r4, r5
 8010b1c:	e7f4      	b.n	8010b08 <_doprnt+0xc>
 8010b1e:	f895 b000 	ldrb.w	fp, [r5]
 8010b22:	f1bb 0f25 	cmp.w	fp, #37	; 0x25
 8010b26:	d053      	beq.n	8010bd0 <_doprnt+0xd4>
 8010b28:	f1bb 0f2d 	cmp.w	fp, #45	; 0x2d
 8010b2c:	d054      	beq.n	8010bd8 <_doprnt+0xdc>
 8010b2e:	782b      	ldrb	r3, [r5, #0]
 8010b30:	9300      	str	r3, [sp, #0]
 8010b32:	2b30      	cmp	r3, #48	; 0x30
 8010b34:	d052      	beq.n	8010bdc <_doprnt+0xe0>
 8010b36:	2320      	movs	r3, #32
 8010b38:	9300      	str	r3, [sp, #0]
 8010b3a:	782b      	ldrb	r3, [r5, #0]
 8010b3c:	2b2a      	cmp	r3, #42	; 0x2a
 8010b3e:	d15d      	bne.n	8010bfc <_doprnt+0x100>
 8010b40:	9b01      	ldr	r3, [sp, #4]
 8010b42:	1d1a      	adds	r2, r3, #4
 8010b44:	9201      	str	r2, [sp, #4]
 8010b46:	f8d3 9000 	ldr.w	r9, [r3]
 8010b4a:	3501      	adds	r5, #1
 8010b4c:	782b      	ldrb	r3, [r5, #0]
 8010b4e:	2b2e      	cmp	r3, #46	; 0x2e
 8010b50:	d057      	beq.n	8010c02 <_doprnt+0x106>
 8010b52:	f04f 0a00 	mov.w	sl, #0
 8010b56:	462c      	mov	r4, r5
 8010b58:	f814 0b01 	ldrb.w	r0, [r4], #1
 8010b5c:	2800      	cmp	r0, #0
 8010b5e:	d06d      	beq.n	8010c3c <_doprnt+0x140>
 8010b60:	f1a0 0348 	sub.w	r3, r0, #72	; 0x48
 8010b64:	2b30      	cmp	r3, #48	; 0x30
 8010b66:	f200 8104 	bhi.w	8010d72 <_doprnt+0x276>
 8010b6a:	e8df f013 	tbh	[pc, r3, lsl #1]
 8010b6e:	00d3      	.short	0x00d3
 8010b70:	01020102 	.word	0x01020102
 8010b74:	01020102 	.word	0x01020102
 8010b78:	01020102 	.word	0x01020102
 8010b7c:	01020102 	.word	0x01020102
 8010b80:	01020102 	.word	0x01020102
 8010b84:	01020102 	.word	0x01020102
 8010b88:	01020102 	.word	0x01020102
 8010b8c:	00bd0102 	.word	0x00bd0102
 8010b90:	01020102 	.word	0x01020102
 8010b94:	01020102 	.word	0x01020102
 8010b98:	01020102 	.word	0x01020102
 8010b9c:	01020102 	.word	0x01020102
 8010ba0:	00f70102 	.word	0x00f70102
 8010ba4:	0088006c 	.word	0x0088006c
 8010ba8:	01060102 	.word	0x01060102
 8010bac:	00e50102 	.word	0x00e50102
 8010bb0:	01020102 	.word	0x01020102
 8010bb4:	01020102 	.word	0x01020102
 8010bb8:	01020102 	.word	0x01020102
 8010bbc:	010200b2 	.word	0x010200b2
 8010bc0:	01020102 	.word	0x01020102
 8010bc4:	0102007d 	.word	0x0102007d
 8010bc8:	01020096 	.word	0x01020096
 8010bcc:	00c80102 	.word	0x00c80102
 8010bd0:	3402      	adds	r4, #2
 8010bd2:	4658      	mov	r0, fp
 8010bd4:	47b0      	blx	r6
 8010bd6:	e797      	b.n	8010b08 <_doprnt+0xc>
 8010bd8:	1ca5      	adds	r5, r4, #2
 8010bda:	e7a8      	b.n	8010b2e <_doprnt+0x32>
 8010bdc:	3501      	adds	r5, #1
 8010bde:	e7ac      	b.n	8010b3a <_doprnt+0x3e>
 8010be0:	eb09 0989 	add.w	r9, r9, r9, lsl #2
 8010be4:	3501      	adds	r5, #1
 8010be6:	eb03 0949 	add.w	r9, r3, r9, lsl #1
 8010bea:	f1a9 0930 	sub.w	r9, r9, #48	; 0x30
 8010bee:	782b      	ldrb	r3, [r5, #0]
 8010bf0:	f1a3 0230 	sub.w	r2, r3, #48	; 0x30
 8010bf4:	b2d2      	uxtb	r2, r2
 8010bf6:	2a09      	cmp	r2, #9
 8010bf8:	d9f2      	bls.n	8010be0 <_doprnt+0xe4>
 8010bfa:	e7a7      	b.n	8010b4c <_doprnt+0x50>
 8010bfc:	f04f 0900 	mov.w	r9, #0
 8010c00:	e7f5      	b.n	8010bee <_doprnt+0xf2>
 8010c02:	1c69      	adds	r1, r5, #1
 8010c04:	786b      	ldrb	r3, [r5, #1]
 8010c06:	2b2a      	cmp	r3, #42	; 0x2a
 8010c08:	d115      	bne.n	8010c36 <_doprnt+0x13a>
 8010c0a:	9b01      	ldr	r3, [sp, #4]
 8010c0c:	1d1a      	adds	r2, r3, #4
 8010c0e:	9201      	str	r2, [sp, #4]
 8010c10:	f8d3 a000 	ldr.w	sl, [r3]
 8010c14:	3502      	adds	r5, #2
 8010c16:	e79e      	b.n	8010b56 <_doprnt+0x5a>
 8010c18:	eb0a 0a8a 	add.w	sl, sl, sl, lsl #2
 8010c1c:	3101      	adds	r1, #1
 8010c1e:	eb03 0a4a 	add.w	sl, r3, sl, lsl #1
 8010c22:	f1aa 0a30 	sub.w	sl, sl, #48	; 0x30
 8010c26:	780b      	ldrb	r3, [r1, #0]
 8010c28:	f1a3 0230 	sub.w	r2, r3, #48	; 0x30
 8010c2c:	b2d2      	uxtb	r2, r2
 8010c2e:	2a09      	cmp	r2, #9
 8010c30:	d9f2      	bls.n	8010c18 <_doprnt+0x11c>
 8010c32:	460d      	mov	r5, r1
 8010c34:	e78f      	b.n	8010b56 <_doprnt+0x5a>
 8010c36:	f04f 0a00 	mov.w	sl, #0
 8010c3a:	e7f4      	b.n	8010c26 <_doprnt+0x12a>
 8010c3c:	2025      	movs	r0, #37	; 0x25
 8010c3e:	47b0      	blx	r6
 8010c40:	b009      	add	sp, #36	; 0x24
 8010c42:	e8bd 8ff0 	ldmia.w	sp!, {r4, r5, r6, r7, r8, r9, sl, fp, pc}
 8010c46:	9b01      	ldr	r3, [sp, #4]
 8010c48:	1d1a      	adds	r2, r3, #4
 8010c4a:	9201      	str	r2, [sp, #4]
 8010c4c:	681b      	ldr	r3, [r3, #0]
 8010c4e:	f88d 300c 	strb.w	r3, [sp, #12]
 8010c52:	f04f 0a00 	mov.w	sl, #0
 8010c56:	f88d a00d 	strb.w	sl, [sp, #13]
 8010c5a:	4657      	mov	r7, sl
 8010c5c:	2320      	movs	r3, #32
 8010c5e:	9300      	str	r3, [sp, #0]
 8010c60:	ad03      	add	r5, sp, #12
 8010c62:	f04f 0800 	mov.w	r8, #0
 8010c66:	e092      	b.n	8010d8e <_doprnt+0x292>
 8010c68:	9b01      	ldr	r3, [sp, #4]
 8010c6a:	1d1a      	adds	r2, r3, #4
 8010c6c:	9201      	str	r2, [sp, #4]
 8010c6e:	681d      	ldr	r5, [r3, #0]
 8010c70:	2d00      	cmp	r5, #0
 8010c72:	f000 8085 	beq.w	8010d80 <_doprnt+0x284>
 8010c76:	2700      	movs	r7, #0
 8010c78:	2320      	movs	r3, #32
 8010c7a:	9300      	str	r3, [sp, #0]
 8010c7c:	e7f1      	b.n	8010c62 <_doprnt+0x166>
 8010c7e:	9b01      	ldr	r3, [sp, #4]
 8010c80:	1d1a      	adds	r2, r3, #4
 8010c82:	9201      	str	r2, [sp, #4]
 8010c84:	6818      	ldr	r0, [r3, #0]
 8010c86:	2800      	cmp	r0, #0
 8010c88:	db05      	blt.n	8010c96 <_doprnt+0x19a>
 8010c8a:	2700      	movs	r7, #0
 8010c8c:	a903      	add	r1, sp, #12
 8010c8e:	f7ff fe1b 	bl	80108c8 <_prtl10>
 8010c92:	ad03      	add	r5, sp, #12
 8010c94:	e7e5      	b.n	8010c62 <_doprnt+0x166>
 8010c96:	272d      	movs	r7, #45	; 0x2d
 8010c98:	e7f8      	b.n	8010c8c <_doprnt+0x190>
 8010c9a:	9b01      	ldr	r3, [sp, #4]
 8010c9c:	1d1a      	adds	r2, r3, #4
 8010c9e:	9201      	str	r2, [sp, #4]
 8010ca0:	6818      	ldr	r0, [r3, #0]
 8010ca2:	2500      	movs	r5, #0
 8010ca4:	e007      	b.n	8010cb6 <_doprnt+0x1ba>
 8010ca6:	f100 4044 	add.w	r0, r0, #3288334336	; 0xc4000000
 8010caa:	f500 00ca 	add.w	r0, r0, #6619136	; 0x650000
 8010cae:	f500 5058 	add.w	r0, r0, #13824	; 0x3600
 8010cb2:	3501      	adds	r5, #1
 8010cb4:	b2ed      	uxtb	r5, r5
 8010cb6:	2800      	cmp	r0, #0
 8010cb8:	dbf5      	blt.n	8010ca6 <_doprnt+0x1aa>
 8010cba:	a903      	add	r1, sp, #12
 8010cbc:	f7ff fe04 	bl	80108c8 <_prtl10>
 8010cc0:	f89d 300c 	ldrb.w	r3, [sp, #12]
 8010cc4:	441d      	add	r5, r3
 8010cc6:	f88d 500c 	strb.w	r5, [sp, #12]
 8010cca:	2700      	movs	r7, #0
 8010ccc:	46ba      	mov	sl, r7
 8010cce:	ad03      	add	r5, sp, #12
 8010cd0:	e7c7      	b.n	8010c62 <_doprnt+0x166>
 8010cd2:	9b01      	ldr	r3, [sp, #4]
 8010cd4:	1d1a      	adds	r2, r3, #4
 8010cd6:	9201      	str	r2, [sp, #4]
 8010cd8:	a903      	add	r1, sp, #12
 8010cda:	6818      	ldr	r0, [r3, #0]
 8010cdc:	f7ff fe52 	bl	8010984 <_prtl8>
 8010ce0:	2700      	movs	r7, #0
 8010ce2:	46ba      	mov	sl, r7
 8010ce4:	ad03      	add	r5, sp, #12
 8010ce6:	e7bc      	b.n	8010c62 <_doprnt+0x166>
 8010ce8:	9b01      	ldr	r3, [sp, #4]
 8010cea:	1d1a      	adds	r2, r3, #4
 8010cec:	9201      	str	r2, [sp, #4]
 8010cee:	a903      	add	r1, sp, #12
 8010cf0:	6818      	ldr	r0, [r3, #0]
 8010cf2:	f7ff fea7 	bl	8010a44 <_prtX16>
 8010cf6:	2700      	movs	r7, #0
 8010cf8:	46ba      	mov	sl, r7
 8010cfa:	ad03      	add	r5, sp, #12
 8010cfc:	e7b1      	b.n	8010c62 <_doprnt+0x166>
 8010cfe:	9b01      	ldr	r3, [sp, #4]
 8010d00:	1d1a      	adds	r2, r3, #4
 8010d02:	9201      	str	r2, [sp, #4]
 8010d04:	a903      	add	r1, sp, #12
 8010d06:	6818      	ldr	r0, [r3, #0]
 8010d08:	f7ff fe6d 	bl	80109e6 <_prtl16>
 8010d0c:	2700      	movs	r7, #0
 8010d0e:	46ba      	mov	sl, r7
 8010d10:	ad03      	add	r5, sp, #12
 8010d12:	e7a6      	b.n	8010c62 <_doprnt+0x166>
 8010d14:	9b01      	ldr	r3, [sp, #4]
 8010d16:	1d1a      	adds	r2, r3, #4
 8010d18:	9201      	str	r2, [sp, #4]
 8010d1a:	a903      	add	r1, sp, #12
 8010d1c:	6818      	ldr	r0, [r3, #0]
 8010d1e:	f7ff fe91 	bl	8010a44 <_prtX16>
 8010d22:	9b01      	ldr	r3, [sp, #4]
 8010d24:	1d1a      	adds	r2, r3, #4
 8010d26:	9201      	str	r2, [sp, #4]
 8010d28:	a905      	add	r1, sp, #20
 8010d2a:	6818      	ldr	r0, [r3, #0]
 8010d2c:	f7ff fe8a 	bl	8010a44 <_prtX16>
 8010d30:	2700      	movs	r7, #0
 8010d32:	46ba      	mov	sl, r7
 8010d34:	ad03      	add	r5, sp, #12
 8010d36:	e794      	b.n	8010c62 <_doprnt+0x166>
 8010d38:	9b01      	ldr	r3, [sp, #4]
 8010d3a:	1d1a      	adds	r2, r3, #4
 8010d3c:	9201      	str	r2, [sp, #4]
 8010d3e:	a903      	add	r1, sp, #12
 8010d40:	6818      	ldr	r0, [r3, #0]
 8010d42:	f7ff fe50 	bl	80109e6 <_prtl16>
 8010d46:	9b01      	ldr	r3, [sp, #4]
 8010d48:	1d1a      	adds	r2, r3, #4
 8010d4a:	9201      	str	r2, [sp, #4]
 8010d4c:	a905      	add	r1, sp, #20
 8010d4e:	6818      	ldr	r0, [r3, #0]
 8010d50:	f7ff fe49 	bl	80109e6 <_prtl16>
 8010d54:	2700      	movs	r7, #0
 8010d56:	46ba      	mov	sl, r7
 8010d58:	ad03      	add	r5, sp, #12
 8010d5a:	e782      	b.n	8010c62 <_doprnt+0x166>
 8010d5c:	9b01      	ldr	r3, [sp, #4]
 8010d5e:	1d1a      	adds	r2, r3, #4
 8010d60:	9201      	str	r2, [sp, #4]
 8010d62:	a903      	add	r1, sp, #12
 8010d64:	6818      	ldr	r0, [r3, #0]
 8010d66:	f7ff fe9b 	bl	8010aa0 <_prtl2>
 8010d6a:	2700      	movs	r7, #0
 8010d6c:	46ba      	mov	sl, r7
 8010d6e:	ad03      	add	r5, sp, #12
 8010d70:	e777      	b.n	8010c62 <_doprnt+0x166>
 8010d72:	47b0      	blx	r6
 8010d74:	2700      	movs	r7, #0
 8010d76:	ad03      	add	r5, sp, #12
 8010d78:	e773      	b.n	8010c62 <_doprnt+0x166>
 8010d7a:	2700      	movs	r7, #0
 8010d7c:	ad03      	add	r5, sp, #12
 8010d7e:	e770      	b.n	8010c62 <_doprnt+0x166>
 8010d80:	2700      	movs	r7, #0
 8010d82:	2320      	movs	r3, #32
 8010d84:	9300      	str	r3, [sp, #0]
 8010d86:	4d2c      	ldr	r5, [pc, #176]	; (8010e38 <_doprnt+0x33c>)
 8010d88:	e76b      	b.n	8010c62 <_doprnt+0x166>
 8010d8a:	f108 0801 	add.w	r8, r8, #1
 8010d8e:	f815 3008 	ldrb.w	r3, [r5, r8]
 8010d92:	2b00      	cmp	r3, #0
 8010d94:	d1f9      	bne.n	8010d8a <_doprnt+0x28e>
 8010d96:	f1b9 0f50 	cmp.w	r9, #80	; 0x50
 8010d9a:	d901      	bls.n	8010da0 <_doprnt+0x2a4>
 8010d9c:	f04f 0900 	mov.w	r9, #0
 8010da0:	f1ba 0f50 	cmp.w	sl, #80	; 0x50
 8010da4:	d803      	bhi.n	8010dae <_doprnt+0x2b2>
 8010da6:	f1ba 0f00 	cmp.w	sl, #0
 8010daa:	d105      	bne.n	8010db8 <_doprnt+0x2bc>
 8010dac:	e001      	b.n	8010db2 <_doprnt+0x2b6>
 8010dae:	f04f 0a00 	mov.w	sl, #0
 8010db2:	f1b9 0f00 	cmp.w	r9, #0
 8010db6:	d00c      	beq.n	8010dd2 <_doprnt+0x2d6>
 8010db8:	f1ba 0f00 	cmp.w	sl, #0
 8010dbc:	d002      	beq.n	8010dc4 <_doprnt+0x2c8>
 8010dbe:	45d0      	cmp	r8, sl
 8010dc0:	dd00      	ble.n	8010dc4 <_doprnt+0x2c8>
 8010dc2:	46d0      	mov	r8, sl
 8010dc4:	f1b9 0f00 	cmp.w	r9, #0
 8010dc8:	d001      	beq.n	8010dce <_doprnt+0x2d2>
 8010dca:	eba9 0908 	sub.w	r9, r9, r8
 8010dce:	2f2d      	cmp	r7, #45	; 0x2d
 8010dd0:	d008      	beq.n	8010de4 <_doprnt+0x2e8>
 8010dd2:	2f2d      	cmp	r7, #45	; 0x2d
 8010dd4:	d009      	beq.n	8010dea <_doprnt+0x2ee>
 8010dd6:	f1bb 0f2d 	cmp.w	fp, #45	; 0x2d
 8010dda:	d113      	bne.n	8010e04 <_doprnt+0x308>
 8010ddc:	2f2d      	cmp	r7, #45	; 0x2d
 8010dde:	d014      	beq.n	8010e0a <_doprnt+0x30e>
 8010de0:	2700      	movs	r7, #0
 8010de2:	e01b      	b.n	8010e1c <_doprnt+0x320>
 8010de4:	f109 39ff 	add.w	r9, r9, #4294967295	; 0xffffffff
 8010de8:	e7f3      	b.n	8010dd2 <_doprnt+0x2d6>
 8010dea:	9b00      	ldr	r3, [sp, #0]
 8010dec:	2b30      	cmp	r3, #48	; 0x30
 8010dee:	d1f2      	bne.n	8010dd6 <_doprnt+0x2da>
 8010df0:	4638      	mov	r0, r7
 8010df2:	47b0      	blx	r6
 8010df4:	e7ef      	b.n	8010dd6 <_doprnt+0x2da>
 8010df6:	9800      	ldr	r0, [sp, #0]
 8010df8:	47b0      	blx	r6
 8010dfa:	f10a 0a01 	add.w	sl, sl, #1
 8010dfe:	45ca      	cmp	sl, r9
 8010e00:	dbf9      	blt.n	8010df6 <_doprnt+0x2fa>
 8010e02:	e7eb      	b.n	8010ddc <_doprnt+0x2e0>
 8010e04:	f04f 0a00 	mov.w	sl, #0
 8010e08:	e7f9      	b.n	8010dfe <_doprnt+0x302>
 8010e0a:	9b00      	ldr	r3, [sp, #0]
 8010e0c:	2b20      	cmp	r3, #32
 8010e0e:	d1e7      	bne.n	8010de0 <_doprnt+0x2e4>
 8010e10:	4638      	mov	r0, r7
 8010e12:	47b0      	blx	r6
 8010e14:	e7e4      	b.n	8010de0 <_doprnt+0x2e4>
 8010e16:	5de8      	ldrb	r0, [r5, r7]
 8010e18:	47b0      	blx	r6
 8010e1a:	3701      	adds	r7, #1
 8010e1c:	4547      	cmp	r7, r8
 8010e1e:	dbfa      	blt.n	8010e16 <_doprnt+0x31a>
 8010e20:	f1bb 0f2d 	cmp.w	fp, #45	; 0x2d
 8010e24:	f47f ae70 	bne.w	8010b08 <_doprnt+0xc>
 8010e28:	2500      	movs	r5, #0
 8010e2a:	454d      	cmp	r5, r9
 8010e2c:	f6bf ae6c 	bge.w	8010b08 <_doprnt+0xc>
 8010e30:	9800      	ldr	r0, [sp, #0]
 8010e32:	47b0      	blx	r6
 8010e34:	3501      	adds	r5, #1
 8010e36:	e7f8      	b.n	8010e2a <_doprnt+0x32e>
 8010e38:	0801a9f0 	.word	0x0801a9f0

08010e3c <fprintf>:
 8010e3c:	b40e      	push	{r1, r2, r3}
 8010e3e:	b500      	push	{lr}
 8010e40:	b082      	sub	sp, #8
 8010e42:	4603      	mov	r3, r0
 8010e44:	a903      	add	r1, sp, #12
 8010e46:	f851 0b04 	ldr.w	r0, [r1], #4
 8010e4a:	9101      	str	r1, [sp, #4]
 8010e4c:	4a04      	ldr	r2, [pc, #16]	; (8010e60 <fprintf+0x24>)
 8010e4e:	f000 fc13 	bl	8011678 <_fdoprnt>
 8010e52:	2000      	movs	r0, #0
 8010e54:	b002      	add	sp, #8
 8010e56:	f85d eb04 	ldr.w	lr, [sp], #4
 8010e5a:	b003      	add	sp, #12
 8010e5c:	4770      	bx	lr
 8010e5e:	bf00      	nop
 8010e60:	08016001 	.word	0x08016001

08010e64 <tanf>:
 8010e64:	b508      	push	{r3, lr}
 8010e66:	ed2d 8b02 	vpush	{d8}
 8010e6a:	eeb0 8a40 	vmov.f32	s16, s0
 8010e6e:	f001 f9e1 	bl	8012234 <numtestf>
 8010e72:	2801      	cmp	r0, #1
 8010e74:	d064      	beq.n	8010f40 <tanf+0xdc>
 8010e76:	2802      	cmp	r0, #2
 8010e78:	d064      	beq.n	8010f44 <tanf+0xe0>
 8010e7a:	eeb0 0a48 	vmov.f32	s0, s16
 8010e7e:	f000 fd94 	bl	80119aa <fabsf>
 8010e82:	eddf 7a34 	vldr	s15, [pc, #208]	; 8010f54 <tanf+0xf0>
 8010e86:	eeb4 0ae7 	vcmpe.f32	s0, s15
 8010e8a:	eef1 fa10 	vmrs	APSR_nzcv, fpscr
 8010e8e:	dc5e      	bgt.n	8010f4e <tanf+0xea>
 8010e90:	eeb5 8ac0 	vcmpe.f32	s16, #0.0
 8010e94:	eef1 fa10 	vmrs	APSR_nzcv, fpscr
 8010e98:	d441      	bmi.n	8010f1e <tanf+0xba>
 8010e9a:	eddf 6a2f 	vldr	s13, [pc, #188]	; 8010f58 <tanf+0xf4>
 8010e9e:	ee68 6a26 	vmul.f32	s13, s16, s13
 8010ea2:	eef6 7a00 	vmov.f32	s15, #96	; 0x3f000000  0.5
 8010ea6:	ee76 6aa7 	vadd.f32	s13, s13, s15
 8010eaa:	eefd 6ae6 	vcvt.s32.f32	s13, s13
 8010eae:	eef8 7ae6 	vcvt.f32.s32	s15, s13
 8010eb2:	ed9f 7a2a 	vldr	s14, [pc, #168]	; 8010f5c <tanf+0xf8>
 8010eb6:	ee67 7a87 	vmul.f32	s15, s15, s14
 8010eba:	ee78 7a67 	vsub.f32	s15, s16, s15
 8010ebe:	ed9f 7a28 	vldr	s14, [pc, #160]	; 8010f60 <tanf+0xfc>
 8010ec2:	eef4 7ac7 	vcmpe.f32	s15, s14
 8010ec6:	eef1 fa10 	vmrs	APSR_nzcv, fpscr
 8010eca:	dd06      	ble.n	8010eda <tanf+0x76>
 8010ecc:	ed9f 7a25 	vldr	s14, [pc, #148]	; 8010f64 <tanf+0x100>
 8010ed0:	eef4 7ac7 	vcmpe.f32	s15, s14
 8010ed4:	eef1 fa10 	vmrs	APSR_nzcv, fpscr
 8010ed8:	d42c      	bmi.n	8010f34 <tanf+0xd0>
 8010eda:	ee67 5aa7 	vmul.f32	s11, s15, s15
 8010ede:	ed9f 6a22 	vldr	s12, [pc, #136]	; 8010f68 <tanf+0x104>
 8010ee2:	ee25 6a86 	vmul.f32	s12, s11, s12
 8010ee6:	ee26 6a27 	vmul.f32	s12, s12, s15
 8010eea:	ee77 7a86 	vadd.f32	s15, s15, s12
 8010eee:	ed9f 7a1f 	vldr	s14, [pc, #124]	; 8010f6c <tanf+0x108>
 8010ef2:	ee25 7a87 	vmul.f32	s14, s11, s14
 8010ef6:	ed9f 6a1e 	vldr	s12, [pc, #120]	; 8010f70 <tanf+0x10c>
 8010efa:	ee37 7a46 	vsub.f32	s14, s14, s12
 8010efe:	ee27 7a25 	vmul.f32	s14, s14, s11
 8010f02:	eeb7 6a00 	vmov.f32	s12, #112	; 0x3f800000  1.0
 8010f06:	ee37 7a06 	vadd.f32	s14, s14, s12
 8010f0a:	ee16 3a90 	vmov	r3, s13
 8010f0e:	f013 0f01 	tst.w	r3, #1
 8010f12:	d012      	beq.n	8010f3a <tanf+0xd6>
 8010f14:	eeb1 7a47 	vneg.f32	s14, s14
 8010f18:	ee87 8a27 	vdiv.f32	s16, s14, s15
 8010f1c:	e012      	b.n	8010f44 <tanf+0xe0>
 8010f1e:	eddf 6a0e 	vldr	s13, [pc, #56]	; 8010f58 <tanf+0xf4>
 8010f22:	ee68 6a26 	vmul.f32	s13, s16, s13
 8010f26:	eef6 7a00 	vmov.f32	s15, #96	; 0x3f000000  0.5
 8010f2a:	ee76 6ae7 	vsub.f32	s13, s13, s15
 8010f2e:	eefd 6ae6 	vcvt.s32.f32	s13, s13
 8010f32:	e7bc      	b.n	8010eae <tanf+0x4a>
 8010f34:	eeb7 7a00 	vmov.f32	s14, #112	; 0x3f800000  1.0
 8010f38:	e7e7      	b.n	8010f0a <tanf+0xa6>
 8010f3a:	ee87 8a87 	vdiv.f32	s16, s15, s14
 8010f3e:	e001      	b.n	8010f44 <tanf+0xe0>
 8010f40:	ed9f 8a0c 	vldr	s16, [pc, #48]	; 8010f74 <tanf+0x110>
 8010f44:	eeb0 0a48 	vmov.f32	s0, s16
 8010f48:	ecbd 8b02 	vpop	{d8}
 8010f4c:	bd08      	pop	{r3, pc}
 8010f4e:	eeb0 8a40 	vmov.f32	s16, s0
 8010f52:	e7f7      	b.n	8010f44 <tanf+0xe0>
 8010f54:	4cc90fdb 	.word	0x4cc90fdb
 8010f58:	3f22f983 	.word	0x3f22f983
 8010f5c:	3fc90fdb 	.word	0x3fc90fdb
 8010f60:	b93504f3 	.word	0xb93504f3
 8010f64:	393504f3 	.word	0x393504f3
 8010f68:	bdc433b8 	.word	0xbdc433b8
 8010f6c:	3c1f3375 	.word	0x3c1f3375
 8010f70:	3edbb7af 	.word	0x3edbb7af
 8010f74:	4f7fd000 	.word	0x4f7fd000

08010f78 <elf_find_section>:
 8010f78:	e92d 41f0 	stmdb	sp!, {r4, r5, r6, r7, r8, lr}
 8010f7c:	4605      	mov	r5, r0
 8010f7e:	4688      	mov	r8, r1
 8010f80:	6a03      	ldr	r3, [r0, #32]
 8010f82:	18c6      	adds	r6, r0, r3
 8010f84:	8e47      	ldrh	r7, [r0, #50]	; 0x32
 8010f86:	8dc2      	ldrh	r2, [r0, #46]	; 0x2e
 8010f88:	fb02 3707 	mla	r7, r2, r7, r3
 8010f8c:	4407      	add	r7, r0
 8010f8e:	2400      	movs	r4, #0
 8010f90:	8e2b      	ldrh	r3, [r5, #48]	; 0x30
 8010f92:	42a3      	cmp	r3, r4
 8010f94:	d90c      	bls.n	8010fb0 <elf_find_section+0x38>
 8010f96:	693b      	ldr	r3, [r7, #16]
 8010f98:	6830      	ldr	r0, [r6, #0]
 8010f9a:	4418      	add	r0, r3
 8010f9c:	4641      	mov	r1, r8
 8010f9e:	4428      	add	r0, r5
 8010fa0:	f001 fcec 	bl	801297c <strcmp>
 8010fa4:	b128      	cbz	r0, 8010fb2 <elf_find_section+0x3a>
 8010fa6:	8deb      	ldrh	r3, [r5, #46]	; 0x2e
 8010fa8:	441e      	add	r6, r3
 8010faa:	3401      	adds	r4, #1
 8010fac:	b2a4      	uxth	r4, r4
 8010fae:	e7ef      	b.n	8010f90 <elf_find_section+0x18>
 8010fb0:	2600      	movs	r6, #0
 8010fb2:	4630      	mov	r0, r6
 8010fb4:	e8bd 81f0 	ldmia.w	sp!, {r4, r5, r6, r7, r8, pc}

08010fb8 <elf_execve>:
 8010fb8:	e92d 4ff8 	stmdb	sp!, {r3, r4, r5, r6, r7, r8, r9, sl, fp, lr}
 8010fbc:	4604      	mov	r4, r0
 8010fbe:	468a      	mov	sl, r1
 8010fc0:	f005 fd0c 	bl	80169dc <disable>
 8010fc4:	4681      	mov	r9, r0
 8010fc6:	495f      	ldr	r1, [pc, #380]	; (8011144 <elf_execve+0x18c>)
 8010fc8:	4620      	mov	r0, r4
 8010fca:	f008 f94f 	bl	801926c <fl_fopen>
 8010fce:	b348      	cbz	r0, 8011024 <elf_execve+0x6c>
 8010fd0:	4680      	mov	r8, r0
 8010fd2:	2202      	movs	r2, #2
 8010fd4:	2100      	movs	r1, #0
 8010fd6:	f008 fb54 	bl	8019682 <fl_fseek>
 8010fda:	4640      	mov	r0, r8
 8010fdc:	f008 fbbc 	bl	8019758 <fl_ftell>
 8010fe0:	4604      	mov	r4, r0
 8010fe2:	2200      	movs	r2, #0
 8010fe4:	4611      	mov	r1, r2
 8010fe6:	4640      	mov	r0, r8
 8010fe8:	f008 fb4b 	bl	8019682 <fl_fseek>
 8010fec:	4620      	mov	r0, r4
 8010fee:	f001 f8d1 	bl	8012194 <malloc>
 8010ff2:	4605      	mov	r5, r0
 8010ff4:	4643      	mov	r3, r8
 8010ff6:	2201      	movs	r2, #1
 8010ff8:	4621      	mov	r1, r4
 8010ffa:	f008 fa89 	bl	8019510 <fl_fread>
 8010ffe:	4284      	cmp	r4, r0
 8011000:	d11a      	bne.n	8011038 <elf_execve+0x80>
 8011002:	782b      	ldrb	r3, [r5, #0]
 8011004:	2b7f      	cmp	r3, #127	; 0x7f
 8011006:	d123      	bne.n	8011050 <elf_execve+0x98>
 8011008:	786b      	ldrb	r3, [r5, #1]
 801100a:	2b45      	cmp	r3, #69	; 0x45
 801100c:	d120      	bne.n	8011050 <elf_execve+0x98>
 801100e:	78ab      	ldrb	r3, [r5, #2]
 8011010:	2b4c      	cmp	r3, #76	; 0x4c
 8011012:	d11d      	bne.n	8011050 <elf_execve+0x98>
 8011014:	78eb      	ldrb	r3, [r5, #3]
 8011016:	2b46      	cmp	r3, #70	; 0x46
 8011018:	d11a      	bne.n	8011050 <elf_execve+0x98>
 801101a:	69ef      	ldr	r7, [r5, #28]
 801101c:	442f      	add	r7, r5
 801101e:	2600      	movs	r6, #0
 8011020:	4634      	mov	r4, r6
 8011022:	e02f      	b.n	8011084 <elf_execve+0xcc>
 8011024:	4621      	mov	r1, r4
 8011026:	4848      	ldr	r0, [pc, #288]	; (8011148 <elf_execve+0x190>)
 8011028:	f004 fb36 	bl	8015698 <kprintf>
 801102c:	4648      	mov	r0, r9
 801102e:	f005 fcd9 	bl	80169e4 <restore>
 8011032:	f04f 30ff 	mov.w	r0, #4294967295	; 0xffffffff
 8011036:	e016      	b.n	8011066 <elf_execve+0xae>
 8011038:	4640      	mov	r0, r8
 801103a:	f008 fa33 	bl	80194a4 <fl_fclose>
 801103e:	4628      	mov	r0, r5
 8011040:	f001 f8ba 	bl	80121b8 <free>
 8011044:	4648      	mov	r0, r9
 8011046:	f005 fccd 	bl	80169e4 <restore>
 801104a:	f06f 0001 	mvn.w	r0, #1
 801104e:	e00a      	b.n	8011066 <elf_execve+0xae>
 8011050:	4640      	mov	r0, r8
 8011052:	f008 fa27 	bl	80194a4 <fl_fclose>
 8011056:	4628      	mov	r0, r5
 8011058:	f001 f8ae 	bl	80121b8 <free>
 801105c:	4648      	mov	r0, r9
 801105e:	f005 fcc1 	bl	80169e4 <restore>
 8011062:	f06f 0002 	mvn.w	r0, #2
 8011066:	e8bd 8ff8 	ldmia.w	sp!, {r3, r4, r5, r6, r7, r8, r9, sl, fp, pc}
 801106a:	e7fe      	b.n	801106a <elf_execve+0xb2>
 801106c:	186b      	adds	r3, r5, r1
 801106e:	5d1b      	ldrb	r3, [r3, r4]
 8011070:	5513      	strb	r3, [r2, r4]
 8011072:	3401      	adds	r4, #1
 8011074:	693b      	ldr	r3, [r7, #16]
 8011076:	42a3      	cmp	r3, r4
 8011078:	d8f8      	bhi.n	801106c <elf_execve+0xb4>
 801107a:	4604      	mov	r4, r0
 801107c:	8d6b      	ldrh	r3, [r5, #42]	; 0x2a
 801107e:	441f      	add	r7, r3
 8011080:	3601      	adds	r6, #1
 8011082:	b2b6      	uxth	r6, r6
 8011084:	8dab      	ldrh	r3, [r5, #44]	; 0x2c
 8011086:	42b3      	cmp	r3, r6
 8011088:	d910      	bls.n	80110ac <elf_execve+0xf4>
 801108a:	683b      	ldr	r3, [r7, #0]
 801108c:	2b01      	cmp	r3, #1
 801108e:	d1f5      	bne.n	801107c <elf_execve+0xc4>
 8011090:	2c00      	cmp	r4, #0
 8011092:	d1ea      	bne.n	801106a <elf_execve+0xb2>
 8011094:	6978      	ldr	r0, [r7, #20]
 8011096:	3008      	adds	r0, #8
 8011098:	f001 f87c 	bl	8012194 <malloc>
 801109c:	f020 0007 	bic.w	r0, r0, #7
 80110a0:	f8ca 0000 	str.w	r0, [sl]
 80110a4:	6879      	ldr	r1, [r7, #4]
 80110a6:	68ba      	ldr	r2, [r7, #8]
 80110a8:	4402      	add	r2, r0
 80110aa:	e7e3      	b.n	8011074 <elf_execve+0xbc>
 80110ac:	4927      	ldr	r1, [pc, #156]	; (801114c <elf_execve+0x194>)
 80110ae:	4628      	mov	r0, r5
 80110b0:	f7ff ff62 	bl	8010f78 <elf_find_section>
 80110b4:	b158      	cbz	r0, 80110ce <elf_execve+0x116>
 80110b6:	68c1      	ldr	r1, [r0, #12]
 80110b8:	4421      	add	r1, r4
 80110ba:	6942      	ldr	r2, [r0, #20]
 80110bc:	0892      	lsrs	r2, r2, #2
 80110be:	2300      	movs	r3, #0
 80110c0:	e003      	b.n	80110ca <elf_execve+0x112>
 80110c2:	2000      	movs	r0, #0
 80110c4:	f841 0023 	str.w	r0, [r1, r3, lsl #2]
 80110c8:	3301      	adds	r3, #1
 80110ca:	4293      	cmp	r3, r2
 80110cc:	d3f9      	bcc.n	80110c2 <elf_execve+0x10a>
 80110ce:	4920      	ldr	r1, [pc, #128]	; (8011150 <elf_execve+0x198>)
 80110d0:	4628      	mov	r0, r5
 80110d2:	f7ff ff51 	bl	8010f78 <elf_find_section>
 80110d6:	b168      	cbz	r0, 80110f4 <elf_execve+0x13c>
 80110d8:	68c1      	ldr	r1, [r0, #12]
 80110da:	4421      	add	r1, r4
 80110dc:	6940      	ldr	r0, [r0, #20]
 80110de:	0880      	lsrs	r0, r0, #2
 80110e0:	2300      	movs	r3, #0
 80110e2:	e005      	b.n	80110f0 <elf_execve+0x138>
 80110e4:	f851 2023 	ldr.w	r2, [r1, r3, lsl #2]
 80110e8:	4422      	add	r2, r4
 80110ea:	f841 2023 	str.w	r2, [r1, r3, lsl #2]
 80110ee:	3301      	adds	r3, #1
 80110f0:	4283      	cmp	r3, r0
 80110f2:	d3f7      	bcc.n	80110e4 <elf_execve+0x12c>
 80110f4:	4917      	ldr	r1, [pc, #92]	; (8011154 <elf_execve+0x19c>)
 80110f6:	4628      	mov	r0, r5
 80110f8:	f7ff ff3e 	bl	8010f78 <elf_find_section>
 80110fc:	b178      	cbz	r0, 801111e <elf_execve+0x166>
 80110fe:	68c7      	ldr	r7, [r0, #12]
 8011100:	4427      	add	r7, r4
 8011102:	6943      	ldr	r3, [r0, #20]
 8011104:	ea4f 0b93 	mov.w	fp, r3, lsr #2
 8011108:	2600      	movs	r6, #0
 801110a:	e006      	b.n	801111a <elf_execve+0x162>
 801110c:	f857 3026 	ldr.w	r3, [r7, r6, lsl #2]
 8011110:	4423      	add	r3, r4
 8011112:	f847 3026 	str.w	r3, [r7, r6, lsl #2]
 8011116:	4798      	blx	r3
 8011118:	3601      	adds	r6, #1
 801111a:	455e      	cmp	r6, fp
 801111c:	d3f6      	bcc.n	801110c <elf_execve+0x154>
 801111e:	4640      	mov	r0, r8
 8011120:	f008 f9c0 	bl	80194a4 <fl_fclose>
 8011124:	4628      	mov	r0, r5
 8011126:	f001 f847 	bl	80121b8 <free>
 801112a:	69ab      	ldr	r3, [r5, #24]
 801112c:	4423      	add	r3, r4
 801112e:	f8ca 300c 	str.w	r3, [sl, #12]
 8011132:	4648      	mov	r0, r9
 8011134:	f005 fc56 	bl	80169e4 <restore>
 8011138:	69a8      	ldr	r0, [r5, #24]
 801113a:	4420      	add	r0, r4
 801113c:	f040 0001 	orr.w	r0, r0, #1
 8011140:	e791      	b.n	8011066 <elf_execve+0xae>
 8011142:	bf00      	nop
 8011144:	0801b07c 	.word	0x0801b07c
 8011148:	0801a9f8 	.word	0x0801a9f8
 801114c:	0801aa08 	.word	0x0801aa08
 8011150:	0801aa10 	.word	0x0801aa10
 8011154:	0801aa18 	.word	0x0801aa18

08011158 <_prtl10>:
 8011158:	b410      	push	{r4}
 801115a:	b085      	sub	sp, #20
 801115c:	2300      	movs	r3, #0
 801115e:	f88d 3004 	strb.w	r3, [sp, #4]
 8011162:	2201      	movs	r2, #1
 8011164:	2a0a      	cmp	r2, #10
 8011166:	dc12      	bgt.n	801118e <_prtl10+0x36>
 8011168:	4c15      	ldr	r4, [pc, #84]	; (80111c0 <_prtl10+0x68>)
 801116a:	fb84 3400 	smull	r3, r4, r4, r0
 801116e:	17c3      	asrs	r3, r0, #31
 8011170:	ebc3 03a4 	rsb	r3, r3, r4, asr #2
 8011174:	461c      	mov	r4, r3
 8011176:	eb03 0383 	add.w	r3, r3, r3, lsl #2
 801117a:	eba0 0343 	sub.w	r3, r0, r3, lsl #1
 801117e:	3330      	adds	r3, #48	; 0x30
 8011180:	a804      	add	r0, sp, #16
 8011182:	4410      	add	r0, r2
 8011184:	f800 3c0c 	strb.w	r3, [r0, #-12]
 8011188:	4620      	mov	r0, r4
 801118a:	3201      	adds	r2, #1
 801118c:	e7ea      	b.n	8011164 <_prtl10+0xc>
 801118e:	230a      	movs	r3, #10
 8011190:	e000      	b.n	8011194 <_prtl10+0x3c>
 8011192:	3b01      	subs	r3, #1
 8011194:	aa04      	add	r2, sp, #16
 8011196:	441a      	add	r2, r3
 8011198:	f812 2c0c 	ldrb.w	r2, [r2, #-12]
 801119c:	2a30      	cmp	r2, #48	; 0x30
 801119e:	d0f8      	beq.n	8011192 <_prtl10+0x3a>
 80111a0:	b903      	cbnz	r3, 80111a4 <_prtl10+0x4c>
 80111a2:	3301      	adds	r3, #1
 80111a4:	2b00      	cmp	r3, #0
 80111a6:	db07      	blt.n	80111b8 <_prtl10+0x60>
 80111a8:	aa04      	add	r2, sp, #16
 80111aa:	441a      	add	r2, r3
 80111ac:	f812 2c0c 	ldrb.w	r2, [r2, #-12]
 80111b0:	f801 2b01 	strb.w	r2, [r1], #1
 80111b4:	3b01      	subs	r3, #1
 80111b6:	e7f5      	b.n	80111a4 <_prtl10+0x4c>
 80111b8:	b005      	add	sp, #20
 80111ba:	f85d 4b04 	ldr.w	r4, [sp], #4
 80111be:	4770      	bx	lr
 80111c0:	66666667 	.word	0x66666667

080111c4 <_prtl8>:
 80111c4:	b410      	push	{r4}
 80111c6:	b085      	sub	sp, #20
 80111c8:	2300      	movs	r3, #0
 80111ca:	f88d 3004 	strb.w	r3, [sp, #4]
 80111ce:	2301      	movs	r3, #1
 80111d0:	e008      	b.n	80111e4 <_prtl8+0x20>
 80111d2:	f000 0207 	and.w	r2, r0, #7
 80111d6:	3230      	adds	r2, #48	; 0x30
 80111d8:	ac04      	add	r4, sp, #16
 80111da:	441c      	add	r4, r3
 80111dc:	f804 2c0c 	strb.w	r2, [r4, #-12]
 80111e0:	10c0      	asrs	r0, r0, #3
 80111e2:	3301      	adds	r3, #1
 80111e4:	2b0b      	cmp	r3, #11
 80111e6:	ddf4      	ble.n	80111d2 <_prtl8+0xe>
 80111e8:	f89d 300f 	ldrb.w	r3, [sp, #15]
 80111ec:	f003 0333 	and.w	r3, r3, #51	; 0x33
 80111f0:	f88d 300f 	strb.w	r3, [sp, #15]
 80111f4:	230b      	movs	r3, #11
 80111f6:	aa04      	add	r2, sp, #16
 80111f8:	441a      	add	r2, r3
 80111fa:	f812 2c0c 	ldrb.w	r2, [r2, #-12]
 80111fe:	2a30      	cmp	r2, #48	; 0x30
 8011200:	d101      	bne.n	8011206 <_prtl8+0x42>
 8011202:	3b01      	subs	r3, #1
 8011204:	e7f7      	b.n	80111f6 <_prtl8+0x32>
 8011206:	b903      	cbnz	r3, 801120a <_prtl8+0x46>
 8011208:	3301      	adds	r3, #1
 801120a:	2b00      	cmp	r3, #0
 801120c:	db07      	blt.n	801121e <_prtl8+0x5a>
 801120e:	aa04      	add	r2, sp, #16
 8011210:	441a      	add	r2, r3
 8011212:	f812 2c0c 	ldrb.w	r2, [r2, #-12]
 8011216:	f801 2b01 	strb.w	r2, [r1], #1
 801121a:	3b01      	subs	r3, #1
 801121c:	e7f5      	b.n	801120a <_prtl8+0x46>
 801121e:	b005      	add	sp, #20
 8011220:	f85d 4b04 	ldr.w	r4, [sp], #4
 8011224:	4770      	bx	lr

08011226 <_prtl16>:
 8011226:	b410      	push	{r4}
 8011228:	b085      	sub	sp, #20
 801122a:	2300      	movs	r3, #0
 801122c:	f88d 3004 	strb.w	r3, [sp, #4]
 8011230:	2301      	movs	r3, #1
 8011232:	e009      	b.n	8011248 <_prtl16+0x22>
 8011234:	f000 020f 	and.w	r2, r0, #15
 8011238:	4c11      	ldr	r4, [pc, #68]	; (8011280 <_prtl16+0x5a>)
 801123a:	5ca4      	ldrb	r4, [r4, r2]
 801123c:	aa04      	add	r2, sp, #16
 801123e:	441a      	add	r2, r3
 8011240:	f802 4c0c 	strb.w	r4, [r2, #-12]
 8011244:	1100      	asrs	r0, r0, #4
 8011246:	3301      	adds	r3, #1
 8011248:	2b08      	cmp	r3, #8
 801124a:	ddf3      	ble.n	8011234 <_prtl16+0xe>
 801124c:	2308      	movs	r3, #8
 801124e:	aa04      	add	r2, sp, #16
 8011250:	441a      	add	r2, r3
 8011252:	f812 2c0c 	ldrb.w	r2, [r2, #-12]
 8011256:	2a30      	cmp	r2, #48	; 0x30
 8011258:	d101      	bne.n	801125e <_prtl16+0x38>
 801125a:	3b01      	subs	r3, #1
 801125c:	e7f7      	b.n	801124e <_prtl16+0x28>
 801125e:	b943      	cbnz	r3, 8011272 <_prtl16+0x4c>
 8011260:	3301      	adds	r3, #1
 8011262:	e006      	b.n	8011272 <_prtl16+0x4c>
 8011264:	aa04      	add	r2, sp, #16
 8011266:	441a      	add	r2, r3
 8011268:	f812 2c0c 	ldrb.w	r2, [r2, #-12]
 801126c:	f801 2b01 	strb.w	r2, [r1], #1
 8011270:	3b01      	subs	r3, #1
 8011272:	2b00      	cmp	r3, #0
 8011274:	daf6      	bge.n	8011264 <_prtl16+0x3e>
 8011276:	b005      	add	sp, #20
 8011278:	f85d 4b04 	ldr.w	r4, [sp], #4
 801127c:	4770      	bx	lr
 801127e:	bf00      	nop
 8011280:	0801a9c8 	.word	0x0801a9c8

08011284 <_prtX16>:
 8011284:	b410      	push	{r4}
 8011286:	b085      	sub	sp, #20
 8011288:	2300      	movs	r3, #0
 801128a:	f88d 3004 	strb.w	r3, [sp, #4]
 801128e:	2301      	movs	r3, #1
 8011290:	e009      	b.n	80112a6 <_prtX16+0x22>
 8011292:	f000 020f 	and.w	r2, r0, #15
 8011296:	4c11      	ldr	r4, [pc, #68]	; (80112dc <_prtX16+0x58>)
 8011298:	5ca4      	ldrb	r4, [r4, r2]
 801129a:	aa04      	add	r2, sp, #16
 801129c:	441a      	add	r2, r3
 801129e:	f802 4c0c 	strb.w	r4, [r2, #-12]
 80112a2:	1100      	asrs	r0, r0, #4
 80112a4:	3301      	adds	r3, #1
 80112a6:	2b08      	cmp	r3, #8
 80112a8:	ddf3      	ble.n	8011292 <_prtX16+0xe>
 80112aa:	2308      	movs	r3, #8
 80112ac:	aa04      	add	r2, sp, #16
 80112ae:	441a      	add	r2, r3
 80112b0:	f812 2c0c 	ldrb.w	r2, [r2, #-12]
 80112b4:	2a30      	cmp	r2, #48	; 0x30
 80112b6:	d101      	bne.n	80112bc <_prtX16+0x38>
 80112b8:	3b01      	subs	r3, #1
 80112ba:	e7f7      	b.n	80112ac <_prtX16+0x28>
 80112bc:	b943      	cbnz	r3, 80112d0 <_prtX16+0x4c>
 80112be:	3301      	adds	r3, #1
 80112c0:	e006      	b.n	80112d0 <_prtX16+0x4c>
 80112c2:	aa04      	add	r2, sp, #16
 80112c4:	441a      	add	r2, r3
 80112c6:	f812 2c0c 	ldrb.w	r2, [r2, #-12]
 80112ca:	f801 2b01 	strb.w	r2, [r1], #1
 80112ce:	3b01      	subs	r3, #1
 80112d0:	2b00      	cmp	r3, #0
 80112d2:	daf6      	bge.n	80112c2 <_prtX16+0x3e>
 80112d4:	b005      	add	sp, #20
 80112d6:	f85d 4b04 	ldr.w	r4, [sp], #4
 80112da:	4770      	bx	lr
 80112dc:	0801a9dc 	.word	0x0801a9dc

080112e0 <_prtl2>:
 80112e0:	b410      	push	{r4}
 80112e2:	b08b      	sub	sp, #44	; 0x2c
 80112e4:	2300      	movs	r3, #0
 80112e6:	f88d 3004 	strb.w	r3, [sp, #4]
 80112ea:	2301      	movs	r3, #1
 80112ec:	e006      	b.n	80112fc <_prtl2+0x1c>
 80112ee:	2431      	movs	r4, #49	; 0x31
 80112f0:	aa0a      	add	r2, sp, #40	; 0x28
 80112f2:	441a      	add	r2, r3
 80112f4:	f802 4c24 	strb.w	r4, [r2, #-36]
 80112f8:	1040      	asrs	r0, r0, #1
 80112fa:	3301      	adds	r3, #1
 80112fc:	2b20      	cmp	r3, #32
 80112fe:	dc04      	bgt.n	801130a <_prtl2+0x2a>
 8011300:	f010 0f01 	tst.w	r0, #1
 8011304:	d1f3      	bne.n	80112ee <_prtl2+0xe>
 8011306:	2430      	movs	r4, #48	; 0x30
 8011308:	e7f2      	b.n	80112f0 <_prtl2+0x10>
 801130a:	2320      	movs	r3, #32
 801130c:	aa0a      	add	r2, sp, #40	; 0x28
 801130e:	441a      	add	r2, r3
 8011310:	f812 2c24 	ldrb.w	r2, [r2, #-36]
 8011314:	2a30      	cmp	r2, #48	; 0x30
 8011316:	d101      	bne.n	801131c <_prtl2+0x3c>
 8011318:	3b01      	subs	r3, #1
 801131a:	e7f7      	b.n	801130c <_prtl2+0x2c>
 801131c:	b943      	cbnz	r3, 8011330 <_prtl2+0x50>
 801131e:	3301      	adds	r3, #1
 8011320:	e006      	b.n	8011330 <_prtl2+0x50>
 8011322:	aa0a      	add	r2, sp, #40	; 0x28
 8011324:	441a      	add	r2, r3
 8011326:	f812 2c24 	ldrb.w	r2, [r2, #-36]
 801132a:	f801 2b01 	strb.w	r2, [r1], #1
 801132e:	3b01      	subs	r3, #1
 8011330:	2b00      	cmp	r3, #0
 8011332:	daf6      	bge.n	8011322 <_prtl2+0x42>
 8011334:	b00b      	add	sp, #44	; 0x2c
 8011336:	f85d 4b04 	ldr.w	r4, [sp], #4
 801133a:	4770      	bx	lr

0801133c <_fdoprnt2>:
 801133c:	e92d 4ff0 	stmdb	sp!, {r4, r5, r6, r7, r8, r9, sl, fp, lr}
 8011340:	b08d      	sub	sp, #52	; 0x34
 8011342:	4683      	mov	fp, r0
 8011344:	9105      	str	r1, [sp, #20]
 8011346:	4614      	mov	r4, r2
 8011348:	461d      	mov	r5, r3
 801134a:	9e16      	ldr	r6, [sp, #88]	; 0x58
 801134c:	465f      	mov	r7, fp
 801134e:	f817 2b01 	ldrb.w	r2, [r7], #1
 8011352:	2a25      	cmp	r2, #37	; 0x25
 8011354:	d007      	beq.n	8011366 <_fdoprnt2+0x2a>
 8011356:	2a00      	cmp	r2, #0
 8011358:	f000 808b 	beq.w	8011472 <_fdoprnt2+0x136>
 801135c:	4629      	mov	r1, r5
 801135e:	4630      	mov	r0, r6
 8011360:	47a0      	blx	r4
 8011362:	46bb      	mov	fp, r7
 8011364:	e7f2      	b.n	801134c <_fdoprnt2+0x10>
 8011366:	783b      	ldrb	r3, [r7, #0]
 8011368:	9301      	str	r3, [sp, #4]
 801136a:	2b25      	cmp	r3, #37	; 0x25
 801136c:	d043      	beq.n	80113f6 <_fdoprnt2+0xba>
 801136e:	9b01      	ldr	r3, [sp, #4]
 8011370:	2b2d      	cmp	r3, #45	; 0x2d
 8011372:	d047      	beq.n	8011404 <_fdoprnt2+0xc8>
 8011374:	783b      	ldrb	r3, [r7, #0]
 8011376:	9303      	str	r3, [sp, #12]
 8011378:	2b30      	cmp	r3, #48	; 0x30
 801137a:	d046      	beq.n	801140a <_fdoprnt2+0xce>
 801137c:	2320      	movs	r3, #32
 801137e:	9303      	str	r3, [sp, #12]
 8011380:	783b      	ldrb	r3, [r7, #0]
 8011382:	2b2a      	cmp	r3, #42	; 0x2a
 8011384:	d151      	bne.n	801142a <_fdoprnt2+0xee>
 8011386:	9b05      	ldr	r3, [sp, #20]
 8011388:	1d1a      	adds	r2, r3, #4
 801138a:	9205      	str	r2, [sp, #20]
 801138c:	f8d3 9000 	ldr.w	r9, [r3]
 8011390:	3701      	adds	r7, #1
 8011392:	783b      	ldrb	r3, [r7, #0]
 8011394:	2b2e      	cmp	r3, #46	; 0x2e
 8011396:	d04b      	beq.n	8011430 <_fdoprnt2+0xf4>
 8011398:	f04f 0800 	mov.w	r8, #0
 801139c:	46bb      	mov	fp, r7
 801139e:	f81b 2b01 	ldrb.w	r2, [fp], #1
 80113a2:	2a00      	cmp	r2, #0
 80113a4:	d061      	beq.n	801146a <_fdoprnt2+0x12e>
 80113a6:	f1a2 0358 	sub.w	r3, r2, #88	; 0x58
 80113aa:	2b20      	cmp	r3, #32
 80113ac:	f200 80ed 	bhi.w	801158a <_fdoprnt2+0x24e>
 80113b0:	e8df f013 	tbh	[pc, r3, lsl #1]
 80113b4:	00eb00c4 	.word	0x00eb00c4
 80113b8:	00eb00eb 	.word	0x00eb00eb
 80113bc:	00eb00eb 	.word	0x00eb00eb
 80113c0:	00eb00eb 	.word	0x00eb00eb
 80113c4:	00eb00eb 	.word	0x00eb00eb
 80113c8:	006200de 	.word	0x006200de
 80113cc:	00eb0087 	.word	0x00eb0087
 80113d0:	00eb00eb 	.word	0x00eb00eb
 80113d4:	00eb00eb 	.word	0x00eb00eb
 80113d8:	00eb00eb 	.word	0x00eb00eb
 80113dc:	00eb00eb 	.word	0x00eb00eb
 80113e0:	00b700eb 	.word	0x00b700eb
 80113e4:	00eb00eb 	.word	0x00eb00eb
 80113e8:	007a00eb 	.word	0x007a00eb
 80113ec:	009900eb 	.word	0x009900eb
 80113f0:	00eb00eb 	.word	0x00eb00eb
 80113f4:	00d1      	.short	0x00d1
 80113f6:	f10b 0b02 	add.w	fp, fp, #2
 80113fa:	461a      	mov	r2, r3
 80113fc:	4629      	mov	r1, r5
 80113fe:	4630      	mov	r0, r6
 8011400:	47a0      	blx	r4
 8011402:	e7a3      	b.n	801134c <_fdoprnt2+0x10>
 8011404:	f10b 0702 	add.w	r7, fp, #2
 8011408:	e7b4      	b.n	8011374 <_fdoprnt2+0x38>
 801140a:	3701      	adds	r7, #1
 801140c:	e7b8      	b.n	8011380 <_fdoprnt2+0x44>
 801140e:	eb09 0989 	add.w	r9, r9, r9, lsl #2
 8011412:	3701      	adds	r7, #1
 8011414:	eb03 0349 	add.w	r3, r3, r9, lsl #1
 8011418:	f1a3 0930 	sub.w	r9, r3, #48	; 0x30
 801141c:	783b      	ldrb	r3, [r7, #0]
 801141e:	f1a3 0230 	sub.w	r2, r3, #48	; 0x30
 8011422:	b2d2      	uxtb	r2, r2
 8011424:	2a09      	cmp	r2, #9
 8011426:	d9f2      	bls.n	801140e <_fdoprnt2+0xd2>
 8011428:	e7b3      	b.n	8011392 <_fdoprnt2+0x56>
 801142a:	f04f 0900 	mov.w	r9, #0
 801142e:	e7f5      	b.n	801141c <_fdoprnt2+0xe0>
 8011430:	1c79      	adds	r1, r7, #1
 8011432:	787b      	ldrb	r3, [r7, #1]
 8011434:	2b2a      	cmp	r3, #42	; 0x2a
 8011436:	d115      	bne.n	8011464 <_fdoprnt2+0x128>
 8011438:	9b05      	ldr	r3, [sp, #20]
 801143a:	1d1a      	adds	r2, r3, #4
 801143c:	9205      	str	r2, [sp, #20]
 801143e:	f8d3 8000 	ldr.w	r8, [r3]
 8011442:	3702      	adds	r7, #2
 8011444:	e7aa      	b.n	801139c <_fdoprnt2+0x60>
 8011446:	eb08 0888 	add.w	r8, r8, r8, lsl #2
 801144a:	3101      	adds	r1, #1
 801144c:	eb03 0348 	add.w	r3, r3, r8, lsl #1
 8011450:	f1a3 0830 	sub.w	r8, r3, #48	; 0x30
 8011454:	780b      	ldrb	r3, [r1, #0]
 8011456:	f1a3 0230 	sub.w	r2, r3, #48	; 0x30
 801145a:	b2d2      	uxtb	r2, r2
 801145c:	2a09      	cmp	r2, #9
 801145e:	d9f2      	bls.n	8011446 <_fdoprnt2+0x10a>
 8011460:	460f      	mov	r7, r1
 8011462:	e79b      	b.n	801139c <_fdoprnt2+0x60>
 8011464:	f04f 0800 	mov.w	r8, #0
 8011468:	e7f4      	b.n	8011454 <_fdoprnt2+0x118>
 801146a:	2225      	movs	r2, #37	; 0x25
 801146c:	4629      	mov	r1, r5
 801146e:	4630      	mov	r0, r6
 8011470:	47a0      	blx	r4
 8011472:	b00d      	add	sp, #52	; 0x34
 8011474:	e8bd 8ff0 	ldmia.w	sp!, {r4, r5, r6, r7, r8, r9, sl, fp, pc}
 8011478:	9b05      	ldr	r3, [sp, #20]
 801147a:	1d1a      	adds	r2, r3, #4
 801147c:	9205      	str	r2, [sp, #20]
 801147e:	681b      	ldr	r3, [r3, #0]
 8011480:	f88d 301c 	strb.w	r3, [sp, #28]
 8011484:	f04f 0800 	mov.w	r8, #0
 8011488:	f88d 801d 	strb.w	r8, [sp, #29]
 801148c:	f8cd 8008 	str.w	r8, [sp, #8]
 8011490:	2320      	movs	r3, #32
 8011492:	9303      	str	r3, [sp, #12]
 8011494:	f10d 0a1c 	add.w	sl, sp, #28
 8011498:	2700      	movs	r7, #0
 801149a:	f81a 3007 	ldrb.w	r3, [sl, r7]
 801149e:	2b00      	cmp	r3, #0
 80114a0:	f000 8082 	beq.w	80115a8 <_fdoprnt2+0x26c>
 80114a4:	3701      	adds	r7, #1
 80114a6:	e7f8      	b.n	801149a <_fdoprnt2+0x15e>
 80114a8:	9b05      	ldr	r3, [sp, #20]
 80114aa:	1d1a      	adds	r2, r3, #4
 80114ac:	9205      	str	r2, [sp, #20]
 80114ae:	f8d3 a000 	ldr.w	sl, [r3]
 80114b2:	f1ba 0f00 	cmp.w	sl, #0
 80114b6:	d070      	beq.n	801159a <_fdoprnt2+0x25e>
 80114b8:	2300      	movs	r3, #0
 80114ba:	9302      	str	r3, [sp, #8]
 80114bc:	2320      	movs	r3, #32
 80114be:	9303      	str	r3, [sp, #12]
 80114c0:	e7ea      	b.n	8011498 <_fdoprnt2+0x15c>
 80114c2:	9b05      	ldr	r3, [sp, #20]
 80114c4:	1d1a      	adds	r2, r3, #4
 80114c6:	9205      	str	r2, [sp, #20]
 80114c8:	6818      	ldr	r0, [r3, #0]
 80114ca:	2800      	cmp	r0, #0
 80114cc:	db07      	blt.n	80114de <_fdoprnt2+0x1a2>
 80114ce:	2300      	movs	r3, #0
 80114d0:	9302      	str	r3, [sp, #8]
 80114d2:	a907      	add	r1, sp, #28
 80114d4:	f7ff fe40 	bl	8011158 <_prtl10>
 80114d8:	f10d 0a1c 	add.w	sl, sp, #28
 80114dc:	e7dc      	b.n	8011498 <_fdoprnt2+0x15c>
 80114de:	4240      	negs	r0, r0
 80114e0:	232d      	movs	r3, #45	; 0x2d
 80114e2:	9302      	str	r3, [sp, #8]
 80114e4:	e7f5      	b.n	80114d2 <_fdoprnt2+0x196>
 80114e6:	9b05      	ldr	r3, [sp, #20]
 80114e8:	1d1a      	adds	r2, r3, #4
 80114ea:	9205      	str	r2, [sp, #20]
 80114ec:	6818      	ldr	r0, [r3, #0]
 80114ee:	2700      	movs	r7, #0
 80114f0:	e007      	b.n	8011502 <_fdoprnt2+0x1c6>
 80114f2:	f100 4044 	add.w	r0, r0, #3288334336	; 0xc4000000
 80114f6:	f500 00ca 	add.w	r0, r0, #6619136	; 0x650000
 80114fa:	f500 5058 	add.w	r0, r0, #13824	; 0x3600
 80114fe:	3701      	adds	r7, #1
 8011500:	b2ff      	uxtb	r7, r7
 8011502:	2800      	cmp	r0, #0
 8011504:	dbf5      	blt.n	80114f2 <_fdoprnt2+0x1b6>
 8011506:	a907      	add	r1, sp, #28
 8011508:	f7ff fe26 	bl	8011158 <_prtl10>
 801150c:	f89d 301c 	ldrb.w	r3, [sp, #28]
 8011510:	441f      	add	r7, r3
 8011512:	f88d 701c 	strb.w	r7, [sp, #28]
 8011516:	2300      	movs	r3, #0
 8011518:	9302      	str	r3, [sp, #8]
 801151a:	4698      	mov	r8, r3
 801151c:	f10d 0a1c 	add.w	sl, sp, #28
 8011520:	e7ba      	b.n	8011498 <_fdoprnt2+0x15c>
 8011522:	9b05      	ldr	r3, [sp, #20]
 8011524:	1d1a      	adds	r2, r3, #4
 8011526:	9205      	str	r2, [sp, #20]
 8011528:	a907      	add	r1, sp, #28
 801152a:	6818      	ldr	r0, [r3, #0]
 801152c:	f7ff fe4a 	bl	80111c4 <_prtl8>
 8011530:	2300      	movs	r3, #0
 8011532:	9302      	str	r3, [sp, #8]
 8011534:	4698      	mov	r8, r3
 8011536:	f10d 0a1c 	add.w	sl, sp, #28
 801153a:	e7ad      	b.n	8011498 <_fdoprnt2+0x15c>
 801153c:	9b05      	ldr	r3, [sp, #20]
 801153e:	1d1a      	adds	r2, r3, #4
 8011540:	9205      	str	r2, [sp, #20]
 8011542:	a907      	add	r1, sp, #28
 8011544:	6818      	ldr	r0, [r3, #0]
 8011546:	f7ff fe9d 	bl	8011284 <_prtX16>
 801154a:	2300      	movs	r3, #0
 801154c:	9302      	str	r3, [sp, #8]
 801154e:	4698      	mov	r8, r3
 8011550:	f10d 0a1c 	add.w	sl, sp, #28
 8011554:	e7a0      	b.n	8011498 <_fdoprnt2+0x15c>
 8011556:	9b05      	ldr	r3, [sp, #20]
 8011558:	1d1a      	adds	r2, r3, #4
 801155a:	9205      	str	r2, [sp, #20]
 801155c:	a907      	add	r1, sp, #28
 801155e:	6818      	ldr	r0, [r3, #0]
 8011560:	f7ff fe61 	bl	8011226 <_prtl16>
 8011564:	2300      	movs	r3, #0
 8011566:	9302      	str	r3, [sp, #8]
 8011568:	4698      	mov	r8, r3
 801156a:	f10d 0a1c 	add.w	sl, sp, #28
 801156e:	e793      	b.n	8011498 <_fdoprnt2+0x15c>
 8011570:	9b05      	ldr	r3, [sp, #20]
 8011572:	1d1a      	adds	r2, r3, #4
 8011574:	9205      	str	r2, [sp, #20]
 8011576:	a907      	add	r1, sp, #28
 8011578:	6818      	ldr	r0, [r3, #0]
 801157a:	f7ff feb1 	bl	80112e0 <_prtl2>
 801157e:	2300      	movs	r3, #0
 8011580:	9302      	str	r3, [sp, #8]
 8011582:	4698      	mov	r8, r3
 8011584:	f10d 0a1c 	add.w	sl, sp, #28
 8011588:	e786      	b.n	8011498 <_fdoprnt2+0x15c>
 801158a:	4629      	mov	r1, r5
 801158c:	4630      	mov	r0, r6
 801158e:	47a0      	blx	r4
 8011590:	2300      	movs	r3, #0
 8011592:	9302      	str	r3, [sp, #8]
 8011594:	f10d 0a1c 	add.w	sl, sp, #28
 8011598:	e77e      	b.n	8011498 <_fdoprnt2+0x15c>
 801159a:	2300      	movs	r3, #0
 801159c:	9302      	str	r3, [sp, #8]
 801159e:	2320      	movs	r3, #32
 80115a0:	9303      	str	r3, [sp, #12]
 80115a2:	f8df a0d0 	ldr.w	sl, [pc, #208]	; 8011674 <_fdoprnt2+0x338>
 80115a6:	e777      	b.n	8011498 <_fdoprnt2+0x15c>
 80115a8:	f1b9 0f50 	cmp.w	r9, #80	; 0x50
 80115ac:	d901      	bls.n	80115b2 <_fdoprnt2+0x276>
 80115ae:	f04f 0900 	mov.w	r9, #0
 80115b2:	f1b8 0f50 	cmp.w	r8, #80	; 0x50
 80115b6:	d803      	bhi.n	80115c0 <_fdoprnt2+0x284>
 80115b8:	f1b8 0f00 	cmp.w	r8, #0
 80115bc:	d105      	bne.n	80115ca <_fdoprnt2+0x28e>
 80115be:	e001      	b.n	80115c4 <_fdoprnt2+0x288>
 80115c0:	f04f 0800 	mov.w	r8, #0
 80115c4:	f1b9 0f00 	cmp.w	r9, #0
 80115c8:	d00d      	beq.n	80115e6 <_fdoprnt2+0x2aa>
 80115ca:	f1b8 0f00 	cmp.w	r8, #0
 80115ce:	d002      	beq.n	80115d6 <_fdoprnt2+0x29a>
 80115d0:	4547      	cmp	r7, r8
 80115d2:	dd00      	ble.n	80115d6 <_fdoprnt2+0x29a>
 80115d4:	4647      	mov	r7, r8
 80115d6:	f1b9 0f00 	cmp.w	r9, #0
 80115da:	d001      	beq.n	80115e0 <_fdoprnt2+0x2a4>
 80115dc:	eba9 0907 	sub.w	r9, r9, r7
 80115e0:	9b02      	ldr	r3, [sp, #8]
 80115e2:	2b2d      	cmp	r3, #45	; 0x2d
 80115e4:	d014      	beq.n	8011610 <_fdoprnt2+0x2d4>
 80115e6:	9b02      	ldr	r3, [sp, #8]
 80115e8:	2b2d      	cmp	r3, #45	; 0x2d
 80115ea:	d014      	beq.n	8011616 <_fdoprnt2+0x2da>
 80115ec:	9b01      	ldr	r3, [sp, #4]
 80115ee:	2b2d      	cmp	r3, #45	; 0x2d
 80115f0:	d123      	bne.n	801163a <_fdoprnt2+0x2fe>
 80115f2:	9b02      	ldr	r3, [sp, #8]
 80115f4:	2b2d      	cmp	r3, #45	; 0x2d
 80115f6:	d025      	beq.n	8011644 <_fdoprnt2+0x308>
 80115f8:	f04f 0800 	mov.w	r8, #0
 80115fc:	45b8      	cmp	r8, r7
 80115fe:	da29      	bge.n	8011654 <_fdoprnt2+0x318>
 8011600:	f81a 2008 	ldrb.w	r2, [sl, r8]
 8011604:	4629      	mov	r1, r5
 8011606:	4630      	mov	r0, r6
 8011608:	47a0      	blx	r4
 801160a:	f108 0801 	add.w	r8, r8, #1
 801160e:	e7f5      	b.n	80115fc <_fdoprnt2+0x2c0>
 8011610:	f109 39ff 	add.w	r9, r9, #4294967295	; 0xffffffff
 8011614:	e7e7      	b.n	80115e6 <_fdoprnt2+0x2aa>
 8011616:	9b03      	ldr	r3, [sp, #12]
 8011618:	2b30      	cmp	r3, #48	; 0x30
 801161a:	d1e7      	bne.n	80115ec <_fdoprnt2+0x2b0>
 801161c:	9a02      	ldr	r2, [sp, #8]
 801161e:	4629      	mov	r1, r5
 8011620:	4630      	mov	r0, r6
 8011622:	47a0      	blx	r4
 8011624:	e7e2      	b.n	80115ec <_fdoprnt2+0x2b0>
 8011626:	463a      	mov	r2, r7
 8011628:	4629      	mov	r1, r5
 801162a:	4630      	mov	r0, r6
 801162c:	47a0      	blx	r4
 801162e:	f108 0801 	add.w	r8, r8, #1
 8011632:	45c8      	cmp	r8, r9
 8011634:	dbf7      	blt.n	8011626 <_fdoprnt2+0x2ea>
 8011636:	9f04      	ldr	r7, [sp, #16]
 8011638:	e7db      	b.n	80115f2 <_fdoprnt2+0x2b6>
 801163a:	f04f 0800 	mov.w	r8, #0
 801163e:	9704      	str	r7, [sp, #16]
 8011640:	9f03      	ldr	r7, [sp, #12]
 8011642:	e7f6      	b.n	8011632 <_fdoprnt2+0x2f6>
 8011644:	9b03      	ldr	r3, [sp, #12]
 8011646:	2b20      	cmp	r3, #32
 8011648:	d1d6      	bne.n	80115f8 <_fdoprnt2+0x2bc>
 801164a:	9a02      	ldr	r2, [sp, #8]
 801164c:	4629      	mov	r1, r5
 801164e:	4630      	mov	r0, r6
 8011650:	47a0      	blx	r4
 8011652:	e7d1      	b.n	80115f8 <_fdoprnt2+0x2bc>
 8011654:	9b01      	ldr	r3, [sp, #4]
 8011656:	2b2d      	cmp	r3, #45	; 0x2d
 8011658:	f47f ae78 	bne.w	801134c <_fdoprnt2+0x10>
 801165c:	2700      	movs	r7, #0
 801165e:	f8dd 800c 	ldr.w	r8, [sp, #12]
 8011662:	e004      	b.n	801166e <_fdoprnt2+0x332>
 8011664:	4642      	mov	r2, r8
 8011666:	4629      	mov	r1, r5
 8011668:	4630      	mov	r0, r6
 801166a:	47a0      	blx	r4
 801166c:	3701      	adds	r7, #1
 801166e:	454f      	cmp	r7, r9
 8011670:	dbf8      	blt.n	8011664 <_fdoprnt2+0x328>
 8011672:	e66b      	b.n	801134c <_fdoprnt2+0x10>
 8011674:	0801a9f0 	.word	0x0801a9f0

08011678 <_fdoprnt>:
 8011678:	e92d 4ff0 	stmdb	sp!, {r4, r5, r6, r7, r8, r9, sl, fp, lr}
 801167c:	b08b      	sub	sp, #44	; 0x2c
 801167e:	4604      	mov	r4, r0
 8011680:	9103      	str	r1, [sp, #12]
 8011682:	4615      	mov	r5, r2
 8011684:	461e      	mov	r6, r3
 8011686:	4627      	mov	r7, r4
 8011688:	f817 1b01 	ldrb.w	r1, [r7], #1
 801168c:	2925      	cmp	r1, #37	; 0x25
 801168e:	d006      	beq.n	801169e <_fdoprnt+0x26>
 8011690:	2900      	cmp	r1, #0
 8011692:	f000 8087 	beq.w	80117a4 <_fdoprnt+0x12c>
 8011696:	4630      	mov	r0, r6
 8011698:	47a8      	blx	r5
 801169a:	463c      	mov	r4, r7
 801169c:	e7f3      	b.n	8011686 <_fdoprnt+0xe>
 801169e:	f897 b000 	ldrb.w	fp, [r7]
 80116a2:	f1bb 0f25 	cmp.w	fp, #37	; 0x25
 80116a6:	d043      	beq.n	8011730 <_fdoprnt+0xb8>
 80116a8:	f1bb 0f2d 	cmp.w	fp, #45	; 0x2d
 80116ac:	d045      	beq.n	801173a <_fdoprnt+0xc2>
 80116ae:	783b      	ldrb	r3, [r7, #0]
 80116b0:	9301      	str	r3, [sp, #4]
 80116b2:	2b30      	cmp	r3, #48	; 0x30
 80116b4:	d043      	beq.n	801173e <_fdoprnt+0xc6>
 80116b6:	2320      	movs	r3, #32
 80116b8:	9301      	str	r3, [sp, #4]
 80116ba:	783b      	ldrb	r3, [r7, #0]
 80116bc:	2b2a      	cmp	r3, #42	; 0x2a
 80116be:	d14e      	bne.n	801175e <_fdoprnt+0xe6>
 80116c0:	9b03      	ldr	r3, [sp, #12]
 80116c2:	1d1a      	adds	r2, r3, #4
 80116c4:	9203      	str	r2, [sp, #12]
 80116c6:	f8d3 9000 	ldr.w	r9, [r3]
 80116ca:	3701      	adds	r7, #1
 80116cc:	783b      	ldrb	r3, [r7, #0]
 80116ce:	2b2e      	cmp	r3, #46	; 0x2e
 80116d0:	d048      	beq.n	8011764 <_fdoprnt+0xec>
 80116d2:	f04f 0800 	mov.w	r8, #0
 80116d6:	463c      	mov	r4, r7
 80116d8:	f814 1b01 	ldrb.w	r1, [r4], #1
 80116dc:	2900      	cmp	r1, #0
 80116de:	d05e      	beq.n	801179e <_fdoprnt+0x126>
 80116e0:	f1a1 0358 	sub.w	r3, r1, #88	; 0x58
 80116e4:	2b20      	cmp	r3, #32
 80116e6:	f200 80e9 	bhi.w	80118bc <_fdoprnt+0x244>
 80116ea:	e8df f013 	tbh	[pc, r3, lsl #1]
 80116ee:	00c0      	.short	0x00c0
 80116f0:	00e700e7 	.word	0x00e700e7
 80116f4:	00e700e7 	.word	0x00e700e7
 80116f8:	00e700e7 	.word	0x00e700e7
 80116fc:	00e700e7 	.word	0x00e700e7
 8011700:	00da00e7 	.word	0x00da00e7
 8011704:	0083005e 	.word	0x0083005e
 8011708:	00e700e7 	.word	0x00e700e7
 801170c:	00e700e7 	.word	0x00e700e7
 8011710:	00e700e7 	.word	0x00e700e7
 8011714:	00e700e7 	.word	0x00e700e7
 8011718:	00e700e7 	.word	0x00e700e7
 801171c:	00e700b3 	.word	0x00e700b3
 8011720:	00e700e7 	.word	0x00e700e7
 8011724:	00e70076 	.word	0x00e70076
 8011728:	00e70095 	.word	0x00e70095
 801172c:	00cd00e7 	.word	0x00cd00e7
 8011730:	3402      	adds	r4, #2
 8011732:	4659      	mov	r1, fp
 8011734:	4630      	mov	r0, r6
 8011736:	47a8      	blx	r5
 8011738:	e7a5      	b.n	8011686 <_fdoprnt+0xe>
 801173a:	1ca7      	adds	r7, r4, #2
 801173c:	e7b7      	b.n	80116ae <_fdoprnt+0x36>
 801173e:	3701      	adds	r7, #1
 8011740:	e7bb      	b.n	80116ba <_fdoprnt+0x42>
 8011742:	eb09 0989 	add.w	r9, r9, r9, lsl #2
 8011746:	3701      	adds	r7, #1
 8011748:	eb03 0949 	add.w	r9, r3, r9, lsl #1
 801174c:	f1a9 0930 	sub.w	r9, r9, #48	; 0x30
 8011750:	783b      	ldrb	r3, [r7, #0]
 8011752:	f1a3 0230 	sub.w	r2, r3, #48	; 0x30
 8011756:	b2d2      	uxtb	r2, r2
 8011758:	2a09      	cmp	r2, #9
 801175a:	d9f2      	bls.n	8011742 <_fdoprnt+0xca>
 801175c:	e7b6      	b.n	80116cc <_fdoprnt+0x54>
 801175e:	f04f 0900 	mov.w	r9, #0
 8011762:	e7f5      	b.n	8011750 <_fdoprnt+0xd8>
 8011764:	1c79      	adds	r1, r7, #1
 8011766:	787b      	ldrb	r3, [r7, #1]
 8011768:	2b2a      	cmp	r3, #42	; 0x2a
 801176a:	d115      	bne.n	8011798 <_fdoprnt+0x120>
 801176c:	9b03      	ldr	r3, [sp, #12]
 801176e:	1d1a      	adds	r2, r3, #4
 8011770:	9203      	str	r2, [sp, #12]
 8011772:	f8d3 8000 	ldr.w	r8, [r3]
 8011776:	3702      	adds	r7, #2
 8011778:	e7ad      	b.n	80116d6 <_fdoprnt+0x5e>
 801177a:	eb08 0888 	add.w	r8, r8, r8, lsl #2
 801177e:	3101      	adds	r1, #1
 8011780:	eb03 0848 	add.w	r8, r3, r8, lsl #1
 8011784:	f1a8 0830 	sub.w	r8, r8, #48	; 0x30
 8011788:	780b      	ldrb	r3, [r1, #0]
 801178a:	f1a3 0230 	sub.w	r2, r3, #48	; 0x30
 801178e:	b2d2      	uxtb	r2, r2
 8011790:	2a09      	cmp	r2, #9
 8011792:	d9f2      	bls.n	801177a <_fdoprnt+0x102>
 8011794:	460f      	mov	r7, r1
 8011796:	e79e      	b.n	80116d6 <_fdoprnt+0x5e>
 8011798:	f04f 0800 	mov.w	r8, #0
 801179c:	e7f4      	b.n	8011788 <_fdoprnt+0x110>
 801179e:	2125      	movs	r1, #37	; 0x25
 80117a0:	4630      	mov	r0, r6
 80117a2:	47a8      	blx	r5
 80117a4:	b00b      	add	sp, #44	; 0x2c
 80117a6:	e8bd 8ff0 	ldmia.w	sp!, {r4, r5, r6, r7, r8, r9, sl, fp, pc}
 80117aa:	9b03      	ldr	r3, [sp, #12]
 80117ac:	1d1a      	adds	r2, r3, #4
 80117ae:	9203      	str	r2, [sp, #12]
 80117b0:	681b      	ldr	r3, [r3, #0]
 80117b2:	f88d 3014 	strb.w	r3, [sp, #20]
 80117b6:	f04f 0800 	mov.w	r8, #0
 80117ba:	f88d 8015 	strb.w	r8, [sp, #21]
 80117be:	f8cd 8008 	str.w	r8, [sp, #8]
 80117c2:	2320      	movs	r3, #32
 80117c4:	9301      	str	r3, [sp, #4]
 80117c6:	f10d 0a14 	add.w	sl, sp, #20
 80117ca:	2700      	movs	r7, #0
 80117cc:	f81a 3007 	ldrb.w	r3, [sl, r7]
 80117d0:	2b00      	cmp	r3, #0
 80117d2:	f000 8081 	beq.w	80118d8 <_fdoprnt+0x260>
 80117d6:	3701      	adds	r7, #1
 80117d8:	e7f8      	b.n	80117cc <_fdoprnt+0x154>
 80117da:	9b03      	ldr	r3, [sp, #12]
 80117dc:	1d1a      	adds	r2, r3, #4
 80117de:	9203      	str	r2, [sp, #12]
 80117e0:	f8d3 a000 	ldr.w	sl, [r3]
 80117e4:	f1ba 0f00 	cmp.w	sl, #0
 80117e8:	d06f      	beq.n	80118ca <_fdoprnt+0x252>
 80117ea:	2300      	movs	r3, #0
 80117ec:	9302      	str	r3, [sp, #8]
 80117ee:	2320      	movs	r3, #32
 80117f0:	9301      	str	r3, [sp, #4]
 80117f2:	e7ea      	b.n	80117ca <_fdoprnt+0x152>
 80117f4:	9b03      	ldr	r3, [sp, #12]
 80117f6:	1d1a      	adds	r2, r3, #4
 80117f8:	9203      	str	r2, [sp, #12]
 80117fa:	6818      	ldr	r0, [r3, #0]
 80117fc:	2800      	cmp	r0, #0
 80117fe:	db07      	blt.n	8011810 <_fdoprnt+0x198>
 8011800:	2300      	movs	r3, #0
 8011802:	9302      	str	r3, [sp, #8]
 8011804:	a905      	add	r1, sp, #20
 8011806:	f7ff fca7 	bl	8011158 <_prtl10>
 801180a:	f10d 0a14 	add.w	sl, sp, #20
 801180e:	e7dc      	b.n	80117ca <_fdoprnt+0x152>
 8011810:	4240      	negs	r0, r0
 8011812:	232d      	movs	r3, #45	; 0x2d
 8011814:	9302      	str	r3, [sp, #8]
 8011816:	e7f5      	b.n	8011804 <_fdoprnt+0x18c>
 8011818:	9b03      	ldr	r3, [sp, #12]
 801181a:	1d1a      	adds	r2, r3, #4
 801181c:	9203      	str	r2, [sp, #12]
 801181e:	6818      	ldr	r0, [r3, #0]
 8011820:	2700      	movs	r7, #0
 8011822:	e007      	b.n	8011834 <_fdoprnt+0x1bc>
 8011824:	f100 4044 	add.w	r0, r0, #3288334336	; 0xc4000000
 8011828:	f500 00ca 	add.w	r0, r0, #6619136	; 0x650000
 801182c:	f500 5058 	add.w	r0, r0, #13824	; 0x3600
 8011830:	3701      	adds	r7, #1
 8011832:	b2ff      	uxtb	r7, r7
 8011834:	2800      	cmp	r0, #0
 8011836:	dbf5      	blt.n	8011824 <_fdoprnt+0x1ac>
 8011838:	a905      	add	r1, sp, #20
 801183a:	f7ff fc8d 	bl	8011158 <_prtl10>
 801183e:	f89d 3014 	ldrb.w	r3, [sp, #20]
 8011842:	441f      	add	r7, r3
 8011844:	f88d 7014 	strb.w	r7, [sp, #20]
 8011848:	2300      	movs	r3, #0
 801184a:	9302      	str	r3, [sp, #8]
 801184c:	4698      	mov	r8, r3
 801184e:	f10d 0a14 	add.w	sl, sp, #20
 8011852:	e7ba      	b.n	80117ca <_fdoprnt+0x152>
 8011854:	9b03      	ldr	r3, [sp, #12]
 8011856:	1d1a      	adds	r2, r3, #4
 8011858:	9203      	str	r2, [sp, #12]
 801185a:	a905      	add	r1, sp, #20
 801185c:	6818      	ldr	r0, [r3, #0]
 801185e:	f7ff fcb1 	bl	80111c4 <_prtl8>
 8011862:	2300      	movs	r3, #0
 8011864:	9302      	str	r3, [sp, #8]
 8011866:	4698      	mov	r8, r3
 8011868:	f10d 0a14 	add.w	sl, sp, #20
 801186c:	e7ad      	b.n	80117ca <_fdoprnt+0x152>
 801186e:	9b03      	ldr	r3, [sp, #12]
 8011870:	1d1a      	adds	r2, r3, #4
 8011872:	9203      	str	r2, [sp, #12]
 8011874:	a905      	add	r1, sp, #20
 8011876:	6818      	ldr	r0, [r3, #0]
 8011878:	f7ff fd04 	bl	8011284 <_prtX16>
 801187c:	2300      	movs	r3, #0
 801187e:	9302      	str	r3, [sp, #8]
 8011880:	4698      	mov	r8, r3
 8011882:	f10d 0a14 	add.w	sl, sp, #20
 8011886:	e7a0      	b.n	80117ca <_fdoprnt+0x152>
 8011888:	9b03      	ldr	r3, [sp, #12]
 801188a:	1d1a      	adds	r2, r3, #4
 801188c:	9203      	str	r2, [sp, #12]
 801188e:	a905      	add	r1, sp, #20
 8011890:	6818      	ldr	r0, [r3, #0]
 8011892:	f7ff fcc8 	bl	8011226 <_prtl16>
 8011896:	2300      	movs	r3, #0
 8011898:	9302      	str	r3, [sp, #8]
 801189a:	4698      	mov	r8, r3
 801189c:	f10d 0a14 	add.w	sl, sp, #20
 80118a0:	e793      	b.n	80117ca <_fdoprnt+0x152>
 80118a2:	9b03      	ldr	r3, [sp, #12]
 80118a4:	1d1a      	adds	r2, r3, #4
 80118a6:	9203      	str	r2, [sp, #12]
 80118a8:	a905      	add	r1, sp, #20
 80118aa:	6818      	ldr	r0, [r3, #0]
 80118ac:	f7ff fd18 	bl	80112e0 <_prtl2>
 80118b0:	2300      	movs	r3, #0
 80118b2:	9302      	str	r3, [sp, #8]
 80118b4:	4698      	mov	r8, r3
 80118b6:	f10d 0a14 	add.w	sl, sp, #20
 80118ba:	e786      	b.n	80117ca <_fdoprnt+0x152>
 80118bc:	4630      	mov	r0, r6
 80118be:	47a8      	blx	r5
 80118c0:	2300      	movs	r3, #0
 80118c2:	9302      	str	r3, [sp, #8]
 80118c4:	f10d 0a14 	add.w	sl, sp, #20
 80118c8:	e77f      	b.n	80117ca <_fdoprnt+0x152>
 80118ca:	2300      	movs	r3, #0
 80118cc:	9302      	str	r3, [sp, #8]
 80118ce:	2320      	movs	r3, #32
 80118d0:	9301      	str	r3, [sp, #4]
 80118d2:	f8df a0bc 	ldr.w	sl, [pc, #188]	; 8011990 <_fdoprnt+0x318>
 80118d6:	e778      	b.n	80117ca <_fdoprnt+0x152>
 80118d8:	f1b9 0f50 	cmp.w	r9, #80	; 0x50
 80118dc:	d901      	bls.n	80118e2 <_fdoprnt+0x26a>
 80118de:	f04f 0900 	mov.w	r9, #0
 80118e2:	f1b8 0f50 	cmp.w	r8, #80	; 0x50
 80118e6:	d803      	bhi.n	80118f0 <_fdoprnt+0x278>
 80118e8:	f1b8 0f00 	cmp.w	r8, #0
 80118ec:	d105      	bne.n	80118fa <_fdoprnt+0x282>
 80118ee:	e001      	b.n	80118f4 <_fdoprnt+0x27c>
 80118f0:	f04f 0800 	mov.w	r8, #0
 80118f4:	f1b9 0f00 	cmp.w	r9, #0
 80118f8:	d00d      	beq.n	8011916 <_fdoprnt+0x29e>
 80118fa:	f1b8 0f00 	cmp.w	r8, #0
 80118fe:	d002      	beq.n	8011906 <_fdoprnt+0x28e>
 8011900:	4547      	cmp	r7, r8
 8011902:	dd00      	ble.n	8011906 <_fdoprnt+0x28e>
 8011904:	4647      	mov	r7, r8
 8011906:	f1b9 0f00 	cmp.w	r9, #0
 801190a:	d001      	beq.n	8011910 <_fdoprnt+0x298>
 801190c:	eba9 0907 	sub.w	r9, r9, r7
 8011910:	9b02      	ldr	r3, [sp, #8]
 8011912:	2b2d      	cmp	r3, #45	; 0x2d
 8011914:	d013      	beq.n	801193e <_fdoprnt+0x2c6>
 8011916:	9b02      	ldr	r3, [sp, #8]
 8011918:	2b2d      	cmp	r3, #45	; 0x2d
 801191a:	d013      	beq.n	8011944 <_fdoprnt+0x2cc>
 801191c:	f1bb 0f2d 	cmp.w	fp, #45	; 0x2d
 8011920:	d11f      	bne.n	8011962 <_fdoprnt+0x2ea>
 8011922:	9b02      	ldr	r3, [sp, #8]
 8011924:	2b2d      	cmp	r3, #45	; 0x2d
 8011926:	d01f      	beq.n	8011968 <_fdoprnt+0x2f0>
 8011928:	f04f 0800 	mov.w	r8, #0
 801192c:	45b8      	cmp	r8, r7
 801192e:	da22      	bge.n	8011976 <_fdoprnt+0x2fe>
 8011930:	f81a 1008 	ldrb.w	r1, [sl, r8]
 8011934:	4630      	mov	r0, r6
 8011936:	47a8      	blx	r5
 8011938:	f108 0801 	add.w	r8, r8, #1
 801193c:	e7f6      	b.n	801192c <_fdoprnt+0x2b4>
 801193e:	f109 39ff 	add.w	r9, r9, #4294967295	; 0xffffffff
 8011942:	e7e8      	b.n	8011916 <_fdoprnt+0x29e>
 8011944:	9b01      	ldr	r3, [sp, #4]
 8011946:	2b30      	cmp	r3, #48	; 0x30
 8011948:	d1e8      	bne.n	801191c <_fdoprnt+0x2a4>
 801194a:	9902      	ldr	r1, [sp, #8]
 801194c:	4630      	mov	r0, r6
 801194e:	47a8      	blx	r5
 8011950:	e7e4      	b.n	801191c <_fdoprnt+0x2a4>
 8011952:	9901      	ldr	r1, [sp, #4]
 8011954:	4630      	mov	r0, r6
 8011956:	47a8      	blx	r5
 8011958:	f108 0801 	add.w	r8, r8, #1
 801195c:	45c8      	cmp	r8, r9
 801195e:	dbf8      	blt.n	8011952 <_fdoprnt+0x2da>
 8011960:	e7df      	b.n	8011922 <_fdoprnt+0x2aa>
 8011962:	f04f 0800 	mov.w	r8, #0
 8011966:	e7f9      	b.n	801195c <_fdoprnt+0x2e4>
 8011968:	9b01      	ldr	r3, [sp, #4]
 801196a:	2b20      	cmp	r3, #32
 801196c:	d1dc      	bne.n	8011928 <_fdoprnt+0x2b0>
 801196e:	9902      	ldr	r1, [sp, #8]
 8011970:	4630      	mov	r0, r6
 8011972:	47a8      	blx	r5
 8011974:	e7d8      	b.n	8011928 <_fdoprnt+0x2b0>
 8011976:	f1bb 0f2d 	cmp.w	fp, #45	; 0x2d
 801197a:	f47f ae84 	bne.w	8011686 <_fdoprnt+0xe>
 801197e:	2700      	movs	r7, #0
 8011980:	e003      	b.n	801198a <_fdoprnt+0x312>
 8011982:	9901      	ldr	r1, [sp, #4]
 8011984:	4630      	mov	r0, r6
 8011986:	47a8      	blx	r5
 8011988:	3701      	adds	r7, #1
 801198a:	454f      	cmp	r7, r9
 801198c:	dbf9      	blt.n	8011982 <_fdoprnt+0x30a>
 801198e:	e67a      	b.n	8011686 <_fdoprnt+0xe>
 8011990:	0801a9f0 	.word	0x0801a9f0

08011994 <lowpass>:
 8011994:	eef7 7a00 	vmov.f32	s15, #112	; 0x3f800000  1.0
 8011998:	ee77 7ac1 	vsub.f32	s15, s15, s2
 801199c:	ee27 0a80 	vmul.f32	s0, s15, s0
 80119a0:	ee21 1a20 	vmul.f32	s2, s2, s1
 80119a4:	ee31 0a00 	vadd.f32	s0, s2, s0
 80119a8:	4770      	bx	lr

080119aa <fabsf>:
 80119aa:	eeb5 0ac0 	vcmpe.f32	s0, #0.0
 80119ae:	eef1 fa10 	vmrs	APSR_nzcv, fpscr
 80119b2:	dd00      	ble.n	80119b6 <fabsf+0xc>
 80119b4:	4770      	bx	lr
 80119b6:	eeb1 0a40 	vneg.f32	s0, s0
 80119ba:	e7fb      	b.n	80119b4 <fabsf+0xa>

080119bc <qsexc>:
 80119bc:	b430      	push	{r4, r5}
 80119be:	4b06      	ldr	r3, [pc, #24]	; (80119d8 <qsexc+0x1c>)
 80119c0:	681a      	ldr	r2, [r3, #0]
 80119c2:	7804      	ldrb	r4, [r0, #0]
 80119c4:	780d      	ldrb	r5, [r1, #0]
 80119c6:	7005      	strb	r5, [r0, #0]
 80119c8:	3001      	adds	r0, #1
 80119ca:	700c      	strb	r4, [r1, #0]
 80119cc:	3101      	adds	r1, #1
 80119ce:	3a01      	subs	r2, #1
 80119d0:	d1f7      	bne.n	80119c2 <qsexc+0x6>
 80119d2:	bc30      	pop	{r4, r5}
 80119d4:	4770      	bx	lr
 80119d6:	bf00      	nop
 80119d8:	20000390 	.word	0x20000390

080119dc <qstexc>:
 80119dc:	b470      	push	{r4, r5, r6}
 80119de:	4b07      	ldr	r3, [pc, #28]	; (80119fc <qstexc+0x20>)
 80119e0:	681c      	ldr	r4, [r3, #0]
 80119e2:	7805      	ldrb	r5, [r0, #0]
 80119e4:	7816      	ldrb	r6, [r2, #0]
 80119e6:	7006      	strb	r6, [r0, #0]
 80119e8:	3001      	adds	r0, #1
 80119ea:	780e      	ldrb	r6, [r1, #0]
 80119ec:	7016      	strb	r6, [r2, #0]
 80119ee:	3201      	adds	r2, #1
 80119f0:	700d      	strb	r5, [r1, #0]
 80119f2:	3101      	adds	r1, #1
 80119f4:	3c01      	subs	r4, #1
 80119f6:	d1f4      	bne.n	80119e2 <qstexc+0x6>
 80119f8:	bc70      	pop	{r4, r5, r6}
 80119fa:	4770      	bx	lr
 80119fc:	20000390 	.word	0x20000390

08011a00 <qs1>:
 8011a00:	e92d 4ff0 	stmdb	sp!, {r4, r5, r6, r7, r8, r9, sl, fp, lr}
 8011a04:	b083      	sub	sp, #12
 8011a06:	4683      	mov	fp, r0
 8011a08:	9101      	str	r1, [sp, #4]
 8011a0a:	4b37      	ldr	r3, [pc, #220]	; (8011ae8 <qs1+0xe8>)
 8011a0c:	f8d3 a000 	ldr.w	sl, [r3]
 8011a10:	e04d      	b.n	8011aae <qs1+0xae>
 8011a12:	444f      	add	r7, r9
 8011a14:	4639      	mov	r1, r7
 8011a16:	4628      	mov	r0, r5
 8011a18:	f7ff ffd0 	bl	80119bc <qsexc>
 8011a1c:	e023      	b.n	8011a66 <qs1+0x66>
 8011a1e:	4446      	add	r6, r8
 8011a20:	4621      	mov	r1, r4
 8011a22:	4630      	mov	r0, r6
 8011a24:	f7ff ffca 	bl	80119bc <qsexc>
 8011a28:	e00a      	b.n	8011a40 <qs1+0x40>
 8011a2a:	4446      	add	r6, r8
 8011a2c:	4622      	mov	r2, r4
 8011a2e:	4631      	mov	r1, r6
 8011a30:	4628      	mov	r0, r5
 8011a32:	f7ff ffd3 	bl	80119dc <qstexc>
 8011a36:	eb07 0508 	add.w	r5, r7, r8
 8011a3a:	462f      	mov	r7, r5
 8011a3c:	e000      	b.n	8011a40 <qs1+0x40>
 8011a3e:	444c      	add	r4, r9
 8011a40:	42b4      	cmp	r4, r6
 8011a42:	d91d      	bls.n	8011a80 <qs1+0x80>
 8011a44:	4b28      	ldr	r3, [pc, #160]	; (8011ae8 <qs1+0xe8>)
 8011a46:	685b      	ldr	r3, [r3, #4]
 8011a48:	4621      	mov	r1, r4
 8011a4a:	4630      	mov	r0, r6
 8011a4c:	4798      	blx	r3
 8011a4e:	2800      	cmp	r0, #0
 8011a50:	d0e5      	beq.n	8011a1e <qs1+0x1e>
 8011a52:	2800      	cmp	r0, #0
 8011a54:	ddf3      	ble.n	8011a3e <qs1+0x3e>
 8011a56:	42bd      	cmp	r5, r7
 8011a58:	d0e7      	beq.n	8011a2a <qs1+0x2a>
 8011a5a:	4621      	mov	r1, r4
 8011a5c:	4628      	mov	r0, r5
 8011a5e:	f7ff ffad 	bl	80119bc <qsexc>
 8011a62:	444c      	add	r4, r9
 8011a64:	4445      	add	r5, r8
 8011a66:	42bd      	cmp	r5, r7
 8011a68:	d2ea      	bcs.n	8011a40 <qs1+0x40>
 8011a6a:	4b1f      	ldr	r3, [pc, #124]	; (8011ae8 <qs1+0xe8>)
 8011a6c:	685b      	ldr	r3, [r3, #4]
 8011a6e:	4639      	mov	r1, r7
 8011a70:	4628      	mov	r0, r5
 8011a72:	4798      	blx	r3
 8011a74:	2800      	cmp	r0, #0
 8011a76:	d0cc      	beq.n	8011a12 <qs1+0x12>
 8011a78:	2800      	cmp	r0, #0
 8011a7a:	dae1      	bge.n	8011a40 <qs1+0x40>
 8011a7c:	4445      	add	r5, r8
 8011a7e:	e7f2      	b.n	8011a66 <qs1+0x66>
 8011a80:	42bd      	cmp	r5, r7
 8011a82:	d009      	beq.n	8011a98 <qs1+0x98>
 8011a84:	444f      	add	r7, r9
 8011a86:	462a      	mov	r2, r5
 8011a88:	4639      	mov	r1, r7
 8011a8a:	4620      	mov	r0, r4
 8011a8c:	f7ff ffa6 	bl	80119dc <qstexc>
 8011a90:	eb06 0409 	add.w	r4, r6, r9
 8011a94:	4626      	mov	r6, r4
 8011a96:	e7e6      	b.n	8011a66 <qs1+0x66>
 8011a98:	eba7 030b 	sub.w	r3, r7, fp
 8011a9c:	9901      	ldr	r1, [sp, #4]
 8011a9e:	1b8a      	subs	r2, r1, r6
 8011aa0:	4293      	cmp	r3, r2
 8011aa2:	db17      	blt.n	8011ad4 <qs1+0xd4>
 8011aa4:	eb06 000a 	add.w	r0, r6, sl
 8011aa8:	f7ff ffaa 	bl	8011a00 <qs1>
 8011aac:	9701      	str	r7, [sp, #4]
 8011aae:	9a01      	ldr	r2, [sp, #4]
 8011ab0:	eba2 030b 	sub.w	r3, r2, fp
 8011ab4:	46d0      	mov	r8, sl
 8011ab6:	459a      	cmp	sl, r3
 8011ab8:	d213      	bcs.n	8011ae2 <qs1+0xe2>
 8011aba:	ea4f 074a 	mov.w	r7, sl, lsl #1
 8011abe:	fbb3 f3f7 	udiv	r3, r3, r7
 8011ac2:	fb03 b70a 	mla	r7, r3, sl, fp
 8011ac6:	f1ca 0900 	rsb	r9, sl, #0
 8011aca:	eba2 040a 	sub.w	r4, r2, sl
 8011ace:	463e      	mov	r6, r7
 8011ad0:	465d      	mov	r5, fp
 8011ad2:	e7c8      	b.n	8011a66 <qs1+0x66>
 8011ad4:	4639      	mov	r1, r7
 8011ad6:	4658      	mov	r0, fp
 8011ad8:	f7ff ff92 	bl	8011a00 <qs1>
 8011adc:	eb06 0b0a 	add.w	fp, r6, sl
 8011ae0:	e7e5      	b.n	8011aae <qs1+0xae>
 8011ae2:	b003      	add	sp, #12
 8011ae4:	e8bd 8ff0 	ldmia.w	sp!, {r4, r5, r6, r7, r8, r9, sl, fp, pc}
 8011ae8:	20000390 	.word	0x20000390

08011aec <qsort>:
 8011aec:	b510      	push	{r4, lr}
 8011aee:	4c04      	ldr	r4, [pc, #16]	; (8011b00 <qsort+0x14>)
 8011af0:	6063      	str	r3, [r4, #4]
 8011af2:	6022      	str	r2, [r4, #0]
 8011af4:	fb01 0102 	mla	r1, r1, r2, r0
 8011af8:	f7ff ff82 	bl	8011a00 <qs1>
 8011afc:	bd10      	pop	{r4, pc}
 8011afe:	bf00      	nop
 8011b00:	20000390 	.word	0x20000390

08011b04 <atangentf>:
 8011b04:	b510      	push	{r4, lr}
 8011b06:	ed2d 8b04 	vpush	{d8-d9}
 8011b0a:	b082      	sub	sp, #8
 8011b0c:	eeb0 9a40 	vmov.f32	s18, s0
 8011b10:	eef0 8a60 	vmov.f32	s17, s1
 8011b14:	eeb0 8a41 	vmov.f32	s16, s2
 8011b18:	4604      	mov	r4, r0
 8011b1a:	b170      	cbz	r0, 8011b3a <atangentf+0x36>
 8011b1c:	eeb5 1a40 	vcmp.f32	s2, #0.0
 8011b20:	eef1 fa10 	vmrs	APSR_nzcv, fpscr
 8011b24:	d171      	bne.n	8011c0a <atangentf+0x106>
 8011b26:	eef5 0a40 	vcmp.f32	s1, #0.0
 8011b2a:	eef1 fa10 	vmrs	APSR_nzcv, fpscr
 8011b2e:	f000 80a0 	beq.w	8011c72 <atangentf+0x16e>
 8011b32:	2301      	movs	r3, #1
 8011b34:	2b00      	cmp	r3, #0
 8011b36:	f040 8089 	bne.w	8011c4c <atangentf+0x148>
 8011b3a:	2c00      	cmp	r4, #0
 8011b3c:	d079      	beq.n	8011c32 <atangentf+0x12e>
 8011b3e:	ee88 0a88 	vdiv.f32	s0, s17, s16
 8011b42:	f7ff ff32 	bl	80119aa <fabsf>
 8011b46:	eef7 7a00 	vmov.f32	s15, #112	; 0x3f800000  1.0
 8011b4a:	eeb4 0ae7 	vcmpe.f32	s0, s15
 8011b4e:	eef1 fa10 	vmrs	APSR_nzcv, fpscr
 8011b52:	dd73      	ble.n	8011c3c <atangentf+0x138>
 8011b54:	ee87 0a80 	vdiv.f32	s0, s15, s0
 8011b58:	2202      	movs	r2, #2
 8011b5a:	eddf 7a47 	vldr	s15, [pc, #284]	; 8011c78 <atangentf+0x174>
 8011b5e:	eeb4 0ae7 	vcmpe.f32	s0, s15
 8011b62:	eef1 fa10 	vmrs	APSR_nzcv, fpscr
 8011b66:	dd12      	ble.n	8011b8e <atangentf+0x8a>
 8011b68:	eddf 7a44 	vldr	s15, [pc, #272]	; 8011c7c <atangentf+0x178>
 8011b6c:	ee60 7a27 	vmul.f32	s15, s0, s15
 8011b70:	eeb6 7a00 	vmov.f32	s14, #96	; 0x3f000000  0.5
 8011b74:	ee77 7ac7 	vsub.f32	s15, s15, s14
 8011b78:	ee77 7ac7 	vsub.f32	s15, s15, s14
 8011b7c:	ee77 7a80 	vadd.f32	s15, s15, s0
 8011b80:	ed9f 7a3f 	vldr	s14, [pc, #252]	; 8011c80 <atangentf+0x17c>
 8011b84:	ee30 7a07 	vadd.f32	s14, s0, s14
 8011b88:	ee87 0a87 	vdiv.f32	s0, s15, s14
 8011b8c:	3201      	adds	r2, #1
 8011b8e:	eddf 7a3d 	vldr	s15, [pc, #244]	; 8011c84 <atangentf+0x180>
 8011b92:	eeb4 0ae7 	vcmpe.f32	s0, s15
 8011b96:	eef1 fa10 	vmrs	APSR_nzcv, fpscr
 8011b9a:	dd06      	ble.n	8011baa <atangentf+0xa6>
 8011b9c:	eddf 7a3a 	vldr	s15, [pc, #232]	; 8011c88 <atangentf+0x184>
 8011ba0:	eeb4 0ae7 	vcmpe.f32	s0, s15
 8011ba4:	eef1 fa10 	vmrs	APSR_nzcv, fpscr
 8011ba8:	d415      	bmi.n	8011bd6 <atangentf+0xd2>
 8011baa:	ee20 7a00 	vmul.f32	s14, s0, s0
 8011bae:	eddf 7a37 	vldr	s15, [pc, #220]	; 8011c8c <atangentf+0x188>
 8011bb2:	ee67 7a27 	vmul.f32	s15, s14, s15
 8011bb6:	eddf 6a36 	vldr	s13, [pc, #216]	; 8011c90 <atangentf+0x18c>
 8011bba:	ee77 7ae6 	vsub.f32	s15, s15, s13
 8011bbe:	ee67 7a87 	vmul.f32	s15, s15, s14
 8011bc2:	eddf 6a34 	vldr	s13, [pc, #208]	; 8011c94 <atangentf+0x190>
 8011bc6:	ee37 7a26 	vadd.f32	s14, s14, s13
 8011bca:	eec7 6a87 	vdiv.f32	s13, s15, s14
 8011bce:	ee60 7a26 	vmul.f32	s15, s0, s13
 8011bd2:	ee30 0a27 	vadd.f32	s0, s0, s15
 8011bd6:	2a01      	cmp	r2, #1
 8011bd8:	dd01      	ble.n	8011bde <atangentf+0xda>
 8011bda:	eeb1 0a40 	vneg.f32	s0, s0
 8011bde:	4b2e      	ldr	r3, [pc, #184]	; (8011c98 <atangentf+0x194>)
 8011be0:	eb03 0382 	add.w	r3, r3, r2, lsl #2
 8011be4:	edd3 7a00 	vldr	s15, [r3]
 8011be8:	ee37 0a80 	vadd.f32	s0, s15, s0
 8011bec:	b3cc      	cbz	r4, 8011c62 <atangentf+0x15e>
 8011bee:	eeb5 8ac0 	vcmpe.f32	s16, #0.0
 8011bf2:	eef1 fa10 	vmrs	APSR_nzcv, fpscr
 8011bf6:	d42c      	bmi.n	8011c52 <atangentf+0x14e>
 8011bf8:	eef5 8ac0 	vcmpe.f32	s17, #0.0
 8011bfc:	eef1 fa10 	vmrs	APSR_nzcv, fpscr
 8011c00:	d42c      	bmi.n	8011c5c <atangentf+0x158>
 8011c02:	b002      	add	sp, #8
 8011c04:	ecbd 8b04 	vpop	{d8-d9}
 8011c08:	bd10      	pop	{r4, pc}
 8011c0a:	a801      	add	r0, sp, #4
 8011c0c:	eeb0 0a60 	vmov.f32	s0, s1
 8011c10:	f000 fb19 	bl	8012246 <frexpf>
 8011c14:	4668      	mov	r0, sp
 8011c16:	eeb0 0a48 	vmov.f32	s0, s16
 8011c1a:	f000 fb14 	bl	8012246 <frexpf>
 8011c1e:	9b01      	ldr	r3, [sp, #4]
 8011c20:	9a00      	ldr	r2, [sp, #0]
 8011c22:	1a9b      	subs	r3, r3, r2
 8011c24:	2b80      	cmp	r3, #128	; 0x80
 8011c26:	dc0b      	bgt.n	8011c40 <atangentf+0x13c>
 8011c28:	f113 0f7d 	cmn.w	r3, #125	; 0x7d
 8011c2c:	db0b      	blt.n	8011c46 <atangentf+0x142>
 8011c2e:	2300      	movs	r3, #0
 8011c30:	e780      	b.n	8011b34 <atangentf+0x30>
 8011c32:	eeb0 0a49 	vmov.f32	s0, s18
 8011c36:	f7ff feb8 	bl	80119aa <fabsf>
 8011c3a:	e784      	b.n	8011b46 <atangentf+0x42>
 8011c3c:	2200      	movs	r2, #0
 8011c3e:	e78c      	b.n	8011b5a <atangentf+0x56>
 8011c40:	ed9f 0a16 	vldr	s0, [pc, #88]	; 8011c9c <atangentf+0x198>
 8011c44:	e7d2      	b.n	8011bec <atangentf+0xe8>
 8011c46:	ed9f 0a16 	vldr	s0, [pc, #88]	; 8011ca0 <atangentf+0x19c>
 8011c4a:	e7cf      	b.n	8011bec <atangentf+0xe8>
 8011c4c:	ed9f 0a13 	vldr	s0, [pc, #76]	; 8011c9c <atangentf+0x198>
 8011c50:	e7cc      	b.n	8011bec <atangentf+0xe8>
 8011c52:	eddf 7a14 	vldr	s15, [pc, #80]	; 8011ca4 <atangentf+0x1a0>
 8011c56:	ee37 0ac0 	vsub.f32	s0, s15, s0
 8011c5a:	e7cd      	b.n	8011bf8 <atangentf+0xf4>
 8011c5c:	eeb1 0a40 	vneg.f32	s0, s0
 8011c60:	e7cf      	b.n	8011c02 <atangentf+0xfe>
 8011c62:	eeb5 9ac0 	vcmpe.f32	s18, #0.0
 8011c66:	eef1 fa10 	vmrs	APSR_nzcv, fpscr
 8011c6a:	d5ca      	bpl.n	8011c02 <atangentf+0xfe>
 8011c6c:	eeb1 0a40 	vneg.f32	s0, s0
 8011c70:	e7c7      	b.n	8011c02 <atangentf+0xfe>
 8011c72:	ed9f 0a0d 	vldr	s0, [pc, #52]	; 8011ca8 <atangentf+0x1a4>
 8011c76:	e7c4      	b.n	8011c02 <atangentf+0xfe>
 8011c78:	3e8930a4 	.word	0x3e8930a4
 8011c7c:	3f3b67ae 	.word	0x3f3b67ae
 8011c80:	3fddb3d7 	.word	0x3fddb3d7
 8011c84:	b93504f3 	.word	0xb93504f3
 8011c88:	393504f3 	.word	0x393504f3
 8011c8c:	bd508691 	.word	0xbd508691
 8011c90:	3ef110f6 	.word	0x3ef110f6
 8011c94:	3fb4ccd3 	.word	0x3fb4ccd3
 8011c98:	0801a7ec 	.word	0x0801a7ec
 8011c9c:	3fc90fdb 	.word	0x3fc90fdb
 8011ca0:	00000000 	.word	0x00000000
 8011ca4:	40490fdb 	.word	0x40490fdb
 8011ca8:	4f7fd000 	.word	0x4f7fd000

08011cac <atanf>:
 8011cac:	b508      	push	{r3, lr}
 8011cae:	ed2d 8b02 	vpush	{d8}
 8011cb2:	eeb0 8a40 	vmov.f32	s16, s0
 8011cb6:	f000 fabd 	bl	8012234 <numtestf>
 8011cba:	2801      	cmp	r0, #1
 8011cbc:	d00c      	beq.n	8011cd8 <atanf+0x2c>
 8011cbe:	2802      	cmp	r0, #2
 8011cc0:	d00d      	beq.n	8011cde <atanf+0x32>
 8011cc2:	b188      	cbz	r0, 8011ce8 <atanf+0x3c>
 8011cc4:	eddf 0a0a 	vldr	s1, [pc, #40]	; 8011cf0 <atanf+0x44>
 8011cc8:	2000      	movs	r0, #0
 8011cca:	eeb0 1a60 	vmov.f32	s2, s1
 8011cce:	eeb0 0a48 	vmov.f32	s0, s16
 8011cd2:	f7ff ff17 	bl	8011b04 <atangentf>
 8011cd6:	e004      	b.n	8011ce2 <atanf+0x36>
 8011cd8:	ed9f 0a06 	vldr	s0, [pc, #24]	; 8011cf4 <atanf+0x48>
 8011cdc:	e001      	b.n	8011ce2 <atanf+0x36>
 8011cde:	eeb0 0a48 	vmov.f32	s0, s16
 8011ce2:	ecbd 8b02 	vpop	{d8}
 8011ce6:	bd08      	pop	{r3, pc}
 8011ce8:	ed9f 0a01 	vldr	s0, [pc, #4]	; 8011cf0 <atanf+0x44>
 8011cec:	e7f9      	b.n	8011ce2 <atanf+0x36>
 8011cee:	bf00      	nop
 8011cf0:	00000000 	.word	0x00000000
 8011cf4:	3fc90fdb 	.word	0x3fc90fdb

08011cf8 <_instr>:
 8011cf8:	e92d 4ff8 	stmdb	sp!, {r3, r4, r5, r6, r7, r8, r9, sl, fp, lr}
 8011cfc:	4683      	mov	fp, r0
 8011cfe:	468a      	mov	sl, r1
 8011d00:	4615      	mov	r5, r2
 8011d02:	461e      	mov	r6, r3
 8011d04:	9f0b      	ldr	r7, [sp, #44]	; 0x2c
 8011d06:	f8dd 8030 	ldr.w	r8, [sp, #48]	; 0x30
 8011d0a:	2300      	movs	r3, #0
 8011d0c:	9a0d      	ldr	r2, [sp, #52]	; 0x34
 8011d0e:	6013      	str	r3, [r2, #0]
 8011d10:	2963      	cmp	r1, #99	; 0x63
 8011d12:	d017      	beq.n	8011d44 <_instr+0x4c>
 8011d14:	f1ba 0f73 	cmp.w	sl, #115	; 0x73
 8011d18:	d01a      	beq.n	8011d50 <_instr+0x58>
 8011d1a:	2400      	movs	r4, #0
 8011d1c:	4641      	mov	r1, r8
 8011d1e:	4638      	mov	r0, r7
 8011d20:	47b0      	blx	r6
 8011d22:	4b28      	ldr	r3, [pc, #160]	; (8011dc4 <_instr+0xcc>)
 8011d24:	5c1b      	ldrb	r3, [r3, r0]
 8011d26:	4223      	tst	r3, r4
 8011d28:	d002      	beq.n	8011d30 <_instr+0x38>
 8011d2a:	f110 0f02 	cmn.w	r0, #2
 8011d2e:	d1f5      	bne.n	8011d1c <_instr+0x24>
 8011d30:	f1ba 0f63 	cmp.w	sl, #99	; 0x63
 8011d34:	d021      	beq.n	8011d7a <_instr+0x82>
 8011d36:	f1ba 0f5b 	cmp.w	sl, #91	; 0x5b
 8011d3a:	d021      	beq.n	8011d80 <_instr+0x88>
 8011d3c:	f04f 0901 	mov.w	r9, #1
 8011d40:	465c      	mov	r4, fp
 8011d42:	e00d      	b.n	8011d60 <_instr+0x68>
 8011d44:	f247 5330 	movw	r3, #30000	; 0x7530
 8011d48:	429d      	cmp	r5, r3
 8011d4a:	d1e3      	bne.n	8011d14 <_instr+0x1c>
 8011d4c:	2501      	movs	r5, #1
 8011d4e:	e7e1      	b.n	8011d14 <_instr+0x1c>
 8011d50:	2401      	movs	r4, #1
 8011d52:	e7e3      	b.n	8011d1c <_instr+0x24>
 8011d54:	3d01      	subs	r5, #1
 8011d56:	2d00      	cmp	r5, #0
 8011d58:	dd15      	ble.n	8011d86 <_instr+0x8e>
 8011d5a:	4641      	mov	r1, r8
 8011d5c:	4638      	mov	r0, r7
 8011d5e:	47b0      	blx	r6
 8011d60:	f110 0f02 	cmn.w	r0, #2
 8011d64:	d00f      	beq.n	8011d86 <_instr+0x8e>
 8011d66:	4b17      	ldr	r3, [pc, #92]	; (8011dc4 <_instr+0xcc>)
 8011d68:	5c1b      	ldrb	r3, [r3, r0]
 8011d6a:	ea13 0f09 	tst.w	r3, r9
 8011d6e:	d10a      	bne.n	8011d86 <_instr+0x8e>
 8011d70:	2c00      	cmp	r4, #0
 8011d72:	d0ef      	beq.n	8011d54 <_instr+0x5c>
 8011d74:	f804 0b01 	strb.w	r0, [r4], #1
 8011d78:	e7ec      	b.n	8011d54 <_instr+0x5c>
 8011d7a:	f04f 0900 	mov.w	r9, #0
 8011d7e:	e7df      	b.n	8011d40 <_instr+0x48>
 8011d80:	f04f 0902 	mov.w	r9, #2
 8011d84:	e7dc      	b.n	8011d40 <_instr+0x48>
 8011d86:	f110 0f02 	cmn.w	r0, #2
 8011d8a:	d013      	beq.n	8011db4 <_instr+0xbc>
 8011d8c:	2d00      	cmp	r5, #0
 8011d8e:	dd03      	ble.n	8011d98 <_instr+0xa0>
 8011d90:	4641      	mov	r1, r8
 8011d92:	4638      	mov	r0, r7
 8011d94:	9b0a      	ldr	r3, [sp, #40]	; 0x28
 8011d96:	4798      	blx	r3
 8011d98:	2300      	movs	r3, #0
 8011d9a:	9a0d      	ldr	r2, [sp, #52]	; 0x34
 8011d9c:	6013      	str	r3, [r2, #0]
 8011d9e:	b16c      	cbz	r4, 8011dbc <_instr+0xc4>
 8011da0:	455c      	cmp	r4, fp
 8011da2:	d00d      	beq.n	8011dc0 <_instr+0xc8>
 8011da4:	f1ba 0f63 	cmp.w	sl, #99	; 0x63
 8011da8:	d001      	beq.n	8011dae <_instr+0xb6>
 8011daa:	2300      	movs	r3, #0
 8011dac:	7023      	strb	r3, [r4, #0]
 8011dae:	2001      	movs	r0, #1
 8011db0:	e8bd 8ff8 	ldmia.w	sp!, {r3, r4, r5, r6, r7, r8, r9, sl, fp, pc}
 8011db4:	2301      	movs	r3, #1
 8011db6:	9a0d      	ldr	r2, [sp, #52]	; 0x34
 8011db8:	6013      	str	r3, [r2, #0]
 8011dba:	e7f0      	b.n	8011d9e <_instr+0xa6>
 8011dbc:	2000      	movs	r0, #0
 8011dbe:	e7f7      	b.n	8011db0 <_instr+0xb8>
 8011dc0:	2000      	movs	r0, #0
 8011dc2:	e7f5      	b.n	8011db0 <_instr+0xb8>
 8011dc4:	20000004 	.word	0x20000004

08011dc8 <_innum>:
 8011dc8:	e92d 4ff0 	stmdb	sp!, {r4, r5, r6, r7, r8, r9, sl, fp, lr}
 8011dcc:	b097      	sub	sp, #92	; 0x5c
 8011dce:	4680      	mov	r8, r0
 8011dd0:	4617      	mov	r7, r2
 8011dd2:	9304      	str	r3, [sp, #16]
 8011dd4:	9e20      	ldr	r6, [sp, #128]	; 0x80
 8011dd6:	9c22      	ldr	r4, [sp, #136]	; 0x88
 8011dd8:	9d23      	ldr	r5, [sp, #140]	; 0x8c
 8011dda:	2963      	cmp	r1, #99	; 0x63
 8011ddc:	d01e      	beq.n	8011e1c <_innum+0x54>
 8011dde:	2973      	cmp	r1, #115	; 0x73
 8011de0:	d01c      	beq.n	8011e1c <_innum+0x54>
 8011de2:	295b      	cmp	r1, #91	; 0x5b
 8011de4:	d01a      	beq.n	8011e1c <_innum+0x54>
 8011de6:	296f      	cmp	r1, #111	; 0x6f
 8011de8:	d02b      	beq.n	8011e42 <_innum+0x7a>
 8011dea:	2978      	cmp	r1, #120	; 0x78
 8011dec:	d02c      	beq.n	8011e48 <_innum+0x80>
 8011dee:	f04f 0b0a 	mov.w	fp, #10
 8011df2:	4629      	mov	r1, r5
 8011df4:	4620      	mov	r0, r4
 8011df6:	47b0      	blx	r6
 8011df8:	b2c0      	uxtb	r0, r0
 8011dfa:	2820      	cmp	r0, #32
 8011dfc:	d0f9      	beq.n	8011df2 <_innum+0x2a>
 8011dfe:	2809      	cmp	r0, #9
 8011e00:	d0f7      	beq.n	8011df2 <_innum+0x2a>
 8011e02:	280a      	cmp	r0, #10
 8011e04:	d0f5      	beq.n	8011df2 <_innum+0x2a>
 8011e06:	282d      	cmp	r0, #45	; 0x2d
 8011e08:	d021      	beq.n	8011e4e <_innum+0x86>
 8011e0a:	282b      	cmp	r0, #43	; 0x2b
 8011e0c:	d02b      	beq.n	8011e66 <_innum+0x9e>
 8011e0e:	2300      	movs	r3, #0
 8011e10:	9305      	str	r3, [sp, #20]
 8011e12:	f10d 0918 	add.w	r9, sp, #24
 8011e16:	f04f 0a00 	mov.w	sl, #0
 8011e1a:	e047      	b.n	8011eac <_innum+0xe4>
 8011e1c:	f1b8 0f00 	cmp.w	r8, #0
 8011e20:	d001      	beq.n	8011e26 <_innum+0x5e>
 8011e22:	f8d8 8000 	ldr.w	r8, [r8]
 8011e26:	9b24      	ldr	r3, [sp, #144]	; 0x90
 8011e28:	9303      	str	r3, [sp, #12]
 8011e2a:	9502      	str	r5, [sp, #8]
 8011e2c:	9401      	str	r4, [sp, #4]
 8011e2e:	9b21      	ldr	r3, [sp, #132]	; 0x84
 8011e30:	9300      	str	r3, [sp, #0]
 8011e32:	4633      	mov	r3, r6
 8011e34:	463a      	mov	r2, r7
 8011e36:	4640      	mov	r0, r8
 8011e38:	f7ff ff5e 	bl	8011cf8 <_instr>
 8011e3c:	b017      	add	sp, #92	; 0x5c
 8011e3e:	e8bd 8ff0 	ldmia.w	sp!, {r4, r5, r6, r7, r8, r9, sl, fp, pc}
 8011e42:	f04f 0b08 	mov.w	fp, #8
 8011e46:	e7d4      	b.n	8011df2 <_innum+0x2a>
 8011e48:	f04f 0b10 	mov.w	fp, #16
 8011e4c:	e7d1      	b.n	8011df2 <_innum+0x2a>
 8011e4e:	f88d 0018 	strb.w	r0, [sp, #24]
 8011e52:	4629      	mov	r1, r5
 8011e54:	4620      	mov	r0, r4
 8011e56:	47b0      	blx	r6
 8011e58:	b2c0      	uxtb	r0, r0
 8011e5a:	3f01      	subs	r7, #1
 8011e5c:	2301      	movs	r3, #1
 8011e5e:	9305      	str	r3, [sp, #20]
 8011e60:	f10d 0919 	add.w	r9, sp, #25
 8011e64:	e7d7      	b.n	8011e16 <_innum+0x4e>
 8011e66:	3f01      	subs	r7, #1
 8011e68:	4629      	mov	r1, r5
 8011e6a:	4620      	mov	r0, r4
 8011e6c:	47b0      	blx	r6
 8011e6e:	b2c0      	uxtb	r0, r0
 8011e70:	2300      	movs	r3, #0
 8011e72:	9305      	str	r3, [sp, #20]
 8011e74:	f10d 0918 	add.w	r9, sp, #24
 8011e78:	e7cd      	b.n	8011e16 <_innum+0x4e>
 8011e7a:	f1bb 0f08 	cmp.w	fp, #8
 8011e7e:	d045      	beq.n	8011f0c <_innum+0x144>
 8011e80:	f1bb 0f0a 	cmp.w	fp, #10
 8011e84:	d045      	beq.n	8011f12 <_innum+0x14a>
 8011e86:	ea4f 1a0a 	mov.w	sl, sl, lsl #4
 8011e8a:	f1a0 0230 	sub.w	r2, r0, #48	; 0x30
 8011e8e:	b2d2      	uxtb	r2, r2
 8011e90:	2a09      	cmp	r2, #9
 8011e92:	d904      	bls.n	8011e9e <_innum+0xd6>
 8011e94:	2b05      	cmp	r3, #5
 8011e96:	d841      	bhi.n	8011f1c <_innum+0x154>
 8011e98:	f1a0 0257 	sub.w	r2, r0, #87	; 0x57
 8011e9c:	b2d2      	uxtb	r2, r2
 8011e9e:	4492      	add	sl, r2
 8011ea0:	f809 0b01 	strb.w	r0, [r9], #1
 8011ea4:	4629      	mov	r1, r5
 8011ea6:	4620      	mov	r0, r4
 8011ea8:	47b0      	blx	r6
 8011eaa:	b2c0      	uxtb	r0, r0
 8011eac:	3f01      	subs	r7, #1
 8011eae:	d411      	bmi.n	8011ed4 <_innum+0x10c>
 8011eb0:	4b27      	ldr	r3, [pc, #156]	; (8011f50 <_innum+0x188>)
 8011eb2:	5cc3      	ldrb	r3, [r0, r3]
 8011eb4:	f013 0f04 	tst.w	r3, #4
 8011eb8:	d102      	bne.n	8011ec0 <_innum+0xf8>
 8011eba:	f1bb 0f10 	cmp.w	fp, #16
 8011ebe:	d109      	bne.n	8011ed4 <_innum+0x10c>
 8011ec0:	f1a0 0361 	sub.w	r3, r0, #97	; 0x61
 8011ec4:	b2db      	uxtb	r3, r3
 8011ec6:	2b05      	cmp	r3, #5
 8011ec8:	d9d7      	bls.n	8011e7a <_innum+0xb2>
 8011eca:	f1a0 0241 	sub.w	r2, r0, #65	; 0x41
 8011ece:	b2d2      	uxtb	r2, r2
 8011ed0:	2a05      	cmp	r2, #5
 8011ed2:	d9d2      	bls.n	8011e7a <_innum+0xb2>
 8011ed4:	9b05      	ldr	r3, [sp, #20]
 8011ed6:	b10b      	cbz	r3, 8011edc <_innum+0x114>
 8011ed8:	f1ca 0a00 	rsb	sl, sl, #0
 8011edc:	4629      	mov	r1, r5
 8011ede:	4620      	mov	r0, r4
 8011ee0:	9b21      	ldr	r3, [sp, #132]	; 0x84
 8011ee2:	4798      	blx	r3
 8011ee4:	2300      	movs	r3, #0
 8011ee6:	9a24      	ldr	r2, [sp, #144]	; 0x90
 8011ee8:	6013      	str	r3, [r2, #0]
 8011eea:	f1b8 0f00 	cmp.w	r8, #0
 8011eee:	d02b      	beq.n	8011f48 <_innum+0x180>
 8011ef0:	ab06      	add	r3, sp, #24
 8011ef2:	4599      	cmp	r9, r3
 8011ef4:	d02a      	beq.n	8011f4c <_innum+0x184>
 8011ef6:	2300      	movs	r3, #0
 8011ef8:	f889 3000 	strb.w	r3, [r9]
 8011efc:	9b04      	ldr	r3, [sp, #16]
 8011efe:	2b01      	cmp	r3, #1
 8011f00:	d016      	beq.n	8011f30 <_innum+0x168>
 8011f02:	2b02      	cmp	r3, #2
 8011f04:	d01a      	beq.n	8011f3c <_innum+0x174>
 8011f06:	b16b      	cbz	r3, 8011f24 <_innum+0x15c>
 8011f08:	2001      	movs	r0, #1
 8011f0a:	e797      	b.n	8011e3c <_innum+0x74>
 8011f0c:	ea4f 0aca 	mov.w	sl, sl, lsl #3
 8011f10:	e7bb      	b.n	8011e8a <_innum+0xc2>
 8011f12:	eb0a 0a8a 	add.w	sl, sl, sl, lsl #2
 8011f16:	ea4f 0a4a 	mov.w	sl, sl, lsl #1
 8011f1a:	e7b6      	b.n	8011e8a <_innum+0xc2>
 8011f1c:	f1a0 0237 	sub.w	r2, r0, #55	; 0x37
 8011f20:	b2d2      	uxtb	r2, r2
 8011f22:	e7bc      	b.n	8011e9e <_innum+0xd6>
 8011f24:	f8d8 3000 	ldr.w	r3, [r8]
 8011f28:	f8a3 a000 	strh.w	sl, [r3]
 8011f2c:	2001      	movs	r0, #1
 8011f2e:	e785      	b.n	8011e3c <_innum+0x74>
 8011f30:	f8d8 3000 	ldr.w	r3, [r8]
 8011f34:	f8c3 a000 	str.w	sl, [r3]
 8011f38:	9804      	ldr	r0, [sp, #16]
 8011f3a:	e77f      	b.n	8011e3c <_innum+0x74>
 8011f3c:	f8d8 3000 	ldr.w	r3, [r8]
 8011f40:	f8c3 a000 	str.w	sl, [r3]
 8011f44:	2001      	movs	r0, #1
 8011f46:	e779      	b.n	8011e3c <_innum+0x74>
 8011f48:	2000      	movs	r0, #0
 8011f4a:	e777      	b.n	8011e3c <_innum+0x74>
 8011f4c:	2000      	movs	r0, #0
 8011f4e:	e775      	b.n	8011e3c <_innum+0x74>
 8011f50:	0801a759 	.word	0x0801a759

08011f54 <_getccl>:
 8011f54:	b470      	push	{r4, r5, r6}
 8011f56:	7803      	ldrb	r3, [r0, #0]
 8011f58:	2b5e      	cmp	r3, #94	; 0x5e
 8011f5a:	d002      	beq.n	8011f62 <_getccl+0xe>
 8011f5c:	2400      	movs	r4, #0
 8011f5e:	2300      	movs	r3, #0
 8011f60:	e008      	b.n	8011f74 <_getccl+0x20>
 8011f62:	3001      	adds	r0, #1
 8011f64:	2401      	movs	r4, #1
 8011f66:	e7fa      	b.n	8011f5e <_getccl+0xa>
 8011f68:	4914      	ldr	r1, [pc, #80]	; (8011fbc <_getccl+0x68>)
 8011f6a:	5cca      	ldrb	r2, [r1, r3]
 8011f6c:	f042 0202 	orr.w	r2, r2, #2
 8011f70:	54ca      	strb	r2, [r1, r3]
 8011f72:	3301      	adds	r3, #1
 8011f74:	2b7f      	cmp	r3, #127	; 0x7f
 8011f76:	dc0e      	bgt.n	8011f96 <_getccl+0x42>
 8011f78:	2c00      	cmp	r4, #0
 8011f7a:	d0f5      	beq.n	8011f68 <_getccl+0x14>
 8011f7c:	490f      	ldr	r1, [pc, #60]	; (8011fbc <_getccl+0x68>)
 8011f7e:	5cca      	ldrb	r2, [r1, r3]
 8011f80:	f022 0202 	bic.w	r2, r2, #2
 8011f84:	54ca      	strb	r2, [r1, r3]
 8011f86:	e7f4      	b.n	8011f72 <_getccl+0x1e>
 8011f88:	1c59      	adds	r1, r3, #1
 8011f8a:	4e0c      	ldr	r6, [pc, #48]	; (8011fbc <_getccl+0x68>)
 8011f8c:	5cf5      	ldrb	r5, [r6, r3]
 8011f8e:	f025 0502 	bic.w	r5, r5, #2
 8011f92:	54f5      	strb	r5, [r6, r3]
 8011f94:	b179      	cbz	r1, 8011fb6 <_getccl+0x62>
 8011f96:	4602      	mov	r2, r0
 8011f98:	3001      	adds	r0, #1
 8011f9a:	7813      	ldrb	r3, [r2, #0]
 8011f9c:	f003 017f 	and.w	r1, r3, #127	; 0x7f
 8011fa0:	295d      	cmp	r1, #93	; 0x5d
 8011fa2:	d009      	beq.n	8011fb8 <_getccl+0x64>
 8011fa4:	2c00      	cmp	r4, #0
 8011fa6:	d0ef      	beq.n	8011f88 <_getccl+0x34>
 8011fa8:	1c59      	adds	r1, r3, #1
 8011faa:	4e04      	ldr	r6, [pc, #16]	; (8011fbc <_getccl+0x68>)
 8011fac:	5cf5      	ldrb	r5, [r6, r3]
 8011fae:	f045 0502 	orr.w	r5, r5, #2
 8011fb2:	54f5      	strb	r5, [r6, r3]
 8011fb4:	e7ee      	b.n	8011f94 <_getccl+0x40>
 8011fb6:	4610      	mov	r0, r2
 8011fb8:	bc70      	pop	{r4, r5, r6}
 8011fba:	4770      	bx	lr
 8011fbc:	20000004 	.word	0x20000004

08011fc0 <_doscan>:
 8011fc0:	e92d 4ff0 	stmdb	sp!, {r4, r5, r6, r7, r8, r9, sl, fp, lr}
 8011fc4:	b08b      	sub	sp, #44	; 0x2c
 8011fc6:	4604      	mov	r4, r0
 8011fc8:	9106      	str	r1, [sp, #24]
 8011fca:	4617      	mov	r7, r2
 8011fcc:	469b      	mov	fp, r3
 8011fce:	f8dd 8050 	ldr.w	r8, [sp, #80]	; 0x50
 8011fd2:	f8dd 9054 	ldr.w	r9, [sp, #84]	; 0x54
 8011fd6:	2300      	movs	r3, #0
 8011fd8:	9309      	str	r3, [sp, #36]	; 0x24
 8011fda:	469a      	mov	sl, r3
 8011fdc:	e074      	b.n	80120c8 <_doscan+0x108>
 8011fde:	462c      	mov	r4, r5
 8011fe0:	e072      	b.n	80120c8 <_doscan+0x108>
 8011fe2:	3402      	adds	r4, #2
 8011fe4:	782e      	ldrb	r6, [r5, #0]
 8011fe6:	2e25      	cmp	r6, #37	; 0x25
 8011fe8:	d067      	beq.n	80120ba <_doscan+0xfa>
 8011fea:	2e2a      	cmp	r6, #42	; 0x2a
 8011fec:	d011      	beq.n	8012012 <_doscan+0x52>
 8011fee:	9b06      	ldr	r3, [sp, #24]
 8011ff0:	9307      	str	r3, [sp, #28]
 8011ff2:	3304      	adds	r3, #4
 8011ff4:	9306      	str	r3, [sp, #24]
 8011ff6:	2500      	movs	r5, #0
 8011ff8:	4b65      	ldr	r3, [pc, #404]	; (8012190 <_doscan+0x1d0>)
 8011ffa:	5cf3      	ldrb	r3, [r6, r3]
 8011ffc:	f013 0f04 	tst.w	r3, #4
 8012000:	d00c      	beq.n	801201c <_doscan+0x5c>
 8012002:	eb05 0585 	add.w	r5, r5, r5, lsl #2
 8012006:	eb06 0545 	add.w	r5, r6, r5, lsl #1
 801200a:	3d30      	subs	r5, #48	; 0x30
 801200c:	f814 6b01 	ldrb.w	r6, [r4], #1
 8012010:	e7f2      	b.n	8011ff8 <_doscan+0x38>
 8012012:	1cac      	adds	r4, r5, #2
 8012014:	786e      	ldrb	r6, [r5, #1]
 8012016:	2300      	movs	r3, #0
 8012018:	9307      	str	r3, [sp, #28]
 801201a:	e7ec      	b.n	8011ff6 <_doscan+0x36>
 801201c:	b90d      	cbnz	r5, 8012022 <_doscan+0x62>
 801201e:	f247 5530 	movw	r5, #30000	; 0x7530
 8012022:	2e6c      	cmp	r6, #108	; 0x6c
 8012024:	d02a      	beq.n	801207c <_doscan+0xbc>
 8012026:	2e68      	cmp	r6, #104	; 0x68
 8012028:	d02c      	beq.n	8012084 <_doscan+0xc4>
 801202a:	2e5b      	cmp	r6, #91	; 0x5b
 801202c:	d02e      	beq.n	801208c <_doscan+0xcc>
 801202e:	2301      	movs	r3, #1
 8012030:	4a57      	ldr	r2, [pc, #348]	; (8012190 <_doscan+0x1d0>)
 8012032:	5cb2      	ldrb	r2, [r6, r2]
 8012034:	f012 0f01 	tst.w	r2, #1
 8012038:	d001      	beq.n	801203e <_doscan+0x7e>
 801203a:	3620      	adds	r6, #32
 801203c:	2302      	movs	r3, #2
 801203e:	2e00      	cmp	r6, #0
 8012040:	f000 80a0 	beq.w	8012184 <_doscan+0x1c4>
 8012044:	aa09      	add	r2, sp, #36	; 0x24
 8012046:	9204      	str	r2, [sp, #16]
 8012048:	f8cd 900c 	str.w	r9, [sp, #12]
 801204c:	f8cd 8008 	str.w	r8, [sp, #8]
 8012050:	f8cd b004 	str.w	fp, [sp, #4]
 8012054:	9700      	str	r7, [sp, #0]
 8012056:	462a      	mov	r2, r5
 8012058:	4631      	mov	r1, r6
 801205a:	9d07      	ldr	r5, [sp, #28]
 801205c:	4628      	mov	r0, r5
 801205e:	f7ff feb3 	bl	8011dc8 <_innum>
 8012062:	b110      	cbz	r0, 801206a <_doscan+0xaa>
 8012064:	b10d      	cbz	r5, 801206a <_doscan+0xaa>
 8012066:	f10a 0a01 	add.w	sl, sl, #1
 801206a:	9b09      	ldr	r3, [sp, #36]	; 0x24
 801206c:	b363      	cbz	r3, 80120c8 <_doscan+0x108>
 801206e:	f1ba 0f00 	cmp.w	sl, #0
 8012072:	f040 8083 	bne.w	801217c <_doscan+0x1bc>
 8012076:	f04f 3aff 	mov.w	sl, #4294967295	; 0xffffffff
 801207a:	e07f      	b.n	801217c <_doscan+0x1bc>
 801207c:	f814 6b01 	ldrb.w	r6, [r4], #1
 8012080:	2302      	movs	r3, #2
 8012082:	e7d5      	b.n	8012030 <_doscan+0x70>
 8012084:	f814 6b01 	ldrb.w	r6, [r4], #1
 8012088:	2300      	movs	r3, #0
 801208a:	e7d1      	b.n	8012030 <_doscan+0x70>
 801208c:	4620      	mov	r0, r4
 801208e:	f7ff ff61 	bl	8011f54 <_getccl>
 8012092:	4604      	mov	r4, r0
 8012094:	2301      	movs	r3, #1
 8012096:	e7cb      	b.n	8012030 <_doscan+0x70>
 8012098:	4649      	mov	r1, r9
 801209a:	4640      	mov	r0, r8
 801209c:	47b8      	blx	r7
 801209e:	2820      	cmp	r0, #32
 80120a0:	d0fa      	beq.n	8012098 <_doscan+0xd8>
 80120a2:	2809      	cmp	r0, #9
 80120a4:	d0f8      	beq.n	8012098 <_doscan+0xd8>
 80120a6:	280a      	cmp	r0, #10
 80120a8:	d0f6      	beq.n	8012098 <_doscan+0xd8>
 80120aa:	f110 0f02 	cmn.w	r0, #2
 80120ae:	d096      	beq.n	8011fde <_doscan+0x1e>
 80120b0:	4649      	mov	r1, r9
 80120b2:	4640      	mov	r0, r8
 80120b4:	47d8      	blx	fp
 80120b6:	462c      	mov	r4, r5
 80120b8:	e006      	b.n	80120c8 <_doscan+0x108>
 80120ba:	4625      	mov	r5, r4
 80120bc:	4649      	mov	r1, r9
 80120be:	4640      	mov	r0, r8
 80120c0:	47b8      	blx	r7
 80120c2:	4286      	cmp	r6, r0
 80120c4:	d154      	bne.n	8012170 <_doscan+0x1b0>
 80120c6:	462c      	mov	r4, r5
 80120c8:	4625      	mov	r5, r4
 80120ca:	f815 6b01 	ldrb.w	r6, [r5], #1
 80120ce:	2e25      	cmp	r6, #37	; 0x25
 80120d0:	d8f4      	bhi.n	80120bc <_doscan+0xfc>
 80120d2:	a301      	add	r3, pc, #4	; (adr r3, 80120d8 <_doscan+0x118>)
 80120d4:	f853 f026 	ldr.w	pc, [r3, r6, lsl #2]
 80120d8:	0801217d 	.word	0x0801217d
 80120dc:	080120bd 	.word	0x080120bd
 80120e0:	080120bd 	.word	0x080120bd
 80120e4:	080120bd 	.word	0x080120bd
 80120e8:	080120bd 	.word	0x080120bd
 80120ec:	080120bd 	.word	0x080120bd
 80120f0:	080120bd 	.word	0x080120bd
 80120f4:	080120bd 	.word	0x080120bd
 80120f8:	080120bd 	.word	0x080120bd
 80120fc:	08012099 	.word	0x08012099
 8012100:	08012099 	.word	0x08012099
 8012104:	080120bd 	.word	0x080120bd
 8012108:	080120bd 	.word	0x080120bd
 801210c:	080120bd 	.word	0x080120bd
 8012110:	080120bd 	.word	0x080120bd
 8012114:	080120bd 	.word	0x080120bd
 8012118:	080120bd 	.word	0x080120bd
 801211c:	080120bd 	.word	0x080120bd
 8012120:	080120bd 	.word	0x080120bd
 8012124:	080120bd 	.word	0x080120bd
 8012128:	080120bd 	.word	0x080120bd
 801212c:	080120bd 	.word	0x080120bd
 8012130:	080120bd 	.word	0x080120bd
 8012134:	080120bd 	.word	0x080120bd
 8012138:	080120bd 	.word	0x080120bd
 801213c:	080120bd 	.word	0x080120bd
 8012140:	080120bd 	.word	0x080120bd
 8012144:	080120bd 	.word	0x080120bd
 8012148:	080120bd 	.word	0x080120bd
 801214c:	080120bd 	.word	0x080120bd
 8012150:	080120bd 	.word	0x080120bd
 8012154:	080120bd 	.word	0x080120bd
 8012158:	08012099 	.word	0x08012099
 801215c:	080120bd 	.word	0x080120bd
 8012160:	080120bd 	.word	0x080120bd
 8012164:	080120bd 	.word	0x080120bd
 8012168:	080120bd 	.word	0x080120bd
 801216c:	08011fe3 	.word	0x08011fe3
 8012170:	f110 0f02 	cmn.w	r0, #2
 8012174:	d009      	beq.n	801218a <_doscan+0x1ca>
 8012176:	4649      	mov	r1, r9
 8012178:	4640      	mov	r0, r8
 801217a:	47d8      	blx	fp
 801217c:	4650      	mov	r0, sl
 801217e:	b00b      	add	sp, #44	; 0x2c
 8012180:	e8bd 8ff0 	ldmia.w	sp!, {r4, r5, r6, r7, r8, r9, sl, fp, pc}
 8012184:	f04f 3aff 	mov.w	sl, #4294967295	; 0xffffffff
 8012188:	e7f8      	b.n	801217c <_doscan+0x1bc>
 801218a:	f04f 3aff 	mov.w	sl, #4294967295	; 0xffffffff
 801218e:	e7f5      	b.n	801217c <_doscan+0x1bc>
 8012190:	0801a759 	.word	0x0801a759

08012194 <malloc>:
 8012194:	b160      	cbz	r0, 80121b0 <malloc+0x1c>
 8012196:	b510      	push	{r4, lr}
 8012198:	4604      	mov	r4, r0
 801219a:	3408      	adds	r4, #8
 801219c:	4620      	mov	r0, r4
 801219e:	f004 fba3 	bl	80168e8 <getmem>
 80121a2:	f1b0 3fff 	cmp.w	r0, #4294967295	; 0xffffffff
 80121a6:	d005      	beq.n	80121b4 <malloc+0x20>
 80121a8:	6000      	str	r0, [r0, #0]
 80121aa:	6044      	str	r4, [r0, #4]
 80121ac:	3008      	adds	r0, #8
 80121ae:	bd10      	pop	{r4, pc}
 80121b0:	2000      	movs	r0, #0
 80121b2:	4770      	bx	lr
 80121b4:	2000      	movs	r0, #0
 80121b6:	e7fa      	b.n	80121ae <malloc+0x1a>

080121b8 <free>:
 80121b8:	b508      	push	{r3, lr}
 80121ba:	4603      	mov	r3, r0
 80121bc:	3808      	subs	r0, #8
 80121be:	f853 2c08 	ldr.w	r2, [r3, #-8]
 80121c2:	4282      	cmp	r2, r0
 80121c4:	d000      	beq.n	80121c8 <free+0x10>
 80121c6:	bd08      	pop	{r3, pc}
 80121c8:	f853 1c04 	ldr.w	r1, [r3, #-4]
 80121cc:	f004 fb32 	bl	8016834 <freemem>
 80121d0:	e7f9      	b.n	80121c6 <free+0xe>

080121d2 <realloc>:
 80121d2:	b570      	push	{r4, r5, r6, lr}
 80121d4:	b1a9      	cbz	r1, 8012202 <realloc+0x30>
 80121d6:	4604      	mov	r4, r0
 80121d8:	460e      	mov	r6, r1
 80121da:	b168      	cbz	r0, 80121f8 <realloc+0x26>
 80121dc:	4608      	mov	r0, r1
 80121de:	f7ff ffd9 	bl	8012194 <malloc>
 80121e2:	4605      	mov	r5, r0
 80121e4:	b130      	cbz	r0, 80121f4 <realloc+0x22>
 80121e6:	4632      	mov	r2, r6
 80121e8:	4621      	mov	r1, r4
 80121ea:	f000 fb81 	bl	80128f0 <memcpy>
 80121ee:	4620      	mov	r0, r4
 80121f0:	f7ff ffe2 	bl	80121b8 <free>
 80121f4:	4628      	mov	r0, r5
 80121f6:	bd70      	pop	{r4, r5, r6, pc}
 80121f8:	4608      	mov	r0, r1
 80121fa:	f7ff ffcb 	bl	8012194 <malloc>
 80121fe:	4605      	mov	r5, r0
 8012200:	e7f8      	b.n	80121f4 <realloc+0x22>
 8012202:	2500      	movs	r5, #0
 8012204:	e7f6      	b.n	80121f4 <realloc+0x22>

08012206 <calloc>:
 8012206:	b538      	push	{r3, r4, r5, lr}
 8012208:	fb01 f400 	mul.w	r4, r1, r0
 801220c:	4620      	mov	r0, r4
 801220e:	f7ff ffc1 	bl	8012194 <malloc>
 8012212:	4605      	mov	r5, r0
 8012214:	b118      	cbz	r0, 801221e <calloc+0x18>
 8012216:	4622      	mov	r2, r4
 8012218:	2100      	movs	r1, #0
 801221a:	f000 fb62 	bl	80128e2 <memset>
 801221e:	4628      	mov	r0, r5
 8012220:	bd38      	pop	{r3, r4, r5, pc}

08012222 <fgetc>:
 8012222:	b508      	push	{r3, lr}
 8012224:	f003 feae 	bl	8015f84 <getc>
 8012228:	2800      	cmp	r0, #0
 801222a:	db00      	blt.n	801222e <fgetc+0xc>
 801222c:	bd08      	pop	{r3, pc}
 801222e:	f06f 0001 	mvn.w	r0, #1
 8012232:	e7fb      	b.n	801222c <fgetc+0xa>

08012234 <numtestf>:
 8012234:	eeb5 0a40 	vcmp.f32	s0, #0.0
 8012238:	eef1 fa10 	vmrs	APSR_nzcv, fpscr
 801223c:	d001      	beq.n	8012242 <numtestf+0xe>
 801223e:	2003      	movs	r0, #3
 8012240:	4770      	bx	lr
 8012242:	2000      	movs	r0, #0
 8012244:	4770      	bx	lr

08012246 <frexpf>:
 8012246:	b538      	push	{r3, r4, r5, lr}
 8012248:	ee10 4a10 	vmov	r4, s0
 801224c:	4605      	mov	r5, r0
 801224e:	f7ff fff1 	bl	8012234 <numtestf>
 8012252:	2802      	cmp	r0, #2
 8012254:	d804      	bhi.n	8012260 <frexpf+0x1a>
 8012256:	2300      	movs	r3, #0
 8012258:	602b      	str	r3, [r5, #0]
 801225a:	ee00 4a10 	vmov	s0, r4
 801225e:	bd38      	pop	{r3, r4, r5, pc}
 8012260:	f3c4 53c7 	ubfx	r3, r4, #23, #8
 8012264:	3b7e      	subs	r3, #126	; 0x7e
 8012266:	602b      	str	r3, [r5, #0]
 8012268:	f3c4 0416 	ubfx	r4, r4, #0, #23
 801226c:	f044 537c 	orr.w	r3, r4, #1056964608	; 0x3f000000
 8012270:	ee00 3a10 	vmov	s0, r3
 8012274:	e7f3      	b.n	801225e <frexpf+0x18>

08012276 <logarithm>:
 8012276:	eeb5 0a40 	vcmp.f32	s0, #0.0
 801227a:	eef1 fa10 	vmrs	APSR_nzcv, fpscr
 801227e:	d069      	beq.n	8012354 <logarithm+0xde>
 8012280:	b510      	push	{r4, lr}
 8012282:	b082      	sub	sp, #8
 8012284:	4604      	mov	r4, r0
 8012286:	eeb5 0ac0 	vcmpe.f32	s0, #0.0
 801228a:	eef1 fa10 	vmrs	APSR_nzcv, fpscr
 801228e:	d464      	bmi.n	801235a <logarithm+0xe4>
 8012290:	ee10 3a10 	vmov	r3, s0
 8012294:	f023 4200 	bic.w	r2, r3, #2147483648	; 0x80000000
 8012298:	f102 4300 	add.w	r3, r2, #2147483648	; 0x80000000
 801229c:	f503 1380 	add.w	r3, r3, #1048576	; 0x100000
 80122a0:	2b00      	cmp	r3, #0
 80122a2:	db05      	blt.n	80122b0 <logarithm+0x3a>
 80122a4:	f1b2 4fff 	cmp.w	r2, #2139095040	; 0x7f800000
 80122a8:	d95b      	bls.n	8012362 <logarithm+0xec>
 80122aa:	ed9f 0a2f 	vldr	s0, [pc, #188]	; 8012368 <logarithm+0xf2>
 80122ae:	e056      	b.n	801235e <logarithm+0xe8>
 80122b0:	a801      	add	r0, sp, #4
 80122b2:	f7ff ffc8 	bl	8012246 <frexpf>
 80122b6:	eeb6 7a00 	vmov.f32	s14, #96	; 0x3f000000  0.5
 80122ba:	ee30 7a47 	vsub.f32	s14, s0, s14
 80122be:	eddf 7a2b 	vldr	s15, [pc, #172]	; 801236c <logarithm+0xf6>
 80122c2:	eeb4 0ae7 	vcmpe.f32	s0, s15
 80122c6:	eef1 fa10 	vmrs	APSR_nzcv, fpscr
 80122ca:	dd37      	ble.n	801233c <logarithm+0xc6>
 80122cc:	eef6 7a00 	vmov.f32	s15, #96	; 0x3f000000  0.5
 80122d0:	ee37 7a67 	vsub.f32	s14, s14, s15
 80122d4:	ee20 0a27 	vmul.f32	s0, s0, s15
 80122d8:	ee70 7a27 	vadd.f32	s15, s0, s15
 80122dc:	eec7 6a27 	vdiv.f32	s13, s14, s15
 80122e0:	ee26 6aa6 	vmul.f32	s12, s13, s13
 80122e4:	ee26 7a86 	vmul.f32	s14, s13, s12
 80122e8:	eddf 7a21 	vldr	s15, [pc, #132]	; 8012370 <logarithm+0xfa>
 80122ec:	ee27 7a27 	vmul.f32	s14, s14, s15
 80122f0:	eef7 7a00 	vmov.f32	s15, #112	; 0x3f800000  1.0
 80122f4:	ee76 7a27 	vadd.f32	s15, s12, s15
 80122f8:	ee67 7a86 	vmul.f32	s15, s15, s12
 80122fc:	ed9f 6a1d 	vldr	s12, [pc, #116]	; 8012374 <logarithm+0xfe>
 8012300:	ee77 7ac6 	vsub.f32	s15, s15, s12
 8012304:	ee87 0a27 	vdiv.f32	s0, s14, s15
 8012308:	ee30 0a26 	vadd.f32	s0, s0, s13
 801230c:	9b01      	ldr	r3, [sp, #4]
 801230e:	b17b      	cbz	r3, 8012330 <logarithm+0xba>
 8012310:	ee07 3a90 	vmov	s15, r3
 8012314:	eef8 7ae7 	vcvt.f32.s32	s15, s15
 8012318:	ed9f 7a17 	vldr	s14, [pc, #92]	; 8012378 <logarithm+0x102>
 801231c:	ee27 7a87 	vmul.f32	s14, s15, s14
 8012320:	ee37 0a00 	vadd.f32	s0, s14, s0
 8012324:	ed9f 7a15 	vldr	s14, [pc, #84]	; 801237c <logarithm+0x106>
 8012328:	ee67 7a87 	vmul.f32	s15, s15, s14
 801232c:	ee30 0a27 	vadd.f32	s0, s0, s15
 8012330:	b1ac      	cbz	r4, 801235e <logarithm+0xe8>
 8012332:	eddf 7a13 	vldr	s15, [pc, #76]	; 8012380 <logarithm+0x10a>
 8012336:	ee20 0a27 	vmul.f32	s0, s0, s15
 801233a:	e010      	b.n	801235e <logarithm+0xe8>
 801233c:	9b01      	ldr	r3, [sp, #4]
 801233e:	3b01      	subs	r3, #1
 8012340:	9301      	str	r3, [sp, #4]
 8012342:	eef6 6a00 	vmov.f32	s13, #96	; 0x3f000000  0.5
 8012346:	ee67 7a26 	vmul.f32	s15, s14, s13
 801234a:	ee77 7aa6 	vadd.f32	s15, s15, s13
 801234e:	eec7 6a27 	vdiv.f32	s13, s14, s15
 8012352:	e7c5      	b.n	80122e0 <logarithm+0x6a>
 8012354:	ed9f 0a0b 	vldr	s0, [pc, #44]	; 8012384 <logarithm+0x10e>
 8012358:	4770      	bx	lr
 801235a:	ed9f 0a03 	vldr	s0, [pc, #12]	; 8012368 <logarithm+0xf2>
 801235e:	b002      	add	sp, #8
 8012360:	bd10      	pop	{r4, pc}
 8012362:	ed9f 0a09 	vldr	s0, [pc, #36]	; 8012388 <logarithm+0x112>
 8012366:	e7fa      	b.n	801235e <logarithm+0xe8>
 8012368:	4f7fd000 	.word	0x4f7fd000
 801236c:	3f3504f3 	.word	0x3f3504f3
 8012370:	bf0d7e3d 	.word	0xbf0d7e3d
 8012374:	40d43f3a 	.word	0x40d43f3a
 8012378:	35bfbe8e 	.word	0x35bfbe8e
 801237c:	3f317200 	.word	0x3f317200
 8012380:	3ede5bd9 	.word	0x3ede5bd9
 8012384:	ceff0000 	.word	0xceff0000
 8012388:	4eff0000 	.word	0x4eff0000

0801238c <modff>:
 801238c:	ee10 3a10 	vmov	r3, s0
 8012390:	f3c3 52c7 	ubfx	r2, r3, #23, #8
 8012394:	3a7f      	subs	r2, #127	; 0x7f
 8012396:	2a16      	cmp	r2, #22
 8012398:	dc1e      	bgt.n	80123d8 <modff+0x4c>
 801239a:	2a00      	cmp	r2, #0
 801239c:	db0e      	blt.n	80123bc <modff+0x30>
 801239e:	b410      	push	{r4}
 80123a0:	4c11      	ldr	r4, [pc, #68]	; (80123e8 <modff+0x5c>)
 80123a2:	fa44 f202 	asr.w	r2, r4, r2
 80123a6:	4213      	tst	r3, r2
 80123a8:	d10c      	bne.n	80123c4 <modff+0x38>
 80123aa:	ed80 0a00 	vstr	s0, [r0]
 80123ae:	f003 4300 	and.w	r3, r3, #2147483648	; 0x80000000
 80123b2:	ee00 3a10 	vmov	s0, r3
 80123b6:	f85d 4b04 	ldr.w	r4, [sp], #4
 80123ba:	4770      	bx	lr
 80123bc:	f003 4100 	and.w	r1, r3, #2147483648	; 0x80000000
 80123c0:	6001      	str	r1, [r0, #0]
 80123c2:	4770      	bx	lr
 80123c4:	ea23 0202 	bic.w	r2, r3, r2
 80123c8:	ee00 2a10 	vmov	s0, r2
 80123cc:	6002      	str	r2, [r0, #0]
 80123ce:	ee07 3a90 	vmov	s15, r3
 80123d2:	ee37 0ac0 	vsub.f32	s0, s15, s0
 80123d6:	e7ee      	b.n	80123b6 <modff+0x2a>
 80123d8:	ed80 0a00 	vstr	s0, [r0]
 80123dc:	f003 4300 	and.w	r3, r3, #2147483648	; 0x80000000
 80123e0:	ee00 3a10 	vmov	s0, r3
 80123e4:	4770      	bx	lr
 80123e6:	bf00      	nop
 80123e8:	007fffff 	.word	0x007fffff

080123ec <floorf>:
 80123ec:	b500      	push	{lr}
 80123ee:	ed2d 8b02 	vpush	{d8}
 80123f2:	b083      	sub	sp, #12
 80123f4:	eeb0 8a40 	vmov.f32	s16, s0
 80123f8:	eeff 7a00 	vmov.f32	s15, #240	; 0xbf800000 -1.0
 80123fc:	eeb4 0ae7 	vcmpe.f32	s0, s15
 8012400:	eef1 fa10 	vmrs	APSR_nzcv, fpscr
 8012404:	dd06      	ble.n	8012414 <floorf+0x28>
 8012406:	eef7 7a00 	vmov.f32	s15, #112	; 0x3f800000  1.0
 801240a:	eeb4 0ae7 	vcmpe.f32	s0, s15
 801240e:	eef1 fa10 	vmrs	APSR_nzcv, fpscr
 8012412:	d415      	bmi.n	8012440 <floorf+0x54>
 8012414:	a801      	add	r0, sp, #4
 8012416:	eeb0 0a48 	vmov.f32	s0, s16
 801241a:	f7ff ffb7 	bl	801238c <modff>
 801241e:	eeb5 0a40 	vcmp.f32	s0, #0.0
 8012422:	eef1 fa10 	vmrs	APSR_nzcv, fpscr
 8012426:	d01d      	beq.n	8012464 <floorf+0x78>
 8012428:	eeb5 8ac0 	vcmpe.f32	s16, #0.0
 801242c:	eef1 fa10 	vmrs	APSR_nzcv, fpscr
 8012430:	db11      	blt.n	8012456 <floorf+0x6a>
 8012432:	ed9d 0a01 	vldr	s0, [sp, #4]
 8012436:	b003      	add	sp, #12
 8012438:	ecbd 8b02 	vpop	{d8}
 801243c:	f85d fb04 	ldr.w	pc, [sp], #4
 8012440:	eeb5 0ac0 	vcmpe.f32	s0, #0.0
 8012444:	eef1 fa10 	vmrs	APSR_nzcv, fpscr
 8012448:	db02      	blt.n	8012450 <floorf+0x64>
 801244a:	ed9f 0a08 	vldr	s0, [pc, #32]	; 801246c <floorf+0x80>
 801244e:	e7f2      	b.n	8012436 <floorf+0x4a>
 8012450:	eebf 0a00 	vmov.f32	s0, #240	; 0xbf800000 -1.0
 8012454:	e7ef      	b.n	8012436 <floorf+0x4a>
 8012456:	ed9d 0a01 	vldr	s0, [sp, #4]
 801245a:	eeb7 8a00 	vmov.f32	s16, #112	; 0x3f800000  1.0
 801245e:	ee30 0a48 	vsub.f32	s0, s0, s16
 8012462:	e7e8      	b.n	8012436 <floorf+0x4a>
 8012464:	eeb0 0a48 	vmov.f32	s0, s16
 8012468:	e7e5      	b.n	8012436 <floorf+0x4a>
 801246a:	bf00      	nop
 801246c:	00000000 	.word	0x00000000

08012470 <ldexpf>:
 8012470:	b538      	push	{r3, r4, r5, lr}
 8012472:	ed2d 8b02 	vpush	{d8}
 8012476:	eeb0 8a40 	vmov.f32	s16, s0
 801247a:	4604      	mov	r4, r0
 801247c:	ee10 5a10 	vmov	r5, s0
 8012480:	eeb8 0ac0 	vcvt.f32.s32	s0, s0
 8012484:	f7ff fed6 	bl	8012234 <numtestf>
 8012488:	2802      	cmp	r0, #2
 801248a:	d90f      	bls.n	80124ac <ldexpf+0x3c>
 801248c:	f3c5 53c7 	ubfx	r3, r5, #23, #8
 8012490:	1918      	adds	r0, r3, r4
 8012492:	28ff      	cmp	r0, #255	; 0xff
 8012494:	dc08      	bgt.n	80124a8 <ldexpf+0x38>
 8012496:	2801      	cmp	r0, #1
 8012498:	dd0d      	ble.n	80124b6 <ldexpf+0x46>
 801249a:	f025 45ff 	bic.w	r5, r5, #2139095040	; 0x7f800000
 801249e:	ea45 53c0 	orr.w	r3, r5, r0, lsl #23
 80124a2:	ee08 3a10 	vmov	s16, r3
 80124a6:	e001      	b.n	80124ac <ldexpf+0x3c>
 80124a8:	ed9f 8a04 	vldr	s16, [pc, #16]	; 80124bc <ldexpf+0x4c>
 80124ac:	eeb0 0a48 	vmov.f32	s0, s16
 80124b0:	ecbd 8b02 	vpop	{d8}
 80124b4:	bd38      	pop	{r3, r4, r5, pc}
 80124b6:	ed9f 8a02 	vldr	s16, [pc, #8]	; 80124c0 <ldexpf+0x50>
 80124ba:	e7f7      	b.n	80124ac <ldexpf+0x3c>
 80124bc:	4eff0000 	.word	0x4eff0000
 80124c0:	ceff0000 	.word	0xceff0000

080124c4 <expf>:
 80124c4:	b508      	push	{r3, lr}
 80124c6:	ed2d 8b02 	vpush	{d8}
 80124ca:	eeb0 8a40 	vmov.f32	s16, s0
 80124ce:	f7ff feb1 	bl	8012234 <numtestf>
 80124d2:	2801      	cmp	r0, #1
 80124d4:	d056      	beq.n	8012584 <expf+0xc0>
 80124d6:	2802      	cmp	r0, #2
 80124d8:	d066      	beq.n	80125a8 <expf+0xe4>
 80124da:	2800      	cmp	r0, #0
 80124dc:	d069      	beq.n	80125b2 <expf+0xee>
 80124de:	eddf 7a3c 	vldr	s15, [pc, #240]	; 80125d0 <expf+0x10c>
 80124e2:	eeb4 8ae7 	vcmpe.f32	s16, s15
 80124e6:	eef1 fa10 	vmrs	APSR_nzcv, fpscr
 80124ea:	dc68      	bgt.n	80125be <expf+0xfa>
 80124ec:	eddf 7a39 	vldr	s15, [pc, #228]	; 80125d4 <expf+0x110>
 80124f0:	eeb4 8ae7 	vcmpe.f32	s16, s15
 80124f4:	eef1 fa10 	vmrs	APSR_nzcv, fpscr
 80124f8:	d464      	bmi.n	80125c4 <expf+0x100>
 80124fa:	eddf 7a37 	vldr	s15, [pc, #220]	; 80125d8 <expf+0x114>
 80124fe:	eeb4 8ae7 	vcmpe.f32	s16, s15
 8012502:	eef1 fa10 	vmrs	APSR_nzcv, fpscr
 8012506:	dd06      	ble.n	8012516 <expf+0x52>
 8012508:	eddf 7a34 	vldr	s15, [pc, #208]	; 80125dc <expf+0x118>
 801250c:	eeb4 8ae7 	vcmpe.f32	s16, s15
 8012510:	eef1 fa10 	vmrs	APSR_nzcv, fpscr
 8012514:	d459      	bmi.n	80125ca <expf+0x106>
 8012516:	eeb5 8ac0 	vcmpe.f32	s16, #0.0
 801251a:	eef1 fa10 	vmrs	APSR_nzcv, fpscr
 801251e:	d438      	bmi.n	8012592 <expf+0xce>
 8012520:	eddf 7a2f 	vldr	s15, [pc, #188]	; 80125e0 <expf+0x11c>
 8012524:	ee68 7a27 	vmul.f32	s15, s16, s15
 8012528:	eeb6 7a00 	vmov.f32	s14, #96	; 0x3f000000  0.5
 801252c:	ee77 7a87 	vadd.f32	s15, s15, s14
 8012530:	eefd 7ae7 	vcvt.s32.f32	s15, s15
 8012534:	eeb8 0ae7 	vcvt.f32.s32	s0, s15
 8012538:	ed9f 7a2a 	vldr	s14, [pc, #168]	; 80125e4 <expf+0x120>
 801253c:	ee20 0a07 	vmul.f32	s0, s0, s14
 8012540:	ee38 0a40 	vsub.f32	s0, s16, s0
 8012544:	ee20 7a00 	vmul.f32	s14, s0, s0
 8012548:	ed9f 8a27 	vldr	s16, [pc, #156]	; 80125e8 <expf+0x124>
 801254c:	ee27 8a08 	vmul.f32	s16, s14, s16
 8012550:	eef5 6a00 	vmov.f32	s13, #80	; 0x3e800000  0.250
 8012554:	ee38 8a26 	vadd.f32	s16, s16, s13
 8012558:	ee28 8a00 	vmul.f32	s16, s16, s0
 801255c:	eddf 6a23 	vldr	s13, [pc, #140]	; 80125ec <expf+0x128>
 8012560:	ee27 7a26 	vmul.f32	s14, s14, s13
 8012564:	eef6 6a00 	vmov.f32	s13, #96	; 0x3f000000  0.5
 8012568:	ee37 7a26 	vadd.f32	s14, s14, s13
 801256c:	ee37 7a48 	vsub.f32	s14, s14, s16
 8012570:	ee88 0a07 	vdiv.f32	s0, s16, s14
 8012574:	ee17 0a90 	vmov	r0, s15
 8012578:	3001      	adds	r0, #1
 801257a:	ee30 0a26 	vadd.f32	s0, s0, s13
 801257e:	f7ff ff77 	bl	8012470 <ldexpf>
 8012582:	e013      	b.n	80125ac <expf+0xe8>
 8012584:	ee18 3a10 	vmov	r3, s16
 8012588:	2b00      	cmp	r3, #0
 801258a:	db15      	blt.n	80125b8 <expf+0xf4>
 801258c:	ed9f 0a18 	vldr	s0, [pc, #96]	; 80125f0 <expf+0x12c>
 8012590:	e00c      	b.n	80125ac <expf+0xe8>
 8012592:	eddf 7a13 	vldr	s15, [pc, #76]	; 80125e0 <expf+0x11c>
 8012596:	ee68 7a27 	vmul.f32	s15, s16, s15
 801259a:	eeb6 7a00 	vmov.f32	s14, #96	; 0x3f000000  0.5
 801259e:	ee77 7ac7 	vsub.f32	s15, s15, s14
 80125a2:	eefd 7ae7 	vcvt.s32.f32	s15, s15
 80125a6:	e7c5      	b.n	8012534 <expf+0x70>
 80125a8:	eeb0 0a48 	vmov.f32	s0, s16
 80125ac:	ecbd 8b02 	vpop	{d8}
 80125b0:	bd08      	pop	{r3, pc}
 80125b2:	eeb7 0a00 	vmov.f32	s0, #112	; 0x3f800000  1.0
 80125b6:	e7f9      	b.n	80125ac <expf+0xe8>
 80125b8:	ed9f 0a0e 	vldr	s0, [pc, #56]	; 80125f4 <expf+0x130>
 80125bc:	e7f6      	b.n	80125ac <expf+0xe8>
 80125be:	eeb0 0a48 	vmov.f32	s0, s16
 80125c2:	e7f3      	b.n	80125ac <expf+0xe8>
 80125c4:	eeb0 0a48 	vmov.f32	s0, s16
 80125c8:	e7f0      	b.n	80125ac <expf+0xe8>
 80125ca:	eeb7 0a00 	vmov.f32	s0, #112	; 0x3f800000  1.0
 80125ce:	e7ed      	b.n	80125ac <expf+0xe8>
 80125d0:	44317218 	.word	0x44317218
 80125d4:	c43a4887 	.word	0xc43a4887
 80125d8:	b93504f3 	.word	0xb93504f3
 80125dc:	393504f3 	.word	0x393504f3
 80125e0:	3fb8aa3b 	.word	0x3fb8aa3b
 80125e4:	3f317218 	.word	0x3f317218
 80125e8:	3b885308 	.word	0x3b885308
 80125ec:	3d4cbf5b 	.word	0x3d4cbf5b
 80125f0:	4eff0000 	.word	0x4eff0000
 80125f4:	00000000 	.word	0x00000000

080125f8 <powf>:
 80125f8:	b530      	push	{r4, r5, lr}
 80125fa:	ed2d 8b04 	vpush	{d8-d9}
 80125fe:	b083      	sub	sp, #12
 8012600:	eeb0 8a40 	vmov.f32	s16, s0
 8012604:	eef0 8a60 	vmov.f32	s17, s1
 8012608:	ee10 4a10 	vmov	r4, s0
 801260c:	a801      	add	r0, sp, #4
 801260e:	eeb0 0a60 	vmov.f32	s0, s1
 8012612:	f7ff febb 	bl	801238c <modff>
 8012616:	eeb0 9a40 	vmov.f32	s18, s0
 801261a:	eeb5 0a40 	vcmp.f32	s0, #0.0
 801261e:	eef1 fa10 	vmrs	APSR_nzcv, fpscr
 8012622:	d00b      	beq.n	801263c <powf+0x44>
 8012624:	2500      	movs	r5, #0
 8012626:	eeb5 8a40 	vcmp.f32	s16, #0.0
 801262a:	eef1 fa10 	vmrs	APSR_nzcv, fpscr
 801262e:	d117      	bne.n	8012660 <powf+0x68>
 8012630:	eeb0 0a48 	vmov.f32	s0, s16
 8012634:	b003      	add	sp, #12
 8012636:	ecbd 8b04 	vpop	{d8-d9}
 801263a:	bd30      	pop	{r4, r5, pc}
 801263c:	f04f 30ff 	mov.w	r0, #4294967295	; 0xffffffff
 8012640:	eeb0 0a68 	vmov.f32	s0, s17
 8012644:	f7ff ff14 	bl	8012470 <ldexpf>
 8012648:	4668      	mov	r0, sp
 801264a:	f7ff fe9f 	bl	801238c <modff>
 801264e:	eeb5 0a40 	vcmp.f32	s0, #0.0
 8012652:	eef1 fa10 	vmrs	APSR_nzcv, fpscr
 8012656:	d001      	beq.n	801265c <powf+0x64>
 8012658:	2500      	movs	r5, #0
 801265a:	e7e4      	b.n	8012626 <powf+0x2e>
 801265c:	2501      	movs	r5, #1
 801265e:	e7e2      	b.n	8012626 <powf+0x2e>
 8012660:	eeb0 0a48 	vmov.f32	s0, s16
 8012664:	f7ff f9a1 	bl	80119aa <fabsf>
 8012668:	2000      	movs	r0, #0
 801266a:	f7ff fe04 	bl	8012276 <logarithm>
 801266e:	ee60 8a28 	vmul.f32	s17, s0, s17
 8012672:	edcd 8a00 	vstr	s17, [sp]
 8012676:	eddf 7a3b 	vldr	s15, [pc, #236]	; 8012764 <powf+0x16c>
 801267a:	eef4 8ae7 	vcmpe.f32	s17, s15
 801267e:	eef1 fa10 	vmrs	APSR_nzcv, fpscr
 8012682:	db0e      	blt.n	80126a2 <powf+0xaa>
 8012684:	2c00      	cmp	r4, #0
 8012686:	db02      	blt.n	801268e <powf+0x96>
 8012688:	ed9f 8a37 	vldr	s16, [pc, #220]	; 8012768 <powf+0x170>
 801268c:	e7d0      	b.n	8012630 <powf+0x38>
 801268e:	eeb5 9a40 	vcmp.f32	s18, #0.0
 8012692:	eef1 fa10 	vmrs	APSR_nzcv, fpscr
 8012696:	d15b      	bne.n	8012750 <powf+0x158>
 8012698:	2d00      	cmp	r5, #0
 801269a:	d05c      	beq.n	8012756 <powf+0x15e>
 801269c:	ed9f 8a32 	vldr	s16, [pc, #200]	; 8012768 <powf+0x170>
 80126a0:	e7c6      	b.n	8012630 <powf+0x38>
 80126a2:	eddf 7a32 	vldr	s15, [pc, #200]	; 801276c <powf+0x174>
 80126a6:	eef4 8ae7 	vcmpe.f32	s17, s15
 80126aa:	eef1 fa10 	vmrs	APSR_nzcv, fpscr
 80126ae:	d455      	bmi.n	801275c <powf+0x164>
 80126b0:	eeb5 9a40 	vcmp.f32	s18, #0.0
 80126b4:	eef1 fa10 	vmrs	APSR_nzcv, fpscr
 80126b8:	d012      	beq.n	80126e0 <powf+0xe8>
 80126ba:	2c00      	cmp	r4, #0
 80126bc:	db40      	blt.n	8012740 <powf+0x148>
 80126be:	ed9d 0a00 	vldr	s0, [sp]
 80126c2:	f7ff feff 	bl	80124c4 <expf>
 80126c6:	eeb0 8a40 	vmov.f32	s16, s0
 80126ca:	2d00      	cmp	r5, #0
 80126cc:	d1b0      	bne.n	8012630 <powf+0x38>
 80126ce:	2c00      	cmp	r4, #0
 80126d0:	daae      	bge.n	8012630 <powf+0x38>
 80126d2:	ee10 3a10 	vmov	r3, s0
 80126d6:	f043 4300 	orr.w	r3, r3, #2147483648	; 0x80000000
 80126da:	ee08 3a10 	vmov	s16, r3
 80126de:	e7a7      	b.n	8012630 <powf+0x38>
 80126e0:	ed9d 0a01 	vldr	s0, [sp, #4]
 80126e4:	f7ff f961 	bl	80119aa <fabsf>
 80126e8:	eddf 7a21 	vldr	s15, [pc, #132]	; 8012770 <powf+0x178>
 80126ec:	eeb4 0ae7 	vcmpe.f32	s0, s15
 80126f0:	eef1 fa10 	vmrs	APSR_nzcv, fpscr
 80126f4:	d8e1      	bhi.n	80126ba <powf+0xc2>
 80126f6:	eddd 7a01 	vldr	s15, [sp, #4]
 80126fa:	eefd 7ae7 	vcvt.s32.f32	s15, s15
 80126fe:	ee17 1a90 	vmov	r1, s15
 8012702:	2900      	cmp	r1, #0
 8012704:	db04      	blt.n	8012710 <powf+0x118>
 8012706:	ee17 3a90 	vmov	r3, s15
 801270a:	eef7 7a00 	vmov.f32	s15, #112	; 0x3f800000  1.0
 801270e:	e004      	b.n	801271a <powf+0x122>
 8012710:	424b      	negs	r3, r1
 8012712:	e7fa      	b.n	801270a <powf+0x112>
 8012714:	ee28 8a08 	vmul.f32	s16, s16, s16
 8012718:	0853      	lsrs	r3, r2, #1
 801271a:	2b00      	cmp	r3, #0
 801271c:	dd06      	ble.n	801272c <powf+0x134>
 801271e:	461a      	mov	r2, r3
 8012720:	f013 0f01 	tst.w	r3, #1
 8012724:	d0f6      	beq.n	8012714 <powf+0x11c>
 8012726:	ee67 7a88 	vmul.f32	s15, s15, s16
 801272a:	e7f3      	b.n	8012714 <powf+0x11c>
 801272c:	2900      	cmp	r1, #0
 801272e:	db02      	blt.n	8012736 <powf+0x13e>
 8012730:	eeb0 8a67 	vmov.f32	s16, s15
 8012734:	e77c      	b.n	8012630 <powf+0x38>
 8012736:	eeb7 7a00 	vmov.f32	s14, #112	; 0x3f800000  1.0
 801273a:	eec7 7a27 	vdiv.f32	s15, s14, s15
 801273e:	e7f7      	b.n	8012730 <powf+0x138>
 8012740:	eeb5 9a40 	vcmp.f32	s18, #0.0
 8012744:	eef1 fa10 	vmrs	APSR_nzcv, fpscr
 8012748:	d0b9      	beq.n	80126be <powf+0xc6>
 801274a:	ed9f 8a0a 	vldr	s16, [pc, #40]	; 8012774 <powf+0x17c>
 801274e:	e76f      	b.n	8012630 <powf+0x38>
 8012750:	ed9f 8a08 	vldr	s16, [pc, #32]	; 8012774 <powf+0x17c>
 8012754:	e76c      	b.n	8012630 <powf+0x38>
 8012756:	ed9f 8a08 	vldr	s16, [pc, #32]	; 8012778 <powf+0x180>
 801275a:	e769      	b.n	8012630 <powf+0x38>
 801275c:	ed9f 8a05 	vldr	s16, [pc, #20]	; 8012774 <powf+0x17c>
 8012760:	e766      	b.n	8012630 <powf+0x38>
 8012762:	bf00      	nop
 8012764:	44317218 	.word	0x44317218
 8012768:	4eff0000 	.word	0x4eff0000
 801276c:	c43a4887 	.word	0xc43a4887
 8012770:	46fffe00 	.word	0x46fffe00
 8012774:	00000000 	.word	0x00000000
 8012778:	ceff0000 	.word	0xceff0000

0801277c <sqrtf>:
 801277c:	b500      	push	{lr}
 801277e:	ed2d 8b02 	vpush	{d8}
 8012782:	b083      	sub	sp, #12
 8012784:	eeb0 8a40 	vmov.f32	s16, s0
 8012788:	f7ff fd54 	bl	8012234 <numtestf>
 801278c:	2801      	cmp	r0, #1
 801278e:	d023      	beq.n	80127d8 <sqrtf+0x5c>
 8012790:	2802      	cmp	r0, #2
 8012792:	d027      	beq.n	80127e4 <sqrtf+0x68>
 8012794:	eeb5 8a40 	vcmp.f32	s16, #0.0
 8012798:	eef1 fa10 	vmrs	APSR_nzcv, fpscr
 801279c:	d045      	beq.n	801282a <sqrtf+0xae>
 801279e:	eeb5 8ac0 	vcmpe.f32	s16, #0.0
 80127a2:	eef1 fa10 	vmrs	APSR_nzcv, fpscr
 80127a6:	d443      	bmi.n	8012830 <sqrtf+0xb4>
 80127a8:	a801      	add	r0, sp, #4
 80127aa:	eeb0 0a48 	vmov.f32	s0, s16
 80127ae:	f7ff fd4a 	bl	8012246 <frexpf>
 80127b2:	eeb0 7a40 	vmov.f32	s14, s0
 80127b6:	9a01      	ldr	r2, [sp, #4]
 80127b8:	f002 0101 	and.w	r1, r2, #1
 80127bc:	eddf 7a1e 	vldr	s15, [pc, #120]	; 8012838 <sqrtf+0xbc>
 80127c0:	ee60 7a27 	vmul.f32	s15, s0, s15
 80127c4:	ed9f 0a1d 	vldr	s0, [pc, #116]	; 801283c <sqrtf+0xc0>
 80127c8:	ee37 0a80 	vadd.f32	s0, s15, s0
 80127cc:	eef6 7a00 	vmov.f32	s15, #96	; 0x3f000000  0.5
 80127d0:	ee67 7a27 	vmul.f32	s15, s14, s15
 80127d4:	2300      	movs	r3, #0
 80127d6:	e015      	b.n	8012804 <sqrtf+0x88>
 80127d8:	ee18 3a10 	vmov	r3, s16
 80127dc:	2b00      	cmp	r3, #0
 80127de:	db21      	blt.n	8012824 <sqrtf+0xa8>
 80127e0:	ed9f 8a17 	vldr	s16, [pc, #92]	; 8012840 <sqrtf+0xc4>
 80127e4:	eeb0 0a48 	vmov.f32	s0, s16
 80127e8:	b003      	add	sp, #12
 80127ea:	ecbd 8b02 	vpop	{d8}
 80127ee:	f85d fb04 	ldr.w	pc, [sp], #4
 80127f2:	eeb6 7a00 	vmov.f32	s14, #96	; 0x3f000000  0.5
 80127f6:	ee20 7a07 	vmul.f32	s14, s0, s14
 80127fa:	eec7 6a80 	vdiv.f32	s13, s15, s0
 80127fe:	ee37 0a26 	vadd.f32	s0, s14, s13
 8012802:	3301      	adds	r3, #1
 8012804:	2b01      	cmp	r3, #1
 8012806:	ddf4      	ble.n	80127f2 <sqrtf+0x76>
 8012808:	b129      	cbz	r1, 8012816 <sqrtf+0x9a>
 801280a:	eddf 7a0e 	vldr	s15, [pc, #56]	; 8012844 <sqrtf+0xc8>
 801280e:	ee20 0a27 	vmul.f32	s0, s0, s15
 8012812:	3201      	adds	r2, #1
 8012814:	9201      	str	r2, [sp, #4]
 8012816:	9801      	ldr	r0, [sp, #4]
 8012818:	1040      	asrs	r0, r0, #1
 801281a:	f7ff fe29 	bl	8012470 <ldexpf>
 801281e:	eeb0 8a40 	vmov.f32	s16, s0
 8012822:	e7df      	b.n	80127e4 <sqrtf+0x68>
 8012824:	ed9f 8a08 	vldr	s16, [pc, #32]	; 8012848 <sqrtf+0xcc>
 8012828:	e7dc      	b.n	80127e4 <sqrtf+0x68>
 801282a:	ed9f 8a08 	vldr	s16, [pc, #32]	; 801284c <sqrtf+0xd0>
 801282e:	e7d9      	b.n	80127e4 <sqrtf+0x68>
 8012830:	ed9f 8a03 	vldr	s16, [pc, #12]	; 8012840 <sqrtf+0xc4>
 8012834:	e7d6      	b.n	80127e4 <sqrtf+0x68>
 8012836:	bf00      	nop
 8012838:	3f1714ba 	.word	0x3f1714ba
 801283c:	3ed5a9a8 	.word	0x3ed5a9a8
 8012840:	4f7fd000 	.word	0x4f7fd000
 8012844:	3f3504f3 	.word	0x3f3504f3
 8012848:	4eff0000 	.word	0x4eff0000
 801284c:	00000000 	.word	0x00000000

08012850 <pow>:
 8012850:	4602      	mov	r2, r0
 8012852:	b131      	cbz	r1, 8012862 <pow+0x12>
 8012854:	1e4b      	subs	r3, r1, #1
 8012856:	b11b      	cbz	r3, 8012860 <pow+0x10>
 8012858:	fb02 f000 	mul.w	r0, r2, r0
 801285c:	3b01      	subs	r3, #1
 801285e:	e7fa      	b.n	8012856 <pow+0x6>
 8012860:	4770      	bx	lr
 8012862:	2001      	movs	r0, #1
 8012864:	4770      	bx	lr
	...

08012868 <putchar>:
 8012868:	b508      	push	{r3, lr}
 801286a:	4b06      	ldr	r3, [pc, #24]	; (8012884 <putchar+0x1c>)
 801286c:	681b      	ldr	r3, [r3, #0]
 801286e:	eb03 0383 	add.w	r3, r3, r3, lsl #2
 8012872:	011a      	lsls	r2, r3, #4
 8012874:	4b04      	ldr	r3, [pc, #16]	; (8012888 <putchar+0x20>)
 8012876:	4413      	add	r3, r2
 8012878:	f9b3 1034 	ldrsh.w	r1, [r3, #52]	; 0x34
 801287c:	f7fd fc8c 	bl	8010198 <fputc>
 8012880:	bd08      	pop	{r3, pc}
 8012882:	bf00      	nop
 8012884:	20001298 	.word	0x20001298
 8012888:	2000129c 	.word	0x2000129c

0801288c <fputs>:
 801288c:	b538      	push	{r3, r4, r5, lr}
 801288e:	4604      	mov	r4, r0
 8012890:	460d      	mov	r5, r1
 8012892:	2000      	movs	r0, #0
 8012894:	f814 1b01 	ldrb.w	r1, [r4], #1
 8012898:	b119      	cbz	r1, 80128a2 <fputs+0x16>
 801289a:	4628      	mov	r0, r5
 801289c:	f003 fbb0 	bl	8016000 <putc>
 80128a0:	e7f8      	b.n	8012894 <fputs+0x8>
 80128a2:	bd38      	pop	{r3, r4, r5, pc}

080128a4 <memchr>:
 80128a4:	1e53      	subs	r3, r2, #1
 80128a6:	b12a      	cbz	r2, 80128b4 <memchr+0x10>
 80128a8:	7802      	ldrb	r2, [r0, #0]
 80128aa:	428a      	cmp	r2, r1
 80128ac:	d003      	beq.n	80128b6 <memchr+0x12>
 80128ae:	3001      	adds	r0, #1
 80128b0:	461a      	mov	r2, r3
 80128b2:	e7f7      	b.n	80128a4 <memchr>
 80128b4:	2000      	movs	r0, #0
 80128b6:	4770      	bx	lr

080128b8 <memcmp>:
 80128b8:	b410      	push	{r4}
 80128ba:	4603      	mov	r3, r0
 80128bc:	4610      	mov	r0, r2
 80128be:	1e44      	subs	r4, r0, #1
 80128c0:	b148      	cbz	r0, 80128d6 <memcmp+0x1e>
 80128c2:	7818      	ldrb	r0, [r3, #0]
 80128c4:	780a      	ldrb	r2, [r1, #0]
 80128c6:	4290      	cmp	r0, r2
 80128c8:	d103      	bne.n	80128d2 <memcmp+0x1a>
 80128ca:	3301      	adds	r3, #1
 80128cc:	3101      	adds	r1, #1
 80128ce:	4620      	mov	r0, r4
 80128d0:	e7f5      	b.n	80128be <memcmp+0x6>
 80128d2:	d903      	bls.n	80128dc <memcmp+0x24>
 80128d4:	2001      	movs	r0, #1
 80128d6:	f85d 4b04 	ldr.w	r4, [sp], #4
 80128da:	4770      	bx	lr
 80128dc:	f04f 30ff 	mov.w	r0, #4294967295	; 0xffffffff
 80128e0:	e7f9      	b.n	80128d6 <memcmp+0x1e>

080128e2 <memset>:
 80128e2:	4402      	add	r2, r0
 80128e4:	4290      	cmp	r0, r2
 80128e6:	d202      	bcs.n	80128ee <memset+0xc>
 80128e8:	f800 1b01 	strb.w	r1, [r0], #1
 80128ec:	e7fa      	b.n	80128e4 <memset+0x2>
 80128ee:	4770      	bx	lr

080128f0 <memcpy>:
 80128f0:	b430      	push	{r4, r5}
 80128f2:	4603      	mov	r3, r0
 80128f4:	2400      	movs	r4, #0
 80128f6:	4294      	cmp	r4, r2
 80128f8:	da05      	bge.n	8012906 <memcpy+0x16>
 80128fa:	f811 5b01 	ldrb.w	r5, [r1], #1
 80128fe:	f803 5b01 	strb.w	r5, [r3], #1
 8012902:	3401      	adds	r4, #1
 8012904:	e7f7      	b.n	80128f6 <memcpy+0x6>
 8012906:	bc30      	pop	{r4, r5}
 8012908:	4770      	bx	lr

0801290a <memmove>:
 801290a:	4281      	cmp	r1, r0
 801290c:	d307      	bcc.n	801291e <memmove+0x14>
 801290e:	1e53      	subs	r3, r2, #1
 8012910:	b162      	cbz	r2, 801292c <memmove+0x22>
 8012912:	f811 2b01 	ldrb.w	r2, [r1], #1
 8012916:	f800 2b01 	strb.w	r2, [r0], #1
 801291a:	461a      	mov	r2, r3
 801291c:	e7f7      	b.n	801290e <memmove+0x4>
 801291e:	1e53      	subs	r3, r2, #1
 8012920:	b11a      	cbz	r2, 801292a <memmove+0x20>
 8012922:	5cca      	ldrb	r2, [r1, r3]
 8012924:	54c2      	strb	r2, [r0, r3]
 8012926:	461a      	mov	r2, r3
 8012928:	e7f9      	b.n	801291e <memmove+0x14>
 801292a:	4770      	bx	lr
 801292c:	4770      	bx	lr

0801292e <strchr>:
 801292e:	7803      	ldrb	r3, [r0, #0]
 8012930:	461a      	mov	r2, r3
 8012932:	428b      	cmp	r3, r1
 8012934:	d002      	beq.n	801293c <strchr+0xe>
 8012936:	b10b      	cbz	r3, 801293c <strchr+0xe>
 8012938:	3001      	adds	r0, #1
 801293a:	e7f8      	b.n	801292e <strchr>
 801293c:	428a      	cmp	r2, r1
 801293e:	d000      	beq.n	8012942 <strchr+0x14>
 8012940:	2000      	movs	r0, #0
 8012942:	4770      	bx	lr

08012944 <strlen>:
 8012944:	4603      	mov	r3, r0
 8012946:	2000      	movs	r0, #0
 8012948:	f813 2b01 	ldrb.w	r2, [r3], #1
 801294c:	b10a      	cbz	r2, 8012952 <strlen+0xe>
 801294e:	3001      	adds	r0, #1
 8012950:	e7fa      	b.n	8012948 <strlen+0x4>
 8012952:	4770      	bx	lr

08012954 <strreverse>:
 8012954:	4602      	mov	r2, r0
 8012956:	b180      	cbz	r0, 801297a <strreverse+0x26>
 8012958:	7803      	ldrb	r3, [r0, #0]
 801295a:	b173      	cbz	r3, 801297a <strreverse+0x26>
 801295c:	4601      	mov	r1, r0
 801295e:	460b      	mov	r3, r1
 8012960:	f811 0f01 	ldrb.w	r0, [r1, #1]!
 8012964:	2800      	cmp	r0, #0
 8012966:	d1fa      	bne.n	801295e <strreverse+0xa>
 8012968:	e005      	b.n	8012976 <strreverse+0x22>
 801296a:	7811      	ldrb	r1, [r2, #0]
 801296c:	7818      	ldrb	r0, [r3, #0]
 801296e:	f802 0b01 	strb.w	r0, [r2], #1
 8012972:	f803 1901 	strb.w	r1, [r3], #-1
 8012976:	4293      	cmp	r3, r2
 8012978:	d8f7      	bhi.n	801296a <strreverse+0x16>
 801297a:	4770      	bx	lr

0801297c <strcmp>:
 801297c:	e001      	b.n	8012982 <strcmp+0x6>
 801297e:	3001      	adds	r0, #1
 8012980:	3101      	adds	r1, #1
 8012982:	7803      	ldrb	r3, [r0, #0]
 8012984:	780a      	ldrb	r2, [r1, #0]
 8012986:	4293      	cmp	r3, r2
 8012988:	d102      	bne.n	8012990 <strcmp+0x14>
 801298a:	b10b      	cbz	r3, 8012990 <strcmp+0x14>
 801298c:	2a00      	cmp	r2, #0
 801298e:	d1f6      	bne.n	801297e <strcmp+0x2>
 8012990:	4293      	cmp	r3, r2
 8012992:	d002      	beq.n	801299a <strcmp+0x1e>
 8012994:	d903      	bls.n	801299e <strcmp+0x22>
 8012996:	2001      	movs	r0, #1
 8012998:	4770      	bx	lr
 801299a:	2000      	movs	r0, #0
 801299c:	4770      	bx	lr
 801299e:	f04f 30ff 	mov.w	r0, #4294967295	; 0xffffffff
 80129a2:	4770      	bx	lr

080129a4 <strncmp>:
 80129a4:	b410      	push	{r4}
 80129a6:	e002      	b.n	80129ae <strncmp+0xa>
 80129a8:	3001      	adds	r0, #1
 80129aa:	3101      	adds	r1, #1
 80129ac:	3a01      	subs	r2, #1
 80129ae:	7803      	ldrb	r3, [r0, #0]
 80129b0:	780c      	ldrb	r4, [r1, #0]
 80129b2:	42a3      	cmp	r3, r4
 80129b4:	d103      	bne.n	80129be <strncmp+0x1a>
 80129b6:	b113      	cbz	r3, 80129be <strncmp+0x1a>
 80129b8:	b10c      	cbz	r4, 80129be <strncmp+0x1a>
 80129ba:	2a00      	cmp	r2, #0
 80129bc:	d1f4      	bne.n	80129a8 <strncmp+0x4>
 80129be:	b122      	cbz	r2, 80129ca <strncmp+0x26>
 80129c0:	42a3      	cmp	r3, r4
 80129c2:	d006      	beq.n	80129d2 <strncmp+0x2e>
 80129c4:	d907      	bls.n	80129d6 <strncmp+0x32>
 80129c6:	2001      	movs	r0, #1
 80129c8:	e000      	b.n	80129cc <strncmp+0x28>
 80129ca:	4610      	mov	r0, r2
 80129cc:	f85d 4b04 	ldr.w	r4, [sp], #4
 80129d0:	4770      	bx	lr
 80129d2:	2000      	movs	r0, #0
 80129d4:	e7fa      	b.n	80129cc <strncmp+0x28>
 80129d6:	f04f 30ff 	mov.w	r0, #4294967295	; 0xffffffff
 80129da:	e7f7      	b.n	80129cc <strncmp+0x28>

080129dc <strncpy>:
 80129dc:	b430      	push	{r4, r5}
 80129de:	4603      	mov	r3, r0
 80129e0:	780c      	ldrb	r4, [r1, #0]
 80129e2:	b16c      	cbz	r4, 8012a00 <strncpy+0x24>
 80129e4:	1e55      	subs	r5, r2, #1
 80129e6:	2a00      	cmp	r2, #0
 80129e8:	dd04      	ble.n	80129f4 <strncpy+0x18>
 80129ea:	3101      	adds	r1, #1
 80129ec:	f803 4b01 	strb.w	r4, [r3], #1
 80129f0:	462a      	mov	r2, r5
 80129f2:	e7f5      	b.n	80129e0 <strncpy+0x4>
 80129f4:	462a      	mov	r2, r5
 80129f6:	e003      	b.n	8012a00 <strncpy+0x24>
 80129f8:	2200      	movs	r2, #0
 80129fa:	f803 2b01 	strb.w	r2, [r3], #1
 80129fe:	460a      	mov	r2, r1
 8012a00:	1e51      	subs	r1, r2, #1
 8012a02:	2a00      	cmp	r2, #0
 8012a04:	dcf8      	bgt.n	80129f8 <strncpy+0x1c>
 8012a06:	bc30      	pop	{r4, r5}
 8012a08:	4770      	bx	lr

08012a0a <chrnlst>:
 8012a0a:	2200      	movs	r2, #0
 8012a0c:	5c8b      	ldrb	r3, [r1, r2]
 8012a0e:	b11b      	cbz	r3, 8012a18 <chrnlst+0xe>
 8012a10:	4283      	cmp	r3, r0
 8012a12:	d003      	beq.n	8012a1c <chrnlst+0x12>
 8012a14:	3201      	adds	r2, #1
 8012a16:	e7f9      	b.n	8012a0c <chrnlst+0x2>
 8012a18:	2000      	movs	r0, #0
 8012a1a:	4770      	bx	lr
 8012a1c:	2001      	movs	r0, #1
 8012a1e:	4770      	bx	lr

08012a20 <strncat>:
 8012a20:	b430      	push	{r4, r5}
 8012a22:	4604      	mov	r4, r0
 8012a24:	4623      	mov	r3, r4
 8012a26:	3401      	adds	r4, #1
 8012a28:	781d      	ldrb	r5, [r3, #0]
 8012a2a:	2d00      	cmp	r5, #0
 8012a2c:	d1fa      	bne.n	8012a24 <strncat+0x4>
 8012a2e:	780d      	ldrb	r5, [r1, #0]
 8012a30:	3101      	adds	r1, #1
 8012a32:	701d      	strb	r5, [r3, #0]
 8012a34:	3301      	adds	r3, #1
 8012a36:	b125      	cbz	r5, 8012a42 <strncat+0x22>
 8012a38:	3a01      	subs	r2, #1
 8012a3a:	d5f8      	bpl.n	8012a2e <strncat+0xe>
 8012a3c:	2200      	movs	r2, #0
 8012a3e:	f803 2c01 	strb.w	r2, [r3, #-1]
 8012a42:	bc30      	pop	{r4, r5}
 8012a44:	4770      	bx	lr

08012a46 <strstr>:
 8012a46:	e014      	b.n	8012a72 <strstr+0x2c>
 8012a48:	3401      	adds	r4, #1
 8012a4a:	3301      	adds	r3, #1
 8012a4c:	7822      	ldrb	r2, [r4, #0]
 8012a4e:	b11a      	cbz	r2, 8012a58 <strstr+0x12>
 8012a50:	781d      	ldrb	r5, [r3, #0]
 8012a52:	b10d      	cbz	r5, 8012a58 <strstr+0x12>
 8012a54:	42aa      	cmp	r2, r5
 8012a56:	d0f7      	beq.n	8012a48 <strstr+0x2>
 8012a58:	781b      	ldrb	r3, [r3, #0]
 8012a5a:	b13b      	cbz	r3, 8012a6c <strstr+0x26>
 8012a5c:	3001      	adds	r0, #1
 8012a5e:	7803      	ldrb	r3, [r0, #0]
 8012a60:	b11b      	cbz	r3, 8012a6a <strstr+0x24>
 8012a62:	780a      	ldrb	r2, [r1, #0]
 8012a64:	429a      	cmp	r2, r3
 8012a66:	d1f9      	bne.n	8012a5c <strstr+0x16>
 8012a68:	e009      	b.n	8012a7e <strstr+0x38>
 8012a6a:	2000      	movs	r0, #0
 8012a6c:	bc30      	pop	{r4, r5}
 8012a6e:	4770      	bx	lr
 8012a70:	3001      	adds	r0, #1
 8012a72:	7803      	ldrb	r3, [r0, #0]
 8012a74:	b133      	cbz	r3, 8012a84 <strstr+0x3e>
 8012a76:	780a      	ldrb	r2, [r1, #0]
 8012a78:	429a      	cmp	r2, r3
 8012a7a:	d1f9      	bne.n	8012a70 <strstr+0x2a>
 8012a7c:	b430      	push	{r4, r5}
 8012a7e:	460b      	mov	r3, r1
 8012a80:	4604      	mov	r4, r0
 8012a82:	e7e3      	b.n	8012a4c <strstr+0x6>
 8012a84:	2000      	movs	r0, #0
 8012a86:	4770      	bx	lr

08012a88 <strcpy>:
 8012a88:	780a      	ldrb	r2, [r1, #0]
 8012a8a:	3101      	adds	r1, #1
 8012a8c:	7002      	strb	r2, [r0, #0]
 8012a8e:	3001      	adds	r0, #1
 8012a90:	2a00      	cmp	r2, #0
 8012a92:	d1f9      	bne.n	8012a88 <strcpy>
 8012a94:	2000      	movs	r0, #0
 8012a96:	4770      	bx	lr

08012a98 <strspn>:
 8012a98:	b430      	push	{r4, r5}
 8012a9a:	4605      	mov	r5, r0
 8012a9c:	e001      	b.n	8012aa2 <strspn+0xa>
 8012a9e:	b153      	cbz	r3, 8012ab6 <strspn+0x1e>
 8012aa0:	3501      	adds	r5, #1
 8012aa2:	782c      	ldrb	r4, [r5, #0]
 8012aa4:	b13c      	cbz	r4, 8012ab6 <strspn+0x1e>
 8012aa6:	460a      	mov	r2, r1
 8012aa8:	7813      	ldrb	r3, [r2, #0]
 8012aaa:	2b00      	cmp	r3, #0
 8012aac:	d0f7      	beq.n	8012a9e <strspn+0x6>
 8012aae:	42a3      	cmp	r3, r4
 8012ab0:	d0f5      	beq.n	8012a9e <strspn+0x6>
 8012ab2:	3201      	adds	r2, #1
 8012ab4:	e7f8      	b.n	8012aa8 <strspn+0x10>
 8012ab6:	1a28      	subs	r0, r5, r0
 8012ab8:	bc30      	pop	{r4, r5}
 8012aba:	4770      	bx	lr

08012abc <strcat>:
 8012abc:	b538      	push	{r3, r4, r5, lr}
 8012abe:	4604      	mov	r4, r0
 8012ac0:	460d      	mov	r5, r1
 8012ac2:	f7ff ff3f 	bl	8012944 <strlen>
 8012ac6:	4629      	mov	r1, r5
 8012ac8:	4420      	add	r0, r4
 8012aca:	f7ff ffdd 	bl	8012a88 <strcpy>
 8012ace:	4620      	mov	r0, r4
 8012ad0:	bd38      	pop	{r3, r4, r5, pc}

08012ad2 <strcspn>:
 8012ad2:	b470      	push	{r4, r5, r6}
 8012ad4:	4605      	mov	r5, r0
 8012ad6:	462e      	mov	r6, r5
 8012ad8:	f816 4b01 	ldrb.w	r4, [r6], #1
 8012adc:	460a      	mov	r2, r1
 8012ade:	7813      	ldrb	r3, [r2, #0]
 8012ae0:	3201      	adds	r2, #1
 8012ae2:	429c      	cmp	r4, r3
 8012ae4:	d003      	beq.n	8012aee <strcspn+0x1c>
 8012ae6:	2b00      	cmp	r3, #0
 8012ae8:	d1f9      	bne.n	8012ade <strcspn+0xc>
 8012aea:	4635      	mov	r5, r6
 8012aec:	e7f3      	b.n	8012ad6 <strcspn+0x4>
 8012aee:	1a28      	subs	r0, r5, r0
 8012af0:	bc70      	pop	{r4, r5, r6}
 8012af2:	4770      	bx	lr

08012af4 <strnlen>:
 8012af4:	4603      	mov	r3, r0
 8012af6:	2000      	movs	r0, #0
 8012af8:	f813 2b01 	ldrb.w	r2, [r3], #1
 8012afc:	b11a      	cbz	r2, 8012b06 <strnlen+0x12>
 8012afe:	4288      	cmp	r0, r1
 8012b00:	da01      	bge.n	8012b06 <strnlen+0x12>
 8012b02:	3001      	adds	r0, #1
 8012b04:	e7f8      	b.n	8012af8 <strnlen+0x4>
 8012b06:	4770      	bx	lr

08012b08 <strtok>:
 8012b08:	b470      	push	{r4, r5, r6}
 8012b0a:	4606      	mov	r6, r0
 8012b0c:	b928      	cbnz	r0, 8012b1a <strtok+0x12>
 8012b0e:	4b15      	ldr	r3, [pc, #84]	; (8012b64 <strtok+0x5c>)
 8012b10:	681e      	ldr	r6, [r3, #0]
 8012b12:	b916      	cbnz	r6, 8012b1a <strtok+0x12>
 8012b14:	4630      	mov	r0, r6
 8012b16:	e020      	b.n	8012b5a <strtok+0x52>
 8012b18:	462e      	mov	r6, r5
 8012b1a:	4635      	mov	r5, r6
 8012b1c:	f815 4b01 	ldrb.w	r4, [r5], #1
 8012b20:	460a      	mov	r2, r1
 8012b22:	7813      	ldrb	r3, [r2, #0]
 8012b24:	3201      	adds	r2, #1
 8012b26:	b113      	cbz	r3, 8012b2e <strtok+0x26>
 8012b28:	429c      	cmp	r4, r3
 8012b2a:	d1fa      	bne.n	8012b22 <strtok+0x1a>
 8012b2c:	e7f4      	b.n	8012b18 <strtok+0x10>
 8012b2e:	b14c      	cbz	r4, 8012b44 <strtok+0x3c>
 8012b30:	f815 4b01 	ldrb.w	r4, [r5], #1
 8012b34:	460a      	mov	r2, r1
 8012b36:	7813      	ldrb	r3, [r2, #0]
 8012b38:	3201      	adds	r2, #1
 8012b3a:	429c      	cmp	r4, r3
 8012b3c:	d006      	beq.n	8012b4c <strtok+0x44>
 8012b3e:	2b00      	cmp	r3, #0
 8012b40:	d1f9      	bne.n	8012b36 <strtok+0x2e>
 8012b42:	e7f5      	b.n	8012b30 <strtok+0x28>
 8012b44:	2000      	movs	r0, #0
 8012b46:	4b07      	ldr	r3, [pc, #28]	; (8012b64 <strtok+0x5c>)
 8012b48:	6018      	str	r0, [r3, #0]
 8012b4a:	e006      	b.n	8012b5a <strtok+0x52>
 8012b4c:	b13c      	cbz	r4, 8012b5e <strtok+0x56>
 8012b4e:	2300      	movs	r3, #0
 8012b50:	f805 3c01 	strb.w	r3, [r5, #-1]
 8012b54:	4b03      	ldr	r3, [pc, #12]	; (8012b64 <strtok+0x5c>)
 8012b56:	601d      	str	r5, [r3, #0]
 8012b58:	4630      	mov	r0, r6
 8012b5a:	bc70      	pop	{r4, r5, r6}
 8012b5c:	4770      	bx	lr
 8012b5e:	2500      	movs	r5, #0
 8012b60:	e7f8      	b.n	8012b54 <strtok+0x4c>
 8012b62:	bf00      	nop
 8012b64:	20000398 	.word	0x20000398

08012b68 <strrchr>:
 8012b68:	4603      	mov	r3, r0
 8012b6a:	2000      	movs	r0, #0
 8012b6c:	781a      	ldrb	r2, [r3, #0]
 8012b6e:	b18a      	cbz	r2, 8012b94 <strrchr+0x2c>
 8012b70:	b410      	push	{r4}
 8012b72:	e002      	b.n	8012b7a <strrchr+0x12>
 8012b74:	3301      	adds	r3, #1
 8012b76:	781a      	ldrb	r2, [r3, #0]
 8012b78:	b122      	cbz	r2, 8012b84 <strrchr+0x1c>
 8012b7a:	b2cc      	uxtb	r4, r1
 8012b7c:	4294      	cmp	r4, r2
 8012b7e:	d1f9      	bne.n	8012b74 <strrchr+0xc>
 8012b80:	4618      	mov	r0, r3
 8012b82:	e7f7      	b.n	8012b74 <strrchr+0xc>
 8012b84:	b2c9      	uxtb	r1, r1
 8012b86:	428a      	cmp	r2, r1
 8012b88:	d002      	beq.n	8012b90 <strrchr+0x28>
 8012b8a:	f85d 4b04 	ldr.w	r4, [sp], #4
 8012b8e:	4770      	bx	lr
 8012b90:	4618      	mov	r0, r3
 8012b92:	e7fa      	b.n	8012b8a <strrchr+0x22>
 8012b94:	b2c9      	uxtb	r1, r1
 8012b96:	428a      	cmp	r2, r1
 8012b98:	d000      	beq.n	8012b9c <strrchr+0x34>
 8012b9a:	4770      	bx	lr
 8012b9c:	4618      	mov	r0, r3
 8012b9e:	4770      	bx	lr

08012ba0 <fgets>:
 8012ba0:	b5f8      	push	{r3, r4, r5, r6, r7, lr}
 8012ba2:	4607      	mov	r7, r0
 8012ba4:	460d      	mov	r5, r1
 8012ba6:	4616      	mov	r6, r2
 8012ba8:	4604      	mov	r4, r0
 8012baa:	2300      	movs	r3, #0
 8012bac:	3d01      	subs	r5, #1
 8012bae:	2d00      	cmp	r5, #0
 8012bb0:	dd0a      	ble.n	8012bc8 <fgets+0x28>
 8012bb2:	4630      	mov	r0, r6
 8012bb4:	f003 f9e6 	bl	8015f84 <getc>
 8012bb8:	1e03      	subs	r3, r0, #0
 8012bba:	db05      	blt.n	8012bc8 <fgets+0x28>
 8012bbc:	f804 3b01 	strb.w	r3, [r4], #1
 8012bc0:	2b0a      	cmp	r3, #10
 8012bc2:	d001      	beq.n	8012bc8 <fgets+0x28>
 8012bc4:	2b0d      	cmp	r3, #13
 8012bc6:	d1f1      	bne.n	8012bac <fgets+0xc>
 8012bc8:	2b00      	cmp	r3, #0
 8012bca:	db03      	blt.n	8012bd4 <fgets+0x34>
 8012bcc:	2300      	movs	r3, #0
 8012bce:	7023      	strb	r3, [r4, #0]
 8012bd0:	4638      	mov	r0, r7
 8012bd2:	bdf8      	pop	{r3, r4, r5, r6, r7, pc}
 8012bd4:	42bc      	cmp	r4, r7
 8012bd6:	d1f9      	bne.n	8012bcc <fgets+0x2c>
 8012bd8:	2000      	movs	r0, #0
 8012bda:	e7fa      	b.n	8012bd2 <fgets+0x32>

08012bdc <xsh_help>:
 8012bdc:	e92d 43f0 	stmdb	sp!, {r4, r5, r6, r7, r8, r9, lr}
 8012be0:	b083      	sub	sp, #12
 8012be2:	4604      	mov	r4, r0
 8012be4:	460d      	mov	r5, r1
 8012be6:	2802      	cmp	r0, #2
 8012be8:	d005      	beq.n	8012bf6 <xsh_help+0x1a>
 8012bea:	2c02      	cmp	r4, #2
 8012bec:	dc28      	bgt.n	8012c40 <xsh_help+0x64>
 8012bee:	2c02      	cmp	r4, #2
 8012bf0:	d16c      	bne.n	8012ccc <xsh_help+0xf0>
 8012bf2:	2100      	movs	r1, #0
 8012bf4:	e057      	b.n	8012ca6 <xsh_help+0xca>
 8012bf6:	2207      	movs	r2, #7
 8012bf8:	495c      	ldr	r1, [pc, #368]	; (8012d6c <xsh_help+0x190>)
 8012bfa:	6868      	ldr	r0, [r5, #4]
 8012bfc:	f7ff fed2 	bl	80129a4 <strncmp>
 8012c00:	4606      	mov	r6, r0
 8012c02:	2800      	cmp	r0, #0
 8012c04:	d1f1      	bne.n	8012bea <xsh_help+0xe>
 8012c06:	485a      	ldr	r0, [pc, #360]	; (8012d70 <xsh_help+0x194>)
 8012c08:	f7fd fc46 	bl	8010498 <printf>
 8012c0c:	6829      	ldr	r1, [r5, #0]
 8012c0e:	4859      	ldr	r0, [pc, #356]	; (8012d74 <xsh_help+0x198>)
 8012c10:	f7fd fc42 	bl	8010498 <printf>
 8012c14:	4858      	ldr	r0, [pc, #352]	; (8012d78 <xsh_help+0x19c>)
 8012c16:	f7fd fc3f 	bl	8010498 <printf>
 8012c1a:	4858      	ldr	r0, [pc, #352]	; (8012d7c <xsh_help+0x1a0>)
 8012c1c:	f7fd fc3c 	bl	8010498 <printf>
 8012c20:	4857      	ldr	r0, [pc, #348]	; (8012d80 <xsh_help+0x1a4>)
 8012c22:	f7fd fc39 	bl	8010498 <printf>
 8012c26:	4857      	ldr	r0, [pc, #348]	; (8012d84 <xsh_help+0x1a8>)
 8012c28:	f7fd fc36 	bl	8010498 <printf>
 8012c2c:	4856      	ldr	r0, [pc, #344]	; (8012d88 <xsh_help+0x1ac>)
 8012c2e:	f7fd fc33 	bl	8010498 <printf>
 8012c32:	4856      	ldr	r0, [pc, #344]	; (8012d8c <xsh_help+0x1b0>)
 8012c34:	f7fd fc30 	bl	8010498 <printf>
 8012c38:	4855      	ldr	r0, [pc, #340]	; (8012d90 <xsh_help+0x1b4>)
 8012c3a:	f7fd fc2d 	bl	8010498 <printf>
 8012c3e:	e091      	b.n	8012d64 <xsh_help+0x188>
 8012c40:	4c54      	ldr	r4, [pc, #336]	; (8012d94 <xsh_help+0x1b8>)
 8012c42:	4e55      	ldr	r6, [pc, #340]	; (8012d98 <xsh_help+0x1bc>)
 8012c44:	6833      	ldr	r3, [r6, #0]
 8012c46:	eb03 0383 	add.w	r3, r3, r3, lsl #2
 8012c4a:	eb04 1303 	add.w	r3, r4, r3, lsl #4
 8012c4e:	682a      	ldr	r2, [r5, #0]
 8012c50:	4952      	ldr	r1, [pc, #328]	; (8012d9c <xsh_help+0x1c0>)
 8012c52:	f9b3 0036 	ldrsh.w	r0, [r3, #54]	; 0x36
 8012c56:	f7fe f8f1 	bl	8010e3c <fprintf>
 8012c5a:	6833      	ldr	r3, [r6, #0]
 8012c5c:	eb03 0383 	add.w	r3, r3, r3, lsl #2
 8012c60:	eb04 1403 	add.w	r4, r4, r3, lsl #4
 8012c64:	682a      	ldr	r2, [r5, #0]
 8012c66:	494e      	ldr	r1, [pc, #312]	; (8012da0 <xsh_help+0x1c4>)
 8012c68:	f9b4 0036 	ldrsh.w	r0, [r4, #54]	; 0x36
 8012c6c:	f7fe f8e6 	bl	8010e3c <fprintf>
 8012c70:	2601      	movs	r6, #1
 8012c72:	e077      	b.n	8012d64 <xsh_help+0x188>
 8012c74:	3201      	adds	r2, #1
 8012c76:	3001      	adds	r0, #1
 8012c78:	7813      	ldrb	r3, [r2, #0]
 8012c7a:	b113      	cbz	r3, 8012c82 <xsh_help+0xa6>
 8012c7c:	7804      	ldrb	r4, [r0, #0]
 8012c7e:	429c      	cmp	r4, r3
 8012c80:	d0f8      	beq.n	8012c74 <xsh_help+0x98>
 8012c82:	b97b      	cbnz	r3, 8012ca4 <xsh_help+0xc8>
 8012c84:	7803      	ldrb	r3, [r0, #0]
 8012c86:	b96b      	cbnz	r3, 8012ca4 <xsh_help+0xc8>
 8012c88:	9600      	str	r6, [sp, #0]
 8012c8a:	4b38      	ldr	r3, [pc, #224]	; (8012d6c <xsh_help+0x190>)
 8012c8c:	9301      	str	r3, [sp, #4]
 8012c8e:	eb01 0141 	add.w	r1, r1, r1, lsl #1
 8012c92:	4b44      	ldr	r3, [pc, #272]	; (8012da4 <xsh_help+0x1c8>)
 8012c94:	eb03 0181 	add.w	r1, r3, r1, lsl #2
 8012c98:	688b      	ldr	r3, [r1, #8]
 8012c9a:	4669      	mov	r1, sp
 8012c9c:	2002      	movs	r0, #2
 8012c9e:	4798      	blx	r3
 8012ca0:	2600      	movs	r6, #0
 8012ca2:	e05f      	b.n	8012d64 <xsh_help+0x188>
 8012ca4:	3101      	adds	r1, #1
 8012ca6:	4b40      	ldr	r3, [pc, #256]	; (8012da8 <xsh_help+0x1cc>)
 8012ca8:	681b      	ldr	r3, [r3, #0]
 8012caa:	4299      	cmp	r1, r3
 8012cac:	d207      	bcs.n	8012cbe <xsh_help+0xe2>
 8012cae:	eb01 0341 	add.w	r3, r1, r1, lsl #1
 8012cb2:	4a3c      	ldr	r2, [pc, #240]	; (8012da4 <xsh_help+0x1c8>)
 8012cb4:	f852 2023 	ldr.w	r2, [r2, r3, lsl #2]
 8012cb8:	686e      	ldr	r6, [r5, #4]
 8012cba:	4630      	mov	r0, r6
 8012cbc:	e7dc      	b.n	8012c78 <xsh_help+0x9c>
 8012cbe:	686a      	ldr	r2, [r5, #4]
 8012cc0:	6829      	ldr	r1, [r5, #0]
 8012cc2:	483a      	ldr	r0, [pc, #232]	; (8012dac <xsh_help+0x1d0>)
 8012cc4:	f7fd fbe8 	bl	8010498 <printf>
 8012cc8:	2601      	movs	r6, #1
 8012cca:	e04b      	b.n	8012d64 <xsh_help+0x188>
 8012ccc:	4838      	ldr	r0, [pc, #224]	; (8012db0 <xsh_help+0x1d4>)
 8012cce:	f7fd fbe3 	bl	8010498 <printf>
 8012cd2:	2500      	movs	r5, #0
 8012cd4:	462c      	mov	r4, r5
 8012cd6:	e000      	b.n	8012cda <xsh_help+0xfe>
 8012cd8:	3401      	adds	r4, #1
 8012cda:	4b33      	ldr	r3, [pc, #204]	; (8012da8 <xsh_help+0x1cc>)
 8012cdc:	681f      	ldr	r7, [r3, #0]
 8012cde:	42bc      	cmp	r4, r7
 8012ce0:	d20b      	bcs.n	8012cfa <xsh_help+0x11e>
 8012ce2:	eb04 0344 	add.w	r3, r4, r4, lsl #1
 8012ce6:	2150      	movs	r1, #80	; 0x50
 8012ce8:	4a2e      	ldr	r2, [pc, #184]	; (8012da4 <xsh_help+0x1c8>)
 8012cea:	f852 0023 	ldr.w	r0, [r2, r3, lsl #2]
 8012cee:	f7ff ff01 	bl	8012af4 <strnlen>
 8012cf2:	4285      	cmp	r5, r0
 8012cf4:	daf0      	bge.n	8012cd8 <xsh_help+0xfc>
 8012cf6:	4605      	mov	r5, r0
 8012cf8:	e7ee      	b.n	8012cd8 <xsh_help+0xfc>
 8012cfa:	3501      	adds	r5, #1
 8012cfc:	2250      	movs	r2, #80	; 0x50
 8012cfe:	fb92 f2f5 	sdiv	r2, r2, r5
 8012d02:	2a06      	cmp	r2, #6
 8012d04:	dd00      	ble.n	8012d08 <xsh_help+0x12c>
 8012d06:	2206      	movs	r2, #6
 8012d08:	2550      	movs	r5, #80	; 0x50
 8012d0a:	fb95 f5f2 	sdiv	r5, r5, r2
 8012d0e:	4417      	add	r7, r2
 8012d10:	3f01      	subs	r7, #1
 8012d12:	fbb7 f7f2 	udiv	r7, r7, r2
 8012d16:	f04f 0800 	mov.w	r8, #0
 8012d1a:	e01e      	b.n	8012d5a <xsh_help+0x17e>
 8012d1c:	4825      	ldr	r0, [pc, #148]	; (8012db4 <xsh_help+0x1d8>)
 8012d1e:	f7fd fbbb 	bl	8010498 <printf>
 8012d22:	3401      	adds	r4, #1
 8012d24:	42ac      	cmp	r4, r5
 8012d26:	dbf9      	blt.n	8012d1c <xsh_help+0x140>
 8012d28:	443e      	add	r6, r7
 8012d2a:	4b1f      	ldr	r3, [pc, #124]	; (8012da8 <xsh_help+0x1cc>)
 8012d2c:	681b      	ldr	r3, [r3, #0]
 8012d2e:	429e      	cmp	r6, r3
 8012d30:	d20e      	bcs.n	8012d50 <xsh_help+0x174>
 8012d32:	eb06 0346 	add.w	r3, r6, r6, lsl #1
 8012d36:	4a1b      	ldr	r2, [pc, #108]	; (8012da4 <xsh_help+0x1c8>)
 8012d38:	f852 9023 	ldr.w	r9, [r2, r3, lsl #2]
 8012d3c:	2150      	movs	r1, #80	; 0x50
 8012d3e:	4648      	mov	r0, r9
 8012d40:	f7ff fed8 	bl	8012af4 <strnlen>
 8012d44:	4604      	mov	r4, r0
 8012d46:	4649      	mov	r1, r9
 8012d48:	481b      	ldr	r0, [pc, #108]	; (8012db8 <xsh_help+0x1dc>)
 8012d4a:	f7fd fba5 	bl	8010498 <printf>
 8012d4e:	e7e9      	b.n	8012d24 <xsh_help+0x148>
 8012d50:	481a      	ldr	r0, [pc, #104]	; (8012dbc <xsh_help+0x1e0>)
 8012d52:	f7fd fba1 	bl	8010498 <printf>
 8012d56:	f108 0801 	add.w	r8, r8, #1
 8012d5a:	45b8      	cmp	r8, r7
 8012d5c:	da01      	bge.n	8012d62 <xsh_help+0x186>
 8012d5e:	4646      	mov	r6, r8
 8012d60:	e7e3      	b.n	8012d2a <xsh_help+0x14e>
 8012d62:	2600      	movs	r6, #0
 8012d64:	4630      	mov	r0, r6
 8012d66:	b003      	add	sp, #12
 8012d68:	e8bd 83f0 	ldmia.w	sp!, {r4, r5, r6, r7, r8, r9, pc}
 8012d6c:	0801aa24 	.word	0x0801aa24
 8012d70:	0801aa2c 	.word	0x0801aa2c
 8012d74:	0801aa34 	.word	0x0801aa34
 8012d78:	0801aa44 	.word	0x0801aa44
 8012d7c:	0801aa54 	.word	0x0801aa54
 8012d80:	0801aa7c 	.word	0x0801aa7c
 8012d84:	0801aaa8 	.word	0x0801aaa8
 8012d88:	0801aab4 	.word	0x0801aab4
 8012d8c:	0801aadc 	.word	0x0801aadc
 8012d90:	0801aaf8 	.word	0x0801aaf8
 8012d94:	2000129c 	.word	0x2000129c
 8012d98:	20001298 	.word	0x20001298
 8012d9c:	0801ab1c 	.word	0x0801ab1c
 8012da0:	0801ab34 	.word	0x0801ab34
 8012da4:	0801a81c 	.word	0x0801a81c
 8012da8:	20000084 	.word	0x20000084
 8012dac:	0801ab5c 	.word	0x0801ab5c
 8012db0:	0801ab7c 	.word	0x0801ab7c
 8012db4:	0801ac0c 	.word	0x0801ac0c
 8012db8:	0801ab94 	.word	0x0801ab94
 8012dbc:	0801ac50 	.word	0x0801ac50

08012dc0 <xsh_blink>:
 8012dc0:	b508      	push	{r3, lr}
 8012dc2:	2101      	movs	r1, #1
 8012dc4:	2003      	movs	r0, #3
 8012dc6:	f003 f871 	bl	8015eac <set>
 8012dca:	f44f 70fa 	mov.w	r0, #500	; 0x1f4
 8012dce:	f002 fabb 	bl	8015348 <sleepms>
 8012dd2:	2100      	movs	r1, #0
 8012dd4:	2003      	movs	r0, #3
 8012dd6:	f003 f869 	bl	8015eac <set>
 8012dda:	2001      	movs	r0, #1
 8012ddc:	f002 faec 	bl	80153b8 <sleep>
 8012de0:	e7ef      	b.n	8012dc2 <xsh_blink+0x2>
	...

08012de4 <xsh_format>:
 8012de4:	b510      	push	{r4, lr}
 8012de6:	4b0a      	ldr	r3, [pc, #40]	; (8012e10 <xsh_format+0x2c>)
 8012de8:	68db      	ldr	r3, [r3, #12]
 8012dea:	4798      	blx	r3
 8012dec:	4604      	mov	r4, r0
 8012dee:	4809      	ldr	r0, [pc, #36]	; (8012e14 <xsh_format+0x30>)
 8012df0:	f7fd fb52 	bl	8010498 <printf>
 8012df4:	4908      	ldr	r1, [pc, #32]	; (8012e18 <xsh_format+0x34>)
 8012df6:	6820      	ldr	r0, [r4, #0]
 8012df8:	f006 fe92 	bl	8019b20 <fl_format>
 8012dfc:	b920      	cbnz	r0, 8012e08 <xsh_format+0x24>
 8012dfe:	4807      	ldr	r0, [pc, #28]	; (8012e1c <xsh_format+0x38>)
 8012e00:	f7fd fb4a 	bl	8010498 <printf>
 8012e04:	2000      	movs	r0, #0
 8012e06:	bd10      	pop	{r4, pc}
 8012e08:	4805      	ldr	r0, [pc, #20]	; (8012e20 <xsh_format+0x3c>)
 8012e0a:	f7fd fb45 	bl	8010498 <printf>
 8012e0e:	e7f9      	b.n	8012e04 <xsh_format+0x20>
 8012e10:	0801a984 	.word	0x0801a984
 8012e14:	0801ab98 	.word	0x0801ab98
 8012e18:	0801af88 	.word	0x0801af88
 8012e1c:	0801abb4 	.word	0x0801abb4
 8012e20:	0801aba8 	.word	0x0801aba8

08012e24 <xsh_memdump>:
 8012e24:	2802      	cmp	r0, #2
 8012e26:	d001      	beq.n	8012e2c <xsh_memdump+0x8>
 8012e28:	2000      	movs	r0, #0
 8012e2a:	4770      	bx	lr
 8012e2c:	b510      	push	{r4, lr}
 8012e2e:	460c      	mov	r4, r1
 8012e30:	2207      	movs	r2, #7
 8012e32:	4908      	ldr	r1, [pc, #32]	; (8012e54 <xsh_memdump+0x30>)
 8012e34:	6860      	ldr	r0, [r4, #4]
 8012e36:	f7ff fdb5 	bl	80129a4 <strncmp>
 8012e3a:	b108      	cbz	r0, 8012e40 <xsh_memdump+0x1c>
 8012e3c:	2000      	movs	r0, #0
 8012e3e:	bd10      	pop	{r4, pc}
 8012e40:	6821      	ldr	r1, [r4, #0]
 8012e42:	4805      	ldr	r0, [pc, #20]	; (8012e58 <xsh_memdump+0x34>)
 8012e44:	f7fd fb28 	bl	8010498 <printf>
 8012e48:	4804      	ldr	r0, [pc, #16]	; (8012e5c <xsh_memdump+0x38>)
 8012e4a:	f7fd fb25 	bl	8010498 <printf>
 8012e4e:	2001      	movs	r0, #1
 8012e50:	e7f5      	b.n	8012e3e <xsh_memdump+0x1a>
 8012e52:	bf00      	nop
 8012e54:	0801aa24 	.word	0x0801aa24
 8012e58:	0801abc8 	.word	0x0801abc8
 8012e5c:	0801aa44 	.word	0x0801aa44

08012e60 <xsh_ls>:
 8012e60:	b500      	push	{lr}
 8012e62:	b097      	sub	sp, #92	; 0x5c
 8012e64:	4810      	ldr	r0, [pc, #64]	; (8012ea8 <xsh_ls+0x48>)
 8012e66:	f000 fa0b 	bl	8013280 <full_path>
 8012e6a:	a913      	add	r1, sp, #76	; 0x4c
 8012e6c:	f006 fdb8 	bl	80199e0 <fl_opendir>
 8012e70:	b928      	cbnz	r0, 8012e7e <xsh_ls+0x1e>
 8012e72:	e015      	b.n	8012ea0 <xsh_ls+0x40>
 8012e74:	9a12      	ldr	r2, [sp, #72]	; 0x48
 8012e76:	4669      	mov	r1, sp
 8012e78:	480c      	ldr	r0, [pc, #48]	; (8012eac <xsh_ls+0x4c>)
 8012e7a:	f7fd fb0d 	bl	8010498 <printf>
 8012e7e:	4669      	mov	r1, sp
 8012e80:	a813      	add	r0, sp, #76	; 0x4c
 8012e82:	f006 fde5 	bl	8019a50 <fl_readdir>
 8012e86:	b940      	cbnz	r0, 8012e9a <xsh_ls+0x3a>
 8012e88:	f89d 3040 	ldrb.w	r3, [sp, #64]	; 0x40
 8012e8c:	2b00      	cmp	r3, #0
 8012e8e:	d0f1      	beq.n	8012e74 <xsh_ls+0x14>
 8012e90:	4669      	mov	r1, sp
 8012e92:	4807      	ldr	r0, [pc, #28]	; (8012eb0 <xsh_ls+0x50>)
 8012e94:	f7fd fb00 	bl	8010498 <printf>
 8012e98:	e7f1      	b.n	8012e7e <xsh_ls+0x1e>
 8012e9a:	a813      	add	r0, sp, #76	; 0x4c
 8012e9c:	f006 fe34 	bl	8019b08 <fl_closedir>
 8012ea0:	2000      	movs	r0, #0
 8012ea2:	b017      	add	sp, #92	; 0x5c
 8012ea4:	f85d fb04 	ldr.w	pc, [sp], #4
 8012ea8:	0801af88 	.word	0x0801af88
 8012eac:	0801abf8 	.word	0x0801abf8
 8012eb0:	0801abec 	.word	0x0801abec

08012eb4 <xsh_ps>:
 8012eb4:	b5f0      	push	{r4, r5, r6, r7, lr}
 8012eb6:	b08f      	sub	sp, #60	; 0x3c
 8012eb8:	4606      	mov	r6, r0
 8012eba:	460f      	mov	r7, r1
 8012ebc:	ac06      	add	r4, sp, #24
 8012ebe:	4d44      	ldr	r5, [pc, #272]	; (8012fd0 <xsh_ps+0x11c>)
 8012ec0:	cd0f      	ldmia	r5!, {r0, r1, r2, r3}
 8012ec2:	c40f      	stmia	r4!, {r0, r1, r2, r3}
 8012ec4:	e895 000f 	ldmia.w	r5, {r0, r1, r2, r3}
 8012ec8:	e884 000f 	stmia.w	r4, {r0, r1, r2, r3}
 8012ecc:	2e02      	cmp	r6, #2
 8012ece:	d021      	beq.n	8012f14 <xsh_ps+0x60>
 8012ed0:	2e01      	cmp	r6, #1
 8012ed2:	dc38      	bgt.n	8012f46 <xsh_ps+0x92>
 8012ed4:	4c3f      	ldr	r4, [pc, #252]	; (8012fd4 <xsh_ps+0x120>)
 8012ed6:	4b40      	ldr	r3, [pc, #256]	; (8012fd8 <xsh_ps+0x124>)
 8012ed8:	9304      	str	r3, [sp, #16]
 8012eda:	4b40      	ldr	r3, [pc, #256]	; (8012fdc <xsh_ps+0x128>)
 8012edc:	9303      	str	r3, [sp, #12]
 8012ede:	4b40      	ldr	r3, [pc, #256]	; (8012fe0 <xsh_ps+0x12c>)
 8012ee0:	9302      	str	r3, [sp, #8]
 8012ee2:	4b40      	ldr	r3, [pc, #256]	; (8012fe4 <xsh_ps+0x130>)
 8012ee4:	9301      	str	r3, [sp, #4]
 8012ee6:	4b40      	ldr	r3, [pc, #256]	; (8012fe8 <xsh_ps+0x134>)
 8012ee8:	9300      	str	r3, [sp, #0]
 8012eea:	4b40      	ldr	r3, [pc, #256]	; (8012fec <xsh_ps+0x138>)
 8012eec:	4a40      	ldr	r2, [pc, #256]	; (8012ff0 <xsh_ps+0x13c>)
 8012eee:	4941      	ldr	r1, [pc, #260]	; (8012ff4 <xsh_ps+0x140>)
 8012ef0:	4620      	mov	r0, r4
 8012ef2:	f7fd fad1 	bl	8010498 <printf>
 8012ef6:	4b40      	ldr	r3, [pc, #256]	; (8012ff8 <xsh_ps+0x144>)
 8012ef8:	9304      	str	r3, [sp, #16]
 8012efa:	9303      	str	r3, [sp, #12]
 8012efc:	9302      	str	r3, [sp, #8]
 8012efe:	4b3f      	ldr	r3, [pc, #252]	; (8012ffc <xsh_ps+0x148>)
 8012f00:	9301      	str	r3, [sp, #4]
 8012f02:	9300      	str	r3, [sp, #0]
 8012f04:	4b3e      	ldr	r3, [pc, #248]	; (8013000 <xsh_ps+0x14c>)
 8012f06:	4a3f      	ldr	r2, [pc, #252]	; (8013004 <xsh_ps+0x150>)
 8012f08:	493f      	ldr	r1, [pc, #252]	; (8013008 <xsh_ps+0x154>)
 8012f0a:	4620      	mov	r0, r4
 8012f0c:	f7fd fac4 	bl	8010498 <printf>
 8012f10:	2400      	movs	r4, #0
 8012f12:	e033      	b.n	8012f7c <xsh_ps+0xc8>
 8012f14:	2207      	movs	r2, #7
 8012f16:	493d      	ldr	r1, [pc, #244]	; (801300c <xsh_ps+0x158>)
 8012f18:	6878      	ldr	r0, [r7, #4]
 8012f1a:	f7ff fd43 	bl	80129a4 <strncmp>
 8012f1e:	4604      	mov	r4, r0
 8012f20:	2800      	cmp	r0, #0
 8012f22:	d1d5      	bne.n	8012ed0 <xsh_ps+0x1c>
 8012f24:	6839      	ldr	r1, [r7, #0]
 8012f26:	483a      	ldr	r0, [pc, #232]	; (8013010 <xsh_ps+0x15c>)
 8012f28:	f7fd fab6 	bl	8010498 <printf>
 8012f2c:	4839      	ldr	r0, [pc, #228]	; (8013014 <xsh_ps+0x160>)
 8012f2e:	f7fd fab3 	bl	8010498 <printf>
 8012f32:	4839      	ldr	r0, [pc, #228]	; (8013018 <xsh_ps+0x164>)
 8012f34:	f7fd fab0 	bl	8010498 <printf>
 8012f38:	4838      	ldr	r0, [pc, #224]	; (801301c <xsh_ps+0x168>)
 8012f3a:	f7fd faad 	bl	8010498 <printf>
 8012f3e:	4838      	ldr	r0, [pc, #224]	; (8013020 <xsh_ps+0x16c>)
 8012f40:	f7fd faaa 	bl	8010498 <printf>
 8012f44:	e041      	b.n	8012fca <xsh_ps+0x116>
 8012f46:	4c37      	ldr	r4, [pc, #220]	; (8013024 <xsh_ps+0x170>)
 8012f48:	4d37      	ldr	r5, [pc, #220]	; (8013028 <xsh_ps+0x174>)
 8012f4a:	682b      	ldr	r3, [r5, #0]
 8012f4c:	eb03 0383 	add.w	r3, r3, r3, lsl #2
 8012f50:	eb04 1303 	add.w	r3, r4, r3, lsl #4
 8012f54:	683a      	ldr	r2, [r7, #0]
 8012f56:	4935      	ldr	r1, [pc, #212]	; (801302c <xsh_ps+0x178>)
 8012f58:	f9b3 0036 	ldrsh.w	r0, [r3, #54]	; 0x36
 8012f5c:	f7fd ff6e 	bl	8010e3c <fprintf>
 8012f60:	682b      	ldr	r3, [r5, #0]
 8012f62:	eb03 0383 	add.w	r3, r3, r3, lsl #2
 8012f66:	eb04 1403 	add.w	r4, r4, r3, lsl #4
 8012f6a:	683a      	ldr	r2, [r7, #0]
 8012f6c:	4930      	ldr	r1, [pc, #192]	; (8013030 <xsh_ps+0x17c>)
 8012f6e:	f9b4 0036 	ldrsh.w	r0, [r4, #54]	; 0x36
 8012f72:	f7fd ff63 	bl	8010e3c <fprintf>
 8012f76:	2401      	movs	r4, #1
 8012f78:	e027      	b.n	8012fca <xsh_ps+0x116>
 8012f7a:	3401      	adds	r4, #1
 8012f7c:	2c09      	cmp	r4, #9
 8012f7e:	dc23      	bgt.n	8012fc8 <xsh_ps+0x114>
 8012f80:	eb04 0384 	add.w	r3, r4, r4, lsl #2
 8012f84:	011b      	lsls	r3, r3, #4
 8012f86:	4a27      	ldr	r2, [pc, #156]	; (8013024 <xsh_ps+0x170>)
 8012f88:	5ad1      	ldrh	r1, [r2, r3]
 8012f8a:	2900      	cmp	r1, #0
 8012f8c:	d0f5      	beq.n	8012f7a <xsh_ps+0xc6>
 8012f8e:	461a      	mov	r2, r3
 8012f90:	3210      	adds	r2, #16
 8012f92:	4824      	ldr	r0, [pc, #144]	; (8013024 <xsh_ps+0x170>)
 8012f94:	eb04 0384 	add.w	r3, r4, r4, lsl #2
 8012f98:	eb00 1303 	add.w	r3, r0, r3, lsl #4
 8012f9c:	f9b3 5002 	ldrsh.w	r5, [r3, #2]
 8012fa0:	ae0e      	add	r6, sp, #56	; 0x38
 8012fa2:	eb06 0181 	add.w	r1, r6, r1, lsl #2
 8012fa6:	68de      	ldr	r6, [r3, #12]
 8012fa8:	9604      	str	r6, [sp, #16]
 8012faa:	685e      	ldr	r6, [r3, #4]
 8012fac:	9603      	str	r6, [sp, #12]
 8012fae:	689e      	ldr	r6, [r3, #8]
 8012fb0:	9602      	str	r6, [sp, #8]
 8012fb2:	6a9b      	ldr	r3, [r3, #40]	; 0x28
 8012fb4:	9301      	str	r3, [sp, #4]
 8012fb6:	9500      	str	r5, [sp, #0]
 8012fb8:	f851 3c20 	ldr.w	r3, [r1, #-32]
 8012fbc:	4402      	add	r2, r0
 8012fbe:	4621      	mov	r1, r4
 8012fc0:	481c      	ldr	r0, [pc, #112]	; (8013034 <xsh_ps+0x180>)
 8012fc2:	f7fd fa69 	bl	8010498 <printf>
 8012fc6:	e7d8      	b.n	8012f7a <xsh_ps+0xc6>
 8012fc8:	2400      	movs	r4, #0
 8012fca:	4620      	mov	r0, r4
 8012fcc:	b00f      	add	sp, #60	; 0x3c
 8012fce:	bdf0      	pop	{r4, r5, r6, r7, pc}
 8012fd0:	0801a7fc 	.word	0x0801a7fc
 8012fd4:	0801acc0 	.word	0x0801acc0
 8012fd8:	0801ace8 	.word	0x0801ace8
 8012fdc:	0801acf4 	.word	0x0801acf4
 8012fe0:	0801ad00 	.word	0x0801ad00
 8012fe4:	0801ad0c 	.word	0x0801ad0c
 8012fe8:	0801ad14 	.word	0x0801ad14
 8012fec:	0801acac 	.word	0x0801acac
 8012ff0:	0801acb4 	.word	0x0801acb4
 8012ff4:	0801acbc 	.word	0x0801acbc
 8012ff8:	0801adfc 	.word	0x0801adfc
 8012ffc:	0801ad30 	.word	0x0801ad30
 8013000:	0801ad1c 	.word	0x0801ad1c
 8013004:	0801ad24 	.word	0x0801ad24
 8013008:	0801ad38 	.word	0x0801ad38
 801300c:	0801aa24 	.word	0x0801aa24
 8013010:	0801ac48 	.word	0x0801ac48
 8013014:	0801aa44 	.word	0x0801aa44
 8013018:	0801ac54 	.word	0x0801ac54
 801301c:	0801aaa8 	.word	0x0801aaa8
 8013020:	0801ac84 	.word	0x0801ac84
 8013024:	2000129c 	.word	0x2000129c
 8013028:	20001298 	.word	0x20001298
 801302c:	0801ab1c 	.word	0x0801ab1c
 8013030:	0801ab34 	.word	0x0801ab34
 8013034:	0801ad3c 	.word	0x0801ad3c

08013038 <xsh_dump>:
 8013038:	b570      	push	{r4, r5, r6, lr}
 801303a:	b088      	sub	sp, #32
 801303c:	6848      	ldr	r0, [r1, #4]
 801303e:	f000 f91f 	bl	8013280 <full_path>
 8013042:	b3d0      	cbz	r0, 80130ba <xsh_dump+0x82>
 8013044:	4604      	mov	r4, r0
 8013046:	491e      	ldr	r1, [pc, #120]	; (80130c0 <xsh_dump+0x88>)
 8013048:	f006 f910 	bl	801926c <fl_fopen>
 801304c:	4605      	mov	r5, r0
 801304e:	b328      	cbz	r0, 801309c <xsh_dump+0x64>
 8013050:	2202      	movs	r2, #2
 8013052:	2100      	movs	r1, #0
 8013054:	f006 fb15 	bl	8019682 <fl_fseek>
 8013058:	4628      	mov	r0, r5
 801305a:	f006 fb7d 	bl	8019758 <fl_ftell>
 801305e:	4606      	mov	r6, r0
 8013060:	2200      	movs	r2, #0
 8013062:	4611      	mov	r1, r2
 8013064:	4628      	mov	r0, r5
 8013066:	f006 fb0c 	bl	8019682 <fl_fseek>
 801306a:	4631      	mov	r1, r6
 801306c:	4815      	ldr	r0, [pc, #84]	; (80130c4 <xsh_dump+0x8c>)
 801306e:	f7fd fa13 	bl	8010498 <printf>
 8013072:	2400      	movs	r4, #0
 8013074:	42b4      	cmp	r4, r6
 8013076:	d218      	bcs.n	80130aa <xsh_dump+0x72>
 8013078:	462b      	mov	r3, r5
 801307a:	2201      	movs	r2, #1
 801307c:	2120      	movs	r1, #32
 801307e:	4668      	mov	r0, sp
 8013080:	f006 fa46 	bl	8019510 <fl_fread>
 8013084:	2220      	movs	r2, #32
 8013086:	4669      	mov	r1, sp
 8013088:	4620      	mov	r0, r4
 801308a:	f003 fb05 	bl	8016698 <hexDump2>
 801308e:	2220      	movs	r2, #32
 8013090:	2100      	movs	r1, #0
 8013092:	4668      	mov	r0, sp
 8013094:	f7ff fc25 	bl	80128e2 <memset>
 8013098:	3420      	adds	r4, #32
 801309a:	e7eb      	b.n	8013074 <xsh_dump+0x3c>
 801309c:	4621      	mov	r1, r4
 801309e:	480a      	ldr	r0, [pc, #40]	; (80130c8 <xsh_dump+0x90>)
 80130a0:	f7fd f9fa 	bl	8010498 <printf>
 80130a4:	f04f 30ff 	mov.w	r0, #4294967295	; 0xffffffff
 80130a8:	e005      	b.n	80130b6 <xsh_dump+0x7e>
 80130aa:	4628      	mov	r0, r5
 80130ac:	f006 f9fa 	bl	80194a4 <fl_fclose>
 80130b0:	f000 f8dc 	bl	801326c <update_path>
 80130b4:	2000      	movs	r0, #0
 80130b6:	b008      	add	sp, #32
 80130b8:	bd70      	pop	{r4, r5, r6, pc}
 80130ba:	f04f 30ff 	mov.w	r0, #4294967295	; 0xffffffff
 80130be:	e7fa      	b.n	80130b6 <xsh_dump+0x7e>
 80130c0:	0801b07c 	.word	0x0801b07c
 80130c4:	0801ad64 	.word	0x0801ad64
 80130c8:	0801afac 	.word	0x0801afac

080130cc <xsh_mkdir>:
 80130cc:	b510      	push	{r4, lr}
 80130ce:	b084      	sub	sp, #16
 80130d0:	6848      	ldr	r0, [r1, #4]
 80130d2:	f000 f8d5 	bl	8013280 <full_path>
 80130d6:	b198      	cbz	r0, 8013100 <xsh_mkdir+0x34>
 80130d8:	4604      	mov	r4, r0
 80130da:	a901      	add	r1, sp, #4
 80130dc:	f006 fc80 	bl	80199e0 <fl_opendir>
 80130e0:	b148      	cbz	r0, 80130f6 <xsh_mkdir+0x2a>
 80130e2:	a801      	add	r0, sp, #4
 80130e4:	f006 fd10 	bl	8019b08 <fl_closedir>
 80130e8:	4621      	mov	r1, r4
 80130ea:	4807      	ldr	r0, [pc, #28]	; (8013108 <xsh_mkdir+0x3c>)
 80130ec:	f7fd f9d4 	bl	8010498 <printf>
 80130f0:	2000      	movs	r0, #0
 80130f2:	b004      	add	sp, #16
 80130f4:	bd10      	pop	{r4, pc}
 80130f6:	4620      	mov	r0, r4
 80130f8:	f006 fc58 	bl	80199ac <fl_createdirectory>
 80130fc:	2000      	movs	r0, #0
 80130fe:	e7f8      	b.n	80130f2 <xsh_mkdir+0x26>
 8013100:	f04f 30ff 	mov.w	r0, #4294967295	; 0xffffffff
 8013104:	e7f5      	b.n	80130f2 <xsh_mkdir+0x26>
 8013106:	bf00      	nop
 8013108:	0801ad74 	.word	0x0801ad74

0801310c <xsh_pwd>:
 801310c:	b508      	push	{r3, lr}
 801310e:	4804      	ldr	r0, [pc, #16]	; (8013120 <xsh_pwd+0x14>)
 8013110:	f000 f8b6 	bl	8013280 <full_path>
 8013114:	4601      	mov	r1, r0
 8013116:	4803      	ldr	r0, [pc, #12]	; (8013124 <xsh_pwd+0x18>)
 8013118:	f7fd f9be 	bl	8010498 <printf>
 801311c:	2000      	movs	r0, #0
 801311e:	bd08      	pop	{r3, pc}
 8013120:	0801af88 	.word	0x0801af88
 8013124:	0801ad84 	.word	0x0801ad84

08013128 <xsh_cat>:
 8013128:	2801      	cmp	r0, #1
 801312a:	dd58      	ble.n	80131de <xsh_cat+0xb6>
 801312c:	b5f8      	push	{r3, r4, r5, r6, r7, lr}
 801312e:	4606      	mov	r6, r0
 8013130:	460f      	mov	r7, r1
 8013132:	f100 4380 	add.w	r3, r0, #1073741824	; 0x40000000
 8013136:	3b02      	subs	r3, #2
 8013138:	492d      	ldr	r1, [pc, #180]	; (80131f0 <xsh_cat+0xc8>)
 801313a:	f857 0023 	ldr.w	r0, [r7, r3, lsl #2]
 801313e:	f7ff fc1d 	bl	801297c <strcmp>
 8013142:	bb60      	cbnz	r0, 801319e <xsh_cat+0x76>
 8013144:	f106 4380 	add.w	r3, r6, #1073741824	; 0x40000000
 8013148:	3b01      	subs	r3, #1
 801314a:	f857 0023 	ldr.w	r0, [r7, r3, lsl #2]
 801314e:	f000 f897 	bl	8013280 <full_path>
 8013152:	4605      	mov	r5, r0
 8013154:	2800      	cmp	r0, #0
 8013156:	d045      	beq.n	80131e4 <xsh_cat+0xbc>
 8013158:	4926      	ldr	r1, [pc, #152]	; (80131f4 <xsh_cat+0xcc>)
 801315a:	f006 f887 	bl	801926c <fl_fopen>
 801315e:	4604      	mov	r4, r0
 8013160:	b108      	cbz	r0, 8013166 <xsh_cat+0x3e>
 8013162:	2501      	movs	r5, #1
 8013164:	e00e      	b.n	8013184 <xsh_cat+0x5c>
 8013166:	4629      	mov	r1, r5
 8013168:	4823      	ldr	r0, [pc, #140]	; (80131f8 <xsh_cat+0xd0>)
 801316a:	f7fd f995 	bl	8010498 <printf>
 801316e:	e00c      	b.n	801318a <xsh_cat+0x62>
 8013170:	4621      	mov	r1, r4
 8013172:	f857 0025 	ldr.w	r0, [r7, r5, lsl #2]
 8013176:	f006 fbd7 	bl	8019928 <fl_fputs>
 801317a:	4621      	mov	r1, r4
 801317c:	481f      	ldr	r0, [pc, #124]	; (80131fc <xsh_cat+0xd4>)
 801317e:	f006 fbd3 	bl	8019928 <fl_fputs>
 8013182:	3501      	adds	r5, #1
 8013184:	1eb3      	subs	r3, r6, #2
 8013186:	42ab      	cmp	r3, r5
 8013188:	dcf2      	bgt.n	8013170 <xsh_cat+0x48>
 801318a:	481d      	ldr	r0, [pc, #116]	; (8013200 <xsh_cat+0xd8>)
 801318c:	f7fd f984 	bl	8010498 <printf>
 8013190:	4620      	mov	r0, r4
 8013192:	f006 f987 	bl	80194a4 <fl_fclose>
 8013196:	f000 f869 	bl	801326c <update_path>
 801319a:	2000      	movs	r0, #0
 801319c:	bdf8      	pop	{r3, r4, r5, r6, r7, pc}
 801319e:	f106 4680 	add.w	r6, r6, #1073741824	; 0x40000000
 80131a2:	3e01      	subs	r6, #1
 80131a4:	f857 0026 	ldr.w	r0, [r7, r6, lsl #2]
 80131a8:	f000 f86a 	bl	8013280 <full_path>
 80131ac:	4605      	mov	r5, r0
 80131ae:	b1e0      	cbz	r0, 80131ea <xsh_cat+0xc2>
 80131b0:	4914      	ldr	r1, [pc, #80]	; (8013204 <xsh_cat+0xdc>)
 80131b2:	f006 f85b 	bl	801926c <fl_fopen>
 80131b6:	4604      	mov	r4, r0
 80131b8:	b958      	cbnz	r0, 80131d2 <xsh_cat+0xaa>
 80131ba:	4629      	mov	r1, r5
 80131bc:	4812      	ldr	r0, [pc, #72]	; (8013208 <xsh_cat+0xe0>)
 80131be:	f7fd f96b 	bl	8010498 <printf>
 80131c2:	e7e2      	b.n	801318a <xsh_cat+0x62>
 80131c4:	4620      	mov	r0, r4
 80131c6:	f006 fa27 	bl	8019618 <fl_fgetc>
 80131ca:	b2c1      	uxtb	r1, r0
 80131cc:	2000      	movs	r0, #0
 80131ce:	f002 ff17 	bl	8016000 <putc>
 80131d2:	4620      	mov	r0, r4
 80131d4:	f006 facb 	bl	801976e <fl_feof>
 80131d8:	2800      	cmp	r0, #0
 80131da:	d0f3      	beq.n	80131c4 <xsh_cat+0x9c>
 80131dc:	e7d5      	b.n	801318a <xsh_cat+0x62>
 80131de:	f04f 30ff 	mov.w	r0, #4294967295	; 0xffffffff
 80131e2:	4770      	bx	lr
 80131e4:	f04f 30ff 	mov.w	r0, #4294967295	; 0xffffffff
 80131e8:	e7d8      	b.n	801319c <xsh_cat+0x74>
 80131ea:	f04f 30ff 	mov.w	r0, #4294967295	; 0xffffffff
 80131ee:	e7d5      	b.n	801319c <xsh_cat+0x74>
 80131f0:	0801ad88 	.word	0x0801ad88
 80131f4:	0801ad8c 	.word	0x0801ad8c
 80131f8:	0801ad90 	.word	0x0801ad90
 80131fc:	0801ac0c 	.word	0x0801ac0c
 8013200:	0801ac50 	.word	0x0801ac50
 8013204:	0801b07c 	.word	0x0801b07c
 8013208:	0801afac 	.word	0x0801afac

0801320c <xsh_test>:
 801320c:	b538      	push	{r3, r4, r5, lr}
 801320e:	4813      	ldr	r0, [pc, #76]	; (801325c <xsh_test+0x50>)
 8013210:	f7fd f942 	bl	8010498 <printf>
 8013214:	f003 fbd6 	bl	80169c4 <heap_free>
 8013218:	4601      	mov	r1, r0
 801321a:	4c11      	ldr	r4, [pc, #68]	; (8013260 <xsh_test+0x54>)
 801321c:	4620      	mov	r0, r4
 801321e:	f002 fa3b 	bl	8015698 <kprintf>
 8013222:	f644 6020 	movw	r0, #20000	; 0x4e20
 8013226:	f7fe ffb5 	bl	8012194 <malloc>
 801322a:	4605      	mov	r5, r0
 801322c:	480d      	ldr	r0, [pc, #52]	; (8013264 <xsh_test+0x58>)
 801322e:	f7fd f933 	bl	8010498 <printf>
 8013232:	f003 fbc7 	bl	80169c4 <heap_free>
 8013236:	4601      	mov	r1, r0
 8013238:	4620      	mov	r0, r4
 801323a:	f002 fa2d 	bl	8015698 <kprintf>
 801323e:	4628      	mov	r0, r5
 8013240:	f7fe ffba 	bl	80121b8 <free>
 8013244:	4808      	ldr	r0, [pc, #32]	; (8013268 <xsh_test+0x5c>)
 8013246:	f7fd f927 	bl	8010498 <printf>
 801324a:	f003 fbbb 	bl	80169c4 <heap_free>
 801324e:	4601      	mov	r1, r0
 8013250:	4620      	mov	r0, r4
 8013252:	f002 fa21 	bl	8015698 <kprintf>
 8013256:	2000      	movs	r0, #0
 8013258:	bd38      	pop	{r3, r4, r5, pc}
 801325a:	bf00      	nop
 801325c:	0801ad9c 	.word	0x0801ad9c
 8013260:	0801adb0 	.word	0x0801adb0
 8013264:	0801adc0 	.word	0x0801adc0
 8013268:	0801adcc 	.word	0x0801adcc

0801326c <update_path>:
 801326c:	b508      	push	{r3, lr}
 801326e:	4902      	ldr	r1, [pc, #8]	; (8013278 <update_path+0xc>)
 8013270:	4802      	ldr	r0, [pc, #8]	; (801327c <update_path+0x10>)
 8013272:	f7ff fc09 	bl	8012a88 <strcpy>
 8013276:	bd08      	pop	{r3, pc}
 8013278:	200010fc 	.word	0x200010fc
 801327c:	2000107c 	.word	0x2000107c

08013280 <full_path>:
 8013280:	b538      	push	{r3, r4, r5, lr}
 8013282:	4604      	mov	r4, r0
 8013284:	b1a8      	cbz	r0, 80132b2 <full_path+0x32>
 8013286:	7803      	ldrb	r3, [r0, #0]
 8013288:	2b2f      	cmp	r3, #47	; 0x2f
 801328a:	d013      	beq.n	80132b4 <full_path+0x34>
 801328c:	2202      	movs	r2, #2
 801328e:	491b      	ldr	r1, [pc, #108]	; (80132fc <full_path+0x7c>)
 8013290:	f7ff fb88 	bl	80129a4 <strncmp>
 8013294:	b900      	cbnz	r0, 8013298 <full_path+0x18>
 8013296:	3402      	adds	r4, #2
 8013298:	4919      	ldr	r1, [pc, #100]	; (8013300 <full_path+0x80>)
 801329a:	481a      	ldr	r0, [pc, #104]	; (8013304 <full_path+0x84>)
 801329c:	f7ff fbf4 	bl	8012a88 <strcpy>
 80132a0:	2203      	movs	r2, #3
 80132a2:	4919      	ldr	r1, [pc, #100]	; (8013308 <full_path+0x88>)
 80132a4:	4620      	mov	r0, r4
 80132a6:	f7ff fb7d 	bl	80129a4 <strncmp>
 80132aa:	b188      	cbz	r0, 80132d0 <full_path+0x50>
 80132ac:	7823      	ldrb	r3, [r4, #0]
 80132ae:	b943      	cbnz	r3, 80132c2 <full_path+0x42>
 80132b0:	4814      	ldr	r0, [pc, #80]	; (8013304 <full_path+0x84>)
 80132b2:	bd38      	pop	{r3, r4, r5, pc}
 80132b4:	4d13      	ldr	r5, [pc, #76]	; (8013304 <full_path+0x84>)
 80132b6:	4601      	mov	r1, r0
 80132b8:	4628      	mov	r0, r5
 80132ba:	f7ff fbe5 	bl	8012a88 <strcpy>
 80132be:	4628      	mov	r0, r5
 80132c0:	e7f7      	b.n	80132b2 <full_path+0x32>
 80132c2:	4d10      	ldr	r5, [pc, #64]	; (8013304 <full_path+0x84>)
 80132c4:	4621      	mov	r1, r4
 80132c6:	4628      	mov	r0, r5
 80132c8:	f7ff fbf8 	bl	8012abc <strcat>
 80132cc:	4628      	mov	r0, r5
 80132ce:	e7f0      	b.n	80132b2 <full_path+0x32>
 80132d0:	1ce5      	adds	r5, r4, #3
 80132d2:	212f      	movs	r1, #47	; 0x2f
 80132d4:	480b      	ldr	r0, [pc, #44]	; (8013304 <full_path+0x84>)
 80132d6:	f7ff fc47 	bl	8012b68 <strrchr>
 80132da:	b108      	cbz	r0, 80132e0 <full_path+0x60>
 80132dc:	2200      	movs	r2, #0
 80132de:	7002      	strb	r2, [r0, #0]
 80132e0:	212f      	movs	r1, #47	; 0x2f
 80132e2:	4808      	ldr	r0, [pc, #32]	; (8013304 <full_path+0x84>)
 80132e4:	f7ff fc40 	bl	8012b68 <strrchr>
 80132e8:	b108      	cbz	r0, 80132ee <full_path+0x6e>
 80132ea:	2200      	movs	r2, #0
 80132ec:	7042      	strb	r2, [r0, #1]
 80132ee:	4c05      	ldr	r4, [pc, #20]	; (8013304 <full_path+0x84>)
 80132f0:	4629      	mov	r1, r5
 80132f2:	4620      	mov	r0, r4
 80132f4:	f7ff fbe2 	bl	8012abc <strcat>
 80132f8:	4620      	mov	r0, r4
 80132fa:	e7da      	b.n	80132b2 <full_path+0x32>
 80132fc:	0801add4 	.word	0x0801add4
 8013300:	200010fc 	.word	0x200010fc
 8013304:	2000107c 	.word	0x2000107c
 8013308:	0801add8 	.word	0x0801add8

0801330c <shell>:
 801330c:	b5f0      	push	{r4, r5, r6, r7, lr}
 801330e:	f5ad 7d07 	sub.w	sp, sp, #540	; 0x21c
 8013312:	4c84      	ldr	r4, [pc, #528]	; (8013524 <shell+0x218>)
 8013314:	4984      	ldr	r1, [pc, #528]	; (8013528 <shell+0x21c>)
 8013316:	4620      	mov	r0, r4
 8013318:	f7ff fbb6 	bl	8012a88 <strcpy>
 801331c:	4621      	mov	r1, r4
 801331e:	4883      	ldr	r0, [pc, #524]	; (801352c <shell+0x220>)
 8013320:	f7ff fbb2 	bl	8012a88 <strcpy>
 8013324:	4b82      	ldr	r3, [pc, #520]	; (8013530 <shell+0x224>)
 8013326:	4a83      	ldr	r2, [pc, #524]	; (8013534 <shell+0x228>)
 8013328:	9208      	str	r2, [sp, #32]
 801332a:	9307      	str	r3, [sp, #28]
 801332c:	4a82      	ldr	r2, [pc, #520]	; (8013538 <shell+0x22c>)
 801332e:	9206      	str	r2, [sp, #24]
 8013330:	4a82      	ldr	r2, [pc, #520]	; (801353c <shell+0x230>)
 8013332:	9205      	str	r2, [sp, #20]
 8013334:	4a82      	ldr	r2, [pc, #520]	; (8013540 <shell+0x234>)
 8013336:	9204      	str	r2, [sp, #16]
 8013338:	4a82      	ldr	r2, [pc, #520]	; (8013544 <shell+0x238>)
 801333a:	9203      	str	r2, [sp, #12]
 801333c:	4a82      	ldr	r2, [pc, #520]	; (8013548 <shell+0x23c>)
 801333e:	9202      	str	r2, [sp, #8]
 8013340:	4a82      	ldr	r2, [pc, #520]	; (801354c <shell+0x240>)
 8013342:	9201      	str	r2, [sp, #4]
 8013344:	4a82      	ldr	r2, [pc, #520]	; (8013550 <shell+0x244>)
 8013346:	9200      	str	r2, [sp, #0]
 8013348:	4a82      	ldr	r2, [pc, #520]	; (8013554 <shell+0x248>)
 801334a:	4983      	ldr	r1, [pc, #524]	; (8013558 <shell+0x24c>)
 801334c:	2000      	movs	r0, #0
 801334e:	f7fd fd75 	bl	8010e3c <fprintf>
 8013352:	4a82      	ldr	r2, [pc, #520]	; (801355c <shell+0x250>)
 8013354:	4982      	ldr	r1, [pc, #520]	; (8013560 <shell+0x254>)
 8013356:	2000      	movs	r0, #0
 8013358:	f7fd fd70 	bl	8010e3c <fprintf>
 801335c:	e009      	b.n	8013372 <shell+0x66>
 801335e:	4a81      	ldr	r2, [pc, #516]	; (8013564 <shell+0x258>)
 8013360:	4981      	ldr	r1, [pc, #516]	; (8013568 <shell+0x25c>)
 8013362:	2000      	movs	r0, #0
 8013364:	f7fd fd6a 	bl	8010e3c <fprintf>
 8013368:	e003      	b.n	8013372 <shell+0x66>
 801336a:	4980      	ldr	r1, [pc, #512]	; (801356c <shell+0x260>)
 801336c:	2000      	movs	r0, #0
 801336e:	f7fd fd65 	bl	8010e3c <fprintf>
 8013372:	497f      	ldr	r1, [pc, #508]	; (8013570 <shell+0x264>)
 8013374:	2000      	movs	r0, #0
 8013376:	f7fd fd61 	bl	8010e3c <fprintf>
 801337a:	2221      	movs	r2, #33	; 0x21
 801337c:	a97d      	add	r1, sp, #500	; 0x1f4
 801337e:	2000      	movs	r0, #0
 8013380:	f002 fe5a 	bl	8016038 <read>
 8013384:	4601      	mov	r1, r0
 8013386:	f110 0f02 	cmn.w	r0, #2
 801338a:	f000 8081 	beq.w	8013490 <shell+0x184>
 801338e:	2801      	cmp	r0, #1
 8013390:	ddef      	ble.n	8013372 <shell+0x66>
 8013392:	ab86      	add	r3, sp, #536	; 0x218
 8013394:	4403      	add	r3, r0
 8013396:	220a      	movs	r2, #10
 8013398:	f803 2c24 	strb.w	r2, [r3, #-36]
 801339c:	ab2b      	add	r3, sp, #172	; 0xac
 801339e:	9301      	str	r3, [sp, #4]
 80133a0:	ab4b      	add	r3, sp, #300	; 0x12c
 80133a2:	9300      	str	r3, [sp, #0]
 80133a4:	ab6b      	add	r3, sp, #428	; 0x1ac
 80133a6:	aa6c      	add	r2, sp, #432	; 0x1b0
 80133a8:	a87d      	add	r0, sp, #500	; 0x1f4
 80133aa:	f000 f92d 	bl	8013608 <lexan>
 80133ae:	4604      	mov	r4, r0
 80133b0:	f1b0 3fff 	cmp.w	r0, #4294967295	; 0xffffffff
 80133b4:	d0d3      	beq.n	801335e <shell+0x52>
 80133b6:	2800      	cmp	r0, #0
 80133b8:	d0d7      	beq.n	801336a <shell+0x5e>
 80133ba:	1e43      	subs	r3, r0, #1
 80133bc:	aa2b      	add	r2, sp, #172	; 0xac
 80133be:	f852 2023 	ldr.w	r2, [r2, r3, lsl #2]
 80133c2:	b972      	cbnz	r2, 80133e2 <shell+0xd6>
 80133c4:	9a6b      	ldr	r2, [sp, #428]	; 0x1ac
 80133c6:	3a02      	subs	r2, #2
 80133c8:	926b      	str	r2, [sp, #428]	; 0x1ac
 80133ca:	461c      	mov	r4, r3
 80133cc:	2501      	movs	r5, #1
 80133ce:	2300      	movs	r3, #0
 80133d0:	429c      	cmp	r4, r3
 80133d2:	dd08      	ble.n	80133e6 <shell+0xda>
 80133d4:	aa2b      	add	r2, sp, #172	; 0xac
 80133d6:	f852 2023 	ldr.w	r2, [r2, r3, lsl #2]
 80133da:	2a03      	cmp	r2, #3
 80133dc:	d103      	bne.n	80133e6 <shell+0xda>
 80133de:	3301      	adds	r3, #1
 80133e0:	e7f6      	b.n	80133d0 <shell+0xc4>
 80133e2:	2500      	movs	r5, #0
 80133e4:	e7f3      	b.n	80133ce <shell+0xc2>
 80133e6:	b10c      	cbz	r4, 80133ec <shell+0xe0>
 80133e8:	429c      	cmp	r4, r3
 80133ea:	dd37      	ble.n	801345c <shell+0x150>
 80133ec:	495d      	ldr	r1, [pc, #372]	; (8013564 <shell+0x258>)
 80133ee:	2000      	movs	r0, #0
 80133f0:	f7fd fd24 	bl	8010e3c <fprintf>
 80133f4:	e7bd      	b.n	8013372 <shell+0x66>
 80133f6:	2301      	movs	r3, #1
 80133f8:	b9db      	cbnz	r3, 8013432 <shell+0x126>
 80133fa:	7813      	ldrb	r3, [r2, #0]
 80133fc:	b9cb      	cbnz	r3, 8013432 <shell+0x126>
 80133fe:	45bc      	cmp	ip, r7
 8013400:	d22e      	bcs.n	8013460 <shell+0x154>
 8013402:	eb06 0346 	add.w	r3, r6, r6, lsl #1
 8013406:	4a5b      	ldr	r2, [pc, #364]	; (8013574 <shell+0x268>)
 8013408:	eb02 0383 	add.w	r3, r2, r3, lsl #2
 801340c:	791b      	ldrb	r3, [r3, #4]
 801340e:	2b00      	cmp	r3, #0
 8013410:	d046      	beq.n	80134a0 <shell+0x194>
 8013412:	bb5d      	cbnz	r5, 801346c <shell+0x160>
 8013414:	2300      	movs	r3, #0
 8013416:	429c      	cmp	r4, r3
 8013418:	dd2d      	ble.n	8013476 <shell+0x16a>
 801341a:	aa86      	add	r2, sp, #536	; 0x218
 801341c:	eb02 0283 	add.w	r2, r2, r3, lsl #2
 8013420:	f852 2cec 	ldr.w	r2, [r2, #-236]
 8013424:	a96c      	add	r1, sp, #432	; 0x1b0
 8013426:	440a      	add	r2, r1
 8013428:	a90a      	add	r1, sp, #40	; 0x28
 801342a:	f841 2023 	str.w	r2, [r1, r3, lsl #2]
 801342e:	3301      	adds	r3, #1
 8013430:	e7f1      	b.n	8013416 <shell+0x10a>
 8013432:	3601      	adds	r6, #1
 8013434:	46b4      	mov	ip, r6
 8013436:	4b50      	ldr	r3, [pc, #320]	; (8013578 <shell+0x26c>)
 8013438:	681f      	ldr	r7, [r3, #0]
 801343a:	42be      	cmp	r6, r7
 801343c:	d2df      	bcs.n	80133fe <shell+0xf2>
 801343e:	eb06 0346 	add.w	r3, r6, r6, lsl #1
 8013442:	4a4c      	ldr	r2, [pc, #304]	; (8013574 <shell+0x268>)
 8013444:	f852 1023 	ldr.w	r1, [r2, r3, lsl #2]
 8013448:	aa6c      	add	r2, sp, #432	; 0x1b0
 801344a:	780b      	ldrb	r3, [r1, #0]
 801344c:	2b00      	cmp	r3, #0
 801344e:	d0d3      	beq.n	80133f8 <shell+0xec>
 8013450:	7810      	ldrb	r0, [r2, #0]
 8013452:	4298      	cmp	r0, r3
 8013454:	d1cf      	bne.n	80133f6 <shell+0xea>
 8013456:	3101      	adds	r1, #1
 8013458:	3201      	adds	r2, #1
 801345a:	e7f6      	b.n	801344a <shell+0x13e>
 801345c:	2600      	movs	r6, #0
 801345e:	e7e9      	b.n	8013434 <shell+0x128>
 8013460:	aa6c      	add	r2, sp, #432	; 0x1b0
 8013462:	4946      	ldr	r1, [pc, #280]	; (801357c <shell+0x270>)
 8013464:	2000      	movs	r0, #0
 8013466:	f7fd fce9 	bl	8010e3c <fprintf>
 801346a:	e782      	b.n	8013372 <shell+0x66>
 801346c:	4944      	ldr	r1, [pc, #272]	; (8013580 <shell+0x274>)
 801346e:	2000      	movs	r0, #0
 8013470:	f7fd fce4 	bl	8010e3c <fprintf>
 8013474:	e77d      	b.n	8013372 <shell+0x66>
 8013476:	eb06 0646 	add.w	r6, r6, r6, lsl #1
 801347a:	4b3e      	ldr	r3, [pc, #248]	; (8013574 <shell+0x268>)
 801347c:	eb03 0386 	add.w	r3, r3, r6, lsl #2
 8013480:	689b      	ldr	r3, [r3, #8]
 8013482:	a90a      	add	r1, sp, #40	; 0x28
 8013484:	4620      	mov	r0, r4
 8013486:	4798      	blx	r3
 8013488:	f110 0f03 	cmn.w	r0, #3
 801348c:	f47f af71 	bne.w	8013372 <shell+0x66>
 8013490:	493c      	ldr	r1, [pc, #240]	; (8013584 <shell+0x278>)
 8013492:	2000      	movs	r0, #0
 8013494:	f7fd fcd2 	bl	8010e3c <fprintf>
 8013498:	2001      	movs	r0, #1
 801349a:	f50d 7d07 	add.w	sp, sp, #540	; 0x21c
 801349e:	bdf0      	pop	{r4, r5, r6, r7, pc}
 80134a0:	4b34      	ldr	r3, [pc, #208]	; (8013574 <shell+0x268>)
 80134a2:	eb06 0046 	add.w	r0, r6, r6, lsl #1
 80134a6:	eb03 0080 	add.w	r0, r3, r0, lsl #2
 80134aa:	eb06 0646 	add.w	r6, r6, r6, lsl #1
 80134ae:	aa2a      	add	r2, sp, #168	; 0xa8
 80134b0:	9202      	str	r2, [sp, #8]
 80134b2:	9401      	str	r4, [sp, #4]
 80134b4:	2202      	movs	r2, #2
 80134b6:	9200      	str	r2, [sp, #0]
 80134b8:	f853 3026 	ldr.w	r3, [r3, r6, lsl #2]
 80134bc:	2214      	movs	r2, #20
 80134be:	f44f 6100 	mov.w	r1, #2048	; 0x800
 80134c2:	6880      	ldr	r0, [r0, #8]
 80134c4:	f001 fd04 	bl	8014ed0 <create>
 80134c8:	4606      	mov	r6, r0
 80134ca:	f1b0 3fff 	cmp.w	r0, #4294967295	; 0xffffffff
 80134ce:	d023      	beq.n	8013518 <shell+0x20c>
 80134d0:	ab2a      	add	r3, sp, #168	; 0xa8
 80134d2:	9301      	str	r3, [sp, #4]
 80134d4:	ab6c      	add	r3, sp, #432	; 0x1b0
 80134d6:	9300      	str	r3, [sp, #0]
 80134d8:	9b6b      	ldr	r3, [sp, #428]	; 0x1ac
 80134da:	aa4b      	add	r2, sp, #300	; 0x12c
 80134dc:	4621      	mov	r1, r4
 80134de:	f000 f9eb 	bl	80138b8 <addargs>
 80134e2:	f1b0 3fff 	cmp.w	r0, #4294967295	; 0xffffffff
 80134e6:	d017      	beq.n	8013518 <shell+0x20c>
 80134e8:	eb06 0286 	add.w	r2, r6, r6, lsl #2
 80134ec:	4b26      	ldr	r3, [pc, #152]	; (8013588 <shell+0x27c>)
 80134ee:	eb03 1302 	add.w	r3, r3, r2, lsl #4
 80134f2:	2200      	movs	r2, #0
 80134f4:	865a      	strh	r2, [r3, #50]	; 0x32
 80134f6:	869a      	strh	r2, [r3, #52]	; 0x34
 80134f8:	f002 fe7e 	bl	80161f8 <recvclr>
 80134fc:	4630      	mov	r0, r6
 80134fe:	f002 f85d 	bl	80155bc <resume>
 8013502:	2d00      	cmp	r5, #0
 8013504:	f47f af35 	bne.w	8013372 <shell+0x66>
 8013508:	f002 fe4e 	bl	80161a8 <receive>
 801350c:	42b0      	cmp	r0, r6
 801350e:	f43f af30 	beq.w	8013372 <shell+0x66>
 8013512:	f002 fe49 	bl	80161a8 <receive>
 8013516:	e7f9      	b.n	801350c <shell+0x200>
 8013518:	491c      	ldr	r1, [pc, #112]	; (801358c <shell+0x280>)
 801351a:	2000      	movs	r0, #0
 801351c:	f7fd fc8e 	bl	8010e3c <fprintf>
 8013520:	e727      	b.n	8013372 <shell+0x66>
 8013522:	bf00      	nop
 8013524:	2000107c 	.word	0x2000107c
 8013528:	0801b344 	.word	0x0801b344
 801352c:	200010fc 	.word	0x200010fc
 8013530:	0801addc 	.word	0x0801addc
 8013534:	0801ae34 	.word	0x0801ae34
 8013538:	0801ae3c 	.word	0x0801ae3c
 801353c:	0801ae68 	.word	0x0801ae68
 8013540:	0801ae94 	.word	0x0801ae94
 8013544:	0801aec0 	.word	0x0801aec0
 8013548:	0801aeec 	.word	0x0801aeec
 801354c:	0801af18 	.word	0x0801af18
 8013550:	0801af44 	.word	0x0801af44
 8013554:	0801ae08 	.word	0x0801ae08
 8013558:	0801ae10 	.word	0x0801ae10
 801355c:	0801af70 	.word	0x0801af70
 8013560:	0801af84 	.word	0x0801af84
 8013564:	0801af94 	.word	0x0801af94
 8013568:	0801ad84 	.word	0x0801ad84
 801356c:	0801ac50 	.word	0x0801ac50
 8013570:	0801af8c 	.word	0x0801af8c
 8013574:	0801a81c 	.word	0x0801a81c
 8013578:	20000084 	.word	0x20000084
 801357c:	0801afa4 	.word	0x0801afa4
 8013580:	0801afbc 	.word	0x0801afbc
 8013584:	0801b004 	.word	0x0801b004
 8013588:	2000129c 	.word	0x2000129c
 801358c:	0801afec 	.word	0x0801afec

08013590 <xsh_run>:
 8013590:	b570      	push	{r4, r5, r6, lr}
 8013592:	b088      	sub	sp, #32
 8013594:	4605      	mov	r5, r0
 8013596:	460c      	mov	r4, r1
 8013598:	f003 fa20 	bl	80169dc <disable>
 801359c:	6860      	ldr	r0, [r4, #4]
 801359e:	f7ff fe6f 	bl	8013280 <full_path>
 80135a2:	b350      	cbz	r0, 80135fa <xsh_run+0x6a>
 80135a4:	4606      	mov	r6, r0
 80135a6:	a904      	add	r1, sp, #16
 80135a8:	f7fd fd06 	bl	8010fb8 <elf_execve>
 80135ac:	2800      	cmp	r0, #0
 80135ae:	dd1c      	ble.n	80135ea <xsh_run+0x5a>
 80135b0:	9402      	str	r4, [sp, #8]
 80135b2:	9501      	str	r5, [sp, #4]
 80135b4:	2302      	movs	r3, #2
 80135b6:	9300      	str	r3, [sp, #0]
 80135b8:	4633      	mov	r3, r6
 80135ba:	2214      	movs	r2, #20
 80135bc:	f44f 6100 	mov.w	r1, #2048	; 0x800
 80135c0:	f001 fc86 	bl	8014ed0 <create>
 80135c4:	4604      	mov	r4, r0
 80135c6:	eb00 0280 	add.w	r2, r0, r0, lsl #2
 80135ca:	4b0d      	ldr	r3, [pc, #52]	; (8013600 <xsh_run+0x70>)
 80135cc:	eb03 1302 	add.w	r3, r3, r2, lsl #4
 80135d0:	2201      	movs	r2, #1
 80135d2:	f883 2038 	strb.w	r2, [r3, #56]	; 0x38
 80135d6:	9a04      	ldr	r2, [sp, #16]
 80135d8:	63da      	str	r2, [r3, #60]	; 0x3c
 80135da:	f7ff fe47 	bl	801326c <update_path>
 80135de:	4620      	mov	r0, r4
 80135e0:	f001 ffec 	bl	80155bc <resume>
 80135e4:	2000      	movs	r0, #0
 80135e6:	b008      	add	sp, #32
 80135e8:	bd70      	pop	{r4, r5, r6, pc}
 80135ea:	4632      	mov	r2, r6
 80135ec:	4601      	mov	r1, r0
 80135ee:	4805      	ldr	r0, [pc, #20]	; (8013604 <xsh_run+0x74>)
 80135f0:	f7fc ff52 	bl	8010498 <printf>
 80135f4:	f04f 30ff 	mov.w	r0, #4294967295	; 0xffffffff
 80135f8:	e7f5      	b.n	80135e6 <xsh_run+0x56>
 80135fa:	f04f 30ff 	mov.w	r0, #4294967295	; 0xffffffff
 80135fe:	e7f2      	b.n	80135e6 <xsh_run+0x56>
 8013600:	2000129c 	.word	0x2000129c
 8013604:	0801b0a4 	.word	0x0801b0a4

08013608 <lexan>:
 8013608:	b5f0      	push	{r4, r5, r6, r7, lr}
 801360a:	469c      	mov	ip, r3
 801360c:	9b05      	ldr	r3, [sp, #20]
 801360e:	9f06      	ldr	r7, [sp, #24]
 8013610:	2400      	movs	r4, #0
 8013612:	4626      	mov	r6, r4
 8013614:	e02a      	b.n	801366c <lexan+0x64>
 8013616:	3001      	adds	r0, #1
 8013618:	7801      	ldrb	r1, [r0, #0]
 801361a:	2920      	cmp	r1, #32
 801361c:	d0fb      	beq.n	8013616 <lexan+0xe>
 801361e:	2909      	cmp	r1, #9
 8013620:	d0f9      	beq.n	8013616 <lexan+0xe>
 8013622:	290a      	cmp	r1, #10
 8013624:	d013      	beq.n	801364e <lexan+0x46>
 8013626:	b191      	cbz	r1, 801364e <lexan+0x46>
 8013628:	00b5      	lsls	r5, r6, #2
 801362a:	f843 4026 	str.w	r4, [r3, r6, lsl #2]
 801362e:	2926      	cmp	r1, #38	; 0x26
 8013630:	d011      	beq.n	8013656 <lexan+0x4e>
 8013632:	293c      	cmp	r1, #60	; 0x3c
 8013634:	d024      	beq.n	8013680 <lexan+0x78>
 8013636:	f04f 0e03 	mov.w	lr, #3
 801363a:	f847 e005 	str.w	lr, [r7, r5]
 801363e:	2927      	cmp	r1, #39	; 0x27
 8013640:	d02d      	beq.n	801369e <lexan+0x96>
 8013642:	2922      	cmp	r1, #34	; 0x22
 8013644:	d02b      	beq.n	801369e <lexan+0x96>
 8013646:	1c65      	adds	r5, r4, #1
 8013648:	5511      	strb	r1, [r2, r4]
 801364a:	3001      	adds	r0, #1
 801364c:	e03d      	b.n	80136ca <lexan+0xc2>
 801364e:	f8cc 4000 	str.w	r4, [ip]
 8013652:	4630      	mov	r0, r6
 8013654:	e05b      	b.n	801370e <lexan+0x106>
 8013656:	f04f 0e00 	mov.w	lr, #0
 801365a:	f847 e026 	str.w	lr, [r7, r6, lsl #2]
 801365e:	1c65      	adds	r5, r4, #1
 8013660:	5511      	strb	r1, [r2, r4]
 8013662:	f802 e005 	strb.w	lr, [r2, r5]
 8013666:	3402      	adds	r4, #2
 8013668:	3601      	adds	r6, #1
 801366a:	3001      	adds	r0, #1
 801366c:	7801      	ldrb	r1, [r0, #0]
 801366e:	2900      	cmp	r1, #0
 8013670:	d04a      	beq.n	8013708 <lexan+0x100>
 8013672:	290a      	cmp	r1, #10
 8013674:	d048      	beq.n	8013708 <lexan+0x100>
 8013676:	2e1f      	cmp	r6, #31
 8013678:	d9ce      	bls.n	8013618 <lexan+0x10>
 801367a:	f04f 30ff 	mov.w	r0, #4294967295	; 0xffffffff
 801367e:	e046      	b.n	801370e <lexan+0x106>
 8013680:	f04f 0e01 	mov.w	lr, #1
 8013684:	f847 e005 	str.w	lr, [r7, r5]
 8013688:	eb04 050e 	add.w	r5, r4, lr
 801368c:	5511      	strb	r1, [r2, r4]
 801368e:	f04f 0e00 	mov.w	lr, #0
 8013692:	f802 e005 	strb.w	lr, [r2, r5]
 8013696:	3402      	adds	r4, #2
 8013698:	3601      	adds	r6, #1
 801369a:	3001      	adds	r0, #1
 801369c:	e7e6      	b.n	801366c <lexan+0x64>
 801369e:	3001      	adds	r0, #1
 80136a0:	e001      	b.n	80136a6 <lexan+0x9e>
 80136a2:	5515      	strb	r5, [r2, r4]
 80136a4:	3401      	adds	r4, #1
 80136a6:	f810 5b01 	ldrb.w	r5, [r0], #1
 80136aa:	42a9      	cmp	r1, r5
 80136ac:	d003      	beq.n	80136b6 <lexan+0xae>
 80136ae:	2d0a      	cmp	r5, #10
 80136b0:	d001      	beq.n	80136b6 <lexan+0xae>
 80136b2:	2d00      	cmp	r5, #0
 80136b4:	d1f5      	bne.n	80136a2 <lexan+0x9a>
 80136b6:	42a9      	cmp	r1, r5
 80136b8:	d12a      	bne.n	8013710 <lexan+0x108>
 80136ba:	2100      	movs	r1, #0
 80136bc:	5511      	strb	r1, [r2, r4]
 80136be:	3601      	adds	r6, #1
 80136c0:	3401      	adds	r4, #1
 80136c2:	e7d3      	b.n	801366c <lexan+0x64>
 80136c4:	5551      	strb	r1, [r2, r5]
 80136c6:	3001      	adds	r0, #1
 80136c8:	3501      	adds	r5, #1
 80136ca:	7801      	ldrb	r1, [r0, #0]
 80136cc:	290a      	cmp	r1, #10
 80136ce:	d00e      	beq.n	80136ee <lexan+0xe6>
 80136d0:	b169      	cbz	r1, 80136ee <lexan+0xe6>
 80136d2:	293c      	cmp	r1, #60	; 0x3c
 80136d4:	d00b      	beq.n	80136ee <lexan+0xe6>
 80136d6:	293e      	cmp	r1, #62	; 0x3e
 80136d8:	d009      	beq.n	80136ee <lexan+0xe6>
 80136da:	2920      	cmp	r1, #32
 80136dc:	d007      	beq.n	80136ee <lexan+0xe6>
 80136de:	2909      	cmp	r1, #9
 80136e0:	d005      	beq.n	80136ee <lexan+0xe6>
 80136e2:	2926      	cmp	r1, #38	; 0x26
 80136e4:	d003      	beq.n	80136ee <lexan+0xe6>
 80136e6:	2927      	cmp	r1, #39	; 0x27
 80136e8:	d001      	beq.n	80136ee <lexan+0xe6>
 80136ea:	2922      	cmp	r1, #34	; 0x22
 80136ec:	d1ea      	bne.n	80136c4 <lexan+0xbc>
 80136ee:	2927      	cmp	r1, #39	; 0x27
 80136f0:	d011      	beq.n	8013716 <lexan+0x10e>
 80136f2:	2922      	cmp	r1, #34	; 0x22
 80136f4:	d012      	beq.n	801371c <lexan+0x114>
 80136f6:	293c      	cmp	r1, #60	; 0x3c
 80136f8:	d013      	beq.n	8013722 <lexan+0x11a>
 80136fa:	293e      	cmp	r1, #62	; 0x3e
 80136fc:	d014      	beq.n	8013728 <lexan+0x120>
 80136fe:	1c6c      	adds	r4, r5, #1
 8013700:	2100      	movs	r1, #0
 8013702:	5551      	strb	r1, [r2, r5]
 8013704:	3601      	adds	r6, #1
 8013706:	e7b1      	b.n	801366c <lexan+0x64>
 8013708:	f8cc 4000 	str.w	r4, [ip]
 801370c:	4630      	mov	r0, r6
 801370e:	bdf0      	pop	{r4, r5, r6, r7, pc}
 8013710:	f04f 30ff 	mov.w	r0, #4294967295	; 0xffffffff
 8013714:	e7fb      	b.n	801370e <lexan+0x106>
 8013716:	f04f 30ff 	mov.w	r0, #4294967295	; 0xffffffff
 801371a:	e7f8      	b.n	801370e <lexan+0x106>
 801371c:	f04f 30ff 	mov.w	r0, #4294967295	; 0xffffffff
 8013720:	e7f5      	b.n	801370e <lexan+0x106>
 8013722:	f04f 30ff 	mov.w	r0, #4294967295	; 0xffffffff
 8013726:	e7f2      	b.n	801370e <lexan+0x106>
 8013728:	f04f 30ff 	mov.w	r0, #4294967295	; 0xffffffff
 801372c:	e7ef      	b.n	801370e <lexan+0x106>
	...

08013730 <xsh_cd>:
 8013730:	b510      	push	{r4, lr}
 8013732:	b084      	sub	sp, #16
 8013734:	684c      	ldr	r4, [r1, #4]
 8013736:	492a      	ldr	r1, [pc, #168]	; (80137e0 <xsh_cd+0xb0>)
 8013738:	4620      	mov	r0, r4
 801373a:	f7ff f91f 	bl	801297c <strcmp>
 801373e:	b970      	cbnz	r0, 801375e <xsh_cd+0x2e>
 8013740:	4c28      	ldr	r4, [pc, #160]	; (80137e4 <xsh_cd+0xb4>)
 8013742:	4929      	ldr	r1, [pc, #164]	; (80137e8 <xsh_cd+0xb8>)
 8013744:	4620      	mov	r0, r4
 8013746:	f7ff f99f 	bl	8012a88 <strcpy>
 801374a:	4620      	mov	r0, r4
 801374c:	f7ff f8fa 	bl	8012944 <strlen>
 8013750:	3801      	subs	r0, #1
 8013752:	5c23      	ldrb	r3, [r4, r0]
 8013754:	2b2f      	cmp	r3, #47	; 0x2f
 8013756:	d13e      	bne.n	80137d6 <xsh_cd+0xa6>
 8013758:	2000      	movs	r0, #0
 801375a:	b004      	add	sp, #16
 801375c:	bd10      	pop	{r4, pc}
 801375e:	4923      	ldr	r1, [pc, #140]	; (80137ec <xsh_cd+0xbc>)
 8013760:	4620      	mov	r0, r4
 8013762:	f7ff f90b 	bl	801297c <strcmp>
 8013766:	bb00      	cbnz	r0, 80137aa <xsh_cd+0x7a>
 8013768:	4921      	ldr	r1, [pc, #132]	; (80137f0 <xsh_cd+0xc0>)
 801376a:	481e      	ldr	r0, [pc, #120]	; (80137e4 <xsh_cd+0xb4>)
 801376c:	f7ff f906 	bl	801297c <strcmp>
 8013770:	b918      	cbnz	r0, 801377a <xsh_cd+0x4a>
 8013772:	4820      	ldr	r0, [pc, #128]	; (80137f4 <xsh_cd+0xc4>)
 8013774:	f7fc fe90 	bl	8010498 <printf>
 8013778:	e7ee      	b.n	8013758 <xsh_cd+0x28>
 801377a:	4c1b      	ldr	r4, [pc, #108]	; (80137e8 <xsh_cd+0xb8>)
 801377c:	4919      	ldr	r1, [pc, #100]	; (80137e4 <xsh_cd+0xb4>)
 801377e:	4620      	mov	r0, r4
 8013780:	f7ff f982 	bl	8012a88 <strcpy>
 8013784:	212f      	movs	r1, #47	; 0x2f
 8013786:	4620      	mov	r0, r4
 8013788:	f7ff f9ee 	bl	8012b68 <strrchr>
 801378c:	4603      	mov	r3, r0
 801378e:	b150      	cbz	r0, 80137a6 <xsh_cd+0x76>
 8013790:	2200      	movs	r2, #0
 8013792:	701a      	strb	r2, [r3, #0]
 8013794:	212f      	movs	r1, #47	; 0x2f
 8013796:	4814      	ldr	r0, [pc, #80]	; (80137e8 <xsh_cd+0xb8>)
 8013798:	f7ff f9e6 	bl	8012b68 <strrchr>
 801379c:	2800      	cmp	r0, #0
 801379e:	d0cf      	beq.n	8013740 <xsh_cd+0x10>
 80137a0:	2200      	movs	r2, #0
 80137a2:	7042      	strb	r2, [r0, #1]
 80137a4:	e7cc      	b.n	8013740 <xsh_cd+0x10>
 80137a6:	4b0f      	ldr	r3, [pc, #60]	; (80137e4 <xsh_cd+0xb4>)
 80137a8:	e7f2      	b.n	8013790 <xsh_cd+0x60>
 80137aa:	4620      	mov	r0, r4
 80137ac:	f7ff fd68 	bl	8013280 <full_path>
 80137b0:	a901      	add	r1, sp, #4
 80137b2:	480d      	ldr	r0, [pc, #52]	; (80137e8 <xsh_cd+0xb8>)
 80137b4:	f006 f914 	bl	80199e0 <fl_opendir>
 80137b8:	b118      	cbz	r0, 80137c2 <xsh_cd+0x92>
 80137ba:	a801      	add	r0, sp, #4
 80137bc:	f006 f9a4 	bl	8019b08 <fl_closedir>
 80137c0:	e7be      	b.n	8013740 <xsh_cd+0x10>
 80137c2:	4c09      	ldr	r4, [pc, #36]	; (80137e8 <xsh_cd+0xb8>)
 80137c4:	4621      	mov	r1, r4
 80137c6:	480c      	ldr	r0, [pc, #48]	; (80137f8 <xsh_cd+0xc8>)
 80137c8:	f7fc fe66 	bl	8010498 <printf>
 80137cc:	4905      	ldr	r1, [pc, #20]	; (80137e4 <xsh_cd+0xb4>)
 80137ce:	4620      	mov	r0, r4
 80137d0:	f7ff f95a 	bl	8012a88 <strcpy>
 80137d4:	e7c0      	b.n	8013758 <xsh_cd+0x28>
 80137d6:	4906      	ldr	r1, [pc, #24]	; (80137f0 <xsh_cd+0xc0>)
 80137d8:	4620      	mov	r0, r4
 80137da:	f7ff f96f 	bl	8012abc <strcat>
 80137de:	e7bb      	b.n	8013758 <xsh_cd+0x28>
 80137e0:	0801b0c8 	.word	0x0801b0c8
 80137e4:	200010fc 	.word	0x200010fc
 80137e8:	2000107c 	.word	0x2000107c
 80137ec:	0801abc4 	.word	0x0801abc4
 80137f0:	0801b344 	.word	0x0801b344
 80137f4:	0801b0cc 	.word	0x0801b0cc
 80137f8:	0801b0e0 	.word	0x0801b0e0

080137fc <xsh_memstat>:
 80137fc:	b570      	push	{r4, r5, r6, lr}
 80137fe:	4604      	mov	r4, r0
 8013800:	460d      	mov	r5, r1
 8013802:	2802      	cmp	r0, #2
 8013804:	d00a      	beq.n	801381c <xsh_memstat+0x20>
 8013806:	2c01      	cmp	r4, #1
 8013808:	dc24      	bgt.n	8013854 <xsh_memstat+0x58>
 801380a:	f003 f8db 	bl	80169c4 <heap_free>
 801380e:	4601      	mov	r1, r0
 8013810:	481d      	ldr	r0, [pc, #116]	; (8013888 <xsh_memstat+0x8c>)
 8013812:	f001 ff41 	bl	8015698 <kprintf>
 8013816:	2600      	movs	r6, #0
 8013818:	4630      	mov	r0, r6
 801381a:	bd70      	pop	{r4, r5, r6, pc}
 801381c:	2207      	movs	r2, #7
 801381e:	491b      	ldr	r1, [pc, #108]	; (801388c <xsh_memstat+0x90>)
 8013820:	6868      	ldr	r0, [r5, #4]
 8013822:	f7ff f8bf 	bl	80129a4 <strncmp>
 8013826:	4606      	mov	r6, r0
 8013828:	2800      	cmp	r0, #0
 801382a:	d1ec      	bne.n	8013806 <xsh_memstat+0xa>
 801382c:	6829      	ldr	r1, [r5, #0]
 801382e:	4818      	ldr	r0, [pc, #96]	; (8013890 <xsh_memstat+0x94>)
 8013830:	f7fc fe32 	bl	8010498 <printf>
 8013834:	4817      	ldr	r0, [pc, #92]	; (8013894 <xsh_memstat+0x98>)
 8013836:	f7fc fe2f 	bl	8010498 <printf>
 801383a:	4817      	ldr	r0, [pc, #92]	; (8013898 <xsh_memstat+0x9c>)
 801383c:	f7fc fe2c 	bl	8010498 <printf>
 8013840:	4816      	ldr	r0, [pc, #88]	; (801389c <xsh_memstat+0xa0>)
 8013842:	f7fc fe29 	bl	8010498 <printf>
 8013846:	4816      	ldr	r0, [pc, #88]	; (80138a0 <xsh_memstat+0xa4>)
 8013848:	f7fc fe26 	bl	8010498 <printf>
 801384c:	4815      	ldr	r0, [pc, #84]	; (80138a4 <xsh_memstat+0xa8>)
 801384e:	f7fc fe23 	bl	8010498 <printf>
 8013852:	e7e1      	b.n	8013818 <xsh_memstat+0x1c>
 8013854:	4c14      	ldr	r4, [pc, #80]	; (80138a8 <xsh_memstat+0xac>)
 8013856:	4e15      	ldr	r6, [pc, #84]	; (80138ac <xsh_memstat+0xb0>)
 8013858:	6833      	ldr	r3, [r6, #0]
 801385a:	eb03 0383 	add.w	r3, r3, r3, lsl #2
 801385e:	eb04 1303 	add.w	r3, r4, r3, lsl #4
 8013862:	682a      	ldr	r2, [r5, #0]
 8013864:	4912      	ldr	r1, [pc, #72]	; (80138b0 <xsh_memstat+0xb4>)
 8013866:	f9b3 0036 	ldrsh.w	r0, [r3, #54]	; 0x36
 801386a:	f7fd fae7 	bl	8010e3c <fprintf>
 801386e:	6833      	ldr	r3, [r6, #0]
 8013870:	eb03 0383 	add.w	r3, r3, r3, lsl #2
 8013874:	eb04 1403 	add.w	r4, r4, r3, lsl #4
 8013878:	682a      	ldr	r2, [r5, #0]
 801387a:	490e      	ldr	r1, [pc, #56]	; (80138b4 <xsh_memstat+0xb8>)
 801387c:	f9b4 0036 	ldrsh.w	r0, [r4, #54]	; 0x36
 8013880:	f7fd fadc 	bl	8010e3c <fprintf>
 8013884:	2601      	movs	r6, #1
 8013886:	e7c7      	b.n	8013818 <xsh_memstat+0x1c>
 8013888:	0801b168 	.word	0x0801b168
 801388c:	0801aa24 	.word	0x0801aa24
 8013890:	0801b0f0 	.word	0x0801b0f0
 8013894:	0801aa44 	.word	0x0801aa44
 8013898:	0801b0fc 	.word	0x0801b0fc
 801389c:	0801b130 	.word	0x0801b130
 80138a0:	0801aaa8 	.word	0x0801aaa8
 80138a4:	0801b140 	.word	0x0801b140
 80138a8:	2000129c 	.word	0x2000129c
 80138ac:	20001298 	.word	0x20001298
 80138b0:	0801ab1c 	.word	0x0801ab1c
 80138b4:	0801ab34 	.word	0x0801ab34

080138b8 <addargs>:
 80138b8:	e92d 47f0 	stmdb	sp!, {r4, r5, r6, r7, r8, r9, sl, lr}
 80138bc:	4604      	mov	r4, r0
 80138be:	460d      	mov	r5, r1
 80138c0:	4616      	mov	r6, r2
 80138c2:	4699      	mov	r9, r3
 80138c4:	9f09      	ldr	r7, [sp, #36]	; 0x24
 80138c6:	f003 f889 	bl	80169dc <disable>
 80138ca:	4682      	mov	sl, r0
 80138cc:	2d00      	cmp	r5, #0
 80138ce:	dd20      	ble.n	8013912 <addargs+0x5a>
 80138d0:	f1b9 0f00 	cmp.w	r9, #0
 80138d4:	db1d      	blt.n	8013912 <addargs+0x5a>
 80138d6:	eb04 0284 	add.w	r2, r4, r4, lsl #2
 80138da:	4b25      	ldr	r3, [pc, #148]	; (8013970 <addargs+0xb8>)
 80138dc:	eb03 1202 	add.w	r2, r3, r2, lsl #4
 80138e0:	6893      	ldr	r3, [r2, #8]
 80138e2:	68d2      	ldr	r2, [r2, #12]
 80138e4:	f1c2 0804 	rsb	r8, r2, #4
 80138e8:	eb03 0888 	add.w	r8, r3, r8, lsl #2
 80138ec:	f108 0803 	add.w	r8, r8, #3
 80138f0:	f028 0803 	bic.w	r8, r8, #3
 80138f4:	46c4      	mov	ip, r8
 80138f6:	1c69      	adds	r1, r5, #1
 80138f8:	0089      	lsls	r1, r1, #2
 80138fa:	4640      	mov	r0, r8
 80138fc:	2200      	movs	r2, #0
 80138fe:	42aa      	cmp	r2, r5
 8013900:	da0e      	bge.n	8013920 <addargs+0x68>
 8013902:	f856 3022 	ldr.w	r3, [r6, r2, lsl #2]
 8013906:	440b      	add	r3, r1
 8013908:	4463      	add	r3, ip
 801390a:	f840 3b04 	str.w	r3, [r0], #4
 801390e:	3201      	adds	r2, #1
 8013910:	e7f5      	b.n	80138fe <addargs+0x46>
 8013912:	4650      	mov	r0, sl
 8013914:	f003 f866 	bl	80169e4 <restore>
 8013918:	f04f 30ff 	mov.w	r0, #4294967295	; 0xffffffff
 801391c:	e8bd 87f0 	ldmia.w	sp!, {r4, r5, r6, r7, r8, r9, sl, pc}
 8013920:	2300      	movs	r3, #0
 8013922:	f840 3b04 	str.w	r3, [r0], #4
 8013926:	464a      	mov	r2, r9
 8013928:	9908      	ldr	r1, [sp, #32]
 801392a:	f7fe ffe1 	bl	80128f0 <memcpy>
 801392e:	eb04 0384 	add.w	r3, r4, r4, lsl #2
 8013932:	4a0f      	ldr	r2, [pc, #60]	; (8013970 <addargs+0xb8>)
 8013934:	eb02 1303 	add.w	r3, r2, r3, lsl #4
 8013938:	6859      	ldr	r1, [r3, #4]
 801393a:	eb04 0384 	add.w	r3, r4, r4, lsl #2
 801393e:	4a0c      	ldr	r2, [pc, #48]	; (8013970 <addargs+0xb8>)
 8013940:	eb02 1303 	add.w	r3, r2, r3, lsl #4
 8013944:	689b      	ldr	r3, [r3, #8]
 8013946:	428b      	cmp	r3, r1
 8013948:	d90b      	bls.n	8013962 <addargs+0xaa>
 801394a:	680b      	ldr	r3, [r1, #0]
 801394c:	42bb      	cmp	r3, r7
 801394e:	d001      	beq.n	8013954 <addargs+0x9c>
 8013950:	3104      	adds	r1, #4
 8013952:	e7f2      	b.n	801393a <addargs+0x82>
 8013954:	f8c1 8000 	str.w	r8, [r1]
 8013958:	4650      	mov	r0, sl
 801395a:	f003 f843 	bl	80169e4 <restore>
 801395e:	2001      	movs	r0, #1
 8013960:	e7dc      	b.n	801391c <addargs+0x64>
 8013962:	4650      	mov	r0, sl
 8013964:	f003 f83e 	bl	80169e4 <restore>
 8013968:	f04f 30ff 	mov.w	r0, #4294967295	; 0xffffffff
 801396c:	e7d6      	b.n	801391c <addargs+0x64>
 801396e:	bf00      	nop
 8013970:	2000129c 	.word	0x2000129c

08013974 <xsh_echo>:
 8013974:	b570      	push	{r4, r5, r6, lr}
 8013976:	2801      	cmp	r0, #1
 8013978:	dc04      	bgt.n	8013984 <xsh_echo+0x10>
 801397a:	480b      	ldr	r0, [pc, #44]	; (80139a8 <xsh_echo+0x34>)
 801397c:	f7fc fd8c 	bl	8010498 <printf>
 8013980:	2000      	movs	r0, #0
 8013982:	bd70      	pop	{r4, r5, r6, pc}
 8013984:	4605      	mov	r5, r0
 8013986:	460e      	mov	r6, r1
 8013988:	6849      	ldr	r1, [r1, #4]
 801398a:	4808      	ldr	r0, [pc, #32]	; (80139ac <xsh_echo+0x38>)
 801398c:	f7fc fd84 	bl	8010498 <printf>
 8013990:	2402      	movs	r4, #2
 8013992:	e005      	b.n	80139a0 <xsh_echo+0x2c>
 8013994:	f856 1024 	ldr.w	r1, [r6, r4, lsl #2]
 8013998:	4805      	ldr	r0, [pc, #20]	; (80139b0 <xsh_echo+0x3c>)
 801399a:	f7fc fd7d 	bl	8010498 <printf>
 801399e:	3401      	adds	r4, #1
 80139a0:	42ac      	cmp	r4, r5
 80139a2:	dbf7      	blt.n	8013994 <xsh_echo+0x20>
 80139a4:	e7e9      	b.n	801397a <xsh_echo+0x6>
 80139a6:	bf00      	nop
 80139a8:	0801ac50 	.word	0x0801ac50
 80139ac:	0801ab94 	.word	0x0801ab94
 80139b0:	0801b194 	.word	0x0801b194

080139b4 <xsh_reboot>:
 80139b4:	2000      	movs	r0, #0
 80139b6:	4770      	bx	lr

080139b8 <xsh_kill>:
 80139b8:	b570      	push	{r4, r5, r6, lr}
 80139ba:	4604      	mov	r4, r0
 80139bc:	460d      	mov	r5, r1
 80139be:	2802      	cmp	r0, #2
 80139c0:	d014      	beq.n	80139ec <xsh_kill+0x34>
 80139c2:	2c02      	cmp	r4, #2
 80139c4:	d12e      	bne.n	8013a24 <xsh_kill+0x6c>
 80139c6:	686b      	ldr	r3, [r5, #4]
 80139c8:	f813 2b01 	ldrb.w	r2, [r3], #1
 80139cc:	2400      	movs	r4, #0
 80139ce:	2a00      	cmp	r2, #0
 80139d0:	d052      	beq.n	8013a78 <xsh_kill+0xc0>
 80139d2:	f1a2 0030 	sub.w	r0, r2, #48	; 0x30
 80139d6:	b2c0      	uxtb	r0, r0
 80139d8:	2809      	cmp	r0, #9
 80139da:	d83e      	bhi.n	8013a5a <xsh_kill+0xa2>
 80139dc:	eb04 0484 	add.w	r4, r4, r4, lsl #2
 80139e0:	3a30      	subs	r2, #48	; 0x30
 80139e2:	eb02 0444 	add.w	r4, r2, r4, lsl #1
 80139e6:	f813 2b01 	ldrb.w	r2, [r3], #1
 80139ea:	e7f0      	b.n	80139ce <xsh_kill+0x16>
 80139ec:	2207      	movs	r2, #7
 80139ee:	4936      	ldr	r1, [pc, #216]	; (8013ac8 <xsh_kill+0x110>)
 80139f0:	6868      	ldr	r0, [r5, #4]
 80139f2:	f7fe ffd7 	bl	80129a4 <strncmp>
 80139f6:	2800      	cmp	r0, #0
 80139f8:	d1e3      	bne.n	80139c2 <xsh_kill+0xa>
 80139fa:	6829      	ldr	r1, [r5, #0]
 80139fc:	4833      	ldr	r0, [pc, #204]	; (8013acc <xsh_kill+0x114>)
 80139fe:	f7fc fd4b 	bl	8010498 <printf>
 8013a02:	4833      	ldr	r0, [pc, #204]	; (8013ad0 <xsh_kill+0x118>)
 8013a04:	f7fc fd48 	bl	8010498 <printf>
 8013a08:	4832      	ldr	r0, [pc, #200]	; (8013ad4 <xsh_kill+0x11c>)
 8013a0a:	f7fc fd45 	bl	8010498 <printf>
 8013a0e:	4832      	ldr	r0, [pc, #200]	; (8013ad8 <xsh_kill+0x120>)
 8013a10:	f7fc fd42 	bl	8010498 <printf>
 8013a14:	4831      	ldr	r0, [pc, #196]	; (8013adc <xsh_kill+0x124>)
 8013a16:	f7fc fd3f 	bl	8010498 <printf>
 8013a1a:	4831      	ldr	r0, [pc, #196]	; (8013ae0 <xsh_kill+0x128>)
 8013a1c:	f7fc fd3c 	bl	8010498 <printf>
 8013a20:	2001      	movs	r0, #1
 8013a22:	e019      	b.n	8013a58 <xsh_kill+0xa0>
 8013a24:	4c2f      	ldr	r4, [pc, #188]	; (8013ae4 <xsh_kill+0x12c>)
 8013a26:	4e30      	ldr	r6, [pc, #192]	; (8013ae8 <xsh_kill+0x130>)
 8013a28:	6833      	ldr	r3, [r6, #0]
 8013a2a:	eb03 0383 	add.w	r3, r3, r3, lsl #2
 8013a2e:	eb04 1303 	add.w	r3, r4, r3, lsl #4
 8013a32:	682a      	ldr	r2, [r5, #0]
 8013a34:	492d      	ldr	r1, [pc, #180]	; (8013aec <xsh_kill+0x134>)
 8013a36:	f9b3 0036 	ldrsh.w	r0, [r3, #54]	; 0x36
 8013a3a:	f7fd f9ff 	bl	8010e3c <fprintf>
 8013a3e:	6833      	ldr	r3, [r6, #0]
 8013a40:	eb03 0383 	add.w	r3, r3, r3, lsl #2
 8013a44:	eb04 1403 	add.w	r4, r4, r3, lsl #4
 8013a48:	682a      	ldr	r2, [r5, #0]
 8013a4a:	4929      	ldr	r1, [pc, #164]	; (8013af0 <xsh_kill+0x138>)
 8013a4c:	f9b4 0036 	ldrsh.w	r0, [r4, #54]	; 0x36
 8013a50:	f7fd f9f4 	bl	8010e3c <fprintf>
 8013a54:	f04f 30ff 	mov.w	r0, #4294967295	; 0xffffffff
 8013a58:	bd70      	pop	{r4, r5, r6, pc}
 8013a5a:	4b23      	ldr	r3, [pc, #140]	; (8013ae8 <xsh_kill+0x130>)
 8013a5c:	681b      	ldr	r3, [r3, #0]
 8013a5e:	eb03 0383 	add.w	r3, r3, r3, lsl #2
 8013a62:	4a20      	ldr	r2, [pc, #128]	; (8013ae4 <xsh_kill+0x12c>)
 8013a64:	eb02 1303 	add.w	r3, r2, r3, lsl #4
 8013a68:	682a      	ldr	r2, [r5, #0]
 8013a6a:	4922      	ldr	r1, [pc, #136]	; (8013af4 <xsh_kill+0x13c>)
 8013a6c:	f9b3 0036 	ldrsh.w	r0, [r3, #54]	; 0x36
 8013a70:	f7fd f9e4 	bl	8010e3c <fprintf>
 8013a74:	2001      	movs	r0, #1
 8013a76:	e7ef      	b.n	8013a58 <xsh_kill+0xa0>
 8013a78:	b13c      	cbz	r4, 8013a8a <xsh_kill+0xd2>
 8013a7a:	4620      	mov	r0, r4
 8013a7c:	f001 fb82 	bl	8015184 <kill>
 8013a80:	f1b0 3fff 	cmp.w	r0, #4294967295	; 0xffffffff
 8013a84:	d010      	beq.n	8013aa8 <xsh_kill+0xf0>
 8013a86:	2000      	movs	r0, #0
 8013a88:	e7e6      	b.n	8013a58 <xsh_kill+0xa0>
 8013a8a:	4b17      	ldr	r3, [pc, #92]	; (8013ae8 <xsh_kill+0x130>)
 8013a8c:	681b      	ldr	r3, [r3, #0]
 8013a8e:	eb03 0383 	add.w	r3, r3, r3, lsl #2
 8013a92:	4a14      	ldr	r2, [pc, #80]	; (8013ae4 <xsh_kill+0x12c>)
 8013a94:	eb02 1303 	add.w	r3, r2, r3, lsl #4
 8013a98:	682a      	ldr	r2, [r5, #0]
 8013a9a:	4917      	ldr	r1, [pc, #92]	; (8013af8 <xsh_kill+0x140>)
 8013a9c:	f9b3 0036 	ldrsh.w	r0, [r3, #54]	; 0x36
 8013aa0:	f7fd f9cc 	bl	8010e3c <fprintf>
 8013aa4:	2001      	movs	r0, #1
 8013aa6:	e7d7      	b.n	8013a58 <xsh_kill+0xa0>
 8013aa8:	4b0f      	ldr	r3, [pc, #60]	; (8013ae8 <xsh_kill+0x130>)
 8013aaa:	681b      	ldr	r3, [r3, #0]
 8013aac:	eb03 0383 	add.w	r3, r3, r3, lsl #2
 8013ab0:	480c      	ldr	r0, [pc, #48]	; (8013ae4 <xsh_kill+0x12c>)
 8013ab2:	eb00 1003 	add.w	r0, r0, r3, lsl #4
 8013ab6:	4623      	mov	r3, r4
 8013ab8:	682a      	ldr	r2, [r5, #0]
 8013aba:	4910      	ldr	r1, [pc, #64]	; (8013afc <xsh_kill+0x144>)
 8013abc:	f9b0 0036 	ldrsh.w	r0, [r0, #54]	; 0x36
 8013ac0:	f7fd f9bc 	bl	8010e3c <fprintf>
 8013ac4:	2001      	movs	r0, #1
 8013ac6:	e7c7      	b.n	8013a58 <xsh_kill+0xa0>
 8013ac8:	0801aa24 	.word	0x0801aa24
 8013acc:	0801b198 	.word	0x0801b198
 8013ad0:	0801aa44 	.word	0x0801aa44
 8013ad4:	0801b1a8 	.word	0x0801b1a8
 8013ad8:	0801aaa8 	.word	0x0801aaa8
 8013adc:	0801b1c0 	.word	0x0801b1c0
 8013ae0:	0801aaf8 	.word	0x0801aaf8
 8013ae4:	2000129c 	.word	0x2000129c
 8013ae8:	20001298 	.word	0x20001298
 8013aec:	0801b1e8 	.word	0x0801b1e8
 8013af0:	0801ab34 	.word	0x0801ab34
 8013af4:	0801b200 	.word	0x0801b200
 8013af8:	0801b220 	.word	0x0801b220
 8013afc:	0801b244 	.word	0x0801b244

08013b00 <xsh_devdump>:
 8013b00:	b510      	push	{r4, lr}
 8013b02:	2801      	cmp	r0, #1
 8013b04:	dc14      	bgt.n	8013b30 <xsh_devdump+0x30>
 8013b06:	4812      	ldr	r0, [pc, #72]	; (8013b50 <xsh_devdump+0x50>)
 8013b08:	f7fc fcc6 	bl	8010498 <printf>
 8013b0c:	4811      	ldr	r0, [pc, #68]	; (8013b54 <xsh_devdump+0x54>)
 8013b0e:	f7fc fcc3 	bl	8010498 <printf>
 8013b12:	2400      	movs	r4, #0
 8013b14:	2c04      	cmp	r4, #4
 8013b16:	dc19      	bgt.n	8013b4c <xsh_devdump+0x4c>
 8013b18:	4b0f      	ldr	r3, [pc, #60]	; (8013b58 <xsh_devdump+0x58>)
 8013b1a:	224c      	movs	r2, #76	; 0x4c
 8013b1c:	fb02 3204 	mla	r2, r2, r4, r3
 8013b20:	6853      	ldr	r3, [r2, #4]
 8013b22:	6892      	ldr	r2, [r2, #8]
 8013b24:	4621      	mov	r1, r4
 8013b26:	480d      	ldr	r0, [pc, #52]	; (8013b5c <xsh_devdump+0x5c>)
 8013b28:	f7fc fcb6 	bl	8010498 <printf>
 8013b2c:	3401      	adds	r4, #1
 8013b2e:	e7f1      	b.n	8013b14 <xsh_devdump+0x14>
 8013b30:	4b0b      	ldr	r3, [pc, #44]	; (8013b60 <xsh_devdump+0x60>)
 8013b32:	681b      	ldr	r3, [r3, #0]
 8013b34:	eb03 0383 	add.w	r3, r3, r3, lsl #2
 8013b38:	4a0a      	ldr	r2, [pc, #40]	; (8013b64 <xsh_devdump+0x64>)
 8013b3a:	eb02 1303 	add.w	r3, r2, r3, lsl #4
 8013b3e:	490a      	ldr	r1, [pc, #40]	; (8013b68 <xsh_devdump+0x68>)
 8013b40:	f9b3 0036 	ldrsh.w	r0, [r3, #54]	; 0x36
 8013b44:	f7fd f97a 	bl	8010e3c <fprintf>
 8013b48:	2001      	movs	r0, #1
 8013b4a:	e000      	b.n	8013b4e <xsh_devdump+0x4e>
 8013b4c:	2000      	movs	r0, #0
 8013b4e:	bd10      	pop	{r4, pc}
 8013b50:	0801b278 	.word	0x0801b278
 8013b54:	0801b294 	.word	0x0801b294
 8013b58:	20000198 	.word	0x20000198
 8013b5c:	0801b2b0 	.word	0x0801b2b0
 8013b60:	20001298 	.word	0x20001298
 8013b64:	2000129c 	.word	0x2000129c
 8013b68:	0801b260 	.word	0x0801b260

08013b6c <xsh_rm>:
 8013b6c:	b510      	push	{r4, lr}
 8013b6e:	6848      	ldr	r0, [r1, #4]
 8013b70:	f7ff fb86 	bl	8013280 <full_path>
 8013b74:	b1c8      	cbz	r0, 8013baa <xsh_rm+0x3e>
 8013b76:	4604      	mov	r4, r0
 8013b78:	490d      	ldr	r1, [pc, #52]	; (8013bb0 <xsh_rm+0x44>)
 8013b7a:	f005 fb77 	bl	801926c <fl_fopen>
 8013b7e:	b140      	cbz	r0, 8013b92 <xsh_rm+0x26>
 8013b80:	f005 fc90 	bl	80194a4 <fl_fclose>
 8013b84:	4620      	mov	r0, r4
 8013b86:	f005 fee0 	bl	801994a <fl_remove>
 8013b8a:	2800      	cmp	r0, #0
 8013b8c:	db08      	blt.n	8013ba0 <xsh_rm+0x34>
 8013b8e:	2000      	movs	r0, #0
 8013b90:	bd10      	pop	{r4, pc}
 8013b92:	4621      	mov	r1, r4
 8013b94:	4807      	ldr	r0, [pc, #28]	; (8013bb4 <xsh_rm+0x48>)
 8013b96:	f7fc fc7f 	bl	8010498 <printf>
 8013b9a:	f04f 30ff 	mov.w	r0, #4294967295	; 0xffffffff
 8013b9e:	e7f7      	b.n	8013b90 <xsh_rm+0x24>
 8013ba0:	4805      	ldr	r0, [pc, #20]	; (8013bb8 <xsh_rm+0x4c>)
 8013ba2:	f7fc fc79 	bl	8010498 <printf>
 8013ba6:	2000      	movs	r0, #0
 8013ba8:	e7f2      	b.n	8013b90 <xsh_rm+0x24>
 8013baa:	f04f 30ff 	mov.w	r0, #4294967295	; 0xffffffff
 8013bae:	e7ef      	b.n	8013b90 <xsh_rm+0x24>
 8013bb0:	0801b07c 	.word	0x0801b07c
 8013bb4:	0801a9f8 	.word	0x0801a9f8
 8013bb8:	0801b2c4 	.word	0x0801b2c4

08013bbc <xsh_touch>:
 8013bbc:	b538      	push	{r3, r4, r5, lr}
 8013bbe:	6848      	ldr	r0, [r1, #4]
 8013bc0:	f7ff fb5e 	bl	8013280 <full_path>
 8013bc4:	b1b8      	cbz	r0, 8013bf6 <xsh_touch+0x3a>
 8013bc6:	4604      	mov	r4, r0
 8013bc8:	490c      	ldr	r1, [pc, #48]	; (8013bfc <xsh_touch+0x40>)
 8013bca:	f005 fb4f 	bl	801926c <fl_fopen>
 8013bce:	4605      	mov	r5, r0
 8013bd0:	b938      	cbnz	r0, 8013be2 <xsh_touch+0x26>
 8013bd2:	490b      	ldr	r1, [pc, #44]	; (8013c00 <xsh_touch+0x44>)
 8013bd4:	4620      	mov	r0, r4
 8013bd6:	f005 fb49 	bl	801926c <fl_fopen>
 8013bda:	f005 fc63 	bl	80194a4 <fl_fclose>
 8013bde:	2000      	movs	r0, #0
 8013be0:	bd38      	pop	{r3, r4, r5, pc}
 8013be2:	4621      	mov	r1, r4
 8013be4:	4807      	ldr	r0, [pc, #28]	; (8013c04 <xsh_touch+0x48>)
 8013be6:	f7fc fc57 	bl	8010498 <printf>
 8013bea:	4628      	mov	r0, r5
 8013bec:	f005 fc5a 	bl	80194a4 <fl_fclose>
 8013bf0:	f04f 30ff 	mov.w	r0, #4294967295	; 0xffffffff
 8013bf4:	e7f4      	b.n	8013be0 <xsh_touch+0x24>
 8013bf6:	f04f 30ff 	mov.w	r0, #4294967295	; 0xffffffff
 8013bfa:	e7f1      	b.n	8013be0 <xsh_touch+0x24>
 8013bfc:	0801b07c 	.word	0x0801b07c
 8013c00:	0801ad8c 	.word	0x0801ad8c
 8013c04:	0801b2d4 	.word	0x0801b2d4

08013c08 <xsh_exit>:
 8013c08:	f06f 0002 	mvn.w	r0, #2
 8013c0c:	4770      	bx	lr
	...

08013c10 <namrepl>:
 8013c10:	e92d 43f8 	stmdb	sp!, {r3, r4, r5, r6, r7, r8, r9, lr}
 8013c14:	460e      	mov	r6, r1
 8013c16:	2700      	movs	r7, #0
 8013c18:	4b28      	ldr	r3, [pc, #160]	; (8013cbc <namrepl+0xac>)
 8013c1a:	681b      	ldr	r3, [r3, #0]
 8013c1c:	42bb      	cmp	r3, r7
 8013c1e:	dd46      	ble.n	8013cae <namrepl+0x9e>
 8013c20:	eb07 0347 	add.w	r3, r7, r7, lsl #1
 8013c24:	4a26      	ldr	r2, [pc, #152]	; (8013cc0 <namrepl+0xb0>)
 8013c26:	eb02 03c3 	add.w	r3, r2, r3, lsl #3
 8013c2a:	4604      	mov	r4, r0
 8013c2c:	f04f 0800 	mov.w	r8, #0
 8013c30:	781a      	ldrb	r2, [r3, #0]
 8013c32:	b13a      	cbz	r2, 8013c44 <namrepl+0x34>
 8013c34:	7825      	ldrb	r5, [r4, #0]
 8013c36:	4295      	cmp	r5, r2
 8013c38:	d104      	bne.n	8013c44 <namrepl+0x34>
 8013c3a:	3301      	adds	r3, #1
 8013c3c:	3401      	adds	r4, #1
 8013c3e:	f108 0801 	add.w	r8, r8, #1
 8013c42:	e7f5      	b.n	8013c30 <namrepl+0x20>
 8013c44:	b10a      	cbz	r2, 8013c4a <namrepl+0x3a>
 8013c46:	3701      	adds	r7, #1
 8013c48:	e7e6      	b.n	8013c18 <namrepl+0x8>
 8013c4a:	2110      	movs	r1, #16
 8013c4c:	f000 f8f2 	bl	8013e34 <namlen>
 8013c50:	4681      	mov	r9, r0
 8013c52:	eb07 0047 	add.w	r0, r7, r7, lsl #1
 8013c56:	00c0      	lsls	r0, r0, #3
 8013c58:	3010      	adds	r0, #16
 8013c5a:	4d19      	ldr	r5, [pc, #100]	; (8013cc0 <namrepl+0xb0>)
 8013c5c:	4405      	add	r5, r0
 8013c5e:	2110      	movs	r1, #16
 8013c60:	4628      	mov	r0, r5
 8013c62:	f000 f8e7 	bl	8013e34 <namlen>
 8013c66:	1e43      	subs	r3, r0, #1
 8013c68:	fa5f f989 	uxtb.w	r9, r9
 8013c6c:	eba9 0808 	sub.w	r8, r9, r8
 8013c70:	eb03 0208 	add.w	r2, r3, r8
 8013c74:	2a10      	cmp	r2, #16
 8013c76:	dc1d      	bgt.n	8013cb4 <namrepl+0xa4>
 8013c78:	2b00      	cmp	r3, #0
 8013c7a:	dd0d      	ble.n	8013c98 <namrepl+0x88>
 8013c7c:	4628      	mov	r0, r5
 8013c7e:	f810 2b01 	ldrb.w	r2, [r0], #1
 8013c82:	f806 2b01 	strb.w	r2, [r6], #1
 8013c86:	3b01      	subs	r3, #1
 8013c88:	4605      	mov	r5, r0
 8013c8a:	e7f5      	b.n	8013c78 <namrepl+0x68>
 8013c8c:	f814 3b01 	ldrb.w	r3, [r4], #1
 8013c90:	f806 3b01 	strb.w	r3, [r6], #1
 8013c94:	f108 38ff 	add.w	r8, r8, #4294967295	; 0xffffffff
 8013c98:	f1b8 0f00 	cmp.w	r8, #0
 8013c9c:	dcf6      	bgt.n	8013c8c <namrepl+0x7c>
 8013c9e:	eb07 0747 	add.w	r7, r7, r7, lsl #1
 8013ca2:	4b07      	ldr	r3, [pc, #28]	; (8013cc0 <namrepl+0xb0>)
 8013ca4:	eb03 07c7 	add.w	r7, r3, r7, lsl #3
 8013ca8:	6978      	ldr	r0, [r7, #20]
 8013caa:	e8bd 83f8 	ldmia.w	sp!, {r3, r4, r5, r6, r7, r8, r9, pc}
 8013cae:	f04f 30ff 	mov.w	r0, #4294967295	; 0xffffffff
 8013cb2:	e7fa      	b.n	8013caa <namrepl+0x9a>
 8013cb4:	f04f 30ff 	mov.w	r0, #4294967295	; 0xffffffff
 8013cb8:	e7f7      	b.n	8013caa <namrepl+0x9a>
 8013cba:	bf00      	nop
 8013cbc:	2000117c 	.word	0x2000117c
 8013cc0:	20001180 	.word	0x20001180

08013cc4 <namcpy>:
 8013cc4:	2300      	movs	r3, #0
 8013cc6:	4293      	cmp	r3, r2
 8013cc8:	da0f      	bge.n	8013cea <namcpy+0x26>
 8013cca:	b410      	push	{r4}
 8013ccc:	f811 4b01 	ldrb.w	r4, [r1], #1
 8013cd0:	f800 4b01 	strb.w	r4, [r0], #1
 8013cd4:	b13c      	cbz	r4, 8013ce6 <namcpy+0x22>
 8013cd6:	3301      	adds	r3, #1
 8013cd8:	4293      	cmp	r3, r2
 8013cda:	dbf7      	blt.n	8013ccc <namcpy+0x8>
 8013cdc:	f04f 30ff 	mov.w	r0, #4294967295	; 0xffffffff
 8013ce0:	f85d 4b04 	ldr.w	r4, [sp], #4
 8013ce4:	4770      	bx	lr
 8013ce6:	2001      	movs	r0, #1
 8013ce8:	e7fa      	b.n	8013ce0 <namcpy+0x1c>
 8013cea:	f04f 30ff 	mov.w	r0, #4294967295	; 0xffffffff
 8013cee:	4770      	bx	lr

08013cf0 <nammap>:
 8013cf0:	b570      	push	{r4, r5, r6, lr}
 8013cf2:	b084      	sub	sp, #16
 8013cf4:	460d      	mov	r5, r1
 8013cf6:	4616      	mov	r6, r2
 8013cf8:	2210      	movs	r2, #16
 8013cfa:	4601      	mov	r1, r0
 8013cfc:	4668      	mov	r0, sp
 8013cfe:	f7ff ffe1 	bl	8013cc4 <namcpy>
 8013d02:	f1b0 3fff 	cmp.w	r0, #4294967295	; 0xffffffff
 8013d06:	d013      	beq.n	8013d30 <nammap+0x40>
 8013d08:	2400      	movs	r4, #0
 8013d0a:	4b0a      	ldr	r3, [pc, #40]	; (8013d34 <nammap+0x44>)
 8013d0c:	681b      	ldr	r3, [r3, #0]
 8013d0e:	42a3      	cmp	r3, r4
 8013d10:	dd0c      	ble.n	8013d2c <nammap+0x3c>
 8013d12:	4629      	mov	r1, r5
 8013d14:	4668      	mov	r0, sp
 8013d16:	f7ff ff7b 	bl	8013c10 <namrepl>
 8013d1a:	42b0      	cmp	r0, r6
 8013d1c:	d108      	bne.n	8013d30 <nammap+0x40>
 8013d1e:	2210      	movs	r2, #16
 8013d20:	4629      	mov	r1, r5
 8013d22:	4668      	mov	r0, sp
 8013d24:	f7ff ffce 	bl	8013cc4 <namcpy>
 8013d28:	3401      	adds	r4, #1
 8013d2a:	e7ee      	b.n	8013d0a <nammap+0x1a>
 8013d2c:	f04f 30ff 	mov.w	r0, #4294967295	; 0xffffffff
 8013d30:	b004      	add	sp, #16
 8013d32:	bd70      	pop	{r4, r5, r6, pc}
 8013d34:	2000117c 	.word	0x2000117c

08013d38 <naminit>:
 8013d38:	b530      	push	{r4, r5, lr}
 8013d3a:	b087      	sub	sp, #28
 8013d3c:	4b2d      	ldr	r3, [pc, #180]	; (8013df4 <naminit+0xbc>)
 8013d3e:	e893 0003 	ldmia.w	r3, {r0, r1}
 8013d42:	9000      	str	r0, [sp, #0]
 8013d44:	f8ad 1004 	strh.w	r1, [sp, #4]
 8013d48:	2500      	movs	r5, #0
 8013d4a:	4b2b      	ldr	r3, [pc, #172]	; (8013df8 <naminit+0xc0>)
 8013d4c:	601d      	str	r5, [r3, #0]
 8013d4e:	e02d      	b.n	8013dac <naminit+0x74>
 8013d50:	492a      	ldr	r1, [pc, #168]	; (8013dfc <naminit+0xc4>)
 8013d52:	224c      	movs	r2, #76	; 0x4c
 8013d54:	fb02 1205 	mla	r2, r2, r5, r1
 8013d58:	6892      	ldr	r2, [r2, #8]
 8013d5a:	e002      	b.n	8013d62 <naminit+0x2a>
 8013d5c:	f803 1b01 	strb.w	r1, [r3], #1
 8013d60:	b161      	cbz	r1, 8013d7c <naminit+0x44>
 8013d62:	3401      	adds	r4, #1
 8013d64:	2c0f      	cmp	r4, #15
 8013d66:	dc09      	bgt.n	8013d7c <naminit+0x44>
 8013d68:	f812 1b01 	ldrb.w	r1, [r2], #1
 8013d6c:	f1a1 0041 	sub.w	r0, r1, #65	; 0x41
 8013d70:	b2c0      	uxtb	r0, r0
 8013d72:	2819      	cmp	r0, #25
 8013d74:	d8f2      	bhi.n	8013d5c <naminit+0x24>
 8013d76:	3120      	adds	r1, #32
 8013d78:	b2c9      	uxtb	r1, r1
 8013d7a:	e7ef      	b.n	8013d5c <naminit+0x24>
 8013d7c:	234c      	movs	r3, #76	; 0x4c
 8013d7e:	fb03 f305 	mul.w	r3, r3, r5
 8013d82:	4a1e      	ldr	r2, [pc, #120]	; (8013dfc <naminit+0xc4>)
 8013d84:	58d2      	ldr	r2, [r2, r3]
 8013d86:	a902      	add	r1, sp, #8
 8013d88:	481d      	ldr	r0, [pc, #116]	; (8013e00 <naminit+0xc8>)
 8013d8a:	f001 fc85 	bl	8015698 <kprintf>
 8013d8e:	2c10      	cmp	r4, #16
 8013d90:	dc1b      	bgt.n	8013dca <naminit+0x92>
 8013d92:	234c      	movs	r3, #76	; 0x4c
 8013d94:	fb03 f305 	mul.w	r3, r3, r5
 8013d98:	4a18      	ldr	r2, [pc, #96]	; (8013dfc <naminit+0xc4>)
 8013d9a:	58d2      	ldr	r2, [r2, r3]
 8013d9c:	4919      	ldr	r1, [pc, #100]	; (8013e04 <naminit+0xcc>)
 8013d9e:	a802      	add	r0, sp, #8
 8013da0:	f000 f855 	bl	8013e4e <mount>
 8013da4:	f1b0 3fff 	cmp.w	r0, #4294967295	; 0xffffffff
 8013da8:	d018      	beq.n	8013ddc <naminit+0xa4>
 8013daa:	3501      	adds	r5, #1
 8013dac:	2d04      	cmp	r5, #4
 8013dae:	dc1e      	bgt.n	8013dee <naminit+0xb6>
 8013db0:	2400      	movs	r4, #0
 8013db2:	466a      	mov	r2, sp
 8013db4:	ab02      	add	r3, sp, #8
 8013db6:	4619      	mov	r1, r3
 8013db8:	f812 0b01 	ldrb.w	r0, [r2], #1
 8013dbc:	f801 0b01 	strb.w	r0, [r1], #1
 8013dc0:	2800      	cmp	r0, #0
 8013dc2:	d0c5      	beq.n	8013d50 <naminit+0x18>
 8013dc4:	3401      	adds	r4, #1
 8013dc6:	460b      	mov	r3, r1
 8013dc8:	e7f5      	b.n	8013db6 <naminit+0x7e>
 8013dca:	4a0c      	ldr	r2, [pc, #48]	; (8013dfc <naminit+0xc4>)
 8013dcc:	234c      	movs	r3, #76	; 0x4c
 8013dce:	fb03 2305 	mla	r3, r3, r5, r2
 8013dd2:	6899      	ldr	r1, [r3, #8]
 8013dd4:	480c      	ldr	r0, [pc, #48]	; (8013e08 <naminit+0xd0>)
 8013dd6:	f001 fc5f 	bl	8015698 <kprintf>
 8013dda:	e7e6      	b.n	8013daa <naminit+0x72>
 8013ddc:	4a07      	ldr	r2, [pc, #28]	; (8013dfc <naminit+0xc4>)
 8013dde:	234c      	movs	r3, #76	; 0x4c
 8013de0:	fb03 2305 	mla	r3, r3, r5, r2
 8013de4:	6899      	ldr	r1, [r3, #8]
 8013de6:	4809      	ldr	r0, [pc, #36]	; (8013e0c <naminit+0xd4>)
 8013de8:	f001 fc56 	bl	8015698 <kprintf>
 8013dec:	e7dd      	b.n	8013daa <naminit+0x72>
 8013dee:	2001      	movs	r0, #1
 8013df0:	b007      	add	sp, #28
 8013df2:	bd30      	pop	{r4, r5, pc}
 8013df4:	0801b340 	.word	0x0801b340
 8013df8:	2000117c 	.word	0x2000117c
 8013dfc:	20000198 	.word	0x20000198
 8013e00:	0801b2e4 	.word	0x0801b2e4
 8013e04:	0801af88 	.word	0x0801af88
 8013e08:	0801b2f4 	.word	0x0801b2f4
 8013e0c:	0801b31c 	.word	0x0801b31c

08013e10 <namopen>:
 8013e10:	b510      	push	{r4, lr}
 8013e12:	b084      	sub	sp, #16
 8013e14:	460b      	mov	r3, r1
 8013e16:	4614      	mov	r4, r2
 8013e18:	6802      	ldr	r2, [r0, #0]
 8013e1a:	4669      	mov	r1, sp
 8013e1c:	4618      	mov	r0, r3
 8013e1e:	f7ff ff67 	bl	8013cf0 <nammap>
 8013e22:	f1b0 3fff 	cmp.w	r0, #4294967295	; 0xffffffff
 8013e26:	d003      	beq.n	8013e30 <namopen+0x20>
 8013e28:	4622      	mov	r2, r4
 8013e2a:	4669      	mov	r1, sp
 8013e2c:	f002 f8c9 	bl	8015fc2 <open>
 8013e30:	b004      	add	sp, #16
 8013e32:	bd10      	pop	{r4, pc}

08013e34 <namlen>:
 8013e34:	2300      	movs	r3, #0
 8013e36:	428b      	cmp	r3, r1
 8013e38:	da06      	bge.n	8013e48 <namlen+0x14>
 8013e3a:	f810 2b01 	ldrb.w	r2, [r0], #1
 8013e3e:	b10a      	cbz	r2, 8013e44 <namlen+0x10>
 8013e40:	3301      	adds	r3, #1
 8013e42:	e7f8      	b.n	8013e36 <namlen+0x2>
 8013e44:	1c58      	adds	r0, r3, #1
 8013e46:	4770      	bx	lr
 8013e48:	f04f 30ff 	mov.w	r0, #4294967295	; 0xffffffff
 8013e4c:	4770      	bx	lr

08013e4e <mount>:
 8013e4e:	e92d 43f8 	stmdb	sp!, {r3, r4, r5, r6, r7, r8, r9, lr}
 8013e52:	4604      	mov	r4, r0
 8013e54:	460f      	mov	r7, r1
 8013e56:	4690      	mov	r8, r2
 8013e58:	f002 fdc0 	bl	80169dc <disable>
 8013e5c:	4681      	mov	r9, r0
 8013e5e:	2110      	movs	r1, #16
 8013e60:	4620      	mov	r0, r4
 8013e62:	f7ff ffe7 	bl	8013e34 <namlen>
 8013e66:	4606      	mov	r6, r0
 8013e68:	2101      	movs	r1, #1
 8013e6a:	4638      	mov	r0, r7
 8013e6c:	f7ff ffe2 	bl	8013e34 <namlen>
 8013e70:	f1b6 3fff 	cmp.w	r6, #4294967295	; 0xffffffff
 8013e74:	d00b      	beq.n	8013e8e <mount+0x40>
 8013e76:	f1b0 3fff 	cmp.w	r0, #4294967295	; 0xffffffff
 8013e7a:	d008      	beq.n	8013e8e <mount+0x40>
 8013e7c:	f1b8 0f04 	cmp.w	r8, #4
 8013e80:	d805      	bhi.n	8013e8e <mount+0x40>
 8013e82:	4b1b      	ldr	r3, [pc, #108]	; (8013ef0 <mount+0xa2>)
 8013e84:	6819      	ldr	r1, [r3, #0]
 8013e86:	2904      	cmp	r1, #4
 8013e88:	dc01      	bgt.n	8013e8e <mount+0x40>
 8013e8a:	2300      	movs	r3, #0
 8013e8c:	e010      	b.n	8013eb0 <mount+0x62>
 8013e8e:	4648      	mov	r0, r9
 8013e90:	f002 fda8 	bl	80169e4 <restore>
 8013e94:	f04f 30ff 	mov.w	r0, #4294967295	; 0xffffffff
 8013e98:	e8bd 83f8 	ldmia.w	sp!, {r3, r4, r5, r6, r7, r8, r9, pc}
 8013e9c:	f814 cb01 	ldrb.w	ip, [r4], #1
 8013ea0:	eb01 0541 	add.w	r5, r1, r1, lsl #1
 8013ea4:	4a13      	ldr	r2, [pc, #76]	; (8013ef4 <mount+0xa6>)
 8013ea6:	eb02 05c5 	add.w	r5, r2, r5, lsl #3
 8013eaa:	f805 c003 	strb.w	ip, [r5, r3]
 8013eae:	3301      	adds	r3, #1
 8013eb0:	42b3      	cmp	r3, r6
 8013eb2:	dbf3      	blt.n	8013e9c <mount+0x4e>
 8013eb4:	2300      	movs	r3, #0
 8013eb6:	e009      	b.n	8013ecc <mount+0x7e>
 8013eb8:	f817 5b01 	ldrb.w	r5, [r7], #1
 8013ebc:	eb01 0241 	add.w	r2, r1, r1, lsl #1
 8013ec0:	4c0c      	ldr	r4, [pc, #48]	; (8013ef4 <mount+0xa6>)
 8013ec2:	eb04 02c2 	add.w	r2, r4, r2, lsl #3
 8013ec6:	441a      	add	r2, r3
 8013ec8:	7415      	strb	r5, [r2, #16]
 8013eca:	3301      	adds	r3, #1
 8013ecc:	4283      	cmp	r3, r0
 8013ece:	dbf3      	blt.n	8013eb8 <mount+0x6a>
 8013ed0:	eb01 0241 	add.w	r2, r1, r1, lsl #1
 8013ed4:	4b07      	ldr	r3, [pc, #28]	; (8013ef4 <mount+0xa6>)
 8013ed6:	eb03 03c2 	add.w	r3, r3, r2, lsl #3
 8013eda:	f8c3 8014 	str.w	r8, [r3, #20]
 8013ede:	3101      	adds	r1, #1
 8013ee0:	4b03      	ldr	r3, [pc, #12]	; (8013ef0 <mount+0xa2>)
 8013ee2:	6019      	str	r1, [r3, #0]
 8013ee4:	4648      	mov	r0, r9
 8013ee6:	f002 fd7d 	bl	80169e4 <restore>
 8013eea:	2001      	movs	r0, #1
 8013eec:	e7d4      	b.n	8013e98 <mount+0x4a>
 8013eee:	bf00      	nop
 8013ef0:	2000117c 	.word	0x2000117c
 8013ef4:	20001180 	.word	0x20001180

08013ef8 <ttywrite>:
 8013ef8:	b570      	push	{r4, r5, r6, lr}
 8013efa:	1e15      	subs	r5, r2, #0
 8013efc:	db0e      	blt.n	8013f1c <ttywrite+0x24>
 8013efe:	4606      	mov	r6, r0
 8013f00:	460c      	mov	r4, r1
 8013f02:	b93d      	cbnz	r5, 8013f14 <ttywrite+0x1c>
 8013f04:	2001      	movs	r0, #1
 8013f06:	e008      	b.n	8013f1a <ttywrite+0x22>
 8013f08:	f814 1b01 	ldrb.w	r1, [r4], #1
 8013f0c:	4630      	mov	r0, r6
 8013f0e:	f000 f809 	bl	8013f24 <ttyputc>
 8013f12:	3d01      	subs	r5, #1
 8013f14:	2d00      	cmp	r5, #0
 8013f16:	dcf7      	bgt.n	8013f08 <ttywrite+0x10>
 8013f18:	2001      	movs	r0, #1
 8013f1a:	bd70      	pop	{r4, r5, r6, pc}
 8013f1c:	f04f 30ff 	mov.w	r0, #4294967295	; 0xffffffff
 8013f20:	e7fb      	b.n	8013f1a <ttywrite+0x22>
	...

08013f24 <ttyputc>:
 8013f24:	e92d 41f0 	stmdb	sp!, {r4, r5, r6, r7, r8, lr}
 8013f28:	460e      	mov	r6, r1
 8013f2a:	6847      	ldr	r7, [r0, #4]
 8013f2c:	290a      	cmp	r1, #10
 8013f2e:	d020      	beq.n	8013f72 <ttyputc+0x4e>
 8013f30:	f8df 8058 	ldr.w	r8, [pc, #88]	; 8013f8c <ttyputc+0x68>
 8013f34:	249c      	movs	r4, #156	; 0x9c
 8013f36:	fb04 f407 	mul.w	r4, r4, r7
 8013f3a:	eb08 0504 	add.w	r5, r8, r4
 8013f3e:	6d68      	ldr	r0, [r5, #84]	; 0x54
 8013f40:	f001 f8a0 	bl	8015084 <wait>
 8013f44:	6b2b      	ldr	r3, [r5, #48]	; 0x30
 8013f46:	1c5a      	adds	r2, r3, #1
 8013f48:	632a      	str	r2, [r5, #48]	; 0x30
 8013f4a:	701e      	strb	r6, [r3, #0]
 8013f4c:	6b2b      	ldr	r3, [r5, #48]	; 0x30
 8013f4e:	3450      	adds	r4, #80	; 0x50
 8013f50:	4444      	add	r4, r8
 8013f52:	3404      	adds	r4, #4
 8013f54:	42a3      	cmp	r3, r4
 8013f56:	d307      	bcc.n	8013f68 <ttyputc+0x44>
 8013f58:	229c      	movs	r2, #156	; 0x9c
 8013f5a:	fb02 f707 	mul.w	r7, r2, r7
 8013f5e:	f107 0330 	add.w	r3, r7, #48	; 0x30
 8013f62:	4443      	add	r3, r8
 8013f64:	3304      	adds	r3, #4
 8013f66:	632b      	str	r3, [r5, #48]	; 0x30
 8013f68:	f000 fb10 	bl	801458c <ttykickout>
 8013f6c:	2001      	movs	r0, #1
 8013f6e:	e8bd 81f0 	ldmia.w	sp!, {r4, r5, r6, r7, r8, pc}
 8013f72:	4a06      	ldr	r2, [pc, #24]	; (8013f8c <ttyputc+0x68>)
 8013f74:	239c      	movs	r3, #156	; 0x9c
 8013f76:	fb03 2307 	mla	r3, r3, r7, r2
 8013f7a:	f893 3098 	ldrb.w	r3, [r3, #152]	; 0x98
 8013f7e:	2b00      	cmp	r3, #0
 8013f80:	d0d6      	beq.n	8013f30 <ttyputc+0xc>
 8013f82:	210d      	movs	r1, #13
 8013f84:	f7ff ffce 	bl	8013f24 <ttyputc>
 8013f88:	e7d2      	b.n	8013f30 <ttyputc+0xc>
 8013f8a:	bf00      	nop
 8013f8c:	200011f8 	.word	0x200011f8

08013f90 <ttygetc>:
 8013f90:	b570      	push	{r4, r5, r6, lr}
 8013f92:	6846      	ldr	r6, [r0, #4]
 8013f94:	4d18      	ldr	r5, [pc, #96]	; (8013ff8 <ttygetc+0x68>)
 8013f96:	249c      	movs	r4, #156	; 0x9c
 8013f98:	fb04 f406 	mul.w	r4, r4, r6
 8013f9c:	192b      	adds	r3, r5, r4
 8013f9e:	6a98      	ldr	r0, [r3, #40]	; 0x28
 8013fa0:	f001 f870 	bl	8015084 <wait>
 8013fa4:	592a      	ldr	r2, [r5, r4]
 8013fa6:	1c53      	adds	r3, r2, #1
 8013fa8:	512b      	str	r3, [r5, r4]
 8013faa:	7810      	ldrb	r0, [r2, #0]
 8013fac:	3428      	adds	r4, #40	; 0x28
 8013fae:	442c      	add	r4, r5
 8013fb0:	42a3      	cmp	r3, r4
 8013fb2:	d306      	bcc.n	8013fc2 <ttygetc+0x32>
 8013fb4:	239c      	movs	r3, #156	; 0x9c
 8013fb6:	fb03 f306 	mul.w	r3, r3, r6
 8013fba:	f103 0208 	add.w	r2, r3, #8
 8013fbe:	442a      	add	r2, r5
 8013fc0:	50ea      	str	r2, [r5, r3]
 8013fc2:	4a0d      	ldr	r2, [pc, #52]	; (8013ff8 <ttygetc+0x68>)
 8013fc4:	239c      	movs	r3, #156	; 0x9c
 8013fc6:	fb03 2306 	mla	r3, r3, r6, r2
 8013fca:	f893 3080 	ldrb.w	r3, [r3, #128]	; 0x80
 8013fce:	2b43      	cmp	r3, #67	; 0x43
 8013fd0:	d000      	beq.n	8013fd4 <ttygetc+0x44>
 8013fd2:	bd70      	pop	{r4, r5, r6, pc}
 8013fd4:	239c      	movs	r3, #156	; 0x9c
 8013fd6:	fb03 2306 	mla	r3, r3, r6, r2
 8013fda:	f893 3089 	ldrb.w	r3, [r3, #137]	; 0x89
 8013fde:	2b00      	cmp	r3, #0
 8013fe0:	d0f7      	beq.n	8013fd2 <ttygetc+0x42>
 8013fe2:	4613      	mov	r3, r2
 8013fe4:	229c      	movs	r2, #156	; 0x9c
 8013fe6:	fb02 3606 	mla	r6, r2, r6, r3
 8013fea:	f896 308a 	ldrb.w	r3, [r6, #138]	; 0x8a
 8013fee:	4283      	cmp	r3, r0
 8013ff0:	d1ef      	bne.n	8013fd2 <ttygetc+0x42>
 8013ff2:	f06f 0001 	mvn.w	r0, #1
 8013ff6:	e7ec      	b.n	8013fd2 <ttygetc+0x42>
 8013ff8:	200011f8 	.word	0x200011f8

08013ffc <ttyhandler>:
 8013ffc:	b510      	push	{r4, lr}
 8013ffe:	4b06      	ldr	r3, [pc, #24]	; (8014018 <ttyhandler+0x1c>)
 8014000:	6858      	ldr	r0, [r3, #4]
 8014002:	249c      	movs	r4, #156	; 0x9c
 8014004:	4b05      	ldr	r3, [pc, #20]	; (801401c <ttyhandler+0x20>)
 8014006:	fb04 3000 	mla	r0, r4, r0, r3
 801400a:	b112      	cbz	r2, 8014012 <ttyhandler+0x16>
 801400c:	f000 f85a 	bl	80140c4 <ttyhandle_out>
 8014010:	bd10      	pop	{r4, pc}
 8014012:	f000 f924 	bl	801425e <ttyhandle_in>
 8014016:	e7fb      	b.n	8014010 <ttyhandler+0x14>
 8014018:	20000198 	.word	0x20000198
 801401c:	200011f8 	.word	0x200011f8

08014020 <ttycontrol>:
 8014020:	b538      	push	{r3, r4, r5, lr}
 8014022:	6843      	ldr	r3, [r0, #4]
 8014024:	3903      	subs	r1, #3
 8014026:	2907      	cmp	r1, #7
 8014028:	d847      	bhi.n	80140ba <ttycontrol+0x9a>
 801402a:	e8df f001 	tbb	[pc, r1]
 801402e:	1204      	.short	0x1204
 8014030:	2d46241b 	.word	0x2d46241b
 8014034:	3d35      	.short	0x3d35
 8014036:	4a22      	ldr	r2, [pc, #136]	; (80140c0 <ttycontrol+0xa0>)
 8014038:	259c      	movs	r5, #156	; 0x9c
 801403a:	fb05 2503 	mla	r5, r5, r3, r2
 801403e:	6aa8      	ldr	r0, [r5, #40]	; 0x28
 8014040:	f001 f820 	bl	8015084 <wait>
 8014044:	686b      	ldr	r3, [r5, #4]
 8014046:	781c      	ldrb	r4, [r3, #0]
 8014048:	6aa8      	ldr	r0, [r5, #40]	; 0x28
 801404a:	f002 f9d1 	bl	80163f0 <signal>
 801404e:	4620      	mov	r0, r4
 8014050:	bd38      	pop	{r3, r4, r5, pc}
 8014052:	491b      	ldr	r1, [pc, #108]	; (80140c0 <ttycontrol+0xa0>)
 8014054:	229c      	movs	r2, #156	; 0x9c
 8014056:	fb02 1303 	mla	r3, r2, r3, r1
 801405a:	2252      	movs	r2, #82	; 0x52
 801405c:	f883 2080 	strb.w	r2, [r3, #128]	; 0x80
 8014060:	2001      	movs	r0, #1
 8014062:	e7f5      	b.n	8014050 <ttycontrol+0x30>
 8014064:	4916      	ldr	r1, [pc, #88]	; (80140c0 <ttycontrol+0xa0>)
 8014066:	229c      	movs	r2, #156	; 0x9c
 8014068:	fb02 1303 	mla	r3, r2, r3, r1
 801406c:	2243      	movs	r2, #67	; 0x43
 801406e:	f883 2080 	strb.w	r2, [r3, #128]	; 0x80
 8014072:	2001      	movs	r0, #1
 8014074:	e7ec      	b.n	8014050 <ttycontrol+0x30>
 8014076:	4912      	ldr	r1, [pc, #72]	; (80140c0 <ttycontrol+0xa0>)
 8014078:	229c      	movs	r2, #156	; 0x9c
 801407a:	fb02 1303 	mla	r3, r2, r3, r1
 801407e:	224b      	movs	r2, #75	; 0x4b
 8014080:	f883 2080 	strb.w	r2, [r3, #128]	; 0x80
 8014084:	2001      	movs	r0, #1
 8014086:	e7e3      	b.n	8014050 <ttycontrol+0x30>
 8014088:	490d      	ldr	r1, [pc, #52]	; (80140c0 <ttycontrol+0xa0>)
 801408a:	229c      	movs	r2, #156	; 0x9c
 801408c:	fb02 1303 	mla	r3, r2, r3, r1
 8014090:	6a98      	ldr	r0, [r3, #40]	; 0x28
 8014092:	f001 fe2f 	bl	8015cf4 <semcount>
 8014096:	e7db      	b.n	8014050 <ttycontrol+0x30>
 8014098:	4909      	ldr	r1, [pc, #36]	; (80140c0 <ttycontrol+0xa0>)
 801409a:	229c      	movs	r2, #156	; 0x9c
 801409c:	fb02 1303 	mla	r3, r2, r3, r1
 80140a0:	2001      	movs	r0, #1
 80140a2:	f883 0081 	strb.w	r0, [r3, #129]	; 0x81
 80140a6:	e7d3      	b.n	8014050 <ttycontrol+0x30>
 80140a8:	4a05      	ldr	r2, [pc, #20]	; (80140c0 <ttycontrol+0xa0>)
 80140aa:	219c      	movs	r1, #156	; 0x9c
 80140ac:	fb01 2303 	mla	r3, r1, r3, r2
 80140b0:	2200      	movs	r2, #0
 80140b2:	f883 2081 	strb.w	r2, [r3, #129]	; 0x81
 80140b6:	2001      	movs	r0, #1
 80140b8:	e7ca      	b.n	8014050 <ttycontrol+0x30>
 80140ba:	f04f 30ff 	mov.w	r0, #4294967295	; 0xffffffff
 80140be:	e7c7      	b.n	8014050 <ttycontrol+0x30>
 80140c0:	200011f8 	.word	0x200011f8

080140c4 <ttyhandle_out>:
 80140c4:	b5f8      	push	{r3, r4, r5, r6, r7, lr}
 80140c6:	f890 3095 	ldrb.w	r3, [r0, #149]	; 0x95
 80140ca:	2b00      	cmp	r3, #0
 80140cc:	d144      	bne.n	8014158 <ttyhandle_out+0x94>
 80140ce:	4604      	mov	r4, r0
 80140d0:	6d82      	ldr	r2, [r0, #88]	; 0x58
 80140d2:	6dc3      	ldr	r3, [r0, #92]	; 0x5c
 80140d4:	429a      	cmp	r2, r3
 80140d6:	d016      	beq.n	8014106 <ttyhandle_out+0x42>
 80140d8:	2501      	movs	r5, #1
 80140da:	2d00      	cmp	r5, #0
 80140dc:	dd19      	ble.n	8014112 <ttyhandle_out+0x4e>
 80140de:	6da2      	ldr	r2, [r4, #88]	; 0x58
 80140e0:	6de3      	ldr	r3, [r4, #92]	; 0x5c
 80140e2:	429a      	cmp	r2, r3
 80140e4:	d015      	beq.n	8014112 <ttyhandle_out+0x4e>
 80140e6:	6ae3      	ldr	r3, [r4, #44]	; 0x2c
 80140e8:	1c5a      	adds	r2, r3, #1
 80140ea:	62e2      	str	r2, [r4, #44]	; 0x2c
 80140ec:	7818      	ldrb	r0, [r3, #0]
 80140ee:	f001 fac5 	bl	801567c <kputc>
 80140f2:	6da2      	ldr	r2, [r4, #88]	; 0x58
 80140f4:	f104 0380 	add.w	r3, r4, #128	; 0x80
 80140f8:	429a      	cmp	r2, r3
 80140fa:	d302      	bcc.n	8014102 <ttyhandle_out+0x3e>
 80140fc:	f104 0360 	add.w	r3, r4, #96	; 0x60
 8014100:	65a3      	str	r3, [r4, #88]	; 0x58
 8014102:	3d01      	subs	r5, #1
 8014104:	e7e9      	b.n	80140da <ttyhandle_out+0x16>
 8014106:	6d40      	ldr	r0, [r0, #84]	; 0x54
 8014108:	f001 fdf4 	bl	8015cf4 <semcount>
 801410c:	281f      	cmp	r0, #31
 801410e:	dde3      	ble.n	80140d8 <ttyhandle_out+0x14>
 8014110:	e022      	b.n	8014158 <ttyhandle_out+0x94>
 8014112:	6d60      	ldr	r0, [r4, #84]	; 0x54
 8014114:	f001 fdee 	bl	8015cf4 <semcount>
 8014118:	f1c0 0620 	rsb	r6, r0, #32
 801411c:	2700      	movs	r7, #0
 801411e:	e002      	b.n	8014126 <ttyhandle_out+0x62>
 8014120:	3e01      	subs	r6, #1
 8014122:	3d01      	subs	r5, #1
 8014124:	3701      	adds	r7, #1
 8014126:	2d00      	cmp	r5, #0
 8014128:	dd10      	ble.n	801414c <ttyhandle_out+0x88>
 801412a:	2e00      	cmp	r6, #0
 801412c:	dd0e      	ble.n	801414c <ttyhandle_out+0x88>
 801412e:	6ae3      	ldr	r3, [r4, #44]	; 0x2c
 8014130:	1c5a      	adds	r2, r3, #1
 8014132:	62e2      	str	r2, [r4, #44]	; 0x2c
 8014134:	7818      	ldrb	r0, [r3, #0]
 8014136:	f001 faa1 	bl	801567c <kputc>
 801413a:	6ae2      	ldr	r2, [r4, #44]	; 0x2c
 801413c:	f104 0354 	add.w	r3, r4, #84	; 0x54
 8014140:	429a      	cmp	r2, r3
 8014142:	d3ed      	bcc.n	8014120 <ttyhandle_out+0x5c>
 8014144:	f104 0334 	add.w	r3, r4, #52	; 0x34
 8014148:	62e3      	str	r3, [r4, #44]	; 0x2c
 801414a:	e7e9      	b.n	8014120 <ttyhandle_out+0x5c>
 801414c:	2f00      	cmp	r7, #0
 801414e:	dc04      	bgt.n	801415a <ttyhandle_out+0x96>
 8014150:	6da2      	ldr	r2, [r4, #88]	; 0x58
 8014152:	6de3      	ldr	r3, [r4, #92]	; 0x5c
 8014154:	429a      	cmp	r2, r3
 8014156:	d005      	beq.n	8014164 <ttyhandle_out+0xa0>
 8014158:	bdf8      	pop	{r3, r4, r5, r6, r7, pc}
 801415a:	4639      	mov	r1, r7
 801415c:	6d60      	ldr	r0, [r4, #84]	; 0x54
 801415e:	f002 f97b 	bl	8016458 <signaln>
 8014162:	e7f5      	b.n	8014150 <ttyhandle_out+0x8c>
 8014164:	6d60      	ldr	r0, [r4, #84]	; 0x54
 8014166:	f001 fdc5 	bl	8015cf4 <semcount>
 801416a:	e7f5      	b.n	8014158 <ttyhandle_out+0x94>

0801416c <eputc>:
 801416c:	b508      	push	{r3, lr}
 801416e:	f001 fa85 	bl	801567c <kputc>
 8014172:	bd08      	pop	{r3, pc}

08014174 <erase1>:
 8014174:	b510      	push	{r4, lr}
 8014176:	4604      	mov	r4, r0
 8014178:	6843      	ldr	r3, [r0, #4]
 801417a:	3b01      	subs	r3, #1
 801417c:	6043      	str	r3, [r0, #4]
 801417e:	f100 0208 	add.w	r2, r0, #8
 8014182:	4293      	cmp	r3, r2
 8014184:	d201      	bcs.n	801418a <erase1+0x16>
 8014186:	3320      	adds	r3, #32
 8014188:	6043      	str	r3, [r0, #4]
 801418a:	6863      	ldr	r3, [r4, #4]
 801418c:	781a      	ldrb	r2, [r3, #0]
 801418e:	f894 3081 	ldrb.w	r3, [r4, #129]	; 0x81
 8014192:	b16b      	cbz	r3, 80141b0 <erase1+0x3c>
 8014194:	2a1f      	cmp	r2, #31
 8014196:	d901      	bls.n	801419c <erase1+0x28>
 8014198:	2a7f      	cmp	r2, #127	; 0x7f
 801419a:	d124      	bne.n	80141e6 <erase1+0x72>
 801419c:	f894 3083 	ldrb.w	r3, [r4, #131]	; 0x83
 80141a0:	b93b      	cbnz	r3, 80141b2 <erase1+0x3e>
 80141a2:	4621      	mov	r1, r4
 80141a4:	2008      	movs	r0, #8
 80141a6:	f7ff ffe1 	bl	801416c <eputc>
 80141aa:	f894 3082 	ldrb.w	r3, [r4, #130]	; 0x82
 80141ae:	b98b      	cbnz	r3, 80141d4 <erase1+0x60>
 80141b0:	bd10      	pop	{r4, pc}
 80141b2:	4621      	mov	r1, r4
 80141b4:	2008      	movs	r0, #8
 80141b6:	f7ff ffd9 	bl	801416c <eputc>
 80141ba:	f894 3082 	ldrb.w	r3, [r4, #130]	; 0x82
 80141be:	2b00      	cmp	r3, #0
 80141c0:	d0ef      	beq.n	80141a2 <erase1+0x2e>
 80141c2:	4621      	mov	r1, r4
 80141c4:	2020      	movs	r0, #32
 80141c6:	f7ff ffd1 	bl	801416c <eputc>
 80141ca:	4621      	mov	r1, r4
 80141cc:	2008      	movs	r0, #8
 80141ce:	f7ff ffcd 	bl	801416c <eputc>
 80141d2:	e7e6      	b.n	80141a2 <erase1+0x2e>
 80141d4:	4621      	mov	r1, r4
 80141d6:	2020      	movs	r0, #32
 80141d8:	f7ff ffc8 	bl	801416c <eputc>
 80141dc:	4621      	mov	r1, r4
 80141de:	2008      	movs	r0, #8
 80141e0:	f7ff ffc4 	bl	801416c <eputc>
 80141e4:	e7e4      	b.n	80141b0 <erase1+0x3c>
 80141e6:	4621      	mov	r1, r4
 80141e8:	2008      	movs	r0, #8
 80141ea:	f7ff ffbf 	bl	801416c <eputc>
 80141ee:	f894 3082 	ldrb.w	r3, [r4, #130]	; 0x82
 80141f2:	2b00      	cmp	r3, #0
 80141f4:	d0dc      	beq.n	80141b0 <erase1+0x3c>
 80141f6:	4621      	mov	r1, r4
 80141f8:	2020      	movs	r0, #32
 80141fa:	f7ff ffb7 	bl	801416c <eputc>
 80141fe:	4621      	mov	r1, r4
 8014200:	2008      	movs	r0, #8
 8014202:	f7ff ffb3 	bl	801416c <eputc>
 8014206:	e7d3      	b.n	80141b0 <erase1+0x3c>

08014208 <echoch>:
 8014208:	b538      	push	{r3, r4, r5, lr}
 801420a:	4604      	mov	r4, r0
 801420c:	460d      	mov	r5, r1
 801420e:	280a      	cmp	r0, #10
 8014210:	d00d      	beq.n	801422e <echoch+0x26>
 8014212:	280d      	cmp	r0, #13
 8014214:	d00b      	beq.n	801422e <echoch+0x26>
 8014216:	2c1f      	cmp	r4, #31
 8014218:	d901      	bls.n	801421e <echoch+0x16>
 801421a:	2c7f      	cmp	r4, #127	; 0x7f
 801421c:	d102      	bne.n	8014224 <echoch+0x1c>
 801421e:	f895 3083 	ldrb.w	r3, [r5, #131]	; 0x83
 8014222:	b98b      	cbnz	r3, 8014248 <echoch+0x40>
 8014224:	4629      	mov	r1, r5
 8014226:	4620      	mov	r0, r4
 8014228:	f7ff ffa0 	bl	801416c <eputc>
 801422c:	bd38      	pop	{r3, r4, r5, pc}
 801422e:	f895 3084 	ldrb.w	r3, [r5, #132]	; 0x84
 8014232:	2b00      	cmp	r3, #0
 8014234:	d0ef      	beq.n	8014216 <echoch+0xe>
 8014236:	4629      	mov	r1, r5
 8014238:	200d      	movs	r0, #13
 801423a:	f7ff ff97 	bl	801416c <eputc>
 801423e:	4629      	mov	r1, r5
 8014240:	200a      	movs	r0, #10
 8014242:	f7ff ff93 	bl	801416c <eputc>
 8014246:	e7f1      	b.n	801422c <echoch+0x24>
 8014248:	4629      	mov	r1, r5
 801424a:	205e      	movs	r0, #94	; 0x5e
 801424c:	f7ff ff8e 	bl	801416c <eputc>
 8014250:	f104 0040 	add.w	r0, r4, #64	; 0x40
 8014254:	4629      	mov	r1, r5
 8014256:	b2c0      	uxtb	r0, r0
 8014258:	f7ff ff88 	bl	801416c <eputc>
 801425c:	e7e6      	b.n	801422c <echoch+0x24>

0801425e <ttyhandle_in>:
 801425e:	b538      	push	{r3, r4, r5, lr}
 8014260:	4604      	mov	r4, r0
 8014262:	460d      	mov	r5, r1
 8014264:	6a80      	ldr	r0, [r0, #40]	; 0x28
 8014266:	f001 fd45 	bl	8015cf4 <semcount>
 801426a:	2800      	cmp	r0, #0
 801426c:	db46      	blt.n	80142fc <ttyhandle_in+0x9e>
 801426e:	f894 3080 	ldrb.w	r3, [r4, #128]	; 0x80
 8014272:	2b52      	cmp	r3, #82	; 0x52
 8014274:	d044      	beq.n	8014300 <ttyhandle_in+0xa2>
 8014276:	2d0d      	cmp	r5, #13
 8014278:	d054      	beq.n	8014324 <ttyhandle_in+0xc6>
 801427a:	2200      	movs	r2, #0
 801427c:	f884 2095 	strb.w	r2, [r4, #149]	; 0x95
 8014280:	2b4b      	cmp	r3, #75	; 0x4b
 8014282:	d055      	beq.n	8014330 <ttyhandle_in+0xd2>
 8014284:	f894 308c 	ldrb.w	r3, [r4, #140]	; 0x8c
 8014288:	42ab      	cmp	r3, r5
 801428a:	d071      	beq.n	8014370 <ttyhandle_in+0x112>
 801428c:	f894 3087 	ldrb.w	r3, [r4, #135]	; 0x87
 8014290:	42ab      	cmp	r3, r5
 8014292:	f000 8088 	beq.w	80143a6 <ttyhandle_in+0x148>
 8014296:	f894 3088 	ldrb.w	r3, [r4, #136]	; 0x88
 801429a:	42ab      	cmp	r3, r5
 801429c:	f000 8083 	beq.w	80143a6 <ttyhandle_in+0x148>
 80142a0:	2d0a      	cmp	r5, #10
 80142a2:	f000 8090 	beq.w	80143c6 <ttyhandle_in+0x168>
 80142a6:	2d0d      	cmp	r5, #13
 80142a8:	f000 808d 	beq.w	80143c6 <ttyhandle_in+0x168>
 80142ac:	6aa0      	ldr	r0, [r4, #40]	; 0x28
 80142ae:	f001 fd21 	bl	8015cf4 <semcount>
 80142b2:	2800      	cmp	r0, #0
 80142b4:	f2c0 80a5 	blt.w	8014402 <ttyhandle_in+0x1a4>
 80142b8:	f8d4 3090 	ldr.w	r3, [r4, #144]	; 0x90
 80142bc:	4418      	add	r0, r3
 80142be:	281e      	cmp	r0, #30
 80142c0:	f300 80a1 	bgt.w	8014406 <ttyhandle_in+0x1a8>
 80142c4:	f894 308a 	ldrb.w	r3, [r4, #138]	; 0x8a
 80142c8:	42ab      	cmp	r3, r5
 80142ca:	f040 80a7 	bne.w	801441c <ttyhandle_in+0x1be>
 80142ce:	f894 3089 	ldrb.w	r3, [r4, #137]	; 0x89
 80142d2:	2b00      	cmp	r3, #0
 80142d4:	f000 80a2 	beq.w	801441c <ttyhandle_in+0x1be>
 80142d8:	f894 3081 	ldrb.w	r3, [r4, #129]	; 0x81
 80142dc:	2b00      	cmp	r3, #0
 80142de:	f040 8098 	bne.w	8014412 <ttyhandle_in+0x1b4>
 80142e2:	f8d4 3090 	ldr.w	r3, [r4, #144]	; 0x90
 80142e6:	2b00      	cmp	r3, #0
 80142e8:	f040 8085 	bne.w	80143f6 <ttyhandle_in+0x198>
 80142ec:	6863      	ldr	r3, [r4, #4]
 80142ee:	1c5a      	adds	r2, r3, #1
 80142f0:	6062      	str	r2, [r4, #4]
 80142f2:	701d      	strb	r5, [r3, #0]
 80142f4:	6aa0      	ldr	r0, [r4, #40]	; 0x28
 80142f6:	f002 f87b 	bl	80163f0 <signal>
 80142fa:	e07c      	b.n	80143f6 <ttyhandle_in+0x198>
 80142fc:	2000      	movs	r0, #0
 80142fe:	e7b6      	b.n	801426e <ttyhandle_in+0x10>
 8014300:	281f      	cmp	r0, #31
 8014302:	dc78      	bgt.n	80143f6 <ttyhandle_in+0x198>
 8014304:	6863      	ldr	r3, [r4, #4]
 8014306:	1c5a      	adds	r2, r3, #1
 8014308:	6062      	str	r2, [r4, #4]
 801430a:	701d      	strb	r5, [r3, #0]
 801430c:	6862      	ldr	r2, [r4, #4]
 801430e:	f104 0328 	add.w	r3, r4, #40	; 0x28
 8014312:	429a      	cmp	r2, r3
 8014314:	d302      	bcc.n	801431c <ttyhandle_in+0xbe>
 8014316:	f104 0308 	add.w	r3, r4, #8
 801431a:	6063      	str	r3, [r4, #4]
 801431c:	6aa0      	ldr	r0, [r4, #40]	; 0x28
 801431e:	f002 f867 	bl	80163f0 <signal>
 8014322:	e068      	b.n	80143f6 <ttyhandle_in+0x198>
 8014324:	f894 2085 	ldrb.w	r2, [r4, #133]	; 0x85
 8014328:	2a00      	cmp	r2, #0
 801432a:	d0a6      	beq.n	801427a <ttyhandle_in+0x1c>
 801432c:	250a      	movs	r5, #10
 801432e:	e7a4      	b.n	801427a <ttyhandle_in+0x1c>
 8014330:	281f      	cmp	r0, #31
 8014332:	dc12      	bgt.n	801435a <ttyhandle_in+0xfc>
 8014334:	6863      	ldr	r3, [r4, #4]
 8014336:	1c5a      	adds	r2, r3, #1
 8014338:	6062      	str	r2, [r4, #4]
 801433a:	701d      	strb	r5, [r3, #0]
 801433c:	6862      	ldr	r2, [r4, #4]
 801433e:	f104 0328 	add.w	r3, r4, #40	; 0x28
 8014342:	429a      	cmp	r2, r3
 8014344:	d302      	bcc.n	801434c <ttyhandle_in+0xee>
 8014346:	f104 0308 	add.w	r3, r4, #8
 801434a:	6063      	str	r3, [r4, #4]
 801434c:	f894 3081 	ldrb.w	r3, [r4, #129]	; 0x81
 8014350:	b94b      	cbnz	r3, 8014366 <ttyhandle_in+0x108>
 8014352:	6aa0      	ldr	r0, [r4, #40]	; 0x28
 8014354:	f002 f84c 	bl	80163f0 <signal>
 8014358:	e04d      	b.n	80143f6 <ttyhandle_in+0x198>
 801435a:	4621      	mov	r1, r4
 801435c:	f894 0099 	ldrb.w	r0, [r4, #153]	; 0x99
 8014360:	f7ff ff04 	bl	801416c <eputc>
 8014364:	e047      	b.n	80143f6 <ttyhandle_in+0x198>
 8014366:	4621      	mov	r1, r4
 8014368:	4628      	mov	r0, r5
 801436a:	f7ff ff4d 	bl	8014208 <echoch>
 801436e:	e7f0      	b.n	8014352 <ttyhandle_in+0xf4>
 8014370:	f894 308b 	ldrb.w	r3, [r4, #139]	; 0x8b
 8014374:	2b00      	cmp	r3, #0
 8014376:	d089      	beq.n	801428c <ttyhandle_in+0x2e>
 8014378:	f8d4 2090 	ldr.w	r2, [r4, #144]	; 0x90
 801437c:	6863      	ldr	r3, [r4, #4]
 801437e:	1a9b      	subs	r3, r3, r2
 8014380:	6063      	str	r3, [r4, #4]
 8014382:	f104 0208 	add.w	r2, r4, #8
 8014386:	4293      	cmp	r3, r2
 8014388:	d201      	bcs.n	801438e <ttyhandle_in+0x130>
 801438a:	3320      	adds	r3, #32
 801438c:	6063      	str	r3, [r4, #4]
 801438e:	2300      	movs	r3, #0
 8014390:	f8c4 3090 	str.w	r3, [r4, #144]	; 0x90
 8014394:	4621      	mov	r1, r4
 8014396:	200d      	movs	r0, #13
 8014398:	f7ff fee8 	bl	801416c <eputc>
 801439c:	4621      	mov	r1, r4
 801439e:	200a      	movs	r0, #10
 80143a0:	f7ff fee4 	bl	801416c <eputc>
 80143a4:	e027      	b.n	80143f6 <ttyhandle_in+0x198>
 80143a6:	f894 3086 	ldrb.w	r3, [r4, #134]	; 0x86
 80143aa:	2b00      	cmp	r3, #0
 80143ac:	f43f af78 	beq.w	80142a0 <ttyhandle_in+0x42>
 80143b0:	f8d4 3090 	ldr.w	r3, [r4, #144]	; 0x90
 80143b4:	2b00      	cmp	r3, #0
 80143b6:	dd1e      	ble.n	80143f6 <ttyhandle_in+0x198>
 80143b8:	3b01      	subs	r3, #1
 80143ba:	f8c4 3090 	str.w	r3, [r4, #144]	; 0x90
 80143be:	4620      	mov	r0, r4
 80143c0:	f7ff fed8 	bl	8014174 <erase1>
 80143c4:	e017      	b.n	80143f6 <ttyhandle_in+0x198>
 80143c6:	f894 3081 	ldrb.w	r3, [r4, #129]	; 0x81
 80143ca:	b9ab      	cbnz	r3, 80143f8 <ttyhandle_in+0x19a>
 80143cc:	6863      	ldr	r3, [r4, #4]
 80143ce:	1c5a      	adds	r2, r3, #1
 80143d0:	6062      	str	r2, [r4, #4]
 80143d2:	701d      	strb	r5, [r3, #0]
 80143d4:	6862      	ldr	r2, [r4, #4]
 80143d6:	f104 0328 	add.w	r3, r4, #40	; 0x28
 80143da:	429a      	cmp	r2, r3
 80143dc:	d302      	bcc.n	80143e4 <ttyhandle_in+0x186>
 80143de:	f104 0308 	add.w	r3, r4, #8
 80143e2:	6063      	str	r3, [r4, #4]
 80143e4:	f8d4 1090 	ldr.w	r1, [r4, #144]	; 0x90
 80143e8:	3101      	adds	r1, #1
 80143ea:	6aa0      	ldr	r0, [r4, #40]	; 0x28
 80143ec:	f002 f834 	bl	8016458 <signaln>
 80143f0:	2300      	movs	r3, #0
 80143f2:	f8c4 3090 	str.w	r3, [r4, #144]	; 0x90
 80143f6:	bd38      	pop	{r3, r4, r5, pc}
 80143f8:	4621      	mov	r1, r4
 80143fa:	4628      	mov	r0, r5
 80143fc:	f7ff ff04 	bl	8014208 <echoch>
 8014400:	e7e4      	b.n	80143cc <ttyhandle_in+0x16e>
 8014402:	2000      	movs	r0, #0
 8014404:	e758      	b.n	80142b8 <ttyhandle_in+0x5a>
 8014406:	4621      	mov	r1, r4
 8014408:	f894 0099 	ldrb.w	r0, [r4, #153]	; 0x99
 801440c:	f7ff feae 	bl	801416c <eputc>
 8014410:	e7f1      	b.n	80143f6 <ttyhandle_in+0x198>
 8014412:	4621      	mov	r1, r4
 8014414:	4628      	mov	r0, r5
 8014416:	f7ff fef7 	bl	8014208 <echoch>
 801441a:	e762      	b.n	80142e2 <ttyhandle_in+0x84>
 801441c:	f894 3081 	ldrb.w	r3, [r4, #129]	; 0x81
 8014420:	b98b      	cbnz	r3, 8014446 <ttyhandle_in+0x1e8>
 8014422:	f8d4 3090 	ldr.w	r3, [r4, #144]	; 0x90
 8014426:	3301      	adds	r3, #1
 8014428:	f8c4 3090 	str.w	r3, [r4, #144]	; 0x90
 801442c:	6863      	ldr	r3, [r4, #4]
 801442e:	1c5a      	adds	r2, r3, #1
 8014430:	6062      	str	r2, [r4, #4]
 8014432:	701d      	strb	r5, [r3, #0]
 8014434:	6862      	ldr	r2, [r4, #4]
 8014436:	f104 0328 	add.w	r3, r4, #40	; 0x28
 801443a:	429a      	cmp	r2, r3
 801443c:	d3db      	bcc.n	80143f6 <ttyhandle_in+0x198>
 801443e:	f104 0308 	add.w	r3, r4, #8
 8014442:	6063      	str	r3, [r4, #4]
 8014444:	e7d7      	b.n	80143f6 <ttyhandle_in+0x198>
 8014446:	4621      	mov	r1, r4
 8014448:	4628      	mov	r0, r5
 801444a:	f7ff fedd 	bl	8014208 <echoch>
 801444e:	e7e8      	b.n	8014422 <ttyhandle_in+0x1c4>

08014450 <ttyinit>:
 8014450:	b570      	push	{r4, r5, r6, lr}
 8014452:	6843      	ldr	r3, [r0, #4]
 8014454:	259c      	movs	r5, #156	; 0x9c
 8014456:	fb05 f503 	mul.w	r5, r5, r3
 801445a:	f105 0308 	add.w	r3, r5, #8
 801445e:	4e25      	ldr	r6, [pc, #148]	; (80144f4 <ttyinit+0xa4>)
 8014460:	4433      	add	r3, r6
 8014462:	1974      	adds	r4, r6, r5
 8014464:	6063      	str	r3, [r4, #4]
 8014466:	5173      	str	r3, [r6, r5]
 8014468:	2000      	movs	r0, #0
 801446a:	f001 fc23 	bl	8015cb4 <semcreate>
 801446e:	62a0      	str	r0, [r4, #40]	; 0x28
 8014470:	f105 0330 	add.w	r3, r5, #48	; 0x30
 8014474:	4433      	add	r3, r6
 8014476:	3304      	adds	r3, #4
 8014478:	6323      	str	r3, [r4, #48]	; 0x30
 801447a:	62e3      	str	r3, [r4, #44]	; 0x2c
 801447c:	2020      	movs	r0, #32
 801447e:	f001 fc19 	bl	8015cb4 <semcreate>
 8014482:	6560      	str	r0, [r4, #84]	; 0x54
 8014484:	3560      	adds	r5, #96	; 0x60
 8014486:	4435      	add	r5, r6
 8014488:	65e5      	str	r5, [r4, #92]	; 0x5c
 801448a:	65a5      	str	r5, [r4, #88]	; 0x58
 801448c:	2343      	movs	r3, #67	; 0x43
 801448e:	f884 3080 	strb.w	r3, [r4, #128]	; 0x80
 8014492:	2001      	movs	r0, #1
 8014494:	f884 0081 	strb.w	r0, [r4, #129]	; 0x81
 8014498:	f884 0082 	strb.w	r0, [r4, #130]	; 0x82
 801449c:	f884 0083 	strb.w	r0, [r4, #131]	; 0x83
 80144a0:	f884 0084 	strb.w	r0, [r4, #132]	; 0x84
 80144a4:	f884 0085 	strb.w	r0, [r4, #133]	; 0x85
 80144a8:	f884 0086 	strb.w	r0, [r4, #134]	; 0x86
 80144ac:	2308      	movs	r3, #8
 80144ae:	f884 3087 	strb.w	r3, [r4, #135]	; 0x87
 80144b2:	237f      	movs	r3, #127	; 0x7f
 80144b4:	f884 3088 	strb.w	r3, [r4, #136]	; 0x88
 80144b8:	f884 0089 	strb.w	r0, [r4, #137]	; 0x89
 80144bc:	2304      	movs	r3, #4
 80144be:	f884 308a 	strb.w	r3, [r4, #138]	; 0x8a
 80144c2:	f884 008b 	strb.w	r0, [r4, #139]	; 0x8b
 80144c6:	2315      	movs	r3, #21
 80144c8:	f884 308c 	strb.w	r3, [r4, #140]	; 0x8c
 80144cc:	2300      	movs	r3, #0
 80144ce:	f8c4 3090 	str.w	r3, [r4, #144]	; 0x90
 80144d2:	f884 0094 	strb.w	r0, [r4, #148]	; 0x94
 80144d6:	f884 3095 	strb.w	r3, [r4, #149]	; 0x95
 80144da:	2313      	movs	r3, #19
 80144dc:	f884 3096 	strb.w	r3, [r4, #150]	; 0x96
 80144e0:	2311      	movs	r3, #17
 80144e2:	f884 3097 	strb.w	r3, [r4, #151]	; 0x97
 80144e6:	f884 0098 	strb.w	r0, [r4, #152]	; 0x98
 80144ea:	2307      	movs	r3, #7
 80144ec:	f884 3099 	strb.w	r3, [r4, #153]	; 0x99
 80144f0:	bd70      	pop	{r4, r5, r6, pc}
 80144f2:	bf00      	nop
 80144f4:	200011f8 	.word	0x200011f8

080144f8 <ttyread>:
 80144f8:	b5f8      	push	{r3, r4, r5, r6, r7, lr}
 80144fa:	1e16      	subs	r6, r2, #0
 80144fc:	db40      	blt.n	8014580 <ttyread+0x88>
 80144fe:	4607      	mov	r7, r0
 8014500:	460c      	mov	r4, r1
 8014502:	6842      	ldr	r2, [r0, #4]
 8014504:	4920      	ldr	r1, [pc, #128]	; (8014588 <ttyread+0x90>)
 8014506:	239c      	movs	r3, #156	; 0x9c
 8014508:	fb03 1302 	mla	r3, r3, r2, r1
 801450c:	f893 3080 	ldrb.w	r3, [r3, #128]	; 0x80
 8014510:	2b43      	cmp	r3, #67	; 0x43
 8014512:	d01a      	beq.n	801454a <ttyread+0x52>
 8014514:	b10e      	cbz	r6, 801451a <ttyread+0x22>
 8014516:	2500      	movs	r5, #0
 8014518:	e013      	b.n	8014542 <ttyread+0x4a>
 801451a:	460b      	mov	r3, r1
 801451c:	219c      	movs	r1, #156	; 0x9c
 801451e:	fb01 3202 	mla	r2, r1, r2, r3
 8014522:	6a90      	ldr	r0, [r2, #40]	; 0x28
 8014524:	f001 fbe6 	bl	8015cf4 <semcount>
 8014528:	4606      	mov	r6, r0
 801452a:	2800      	cmp	r0, #0
 801452c:	d1f3      	bne.n	8014516 <ttyread+0x1e>
 801452e:	4605      	mov	r5, r0
 8014530:	e009      	b.n	8014546 <ttyread+0x4e>
 8014532:	4638      	mov	r0, r7
 8014534:	f7ff fd2c 	bl	8013f90 <ttygetc>
 8014538:	4621      	mov	r1, r4
 801453a:	f801 0b01 	strb.w	r0, [r1], #1
 801453e:	3501      	adds	r5, #1
 8014540:	460c      	mov	r4, r1
 8014542:	42ae      	cmp	r6, r5
 8014544:	dcf5      	bgt.n	8014532 <ttyread+0x3a>
 8014546:	4628      	mov	r0, r5
 8014548:	bdf8      	pop	{r3, r4, r5, r6, r7, pc}
 801454a:	f7ff fd21 	bl	8013f90 <ttygetc>
 801454e:	4605      	mov	r5, r0
 8014550:	f110 0f02 	cmn.w	r0, #2
 8014554:	d0f7      	beq.n	8014546 <ttyread+0x4e>
 8014556:	b2c3      	uxtb	r3, r0
 8014558:	f804 3b01 	strb.w	r3, [r4], #1
 801455c:	2501      	movs	r5, #1
 801455e:	e008      	b.n	8014572 <ttyread+0x7a>
 8014560:	4638      	mov	r0, r7
 8014562:	f7ff fd15 	bl	8013f90 <ttygetc>
 8014566:	b2c3      	uxtb	r3, r0
 8014568:	4621      	mov	r1, r4
 801456a:	f801 3b01 	strb.w	r3, [r1], #1
 801456e:	3501      	adds	r5, #1
 8014570:	460c      	mov	r4, r1
 8014572:	42b5      	cmp	r5, r6
 8014574:	dae7      	bge.n	8014546 <ttyread+0x4e>
 8014576:	2b0a      	cmp	r3, #10
 8014578:	d0e5      	beq.n	8014546 <ttyread+0x4e>
 801457a:	2b0d      	cmp	r3, #13
 801457c:	d1f0      	bne.n	8014560 <ttyread+0x68>
 801457e:	e7e2      	b.n	8014546 <ttyread+0x4e>
 8014580:	f04f 35ff 	mov.w	r5, #4294967295	; 0xffffffff
 8014584:	e7df      	b.n	8014546 <ttyread+0x4e>
 8014586:	bf00      	nop
 8014588:	200011f8 	.word	0x200011f8

0801458c <ttykickout>:
 801458c:	b508      	push	{r3, lr}
 801458e:	f002 fa25 	bl	80169dc <disable>
 8014592:	2201      	movs	r2, #1
 8014594:	2158      	movs	r1, #88	; 0x58
 8014596:	4610      	mov	r0, r2
 8014598:	f7ff fd30 	bl	8013ffc <ttyhandler>
 801459c:	f002 fa26 	bl	80169ec <enable>
 80145a0:	bd08      	pop	{r3, pc}
	...

080145a4 <setLED>:
 80145a4:	b508      	push	{r3, lr}
 80145a6:	460a      	mov	r2, r1
 80145a8:	2108      	movs	r1, #8
 80145aa:	4802      	ldr	r0, [pc, #8]	; (80145b4 <setLED+0x10>)
 80145ac:	f002 fa7d 	bl	8016aaa <hw_set_pin>
 80145b0:	2001      	movs	r0, #1
 80145b2:	bd08      	pop	{r3, pc}
 80145b4:	40020000 	.word	0x40020000

080145b8 <initLED>:
 80145b8:	b508      	push	{r3, lr}
 80145ba:	f44f 7264 	mov.w	r2, #912	; 0x390
 80145be:	2108      	movs	r1, #8
 80145c0:	4802      	ldr	r0, [pc, #8]	; (80145cc <initLED+0x14>)
 80145c2:	f002 fa36 	bl	8016a32 <hw_cfg_pin>
 80145c6:	2001      	movs	r0, #1
 80145c8:	bd08      	pop	{r3, pc}
 80145ca:	bf00      	nop
 80145cc:	40020000 	.word	0x40020000

080145d0 <toggleLED>:
 80145d0:	b508      	push	{r3, lr}
 80145d2:	2108      	movs	r1, #8
 80145d4:	4802      	ldr	r0, [pc, #8]	; (80145e0 <toggleLED+0x10>)
 80145d6:	f002 fa77 	bl	8016ac8 <hw_toggle_pin>
 80145da:	2001      	movs	r0, #1
 80145dc:	bd08      	pop	{r3, pc}
 80145de:	bf00      	nop
 80145e0:	40020000 	.word	0x40020000

080145e4 <flashRead>:
 80145e4:	b510      	push	{r4, lr}
 80145e6:	4608      	mov	r0, r1
 80145e8:	4611      	mov	r1, r2
 80145ea:	4a02      	ldr	r2, [pc, #8]	; (80145f4 <flashRead+0x10>)
 80145ec:	6854      	ldr	r4, [r2, #4]
 80145ee:	461a      	mov	r2, r3
 80145f0:	47a0      	blx	r4
 80145f2:	bd10      	pop	{r4, pc}
 80145f4:	0801a984 	.word	0x0801a984

080145f8 <initFlash>:
 80145f8:	b508      	push	{r3, lr}
 80145fa:	f002 fe8f 	bl	801731c <hal_w25q_spi_init>
 80145fe:	f005 ff33 	bl	801a468 <SPI_Flash_Init>
 8014602:	4b02      	ldr	r3, [pc, #8]	; (801460c <initFlash+0x14>)
 8014604:	68db      	ldr	r3, [r3, #12]
 8014606:	4798      	blx	r3
 8014608:	6800      	ldr	r0, [r0, #0]
 801460a:	bd08      	pop	{r3, pc}
 801460c:	0801a984 	.word	0x0801a984

08014610 <flashControl>:
 8014610:	b929      	cbnz	r1, 801461e <flashControl+0xe>
 8014612:	b508      	push	{r3, lr}
 8014614:	4b03      	ldr	r3, [pc, #12]	; (8014624 <flashControl+0x14>)
 8014616:	68db      	ldr	r3, [r3, #12]
 8014618:	4798      	blx	r3
 801461a:	6800      	ldr	r0, [r0, #0]
 801461c:	bd08      	pop	{r3, pc}
 801461e:	2001      	movs	r0, #1
 8014620:	4770      	bx	lr
 8014622:	bf00      	nop
 8014624:	0801a984 	.word	0x0801a984

08014628 <flashWrite>:
 8014628:	b510      	push	{r4, lr}
 801462a:	4608      	mov	r0, r1
 801462c:	4611      	mov	r1, r2
 801462e:	4a02      	ldr	r2, [pc, #8]	; (8014638 <flashWrite+0x10>)
 8014630:	6894      	ldr	r4, [r2, #8]
 8014632:	461a      	mov	r2, r3
 8014634:	47a0      	blx	r4
 8014636:	bd10      	pop	{r4, pc}
 8014638:	0801a984 	.word	0x0801a984

0801463c <SVC_XINU_NULLPROCESS>:
 801463c:	4770      	bx	lr

0801463e <SVC_XINU_PUTC>:
 801463e:	b510      	push	{r4, lr}
 8014640:	4604      	mov	r4, r0
 8014642:	7a01      	ldrb	r1, [r0, #8]
 8014644:	6840      	ldr	r0, [r0, #4]
 8014646:	f001 fcdb 	bl	8016000 <putc>
 801464a:	4620      	mov	r0, r4
 801464c:	bd10      	pop	{r4, pc}

0801464e <SVC_XINU_PUTS>:
 801464e:	b510      	push	{r4, lr}
 8014650:	4604      	mov	r4, r0
 8014652:	68c2      	ldr	r2, [r0, #12]
 8014654:	6881      	ldr	r1, [r0, #8]
 8014656:	6840      	ldr	r0, [r0, #4]
 8014658:	f001 fd0c 	bl	8016074 <write>
 801465c:	4620      	mov	r0, r4
 801465e:	bd10      	pop	{r4, pc}

08014660 <SVC_XINU_GETC>:
 8014660:	4770      	bx	lr

08014662 <SVC_XINU_GETS>:
 8014662:	4770      	bx	lr

08014664 <SVC_XINU_CLOSE>:
 8014664:	4770      	bx	lr

08014666 <SVC_XINU_OPEN>:
 8014666:	4770      	bx	lr

08014668 <SVC_XINU_READ>:
 8014668:	4770      	bx	lr

0801466a <SVC_XINU_WRITE>:
 801466a:	4770      	bx	lr

0801466c <SVC_XINU_CREATE>:
 801466c:	4770      	bx	lr

0801466e <SVC_XINU_KILL>:
 801466e:	4770      	bx	lr

08014670 <SVC_XINU_READY>:
 8014670:	4770      	bx	lr

08014672 <SVC_XINU_SLEEP>:
 8014672:	b510      	push	{r4, lr}
 8014674:	4604      	mov	r4, r0
 8014676:	6840      	ldr	r0, [r0, #4]
 8014678:	f000 fe66 	bl	8015348 <sleepms>
 801467c:	4620      	mov	r0, r4
 801467e:	bd10      	pop	{r4, pc}

08014680 <SVC_XINU_FREE>:
 8014680:	b510      	push	{r4, lr}
 8014682:	4604      	mov	r4, r0
 8014684:	6840      	ldr	r0, [r0, #4]
 8014686:	f7fd fd97 	bl	80121b8 <free>
 801468a:	4620      	mov	r0, r4
 801468c:	bd10      	pop	{r4, pc}

0801468e <SVC_XINU_MALLOC>:
 801468e:	b510      	push	{r4, lr}
 8014690:	4604      	mov	r4, r0
 8014692:	6840      	ldr	r0, [r0, #4]
 8014694:	f7fd fd7e 	bl	8012194 <malloc>
 8014698:	6020      	str	r0, [r4, #0]
 801469a:	4620      	mov	r0, r4
 801469c:	bd10      	pop	{r4, pc}

0801469e <SVC_XINU_GETDEV>:
 801469e:	4770      	bx	lr

080146a0 <SVC_XINU_SEMA_INIT>:
 80146a0:	4770      	bx	lr

080146a2 <SVC_XINU_SEMA_SIGNAL>:
 80146a2:	4770      	bx	lr

080146a4 <SVC_XINU_SEMA_WAIT>:
 80146a4:	4770      	bx	lr

080146a6 <SVC_XINU_PIN_MODE>:
 80146a6:	b510      	push	{r4, lr}
 80146a8:	4604      	mov	r4, r0
 80146aa:	8982      	ldrh	r2, [r0, #12]
 80146ac:	7a01      	ldrb	r1, [r0, #8]
 80146ae:	6840      	ldr	r0, [r0, #4]
 80146b0:	f002 f9bf 	bl	8016a32 <hw_cfg_pin>
 80146b4:	4620      	mov	r0, r4
 80146b6:	bd10      	pop	{r4, pc}

080146b8 <SVC_XINU_PIN_SET>:
 80146b8:	b510      	push	{r4, lr}
 80146ba:	4604      	mov	r4, r0
 80146bc:	7b02      	ldrb	r2, [r0, #12]
 80146be:	7a01      	ldrb	r1, [r0, #8]
 80146c0:	6840      	ldr	r0, [r0, #4]
 80146c2:	f002 f9f2 	bl	8016aaa <hw_set_pin>
 80146c6:	4620      	mov	r0, r4
 80146c8:	bd10      	pop	{r4, pc}

080146ca <SVC_XINU_PIN_GET>:
 80146ca:	b510      	push	{r4, lr}
 80146cc:	4604      	mov	r4, r0
 80146ce:	7a01      	ldrb	r1, [r0, #8]
 80146d0:	6840      	ldr	r0, [r0, #4]
 80146d2:	f002 fa04 	bl	8016ade <hw_get_pin>
 80146d6:	6020      	str	r0, [r4, #0]
 80146d8:	4620      	mov	r0, r4
 80146da:	bd10      	pop	{r4, pc}

080146dc <SVC_XINU_FREE_HEAP>:
 80146dc:	b510      	push	{r4, lr}
 80146de:	4604      	mov	r4, r0
 80146e0:	f002 f970 	bl	80169c4 <heap_free>
 80146e4:	6020      	str	r0, [r4, #0]
 80146e6:	4620      	mov	r0, r4
 80146e8:	bd10      	pop	{r4, pc}

080146ea <SVC_XINU_GETPID>:
 80146ea:	4770      	bx	lr

080146ec <SVC_XINU_EXIST>:
 80146ec:	4770      	bx	lr

080146ee <SVC_XINU_FS_INIT>:
 80146ee:	4770      	bx	lr

080146f0 <SVC_XINU_ATTACH_MEDIA>:
 80146f0:	4770      	bx	lr

080146f2 <SVC_XINU_ATTACH_LOCKS>:
 80146f2:	4770      	bx	lr

080146f4 <SVC_XINU_FOPEN>:
 80146f4:	4770      	bx	lr

080146f6 <SVC_XINU_FSEEK>:
 80146f6:	4770      	bx	lr

080146f8 <SVC_XINU_FREAD>:
 80146f8:	4770      	bx	lr

080146fa <SVC_XINU_FWRITE>:
 80146fa:	4770      	bx	lr

080146fc <SVC_XINU_FCLOSE>:
 80146fc:	4770      	bx	lr

080146fe <SVC_XINU_FTELL>:
 80146fe:	4770      	bx	lr

08014700 <SVC_XINU_FREWIN>:
 8014700:	4770      	bx	lr

08014702 <SVC_XINU_TRUNCATE>:
 8014702:	4770      	bx	lr

08014704 <SVC_XINU_SIZE>:
 8014704:	4770      	bx	lr

08014706 <SVC_XINU_AVAILABLE>:
 8014706:	4770      	bx	lr

08014708 <SVC_XINU_MKDIR>:
 8014708:	4770      	bx	lr

0801470a <SVC_XINU_FEOF>:
 801470a:	4770      	bx	lr

0801470c <SVC_XINU_OPENDIR>:
 801470c:	4770      	bx	lr

0801470e <SVC_XINU_READDIR>:
 801470e:	4770      	bx	lr

08014710 <SVC_XINU_REMOVE>:
 8014710:	4770      	bx	lr

08014712 <SVC_XINU_RENAME>:
 8014712:	4770      	bx	lr

08014714 <SVC_XINU_FORMAT>:
 8014714:	4770      	bx	lr

08014716 <SVC_XINU_MOUNT>:
 8014716:	4770      	bx	lr

08014718 <SVC_XINU_UNMOUNT>:
 8014718:	4770      	bx	lr

0801471a <SVC_XINU_DISK_FREE>:
 801471a:	4770      	bx	lr

0801471c <SVC_XINU_CLOSEDIR>:
 801471c:	4770      	bx	lr

0801471e <SVC_XINU_CREATEDIRECTORY>:
 801471e:	4770      	bx	lr

08014720 <SVC_XINU_IS_DIR>:
 8014720:	4770      	bx	lr

08014722 <SVC_XINU_FFLUSH>:
 8014722:	4770      	bx	lr

08014724 <SVC_XINU_FGETC>:
 8014724:	4770      	bx	lr

08014726 <SVC_XINU_FGETCS>:
 8014726:	4770      	bx	lr

08014728 <SVC_XINU_FPUTC>:
 8014728:	4770      	bx	lr

0801472a <SVC_XINU_FPUTCS>:
 801472a:	4770      	bx	lr

0801472c <SVC_XINU_FGETPOS>:
 801472c:	4770      	bx	lr

0801472e <SVC_XINU_NUM_TASK>:
 801472e:	4770      	bx	lr

08014730 <SVC_XINU_STRUCT_TASK>:
 8014730:	4770      	bx	lr

08014732 <SVC_XINU_LOAD_ELF>:
 8014732:	b510      	push	{r4, lr}
 8014734:	4604      	mov	r4, r0
 8014736:	6881      	ldr	r1, [r0, #8]
 8014738:	6840      	ldr	r0, [r0, #4]
 801473a:	f7fc fc3d 	bl	8010fb8 <elf_execve>
 801473e:	6020      	str	r0, [r4, #0]
 8014740:	4620      	mov	r0, r4
 8014742:	bd10      	pop	{r4, pc}

08014744 <SVC_XINU_HEAP_FREE>:
 8014744:	4770      	bx	lr

08014746 <SVC_XINU_YIELD>:
 8014746:	4770      	bx	lr

08014748 <SVC_XINU_GLOBAL_PATH>:
 8014748:	4770      	bx	lr

0801474a <SVC_XINU_UPDATE_PATH>:
 801474a:	4770      	bx	lr

0801474c <SVC_XINU_GET_PATH>:
 801474c:	4770      	bx	lr

0801474e <SVC_XINU_CD>:
 801474e:	4770      	bx	lr

08014750 <SVC_XINU_JSON>:
 8014750:	4770      	bx	lr

08014752 <SVC_XINU_GET_LEN>:
 8014752:	4770      	bx	lr

08014754 <panic>:
 8014754:	b508      	push	{r3, lr}
 8014756:	4604      	mov	r4, r0
 8014758:	f002 f940 	bl	80169dc <disable>
 801475c:	4621      	mov	r1, r4
 801475e:	4802      	ldr	r0, [pc, #8]	; (8014768 <panic+0x14>)
 8014760:	f000 ff9a 	bl	8015698 <kprintf>
 8014764:	e7fe      	b.n	8014764 <panic+0x10>
 8014766:	bf00      	nop
 8014768:	0801b348 	.word	0x0801b348

0801476c <sys_rewindDir>:
 801476c:	2000      	movs	r0, #0
 801476e:	4770      	bx	lr

08014770 <sys_tellDir>:
 8014770:	2000      	movs	r0, #0
 8014772:	4770      	bx	lr

08014774 <sys_seekDir>:
 8014774:	2000      	movs	r0, #0
 8014776:	4770      	bx	lr

08014778 <sys_open>:
 8014778:	b508      	push	{r3, lr}
 801477a:	460a      	mov	r2, r1
 801477c:	4601      	mov	r1, r0
 801477e:	201c      	movs	r0, #28
 8014780:	f002 f938 	bl	80169f4 <__syscall>
 8014784:	bd08      	pop	{r3, pc}

08014786 <sys_exist>:
 8014786:	b508      	push	{r3, lr}
 8014788:	4601      	mov	r1, r0
 801478a:	2018      	movs	r0, #24
 801478c:	f002 f932 	bl	80169f4 <__syscall>
 8014790:	bd08      	pop	{r3, pc}

08014792 <sys_write>:
 8014792:	b508      	push	{r3, lr}
 8014794:	4613      	mov	r3, r2
 8014796:	460a      	mov	r2, r1
 8014798:	4601      	mov	r1, r0
 801479a:	201f      	movs	r0, #31
 801479c:	f002 f92a 	bl	80169f4 <__syscall>
 80147a0:	bd08      	pop	{r3, pc}

080147a2 <sys_read>:
 80147a2:	b508      	push	{r3, lr}
 80147a4:	4613      	mov	r3, r2
 80147a6:	460a      	mov	r2, r1
 80147a8:	4601      	mov	r1, r0
 80147aa:	201e      	movs	r0, #30
 80147ac:	f002 f922 	bl	80169f4 <__syscall>
 80147b0:	bd08      	pop	{r3, pc}

080147b2 <sys_close>:
 80147b2:	b508      	push	{r3, lr}
 80147b4:	4601      	mov	r1, r0
 80147b6:	2020      	movs	r0, #32
 80147b8:	f002 f91c 	bl	80169f4 <__syscall>
 80147bc:	bd08      	pop	{r3, pc}

080147be <sys_seek>:
 80147be:	b508      	push	{r3, lr}
 80147c0:	4613      	mov	r3, r2
 80147c2:	460a      	mov	r2, r1
 80147c4:	4601      	mov	r1, r0
 80147c6:	201d      	movs	r0, #29
 80147c8:	f002 f914 	bl	80169f4 <__syscall>
 80147cc:	bd08      	pop	{r3, pc}

080147ce <sys_tell>:
 80147ce:	b508      	push	{r3, lr}
 80147d0:	4601      	mov	r1, r0
 80147d2:	2021      	movs	r0, #33	; 0x21
 80147d4:	f002 f90e 	bl	80169f4 <__syscall>
 80147d8:	bd08      	pop	{r3, pc}

080147da <sys_rewind>:
 80147da:	b508      	push	{r3, lr}
 80147dc:	4601      	mov	r1, r0
 80147de:	2022      	movs	r0, #34	; 0x22
 80147e0:	f002 f908 	bl	80169f4 <__syscall>
 80147e4:	bd08      	pop	{r3, pc}

080147e6 <sys_truncate>:
 80147e6:	b508      	push	{r3, lr}
 80147e8:	460a      	mov	r2, r1
 80147ea:	4601      	mov	r1, r0
 80147ec:	2023      	movs	r0, #35	; 0x23
 80147ee:	f002 f901 	bl	80169f4 <__syscall>
 80147f2:	bd08      	pop	{r3, pc}

080147f4 <sys_size>:
 80147f4:	b508      	push	{r3, lr}
 80147f6:	4601      	mov	r1, r0
 80147f8:	2024      	movs	r0, #36	; 0x24
 80147fa:	f002 f8fb 	bl	80169f4 <__syscall>
 80147fe:	bd08      	pop	{r3, pc}

08014800 <sys_available>:
 8014800:	b508      	push	{r3, lr}
 8014802:	4601      	mov	r1, r0
 8014804:	2025      	movs	r0, #37	; 0x25
 8014806:	f002 f8f5 	bl	80169f4 <__syscall>
 801480a:	bd08      	pop	{r3, pc}

0801480c <sys_mkdir>:
 801480c:	b508      	push	{r3, lr}
 801480e:	4601      	mov	r1, r0
 8014810:	2026      	movs	r0, #38	; 0x26
 8014812:	f002 f8ef 	bl	80169f4 <__syscall>
 8014816:	bd08      	pop	{r3, pc}

08014818 <sys_openDir>:
 8014818:	b508      	push	{r3, lr}
 801481a:	4601      	mov	r1, r0
 801481c:	2028      	movs	r0, #40	; 0x28
 801481e:	f002 f8e9 	bl	80169f4 <__syscall>
 8014822:	bd08      	pop	{r3, pc}

08014824 <sys_closeDir>:
 8014824:	b508      	push	{r3, lr}
 8014826:	4601      	mov	r1, r0
 8014828:	2030      	movs	r0, #48	; 0x30
 801482a:	f002 f8e3 	bl	80169f4 <__syscall>
 801482e:	bd08      	pop	{r3, pc}

08014830 <sys_readDir>:
 8014830:	b508      	push	{r3, lr}
 8014832:	460a      	mov	r2, r1
 8014834:	4601      	mov	r1, r0
 8014836:	2029      	movs	r0, #41	; 0x29
 8014838:	f002 f8dc 	bl	80169f4 <__syscall>
 801483c:	bd08      	pop	{r3, pc}

0801483e <sys_format>:
 801483e:	b508      	push	{r3, lr}
 8014840:	460a      	mov	r2, r1
 8014842:	4601      	mov	r1, r0
 8014844:	202c      	movs	r0, #44	; 0x2c
 8014846:	f002 f8d5 	bl	80169f4 <__syscall>
 801484a:	bd08      	pop	{r3, pc}

0801484c <sys_mount>:
 801484c:	b508      	push	{r3, lr}
 801484e:	460a      	mov	r2, r1
 8014850:	4601      	mov	r1, r0
 8014852:	202d      	movs	r0, #45	; 0x2d
 8014854:	f002 f8ce 	bl	80169f4 <__syscall>
 8014858:	bd08      	pop	{r3, pc}

0801485a <sys_unmount>:
 801485a:	b508      	push	{r3, lr}
 801485c:	4601      	mov	r1, r0
 801485e:	202e      	movs	r0, #46	; 0x2e
 8014860:	f002 f8c8 	bl	80169f4 <__syscall>
 8014864:	bd08      	pop	{r3, pc}

08014866 <sys_remove>:
 8014866:	b508      	push	{r3, lr}
 8014868:	4601      	mov	r1, r0
 801486a:	202a      	movs	r0, #42	; 0x2a
 801486c:	f002 f8c2 	bl	80169f4 <__syscall>
 8014870:	bd08      	pop	{r3, pc}

08014872 <sys_rename>:
 8014872:	b508      	push	{r3, lr}
 8014874:	460a      	mov	r2, r1
 8014876:	4601      	mov	r1, r0
 8014878:	202b      	movs	r0, #43	; 0x2b
 801487a:	f002 f8bb 	bl	80169f4 <__syscall>
 801487e:	bd08      	pop	{r3, pc}

08014880 <sys_free>:
 8014880:	b508      	push	{r3, lr}
 8014882:	202f      	movs	r0, #47	; 0x2f
 8014884:	f002 f8b6 	bl	80169f4 <__syscall>
 8014888:	bd08      	pop	{r3, pc}

0801488a <sys_sleep>:
 801488a:	b508      	push	{r3, lr}
 801488c:	4601      	mov	r1, r0
 801488e:	200c      	movs	r0, #12
 8014890:	f002 f8b0 	bl	80169f4 <__syscall>
 8014894:	bd08      	pop	{r3, pc}

08014896 <sys_kill>:
 8014896:	b508      	push	{r3, lr}
 8014898:	4601      	mov	r1, r0
 801489a:	200a      	movs	r0, #10
 801489c:	f002 f8aa 	bl	80169f4 <__syscall>
 80148a0:	bd08      	pop	{r3, pc}

080148a2 <sys_getpid>:
 80148a2:	b508      	push	{r3, lr}
 80148a4:	2017      	movs	r0, #23
 80148a6:	f002 f8a5 	bl	80169f4 <__syscall>
 80148aa:	bd08      	pop	{r3, pc}

080148ac <sys_yield>:
 80148ac:	b508      	push	{r3, lr}
 80148ae:	203d      	movs	r0, #61	; 0x3d
 80148b0:	f002 f8a0 	bl	80169f4 <__syscall>
 80148b4:	bd08      	pop	{r3, pc}

080148b6 <sys_ready>:
 80148b6:	b508      	push	{r3, lr}
 80148b8:	4601      	mov	r1, r0
 80148ba:	200b      	movs	r0, #11
 80148bc:	f002 f89a 	bl	80169f4 <__syscall>
 80148c0:	bd08      	pop	{r3, pc}

080148c2 <sys_full_path>:
 80148c2:	b508      	push	{r3, lr}
 80148c4:	4601      	mov	r1, r0
 80148c6:	203e      	movs	r0, #62	; 0x3e
 80148c8:	f002 f894 	bl	80169f4 <__syscall>
 80148cc:	bd08      	pop	{r3, pc}

080148ce <sys_update_path>:
 80148ce:	b508      	push	{r3, lr}
 80148d0:	203f      	movs	r0, #63	; 0x3f
 80148d2:	f002 f88f 	bl	80169f4 <__syscall>
 80148d6:	bd08      	pop	{r3, pc}

080148d8 <sys_malloc>:
 80148d8:	b508      	push	{r3, lr}
 80148da:	4601      	mov	r1, r0
 80148dc:	200e      	movs	r0, #14
 80148de:	f002 f889 	bl	80169f4 <__syscall>
 80148e2:	bd08      	pop	{r3, pc}

080148e4 <sys_mfree>:
 80148e4:	b508      	push	{r3, lr}
 80148e6:	4601      	mov	r1, r0
 80148e8:	200d      	movs	r0, #13
 80148ea:	f002 f883 	bl	80169f4 <__syscall>
 80148ee:	bd08      	pop	{r3, pc}

080148f0 <sys_putc>:
 80148f0:	b508      	push	{r3, lr}
 80148f2:	460a      	mov	r2, r1
 80148f4:	4601      	mov	r1, r0
 80148f6:	2001      	movs	r0, #1
 80148f8:	f002 f87c 	bl	80169f4 <__syscall>
 80148fc:	bd08      	pop	{r3, pc}

080148fe <sys_puts>:
 80148fe:	b508      	push	{r3, lr}
 8014900:	4613      	mov	r3, r2
 8014902:	460a      	mov	r2, r1
 8014904:	4601      	mov	r1, r0
 8014906:	2002      	movs	r0, #2
 8014908:	f002 f874 	bl	80169f4 <__syscall>
 801490c:	bd08      	pop	{r3, pc}

0801490e <sys_struct_task>:
 801490e:	b508      	push	{r3, lr}
 8014910:	4601      	mov	r1, r0
 8014912:	203a      	movs	r0, #58	; 0x3a
 8014914:	f002 f86e 	bl	80169f4 <__syscall>
 8014918:	bd08      	pop	{r3, pc}

0801491a <sys_get_path>:
 801491a:	b508      	push	{r3, lr}
 801491c:	2040      	movs	r0, #64	; 0x40
 801491e:	f002 f869 	bl	80169f4 <__syscall>
 8014922:	bd08      	pop	{r3, pc}

08014924 <sys_cd>:
 8014924:	b508      	push	{r3, lr}
 8014926:	4601      	mov	r1, r0
 8014928:	2041      	movs	r0, #65	; 0x41
 801492a:	f002 f863 	bl	80169f4 <__syscall>
 801492e:	bd08      	pop	{r3, pc}

08014930 <sys_elf_execve>:
 8014930:	b508      	push	{r3, lr}
 8014932:	460a      	mov	r2, r1
 8014934:	4601      	mov	r1, r0
 8014936:	203b      	movs	r0, #59	; 0x3b
 8014938:	f002 f85c 	bl	80169f4 <__syscall>
 801493c:	bd08      	pop	{r3, pc}

0801493e <sys_create>:
 801493e:	b508      	push	{r3, lr}
 8014940:	460a      	mov	r2, r1
 8014942:	4601      	mov	r1, r0
 8014944:	2009      	movs	r0, #9
 8014946:	f002 f855 	bl	80169f4 <__syscall>
 801494a:	bd08      	pop	{r3, pc}

0801494c <sys_js0n>:
 801494c:	b508      	push	{r3, lr}
 801494e:	4601      	mov	r1, r0
 8014950:	2042      	movs	r0, #66	; 0x42
 8014952:	f002 f84f 	bl	80169f4 <__syscall>
 8014956:	bd08      	pop	{r3, pc}

08014958 <sys_free_heap>:
 8014958:	b508      	push	{r3, lr}
 801495a:	2016      	movs	r0, #22
 801495c:	f002 f84a 	bl	80169f4 <__syscall>
 8014960:	bd08      	pop	{r3, pc}

08014962 <len_fifo_usb>:
 8014962:	b508      	push	{r3, lr}
 8014964:	2043      	movs	r0, #67	; 0x43
 8014966:	f002 f845 	bl	80169f4 <__syscall>
 801496a:	bd08      	pop	{r3, pc}

0801496c <fifo_usb>:
 801496c:	b508      	push	{r3, lr}
 801496e:	2004      	movs	r0, #4
 8014970:	f002 f840 	bl	80169f4 <__syscall>
 8014974:	bd08      	pop	{r3, pc}

08014976 <syscall_init>:
 8014976:	4b38      	ldr	r3, [pc, #224]	; (8014a58 <syscall_init+0xe2>)
 8014978:	6018      	str	r0, [r3, #0]
 801497a:	4a38      	ldr	r2, [pc, #224]	; (8014a5c <syscall_init+0xe6>)
 801497c:	6602      	str	r2, [r0, #96]	; 0x60
 801497e:	4a38      	ldr	r2, [pc, #224]	; (8014a60 <syscall_init+0xea>)
 8014980:	6002      	str	r2, [r0, #0]
 8014982:	681b      	ldr	r3, [r3, #0]
 8014984:	4a37      	ldr	r2, [pc, #220]	; (8014a64 <syscall_init+0xee>)
 8014986:	605a      	str	r2, [r3, #4]
 8014988:	4a37      	ldr	r2, [pc, #220]	; (8014a68 <syscall_init+0xf2>)
 801498a:	609a      	str	r2, [r3, #8]
 801498c:	4a37      	ldr	r2, [pc, #220]	; (8014a6c <syscall_init+0xf6>)
 801498e:	60da      	str	r2, [r3, #12]
 8014990:	4a37      	ldr	r2, [pc, #220]	; (8014a70 <syscall_init+0xfa>)
 8014992:	611a      	str	r2, [r3, #16]
 8014994:	4a37      	ldr	r2, [pc, #220]	; (8014a74 <syscall_init+0xfe>)
 8014996:	615a      	str	r2, [r3, #20]
 8014998:	4a37      	ldr	r2, [pc, #220]	; (8014a78 <syscall_init+0x102>)
 801499a:	619a      	str	r2, [r3, #24]
 801499c:	4a37      	ldr	r2, [pc, #220]	; (8014a7c <syscall_init+0x106>)
 801499e:	61da      	str	r2, [r3, #28]
 80149a0:	4a37      	ldr	r2, [pc, #220]	; (8014a80 <syscall_init+0x10a>)
 80149a2:	621a      	str	r2, [r3, #32]
 80149a4:	4a37      	ldr	r2, [pc, #220]	; (8014a84 <syscall_init+0x10e>)
 80149a6:	625a      	str	r2, [r3, #36]	; 0x24
 80149a8:	4a37      	ldr	r2, [pc, #220]	; (8014a88 <syscall_init+0x112>)
 80149aa:	629a      	str	r2, [r3, #40]	; 0x28
 80149ac:	4a37      	ldr	r2, [pc, #220]	; (8014a8c <syscall_init+0x116>)
 80149ae:	62da      	str	r2, [r3, #44]	; 0x2c
 80149b0:	4a37      	ldr	r2, [pc, #220]	; (8014a90 <syscall_init+0x11a>)
 80149b2:	631a      	str	r2, [r3, #48]	; 0x30
 80149b4:	4a37      	ldr	r2, [pc, #220]	; (8014a94 <syscall_init+0x11e>)
 80149b6:	635a      	str	r2, [r3, #52]	; 0x34
 80149b8:	4a37      	ldr	r2, [pc, #220]	; (8014a98 <syscall_init+0x122>)
 80149ba:	639a      	str	r2, [r3, #56]	; 0x38
 80149bc:	4a37      	ldr	r2, [pc, #220]	; (8014a9c <syscall_init+0x126>)
 80149be:	63da      	str	r2, [r3, #60]	; 0x3c
 80149c0:	4a37      	ldr	r2, [pc, #220]	; (8014aa0 <syscall_init+0x12a>)
 80149c2:	641a      	str	r2, [r3, #64]	; 0x40
 80149c4:	4a37      	ldr	r2, [pc, #220]	; (8014aa4 <syscall_init+0x12e>)
 80149c6:	645a      	str	r2, [r3, #68]	; 0x44
 80149c8:	4a37      	ldr	r2, [pc, #220]	; (8014aa8 <syscall_init+0x132>)
 80149ca:	649a      	str	r2, [r3, #72]	; 0x48
 80149cc:	4a37      	ldr	r2, [pc, #220]	; (8014aac <syscall_init+0x136>)
 80149ce:	64da      	str	r2, [r3, #76]	; 0x4c
 80149d0:	4a37      	ldr	r2, [pc, #220]	; (8014ab0 <syscall_init+0x13a>)
 80149d2:	651a      	str	r2, [r3, #80]	; 0x50
 80149d4:	4a37      	ldr	r2, [pc, #220]	; (8014ab4 <syscall_init+0x13e>)
 80149d6:	655a      	str	r2, [r3, #84]	; 0x54
 80149d8:	4a37      	ldr	r2, [pc, #220]	; (8014ab8 <syscall_init+0x142>)
 80149da:	659a      	str	r2, [r3, #88]	; 0x58
 80149dc:	4a37      	ldr	r2, [pc, #220]	; (8014abc <syscall_init+0x146>)
 80149de:	665a      	str	r2, [r3, #100]	; 0x64
 80149e0:	4a37      	ldr	r2, [pc, #220]	; (8014ac0 <syscall_init+0x14a>)
 80149e2:	669a      	str	r2, [r3, #104]	; 0x68
 80149e4:	4a37      	ldr	r2, [pc, #220]	; (8014ac4 <syscall_init+0x14e>)
 80149e6:	66da      	str	r2, [r3, #108]	; 0x6c
 80149e8:	4a37      	ldr	r2, [pc, #220]	; (8014ac8 <syscall_init+0x152>)
 80149ea:	671a      	str	r2, [r3, #112]	; 0x70
 80149ec:	4a37      	ldr	r2, [pc, #220]	; (8014acc <syscall_init+0x156>)
 80149ee:	675a      	str	r2, [r3, #116]	; 0x74
 80149f0:	2000      	movs	r0, #0
 80149f2:	6798      	str	r0, [r3, #120]	; 0x78
 80149f4:	4a36      	ldr	r2, [pc, #216]	; (8014ad0 <syscall_init+0x15a>)
 80149f6:	67da      	str	r2, [r3, #124]	; 0x7c
 80149f8:	4a36      	ldr	r2, [pc, #216]	; (8014ad4 <syscall_init+0x15e>)
 80149fa:	f8c3 2080 	str.w	r2, [r3, #128]	; 0x80
 80149fe:	f8c3 0084 	str.w	r0, [r3, #132]	; 0x84
 8014a02:	f8c3 0088 	str.w	r0, [r3, #136]	; 0x88
 8014a06:	4a34      	ldr	r2, [pc, #208]	; (8014ad8 <syscall_init+0x162>)
 8014a08:	f8c3 208c 	str.w	r2, [r3, #140]	; 0x8c
 8014a0c:	4a33      	ldr	r2, [pc, #204]	; (8014adc <syscall_init+0x166>)
 8014a0e:	f8c3 2090 	str.w	r2, [r3, #144]	; 0x90
 8014a12:	4a33      	ldr	r2, [pc, #204]	; (8014ae0 <syscall_init+0x16a>)
 8014a14:	f8c3 2094 	str.w	r2, [r3, #148]	; 0x94
 8014a18:	4a32      	ldr	r2, [pc, #200]	; (8014ae4 <syscall_init+0x16e>)
 8014a1a:	f8c3 2098 	str.w	r2, [r3, #152]	; 0x98
 8014a1e:	4a32      	ldr	r2, [pc, #200]	; (8014ae8 <syscall_init+0x172>)
 8014a20:	f8c3 209c 	str.w	r2, [r3, #156]	; 0x9c
 8014a24:	4a31      	ldr	r2, [pc, #196]	; (8014aec <syscall_init+0x176>)
 8014a26:	f8c3 20a0 	str.w	r2, [r3, #160]	; 0xa0
 8014a2a:	4a31      	ldr	r2, [pc, #196]	; (8014af0 <syscall_init+0x17a>)
 8014a2c:	f8c3 20a4 	str.w	r2, [r3, #164]	; 0xa4
 8014a30:	4a30      	ldr	r2, [pc, #192]	; (8014af4 <syscall_init+0x17e>)
 8014a32:	f8c3 20ac 	str.w	r2, [r3, #172]	; 0xac
 8014a36:	4a30      	ldr	r2, [pc, #192]	; (8014af8 <syscall_init+0x182>)
 8014a38:	f8c3 20b0 	str.w	r2, [r3, #176]	; 0xb0
 8014a3c:	4a2f      	ldr	r2, [pc, #188]	; (8014afc <syscall_init+0x186>)
 8014a3e:	f8c3 20b4 	str.w	r2, [r3, #180]	; 0xb4
 8014a42:	4a2f      	ldr	r2, [pc, #188]	; (8014b00 <syscall_init+0x18a>)
 8014a44:	f8c3 20a8 	str.w	r2, [r3, #168]	; 0xa8
 8014a48:	4a2e      	ldr	r2, [pc, #184]	; (8014b04 <syscall_init+0x18e>)
 8014a4a:	f8c3 20b8 	str.w	r2, [r3, #184]	; 0xb8
 8014a4e:	4a2e      	ldr	r2, [pc, #184]	; (8014b08 <syscall_init+0x192>)
 8014a50:	f8c3 20bc 	str.w	r2, [r3, #188]	; 0xbc
 8014a54:	4770      	bx	lr
 8014a56:	bf00      	nop
 8014a58:	20001294 	.word	0x20001294
 8014a5c:	08014787 	.word	0x08014787
 8014a60:	08014779 	.word	0x08014779
 8014a64:	08014793 	.word	0x08014793
 8014a68:	080147a3 	.word	0x080147a3
 8014a6c:	080147b3 	.word	0x080147b3
 8014a70:	080147bf 	.word	0x080147bf
 8014a74:	080147cf 	.word	0x080147cf
 8014a78:	080147db 	.word	0x080147db
 8014a7c:	080147e7 	.word	0x080147e7
 8014a80:	080147f5 	.word	0x080147f5
 8014a84:	08014801 	.word	0x08014801
 8014a88:	0801480d 	.word	0x0801480d
 8014a8c:	08014819 	.word	0x08014819
 8014a90:	08014825 	.word	0x08014825
 8014a94:	08014831 	.word	0x08014831
 8014a98:	0801476d 	.word	0x0801476d
 8014a9c:	08014771 	.word	0x08014771
 8014aa0:	08014775 	.word	0x08014775
 8014aa4:	0801483f 	.word	0x0801483f
 8014aa8:	0801484d 	.word	0x0801484d
 8014aac:	0801485b 	.word	0x0801485b
 8014ab0:	08014867 	.word	0x08014867
 8014ab4:	08014873 	.word	0x08014873
 8014ab8:	08014881 	.word	0x08014881
 8014abc:	0801488b 	.word	0x0801488b
 8014ac0:	08014897 	.word	0x08014897
 8014ac4:	080148a3 	.word	0x080148a3
 8014ac8:	080148ad 	.word	0x080148ad
 8014acc:	080148b7 	.word	0x080148b7
 8014ad0:	080148f1 	.word	0x080148f1
 8014ad4:	080148ff 	.word	0x080148ff
 8014ad8:	080148c3 	.word	0x080148c3
 8014adc:	080148cf 	.word	0x080148cf
 8014ae0:	080148d9 	.word	0x080148d9
 8014ae4:	080148e5 	.word	0x080148e5
 8014ae8:	0801490f 	.word	0x0801490f
 8014aec:	0801491b 	.word	0x0801491b
 8014af0:	08014925 	.word	0x08014925
 8014af4:	08014931 	.word	0x08014931
 8014af8:	0801493f 	.word	0x0801493f
 8014afc:	0801494d 	.word	0x0801494d
 8014b00:	08014959 	.word	0x08014959
 8014b04:	08014963 	.word	0x08014963
 8014b08:	0801496d 	.word	0x0801496d

08014b0c <svccall_handler>:
 8014b0c:	b508      	push	{r3, lr}
 8014b0e:	b672      	cpsid	i
 8014b10:	6801      	ldr	r1, [r0, #0]
 8014b12:	2943      	cmp	r1, #67	; 0x43
 8014b14:	d805      	bhi.n	8014b22 <svccall_handler+0x16>
 8014b16:	4b05      	ldr	r3, [pc, #20]	; (8014b2c <svccall_handler+0x20>)
 8014b18:	f853 3021 	ldr.w	r3, [r3, r1, lsl #2]
 8014b1c:	4798      	blx	r3
 8014b1e:	b662      	cpsie	i
 8014b20:	bd08      	pop	{r3, pc}
 8014b22:	4803      	ldr	r0, [pc, #12]	; (8014b30 <svccall_handler+0x24>)
 8014b24:	f000 fdb8 	bl	8015698 <kprintf>
 8014b28:	e7f9      	b.n	8014b1e <svccall_handler+0x12>
 8014b2a:	bf00      	nop
 8014b2c:	20000088 	.word	0x20000088
 8014b30:	0801b358 	.word	0x0801b358

08014b34 <blink2>:
 8014b34:	b570      	push	{r4, r5, r6, lr}
 8014b36:	4605      	mov	r5, r0
 8014b38:	460e      	mov	r6, r1
 8014b3a:	2400      	movs	r4, #0
 8014b3c:	42ac      	cmp	r4, r5
 8014b3e:	da06      	bge.n	8014b4e <blink2+0x1a>
 8014b40:	f856 1024 	ldr.w	r1, [r6, r4, lsl #2]
 8014b44:	4804      	ldr	r0, [pc, #16]	; (8014b58 <blink2+0x24>)
 8014b46:	f7fb fca7 	bl	8010498 <printf>
 8014b4a:	3401      	adds	r4, #1
 8014b4c:	e7f6      	b.n	8014b3c <blink2+0x8>
 8014b4e:	4803      	ldr	r0, [pc, #12]	; (8014b5c <blink2+0x28>)
 8014b50:	f7fb fca2 	bl	8010498 <printf>
 8014b54:	2001      	movs	r0, #1
 8014b56:	bd70      	pop	{r4, r5, r6, pc}
 8014b58:	0801ad84 	.word	0x0801ad84
 8014b5c:	0801b378 	.word	0x0801b378

08014b60 <initFat32>:
 8014b60:	b510      	push	{r4, lr}
 8014b62:	f002 fc97 	bl	8017494 <sd_init>
 8014b66:	4604      	mov	r4, r0
 8014b68:	f004 fb1e 	bl	80191a8 <fl_init>
 8014b6c:	490a      	ldr	r1, [pc, #40]	; (8014b98 <initFat32+0x38>)
 8014b6e:	480b      	ldr	r0, [pc, #44]	; (8014b9c <initFat32+0x3c>)
 8014b70:	f004 fb42 	bl	80191f8 <fl_attach_media>
 8014b74:	b950      	cbnz	r0, 8014b8c <initFat32+0x2c>
 8014b76:	4622      	mov	r2, r4
 8014b78:	f44f 7100 	mov.w	r1, #512	; 0x200
 8014b7c:	4808      	ldr	r0, [pc, #32]	; (8014ba0 <initFat32+0x40>)
 8014b7e:	f7fb fc8b 	bl	8010498 <printf>
 8014b82:	4808      	ldr	r0, [pc, #32]	; (8014ba4 <initFat32+0x44>)
 8014b84:	f004 ff86 	bl	8019a94 <fl_listdirectory>
 8014b88:	2001      	movs	r0, #1
 8014b8a:	bd10      	pop	{r4, pc}
 8014b8c:	4806      	ldr	r0, [pc, #24]	; (8014ba8 <initFat32+0x48>)
 8014b8e:	f7fb fc83 	bl	8010498 <printf>
 8014b92:	f04f 30ff 	mov.w	r0, #4294967295	; 0xffffffff
 8014b96:	e7f8      	b.n	8014b8a <initFat32+0x2a>
 8014b98:	080174d5 	.word	0x080174d5
 8014b9c:	080174bd 	.word	0x080174bd
 8014ba0:	0801b3a4 	.word	0x0801b3a4
 8014ba4:	0801b344 	.word	0x0801b344
 8014ba8:	0801b380 	.word	0x0801b380

08014bac <nullprocess>:
 8014bac:	b500      	push	{lr}
 8014bae:	b083      	sub	sp, #12
 8014bb0:	4c10      	ldr	r4, [pc, #64]	; (8014bf4 <nullprocess+0x48>)
 8014bb2:	4620      	mov	r0, r4
 8014bb4:	f7ff fedf 	bl	8014976 <syscall_init>
 8014bb8:	f8d4 3080 	ldr.w	r3, [r4, #128]	; 0x80
 8014bbc:	220d      	movs	r2, #13
 8014bbe:	490e      	ldr	r1, [pc, #56]	; (8014bf8 <nullprocess+0x4c>)
 8014bc0:	2000      	movs	r0, #0
 8014bc2:	4798      	blx	r3
 8014bc4:	2400      	movs	r4, #0
 8014bc6:	9401      	str	r4, [sp, #4]
 8014bc8:	2301      	movs	r3, #1
 8014bca:	9300      	str	r3, [sp, #0]
 8014bcc:	4b0b      	ldr	r3, [pc, #44]	; (8014bfc <nullprocess+0x50>)
 8014bce:	2234      	movs	r2, #52	; 0x34
 8014bd0:	f44f 6100 	mov.w	r1, #2048	; 0x800
 8014bd4:	480a      	ldr	r0, [pc, #40]	; (8014c00 <nullprocess+0x54>)
 8014bd6:	f000 f97b 	bl	8014ed0 <create>
 8014bda:	f000 fcef 	bl	80155bc <resume>
 8014bde:	9400      	str	r4, [sp, #0]
 8014be0:	4b08      	ldr	r3, [pc, #32]	; (8014c04 <nullprocess+0x58>)
 8014be2:	2232      	movs	r2, #50	; 0x32
 8014be4:	f44f 6180 	mov.w	r1, #1024	; 0x400
 8014be8:	4807      	ldr	r0, [pc, #28]	; (8014c08 <nullprocess+0x5c>)
 8014bea:	f000 f971 	bl	8014ed0 <create>
 8014bee:	f000 fce5 	bl	80155bc <resume>
 8014bf2:	e7fe      	b.n	8014bf2 <nullprocess+0x46>
 8014bf4:	20001638 	.word	0x20001638
 8014bf8:	0801b3b4 	.word	0x0801b3b4
 8014bfc:	0801b3c4 	.word	0x0801b3c4
 8014c00:	0801330d 	.word	0x0801330d
 8014c04:	0801b3cc 	.word	0x0801b3cc
 8014c08:	08014b61 	.word	0x08014b61

08014c0c <sysinit>:
 8014c0c:	b538      	push	{r3, r4, r5, lr}
 8014c0e:	2400      	movs	r4, #0
 8014c10:	2c09      	cmp	r4, #9
 8014c12:	dc04      	bgt.n	8014c1e <sysinit+0x12>
 8014c14:	481b      	ldr	r0, [pc, #108]	; (8014c84 <sysinit+0x78>)
 8014c16:	f000 fd3f 	bl	8015698 <kprintf>
 8014c1a:	3401      	adds	r4, #1
 8014c1c:	e7f8      	b.n	8014c10 <sysinit+0x4>
 8014c1e:	2200      	movs	r2, #0
 8014c20:	4b19      	ldr	r3, [pc, #100]	; (8014c88 <sysinit+0x7c>)
 8014c22:	601a      	str	r2, [r3, #0]
 8014c24:	4b19      	ldr	r3, [pc, #100]	; (8014c8c <sysinit+0x80>)
 8014c26:	601a      	str	r2, [r3, #0]
 8014c28:	2a09      	cmp	r2, #9
 8014c2a:	dc0c      	bgt.n	8014c46 <sysinit+0x3a>
 8014c2c:	4818      	ldr	r0, [pc, #96]	; (8014c90 <sysinit+0x84>)
 8014c2e:	eb02 0382 	add.w	r3, r2, r2, lsl #2
 8014c32:	011c      	lsls	r4, r3, #4
 8014c34:	eb00 1303 	add.w	r3, r0, r3, lsl #4
 8014c38:	2100      	movs	r1, #0
 8014c3a:	5301      	strh	r1, [r0, r4]
 8014c3c:	7419      	strb	r1, [r3, #16]
 8014c3e:	6099      	str	r1, [r3, #8]
 8014c40:	8059      	strh	r1, [r3, #2]
 8014c42:	3201      	adds	r2, #1
 8014c44:	e7f0      	b.n	8014c28 <sysinit+0x1c>
 8014c46:	2500      	movs	r5, #0
 8014c48:	2d09      	cmp	r5, #9
 8014c4a:	dc0d      	bgt.n	8014c68 <sysinit+0x5c>
 8014c4c:	4a11      	ldr	r2, [pc, #68]	; (8014c94 <sysinit+0x88>)
 8014c4e:	eb05 0445 	add.w	r4, r5, r5, lsl #1
 8014c52:	00a1      	lsls	r1, r4, #2
 8014c54:	eb02 0484 	add.w	r4, r2, r4, lsl #2
 8014c58:	2300      	movs	r3, #0
 8014c5a:	5453      	strb	r3, [r2, r1]
 8014c5c:	6063      	str	r3, [r4, #4]
 8014c5e:	f000 fe41 	bl	80158e4 <newqueue>
 8014c62:	8120      	strh	r0, [r4, #8]
 8014c64:	3501      	adds	r5, #1
 8014c66:	e7ef      	b.n	8014c48 <sysinit+0x3c>
 8014c68:	f000 fe3c 	bl	80158e4 <newqueue>
 8014c6c:	4b0a      	ldr	r3, [pc, #40]	; (8014c98 <sysinit+0x8c>)
 8014c6e:	8018      	strh	r0, [r3, #0]
 8014c70:	2400      	movs	r4, #0
 8014c72:	2c04      	cmp	r4, #4
 8014c74:	dc04      	bgt.n	8014c80 <sysinit+0x74>
 8014c76:	4620      	mov	r0, r4
 8014c78:	f001 f950 	bl	8015f1c <init>
 8014c7c:	3401      	adds	r4, #1
 8014c7e:	e7f8      	b.n	8014c72 <sysinit+0x66>
 8014c80:	bd38      	pop	{r3, r4, r5, pc}
 8014c82:	bf00      	nop
 8014c84:	0801ac50 	.word	0x0801ac50
 8014c88:	200015bc 	.word	0x200015bc
 8014c8c:	20001704 	.word	0x20001704
 8014c90:	2000129c 	.word	0x2000129c
 8014c94:	200015c0 	.word	0x200015c0
 8014c98:	20001700 	.word	0x20001700

08014c9c <blink1>:
 8014c9c:	b500      	push	{lr}
 8014c9e:	b085      	sub	sp, #20
 8014ca0:	480e      	ldr	r0, [pc, #56]	; (8014cdc <blink1+0x40>)
 8014ca2:	f7fb fbf9 	bl	8010498 <printf>
 8014ca6:	4b0e      	ldr	r3, [pc, #56]	; (8014ce0 <blink1+0x44>)
 8014ca8:	9303      	str	r3, [sp, #12]
 8014caa:	4b0e      	ldr	r3, [pc, #56]	; (8014ce4 <blink1+0x48>)
 8014cac:	9302      	str	r3, [sp, #8]
 8014cae:	4b0e      	ldr	r3, [pc, #56]	; (8014ce8 <blink1+0x4c>)
 8014cb0:	9301      	str	r3, [sp, #4]
 8014cb2:	2303      	movs	r3, #3
 8014cb4:	9300      	str	r3, [sp, #0]
 8014cb6:	4b0d      	ldr	r3, [pc, #52]	; (8014cec <blink1+0x50>)
 8014cb8:	223c      	movs	r2, #60	; 0x3c
 8014cba:	f44f 6100 	mov.w	r1, #2048	; 0x800
 8014cbe:	480c      	ldr	r0, [pc, #48]	; (8014cf0 <blink1+0x54>)
 8014cc0:	f000 f906 	bl	8014ed0 <create>
 8014cc4:	f000 fc7a 	bl	80155bc <resume>
 8014cc8:	f001 fa6e 	bl	80161a8 <receive>
 8014ccc:	4809      	ldr	r0, [pc, #36]	; (8014cf4 <blink1+0x58>)
 8014cce:	f7fb fbe3 	bl	8010498 <printf>
 8014cd2:	2003      	movs	r0, #3
 8014cd4:	f000 fb70 	bl	80153b8 <sleep>
 8014cd8:	e7fb      	b.n	8014cd2 <blink1+0x36>
 8014cda:	bf00      	nop
 8014cdc:	0801b3d4 	.word	0x0801b3d4
 8014ce0:	0801b3e4 	.word	0x0801b3e4
 8014ce4:	0801b3ec 	.word	0x0801b3ec
 8014ce8:	0801b3f8 	.word	0x0801b3f8
 8014cec:	0801b3dc 	.word	0x0801b3dc
 8014cf0:	08014b35 	.word	0x08014b35
 8014cf4:	0801b400 	.word	0x0801b400

08014cf8 <nulluser>:
 8014cf8:	b5f0      	push	{r4, r5, r6, r7, lr}
 8014cfa:	b083      	sub	sp, #12
 8014cfc:	4c43      	ldr	r4, [pc, #268]	; (8014e0c <nulluser+0x114>)
 8014cfe:	f44f 7264 	mov.w	r2, #912	; 0x390
 8014d02:	2108      	movs	r1, #8
 8014d04:	4620      	mov	r0, r4
 8014d06:	f001 fe94 	bl	8016a32 <hw_cfg_pin>
 8014d0a:	f44f 7270 	mov.w	r2, #960	; 0x3c0
 8014d0e:	2100      	movs	r1, #0
 8014d10:	4620      	mov	r0, r4
 8014d12:	f001 fe8e 	bl	8016a32 <hw_cfg_pin>
 8014d16:	f001 fd71 	bl	80167fc <meminit>
 8014d1a:	f000 fe0d 	bl	8015938 <platinit>
 8014d1e:	f001 fe65 	bl	80169ec <enable>
 8014d22:	2100      	movs	r1, #0
 8014d24:	4839      	ldr	r0, [pc, #228]	; (8014e0c <nulluser+0x114>)
 8014d26:	f001 feda 	bl	8016ade <hw_get_pin>
 8014d2a:	b138      	cbz	r0, 8014d3c <nulluser+0x44>
 8014d2c:	2108      	movs	r1, #8
 8014d2e:	4837      	ldr	r0, [pc, #220]	; (8014e0c <nulluser+0x114>)
 8014d30:	f001 feca 	bl	8016ac8 <hw_toggle_pin>
 8014d34:	2032      	movs	r0, #50	; 0x32
 8014d36:	f000 fe15 	bl	8015964 <delay>
 8014d3a:	e7f2      	b.n	8014d22 <nulluser+0x2a>
 8014d3c:	f7ff ff66 	bl	8014c0c <sysinit>
 8014d40:	4b33      	ldr	r3, [pc, #204]	; (8014e10 <nulluser+0x118>)
 8014d42:	681b      	ldr	r3, [r3, #0]
 8014d44:	2400      	movs	r4, #0
 8014d46:	b11b      	cbz	r3, 8014d50 <nulluser+0x58>
 8014d48:	685a      	ldr	r2, [r3, #4]
 8014d4a:	4414      	add	r4, r2
 8014d4c:	681b      	ldr	r3, [r3, #0]
 8014d4e:	e7fa      	b.n	8014d46 <nulluser+0x4e>
 8014d50:	4a30      	ldr	r2, [pc, #192]	; (8014e14 <nulluser+0x11c>)
 8014d52:	4931      	ldr	r1, [pc, #196]	; (8014e18 <nulluser+0x120>)
 8014d54:	4831      	ldr	r0, [pc, #196]	; (8014e1c <nulluser+0x124>)
 8014d56:	f000 fc9f 	bl	8015698 <kprintf>
 8014d5a:	4621      	mov	r1, r4
 8014d5c:	4830      	ldr	r0, [pc, #192]	; (8014e20 <nulluser+0x128>)
 8014d5e:	f000 fc9b 	bl	8015698 <kprintf>
 8014d62:	4b2b      	ldr	r3, [pc, #172]	; (8014e10 <nulluser+0x118>)
 8014d64:	681c      	ldr	r4, [r3, #0]
 8014d66:	e007      	b.n	8014d78 <nulluser+0x80>
 8014d68:	6862      	ldr	r2, [r4, #4]
 8014d6a:	4422      	add	r2, r4
 8014d6c:	3a01      	subs	r2, #1
 8014d6e:	4621      	mov	r1, r4
 8014d70:	482c      	ldr	r0, [pc, #176]	; (8014e24 <nulluser+0x12c>)
 8014d72:	f000 fc91 	bl	8015698 <kprintf>
 8014d76:	6824      	ldr	r4, [r4, #0]
 8014d78:	2c00      	cmp	r4, #0
 8014d7a:	d1f5      	bne.n	8014d68 <nulluser+0x70>
 8014d7c:	4d2a      	ldr	r5, [pc, #168]	; (8014e28 <nulluser+0x130>)
 8014d7e:	4c2b      	ldr	r4, [pc, #172]	; (8014e2c <nulluser+0x134>)
 8014d80:	1b29      	subs	r1, r5, r4
 8014d82:	482b      	ldr	r0, [pc, #172]	; (8014e30 <nulluser+0x138>)
 8014d84:	f000 fc88 	bl	8015698 <kprintf>
 8014d88:	1e6a      	subs	r2, r5, #1
 8014d8a:	4621      	mov	r1, r4
 8014d8c:	4825      	ldr	r0, [pc, #148]	; (8014e24 <nulluser+0x12c>)
 8014d8e:	f000 fc83 	bl	8015698 <kprintf>
 8014d92:	4d28      	ldr	r5, [pc, #160]	; (8014e34 <nulluser+0x13c>)
 8014d94:	4c28      	ldr	r4, [pc, #160]	; (8014e38 <nulluser+0x140>)
 8014d96:	1b29      	subs	r1, r5, r4
 8014d98:	4828      	ldr	r0, [pc, #160]	; (8014e3c <nulluser+0x144>)
 8014d9a:	f000 fc7d 	bl	8015698 <kprintf>
 8014d9e:	1e6a      	subs	r2, r5, #1
 8014da0:	4621      	mov	r1, r4
 8014da2:	4827      	ldr	r0, [pc, #156]	; (8014e40 <nulluser+0x148>)
 8014da4:	f000 fc78 	bl	8015698 <kprintf>
 8014da8:	2300      	movs	r3, #0
 8014daa:	9301      	str	r3, [sp, #4]
 8014dac:	9300      	str	r3, [sp, #0]
 8014dae:	4b25      	ldr	r3, [pc, #148]	; (8014e44 <nulluser+0x14c>)
 8014db0:	220a      	movs	r2, #10
 8014db2:	f44f 7180 	mov.w	r1, #256	; 0x100
 8014db6:	4824      	ldr	r0, [pc, #144]	; (8014e48 <nulluser+0x150>)
 8014db8:	f000 f88a 	bl	8014ed0 <create>
 8014dbc:	4604      	mov	r4, r0
 8014dbe:	4d23      	ldr	r5, [pc, #140]	; (8014e4c <nulluser+0x154>)
 8014dc0:	0086      	lsls	r6, r0, #2
 8014dc2:	eb00 0380 	add.w	r3, r0, r0, lsl #2
 8014dc6:	011b      	lsls	r3, r3, #4
 8014dc8:	2701      	movs	r7, #1
 8014dca:	52ef      	strh	r7, [r5, r3]
 8014dcc:	f000 fc1e 	bl	801560c <clkinit>
 8014dd0:	f04f 4280 	mov.w	r2, #1073741824	; 0x40000000
 8014dd4:	6813      	ldr	r3, [r2, #0]
 8014dd6:	433b      	orrs	r3, r7
 8014dd8:	6013      	str	r3, [r2, #0]
 8014dda:	4b1d      	ldr	r3, [pc, #116]	; (8014e50 <nulluser+0x158>)
 8014ddc:	601f      	str	r7, [r3, #0]
 8014dde:	4b1d      	ldr	r3, [pc, #116]	; (8014e54 <nulluser+0x15c>)
 8014de0:	f04f 5280 	mov.w	r2, #268435456	; 0x10000000
 8014de4:	601a      	str	r2, [r3, #0]
 8014de6:	4434      	add	r4, r6
 8014de8:	eb05 1504 	add.w	r5, r5, r4, lsl #4
 8014dec:	686b      	ldr	r3, [r5, #4]
 8014dee:	4618      	mov	r0, r3
 8014df0:	f380 8809 	msr	PSP, r0
 8014df4:	e8b0 0ff0 	ldmia.w	r0!, {r4, r5, r6, r7, r8, r9, sl, fp}
 8014df8:	f380 8809 	msr	PSP, r0
 8014dfc:	f04f 0002 	mov.w	r0, #2
 8014e00:	f380 8814 	msr	CONTROL, r0
 8014e04:	f3bf 8f6f 	isb	sy
 8014e08:	f7ff fed0 	bl	8014bac <nullprocess>
 8014e0c:	40020000 	.word	0x40020000
 8014e10:	200016f8 	.word	0x200016f8
 8014e14:	0801b41c 	.word	0x0801b41c
 8014e18:	0801b428 	.word	0x0801b428
 8014e1c:	0801b434 	.word	0x0801b434
 8014e20:	0801b448 	.word	0x0801b448
 8014e24:	0801b470 	.word	0x0801b470
 8014e28:	0801b698 	.word	0x0801b698
 8014e2c:	08010000 	.word	0x08010000
 8014e30:	0801b490 	.word	0x0801b490
 8014e34:	20002834 	.word	0x20002834
 8014e38:	20000000 	.word	0x20000000
 8014e3c:	0801b4ac 	.word	0x0801b4ac
 8014e40:	0801b4c4 	.word	0x0801b4c4
 8014e44:	0801b4e4 	.word	0x0801b4e4
 8014e48:	08014bad 	.word	0x08014bad
 8014e4c:	2000129c 	.word	0x2000129c
 8014e50:	200003a8 	.word	0x200003a8
 8014e54:	e000e100 	.word	0xe000e100

08014e58 <stop>:
 8014e58:	b508      	push	{r3, lr}
 8014e5a:	4601      	mov	r1, r0
 8014e5c:	4803      	ldr	r0, [pc, #12]	; (8014e6c <stop+0x14>)
 8014e5e:	f000 fc1b 	bl	8015698 <kprintf>
 8014e62:	4803      	ldr	r0, [pc, #12]	; (8014e70 <stop+0x18>)
 8014e64:	f000 fc18 	bl	8015698 <kprintf>
 8014e68:	e7fe      	b.n	8014e68 <stop+0x10>
 8014e6a:	bf00      	nop
 8014e6c:	0801ad84 	.word	0x0801ad84
 8014e70:	0801b4f4 	.word	0x0801b4f4

08014e74 <newpid>:
 8014e74:	2100      	movs	r1, #0
 8014e76:	2909      	cmp	r1, #9
 8014e78:	d81a      	bhi.n	8014eb0 <newpid+0x3c>
 8014e7a:	4b0f      	ldr	r3, [pc, #60]	; (8014eb8 <newpid+0x44>)
 8014e7c:	681b      	ldr	r3, [r3, #0]
 8014e7e:	4a0f      	ldr	r2, [pc, #60]	; (8014ebc <newpid+0x48>)
 8014e80:	fb82 0203 	smull	r0, r2, r2, r3
 8014e84:	17d8      	asrs	r0, r3, #31
 8014e86:	ebc0 00a2 	rsb	r0, r0, r2, asr #2
 8014e8a:	eb00 0080 	add.w	r0, r0, r0, lsl #2
 8014e8e:	0042      	lsls	r2, r0, #1
 8014e90:	1a98      	subs	r0, r3, r2
 8014e92:	eb00 0280 	add.w	r2, r0, r0, lsl #2
 8014e96:	0113      	lsls	r3, r2, #4
 8014e98:	4a09      	ldr	r2, [pc, #36]	; (8014ec0 <newpid+0x4c>)
 8014e9a:	5ad3      	ldrh	r3, [r2, r3]
 8014e9c:	b123      	cbz	r3, 8014ea8 <newpid+0x34>
 8014e9e:	3001      	adds	r0, #1
 8014ea0:	4b05      	ldr	r3, [pc, #20]	; (8014eb8 <newpid+0x44>)
 8014ea2:	6018      	str	r0, [r3, #0]
 8014ea4:	3101      	adds	r1, #1
 8014ea6:	e7e6      	b.n	8014e76 <newpid+0x2>
 8014ea8:	1c43      	adds	r3, r0, #1
 8014eaa:	4a03      	ldr	r2, [pc, #12]	; (8014eb8 <newpid+0x44>)
 8014eac:	6013      	str	r3, [r2, #0]
 8014eae:	4770      	bx	lr
 8014eb0:	f04f 30ff 	mov.w	r0, #4294967295	; 0xffffffff
 8014eb4:	4770      	bx	lr
 8014eb6:	bf00      	nop
 8014eb8:	2000039c 	.word	0x2000039c
 8014ebc:	66666667 	.word	0x66666667
 8014ec0:	2000129c 	.word	0x2000129c

08014ec4 <getpid>:
 8014ec4:	4b01      	ldr	r3, [pc, #4]	; (8014ecc <getpid+0x8>)
 8014ec6:	6818      	ldr	r0, [r3, #0]
 8014ec8:	4770      	bx	lr
 8014eca:	bf00      	nop
 8014ecc:	20001298 	.word	0x20001298

08014ed0 <create>:
 8014ed0:	e92d 47f0 	stmdb	sp!, {r4, r5, r6, r7, r8, r9, sl, lr}
 8014ed4:	4680      	mov	r8, r0
 8014ed6:	4689      	mov	r9, r1
 8014ed8:	4692      	mov	sl, r2
 8014eda:	461e      	mov	r6, r3
 8014edc:	f001 fd7e 	bl	80169dc <disable>
 8014ee0:	4607      	mov	r7, r0
 8014ee2:	f5b9 7fc8 	cmp.w	r9, #400	; 0x190
 8014ee6:	d201      	bcs.n	8014eec <create+0x1c>
 8014ee8:	f44f 79c8 	mov.w	r9, #400	; 0x190
 8014eec:	f109 0903 	add.w	r9, r9, #3
 8014ef0:	f029 0903 	bic.w	r9, r9, #3
 8014ef4:	4648      	mov	r0, r9
 8014ef6:	f001 fd2f 	bl	8016958 <getstk>
 8014efa:	4605      	mov	r5, r0
 8014efc:	f1b0 3fff 	cmp.w	r0, #4294967295	; 0xffffffff
 8014f00:	d021      	beq.n	8014f46 <create+0x76>
 8014f02:	f7ff ffb7 	bl	8014e74 <newpid>
 8014f06:	4604      	mov	r4, r0
 8014f08:	f1b0 3fff 	cmp.w	r0, #4294967295	; 0xffffffff
 8014f0c:	d01b      	beq.n	8014f46 <create+0x76>
 8014f0e:	f1ba 0f00 	cmp.w	sl, #0
 8014f12:	dd18      	ble.n	8014f46 <create+0x76>
 8014f14:	4a32      	ldr	r2, [pc, #200]	; (8014fe0 <create+0x110>)
 8014f16:	6813      	ldr	r3, [r2, #0]
 8014f18:	3301      	adds	r3, #1
 8014f1a:	6013      	str	r3, [r2, #0]
 8014f1c:	4931      	ldr	r1, [pc, #196]	; (8014fe4 <create+0x114>)
 8014f1e:	eb00 0280 	add.w	r2, r0, r0, lsl #2
 8014f22:	0110      	lsls	r0, r2, #4
 8014f24:	eb01 1202 	add.w	r2, r1, r2, lsl #4
 8014f28:	2300      	movs	r3, #0
 8014f2a:	f882 3038 	strb.w	r3, [r2, #56]	; 0x38
 8014f2e:	f04f 0c05 	mov.w	ip, #5
 8014f32:	f821 c000 	strh.w	ip, [r1, r0]
 8014f36:	f8a2 a002 	strh.w	sl, [r2, #2]
 8014f3a:	6095      	str	r5, [r2, #8]
 8014f3c:	f8c2 900c 	str.w	r9, [r2, #12]
 8014f40:	f882 3023 	strb.w	r3, [r2, #35]	; 0x23
 8014f44:	e006      	b.n	8014f54 <create+0x84>
 8014f46:	4638      	mov	r0, r7
 8014f48:	f001 fd4c 	bl	80169e4 <restore>
 8014f4c:	f04f 34ff 	mov.w	r4, #4294967295	; 0xffffffff
 8014f50:	e042      	b.n	8014fd8 <create+0x108>
 8014f52:	3301      	adds	r3, #1
 8014f54:	2b12      	cmp	r3, #18
 8014f56:	dc09      	bgt.n	8014f6c <create+0x9c>
 8014f58:	5cf0      	ldrb	r0, [r6, r3]
 8014f5a:	eb04 0284 	add.w	r2, r4, r4, lsl #2
 8014f5e:	4921      	ldr	r1, [pc, #132]	; (8014fe4 <create+0x114>)
 8014f60:	eb01 1202 	add.w	r2, r1, r2, lsl #4
 8014f64:	441a      	add	r2, r3
 8014f66:	7410      	strb	r0, [r2, #16]
 8014f68:	2800      	cmp	r0, #0
 8014f6a:	d1f2      	bne.n	8014f52 <create+0x82>
 8014f6c:	eb04 0684 	add.w	r6, r4, r4, lsl #2
 8014f70:	4b1c      	ldr	r3, [pc, #112]	; (8014fe4 <create+0x114>)
 8014f72:	eb03 1606 	add.w	r6, r3, r6, lsl #4
 8014f76:	f04f 33ff 	mov.w	r3, #4294967295	; 0xffffffff
 8014f7a:	6273      	str	r3, [r6, #36]	; 0x24
 8014f7c:	f7ff ffa2 	bl	8014ec4 <getpid>
 8014f80:	62b0      	str	r0, [r6, #40]	; 0x28
 8014f82:	2200      	movs	r2, #0
 8014f84:	f886 2030 	strb.w	r2, [r6, #48]	; 0x30
 8014f88:	8672      	strh	r2, [r6, #50]	; 0x32
 8014f8a:	86b2      	strh	r2, [r6, #52]	; 0x34
 8014f8c:	86f2      	strh	r2, [r6, #54]	; 0x36
 8014f8e:	f1a5 061c 	sub.w	r6, r5, #28
 8014f92:	3d3c      	subs	r5, #60	; 0x3c
 8014f94:	ab09      	add	r3, sp, #36	; 0x24
 8014f96:	9908      	ldr	r1, [sp, #32]
 8014f98:	428a      	cmp	r2, r1
 8014f9a:	d205      	bcs.n	8014fa8 <create+0xd8>
 8014f9c:	f853 1b04 	ldr.w	r1, [r3], #4
 8014fa0:	f846 1022 	str.w	r1, [r6, r2, lsl #2]
 8014fa4:	3201      	adds	r2, #1
 8014fa6:	e7f6      	b.n	8014f96 <create+0xc6>
 8014fa8:	4b0f      	ldr	r3, [pc, #60]	; (8014fe8 <create+0x118>)
 8014faa:	6173      	str	r3, [r6, #20]
 8014fac:	f8c6 8018 	str.w	r8, [r6, #24]
 8014fb0:	f04f 7380 	mov.w	r3, #16777216	; 0x1000000
 8014fb4:	61f3      	str	r3, [r6, #28]
 8014fb6:	2300      	movs	r3, #0
 8014fb8:	e003      	b.n	8014fc2 <create+0xf2>
 8014fba:	2200      	movs	r2, #0
 8014fbc:	f845 2023 	str.w	r2, [r5, r3, lsl #2]
 8014fc0:	3301      	adds	r3, #1
 8014fc2:	2b07      	cmp	r3, #7
 8014fc4:	ddf9      	ble.n	8014fba <create+0xea>
 8014fc6:	eb04 0384 	add.w	r3, r4, r4, lsl #2
 8014fca:	4a06      	ldr	r2, [pc, #24]	; (8014fe4 <create+0x114>)
 8014fcc:	eb02 1303 	add.w	r3, r2, r3, lsl #4
 8014fd0:	605d      	str	r5, [r3, #4]
 8014fd2:	4638      	mov	r0, r7
 8014fd4:	f001 fd06 	bl	80169e4 <restore>
 8014fd8:	4620      	mov	r0, r4
 8014fda:	e8bd 87f0 	ldmia.w	sp!, {r4, r5, r6, r7, r8, r9, sl, pc}
 8014fde:	bf00      	nop
 8014fe0:	200015bc 	.word	0x200015bc
 8014fe4:	2000129c 	.word	0x2000129c
 8014fe8:	080152b5 	.word	0x080152b5

08014fec <chprio>:
 8014fec:	b570      	push	{r4, r5, r6, lr}
 8014fee:	4604      	mov	r4, r0
 8014ff0:	460d      	mov	r5, r1
 8014ff2:	f001 fcf3 	bl	80169dc <disable>
 8014ff6:	2c09      	cmp	r4, #9
 8014ff8:	d811      	bhi.n	801501e <chprio+0x32>
 8014ffa:	eb04 0384 	add.w	r3, r4, r4, lsl #2
 8014ffe:	011b      	lsls	r3, r3, #4
 8015000:	4a09      	ldr	r2, [pc, #36]	; (8015028 <chprio+0x3c>)
 8015002:	5ad3      	ldrh	r3, [r2, r3]
 8015004:	b15b      	cbz	r3, 801501e <chprio+0x32>
 8015006:	4b08      	ldr	r3, [pc, #32]	; (8015028 <chprio+0x3c>)
 8015008:	eb04 0284 	add.w	r2, r4, r4, lsl #2
 801500c:	eb03 1202 	add.w	r2, r3, r2, lsl #4
 8015010:	f9b2 6002 	ldrsh.w	r6, [r2, #2]
 8015014:	8055      	strh	r5, [r2, #2]
 8015016:	f001 fce5 	bl	80169e4 <restore>
 801501a:	4630      	mov	r0, r6
 801501c:	bd70      	pop	{r4, r5, r6, pc}
 801501e:	f001 fce1 	bl	80169e4 <restore>
 8015022:	f04f 36ff 	mov.w	r6, #4294967295	; 0xffffffff
 8015026:	e7f8      	b.n	801501a <chprio+0x2e>
 8015028:	2000129c 	.word	0x2000129c

0801502c <getprio>:
 801502c:	b510      	push	{r4, lr}
 801502e:	4604      	mov	r4, r0
 8015030:	f001 fcd4 	bl	80169dc <disable>
 8015034:	2c09      	cmp	r4, #9
 8015036:	d810      	bhi.n	801505a <getprio+0x2e>
 8015038:	eb04 0384 	add.w	r3, r4, r4, lsl #2
 801503c:	011b      	lsls	r3, r3, #4
 801503e:	4a09      	ldr	r2, [pc, #36]	; (8015064 <getprio+0x38>)
 8015040:	5ad3      	ldrh	r3, [r2, r3]
 8015042:	b153      	cbz	r3, 801505a <getprio+0x2e>
 8015044:	eb04 0484 	add.w	r4, r4, r4, lsl #2
 8015048:	4b06      	ldr	r3, [pc, #24]	; (8015064 <getprio+0x38>)
 801504a:	eb03 1404 	add.w	r4, r3, r4, lsl #4
 801504e:	f9b4 4002 	ldrsh.w	r4, [r4, #2]
 8015052:	f001 fcc7 	bl	80169e4 <restore>
 8015056:	4620      	mov	r0, r4
 8015058:	bd10      	pop	{r4, pc}
 801505a:	f001 fcc3 	bl	80169e4 <restore>
 801505e:	f04f 30ff 	mov.w	r0, #4294967295	; 0xffffffff
 8015062:	e7f9      	b.n	8015058 <getprio+0x2c>
 8015064:	2000129c 	.word	0x2000129c

08015068 <yield>:
 8015068:	b508      	push	{r3, lr}
 801506a:	f001 fcb7 	bl	80169dc <disable>
 801506e:	4b04      	ldr	r3, [pc, #16]	; (8015080 <yield+0x18>)
 8015070:	f04f 5280 	mov.w	r2, #268435456	; 0x10000000
 8015074:	601a      	str	r2, [r3, #0]
 8015076:	f001 fcb5 	bl	80169e4 <restore>
 801507a:	2001      	movs	r0, #1
 801507c:	bd08      	pop	{r3, pc}
 801507e:	bf00      	nop
 8015080:	e000ed04 	.word	0xe000ed04

08015084 <wait>:
 8015084:	b570      	push	{r4, r5, r6, lr}
 8015086:	4604      	mov	r4, r0
 8015088:	f001 fca8 	bl	80169dc <disable>
 801508c:	4605      	mov	r5, r0
 801508e:	2c09      	cmp	r4, #9
 8015090:	d814      	bhi.n	80150bc <wait+0x38>
 8015092:	eb04 0344 	add.w	r3, r4, r4, lsl #1
 8015096:	4a1b      	ldr	r2, [pc, #108]	; (8015104 <wait+0x80>)
 8015098:	f812 3023 	ldrb.w	r3, [r2, r3, lsl #2]
 801509c:	b19b      	cbz	r3, 80150c6 <wait+0x42>
 801509e:	eb04 0244 	add.w	r2, r4, r4, lsl #1
 80150a2:	4b18      	ldr	r3, [pc, #96]	; (8015104 <wait+0x80>)
 80150a4:	eb03 0282 	add.w	r2, r3, r2, lsl #2
 80150a8:	6853      	ldr	r3, [r2, #4]
 80150aa:	3b01      	subs	r3, #1
 80150ac:	6053      	str	r3, [r2, #4]
 80150ae:	2b00      	cmp	r3, #0
 80150b0:	db0e      	blt.n	80150d0 <wait+0x4c>
 80150b2:	4628      	mov	r0, r5
 80150b4:	f001 fc96 	bl	80169e4 <restore>
 80150b8:	2001      	movs	r0, #1
 80150ba:	bd70      	pop	{r4, r5, r6, pc}
 80150bc:	f001 fc92 	bl	80169e4 <restore>
 80150c0:	f04f 30ff 	mov.w	r0, #4294967295	; 0xffffffff
 80150c4:	e7f9      	b.n	80150ba <wait+0x36>
 80150c6:	f001 fc8d 	bl	80169e4 <restore>
 80150ca:	f04f 30ff 	mov.w	r0, #4294967295	; 0xffffffff
 80150ce:	e7f4      	b.n	80150ba <wait+0x36>
 80150d0:	4b0d      	ldr	r3, [pc, #52]	; (8015108 <wait+0x84>)
 80150d2:	6818      	ldr	r0, [r3, #0]
 80150d4:	4a0d      	ldr	r2, [pc, #52]	; (801510c <wait+0x88>)
 80150d6:	eb00 0380 	add.w	r3, r0, r0, lsl #2
 80150da:	0119      	lsls	r1, r3, #4
 80150dc:	eb02 1303 	add.w	r3, r2, r3, lsl #4
 80150e0:	2606      	movs	r6, #6
 80150e2:	5256      	strh	r6, [r2, r1]
 80150e4:	625c      	str	r4, [r3, #36]	; 0x24
 80150e6:	eb04 0444 	add.w	r4, r4, r4, lsl #1
 80150ea:	4b06      	ldr	r3, [pc, #24]	; (8015104 <wait+0x80>)
 80150ec:	eb03 0484 	add.w	r4, r3, r4, lsl #2
 80150f0:	f9b4 1008 	ldrsh.w	r1, [r4, #8]
 80150f4:	f000 fae2 	bl	80156bc <enqueue>
 80150f8:	4b05      	ldr	r3, [pc, #20]	; (8015110 <wait+0x8c>)
 80150fa:	f04f 5280 	mov.w	r2, #268435456	; 0x10000000
 80150fe:	601a      	str	r2, [r3, #0]
 8015100:	e7d7      	b.n	80150b2 <wait+0x2e>
 8015102:	bf00      	nop
 8015104:	200015c0 	.word	0x200015c0
 8015108:	20001298 	.word	0x20001298
 801510c:	2000129c 	.word	0x2000129c
 8015110:	e000ed04 	.word	0xe000ed04

08015114 <unsleep>:
 8015114:	b538      	push	{r3, r4, r5, lr}
 8015116:	4604      	mov	r4, r0
 8015118:	f001 fc60 	bl	80169dc <disable>
 801511c:	4605      	mov	r5, r0
 801511e:	2c09      	cmp	r4, #9
 8015120:	d820      	bhi.n	8015164 <unsleep+0x50>
 8015122:	eb04 0384 	add.w	r3, r4, r4, lsl #2
 8015126:	011b      	lsls	r3, r3, #4
 8015128:	4a14      	ldr	r2, [pc, #80]	; (801517c <unsleep+0x68>)
 801512a:	5ad3      	ldrh	r3, [r2, r3]
 801512c:	b1d3      	cbz	r3, 8015164 <unsleep+0x50>
 801512e:	2b04      	cmp	r3, #4
 8015130:	d001      	beq.n	8015136 <unsleep+0x22>
 8015132:	2b07      	cmp	r3, #7
 8015134:	d11c      	bne.n	8015170 <unsleep+0x5c>
 8015136:	4b12      	ldr	r3, [pc, #72]	; (8015180 <unsleep+0x6c>)
 8015138:	eb03 03c4 	add.w	r3, r3, r4, lsl #3
 801513c:	f9b3 3004 	ldrsh.w	r3, [r3, #4]
 8015140:	2b09      	cmp	r3, #9
 8015142:	dc07      	bgt.n	8015154 <unsleep+0x40>
 8015144:	4a0e      	ldr	r2, [pc, #56]	; (8015180 <unsleep+0x6c>)
 8015146:	f852 0034 	ldr.w	r0, [r2, r4, lsl #3]
 801514a:	f852 1033 	ldr.w	r1, [r2, r3, lsl #3]
 801514e:	4401      	add	r1, r0
 8015150:	f842 1033 	str.w	r1, [r2, r3, lsl #3]
 8015154:	4620      	mov	r0, r4
 8015156:	f000 fadf 	bl	8015718 <getitem>
 801515a:	4628      	mov	r0, r5
 801515c:	f001 fc42 	bl	80169e4 <restore>
 8015160:	2001      	movs	r0, #1
 8015162:	e004      	b.n	801516e <unsleep+0x5a>
 8015164:	4628      	mov	r0, r5
 8015166:	f001 fc3d 	bl	80169e4 <restore>
 801516a:	f04f 30ff 	mov.w	r0, #4294967295	; 0xffffffff
 801516e:	bd38      	pop	{r3, r4, r5, pc}
 8015170:	f001 fc38 	bl	80169e4 <restore>
 8015174:	f04f 30ff 	mov.w	r0, #4294967295	; 0xffffffff
 8015178:	e7f9      	b.n	801516e <unsleep+0x5a>
 801517a:	bf00      	nop
 801517c:	2000129c 	.word	0x2000129c
 8015180:	2000171c 	.word	0x2000171c

08015184 <kill>:
 8015184:	b570      	push	{r4, r5, r6, lr}
 8015186:	4604      	mov	r4, r0
 8015188:	f001 fc28 	bl	80169dc <disable>
 801518c:	4606      	mov	r6, r0
 801518e:	2c09      	cmp	r4, #9
 8015190:	d817      	bhi.n	80151c2 <kill+0x3e>
 8015192:	eb04 0384 	add.w	r3, r4, r4, lsl #2
 8015196:	011b      	lsls	r3, r3, #4
 8015198:	4a42      	ldr	r2, [pc, #264]	; (80152a4 <kill+0x120>)
 801519a:	5ad3      	ldrh	r3, [r2, r3]
 801519c:	b18b      	cbz	r3, 80151c2 <kill+0x3e>
 801519e:	b184      	cbz	r4, 80151c2 <kill+0x3e>
 80151a0:	4a41      	ldr	r2, [pc, #260]	; (80152a8 <kill+0x124>)
 80151a2:	6813      	ldr	r3, [r2, #0]
 80151a4:	3b01      	subs	r3, #1
 80151a6:	6013      	str	r3, [r2, #0]
 80151a8:	2b01      	cmp	r3, #1
 80151aa:	dd10      	ble.n	80151ce <kill+0x4a>
 80151ac:	eb04 0384 	add.w	r3, r4, r4, lsl #2
 80151b0:	4a3c      	ldr	r2, [pc, #240]	; (80152a4 <kill+0x120>)
 80151b2:	eb02 1303 	add.w	r3, r2, r3, lsl #4
 80151b6:	4621      	mov	r1, r4
 80151b8:	6a98      	ldr	r0, [r3, #40]	; 0x28
 80151ba:	f001 f88d 	bl	80162d8 <send>
 80151be:	2500      	movs	r5, #0
 80151c0:	e015      	b.n	80151ee <kill+0x6a>
 80151c2:	4630      	mov	r0, r6
 80151c4:	f001 fc0e 	bl	80169e4 <restore>
 80151c8:	f04f 30ff 	mov.w	r0, #4294967295	; 0xffffffff
 80151cc:	bd70      	pop	{r4, r5, r6, pc}
 80151ce:	f001 fb0b 	bl	80167e8 <xdone>
 80151d2:	e7eb      	b.n	80151ac <kill+0x28>
 80151d4:	eb04 0384 	add.w	r3, r4, r4, lsl #2
 80151d8:	eb05 03c3 	add.w	r3, r5, r3, lsl #3
 80151dc:	3318      	adds	r3, #24
 80151de:	4a31      	ldr	r2, [pc, #196]	; (80152a4 <kill+0x120>)
 80151e0:	eb02 0343 	add.w	r3, r2, r3, lsl #1
 80151e4:	f9b3 0002 	ldrsh.w	r0, [r3, #2]
 80151e8:	f000 feb2 	bl	8015f50 <close>
 80151ec:	3501      	adds	r5, #1
 80151ee:	2d02      	cmp	r5, #2
 80151f0:	ddf0      	ble.n	80151d4 <kill+0x50>
 80151f2:	eb04 0584 	add.w	r5, r4, r4, lsl #2
 80151f6:	4b2b      	ldr	r3, [pc, #172]	; (80152a4 <kill+0x120>)
 80151f8:	eb03 1505 	add.w	r5, r3, r5, lsl #4
 80151fc:	68a8      	ldr	r0, [r5, #8]
 80151fe:	68e9      	ldr	r1, [r5, #12]
 8015200:	3107      	adds	r1, #7
 8015202:	f021 0107 	bic.w	r1, r1, #7
 8015206:	1a40      	subs	r0, r0, r1
 8015208:	3004      	adds	r0, #4
 801520a:	f001 fb13 	bl	8016834 <freemem>
 801520e:	f895 3038 	ldrb.w	r3, [r5, #56]	; 0x38
 8015212:	2b01      	cmp	r3, #1
 8015214:	d00d      	beq.n	8015232 <kill+0xae>
 8015216:	eb04 0384 	add.w	r3, r4, r4, lsl #2
 801521a:	011b      	lsls	r3, r3, #4
 801521c:	4a21      	ldr	r2, [pc, #132]	; (80152a4 <kill+0x120>)
 801521e:	5ad3      	ldrh	r3, [r2, r3]
 8015220:	3b01      	subs	r3, #1
 8015222:	2b06      	cmp	r3, #6
 8015224:	d832      	bhi.n	801528c <kill+0x108>
 8015226:	e8df f003 	tbb	[pc, r3]
 801522a:	2e08      	.short	0x2e08
 801522c:	1c311231 	.word	0x1c311231
 8015230:	12          	.byte	0x12
 8015231:	00          	.byte	0x00
 8015232:	6be8      	ldr	r0, [r5, #60]	; 0x3c
 8015234:	f7fc ffc0 	bl	80121b8 <free>
 8015238:	e7ed      	b.n	8015216 <kill+0x92>
 801523a:	eb04 0384 	add.w	r3, r4, r4, lsl #2
 801523e:	011b      	lsls	r3, r3, #4
 8015240:	4a18      	ldr	r2, [pc, #96]	; (80152a4 <kill+0x120>)
 8015242:	2100      	movs	r1, #0
 8015244:	52d1      	strh	r1, [r2, r3]
 8015246:	4b19      	ldr	r3, [pc, #100]	; (80152ac <kill+0x128>)
 8015248:	f04f 5280 	mov.w	r2, #268435456	; 0x10000000
 801524c:	601a      	str	r2, [r3, #0]
 801524e:	4620      	mov	r0, r4
 8015250:	f7ff ff60 	bl	8015114 <unsleep>
 8015254:	eb04 0484 	add.w	r4, r4, r4, lsl #2
 8015258:	0124      	lsls	r4, r4, #4
 801525a:	4b12      	ldr	r3, [pc, #72]	; (80152a4 <kill+0x120>)
 801525c:	2200      	movs	r2, #0
 801525e:	531a      	strh	r2, [r3, r4]
 8015260:	e01a      	b.n	8015298 <kill+0x114>
 8015262:	eb04 0384 	add.w	r3, r4, r4, lsl #2
 8015266:	4a0f      	ldr	r2, [pc, #60]	; (80152a4 <kill+0x120>)
 8015268:	eb02 1303 	add.w	r3, r2, r3, lsl #4
 801526c:	6a5b      	ldr	r3, [r3, #36]	; 0x24
 801526e:	4a10      	ldr	r2, [pc, #64]	; (80152b0 <kill+0x12c>)
 8015270:	eb03 0143 	add.w	r1, r3, r3, lsl #1
 8015274:	eb02 0181 	add.w	r1, r2, r1, lsl #2
 8015278:	6849      	ldr	r1, [r1, #4]
 801527a:	eb03 0343 	add.w	r3, r3, r3, lsl #1
 801527e:	eb02 0383 	add.w	r3, r2, r3, lsl #2
 8015282:	3101      	adds	r1, #1
 8015284:	6059      	str	r1, [r3, #4]
 8015286:	4620      	mov	r0, r4
 8015288:	f000 fa46 	bl	8015718 <getitem>
 801528c:	eb04 0484 	add.w	r4, r4, r4, lsl #2
 8015290:	0124      	lsls	r4, r4, #4
 8015292:	4b04      	ldr	r3, [pc, #16]	; (80152a4 <kill+0x120>)
 8015294:	2200      	movs	r2, #0
 8015296:	531a      	strh	r2, [r3, r4]
 8015298:	4630      	mov	r0, r6
 801529a:	f001 fba3 	bl	80169e4 <restore>
 801529e:	2001      	movs	r0, #1
 80152a0:	e794      	b.n	80151cc <kill+0x48>
 80152a2:	bf00      	nop
 80152a4:	2000129c 	.word	0x2000129c
 80152a8:	200015bc 	.word	0x200015bc
 80152ac:	e000ed04 	.word	0xe000ed04
 80152b0:	200015c0 	.word	0x200015c0

080152b4 <userret>:
 80152b4:	b508      	push	{r3, lr}
 80152b6:	f7ff fe05 	bl	8014ec4 <getpid>
 80152ba:	f7ff ff63 	bl	8015184 <kill>
 80152be:	bd08      	pop	{r3, pc}

080152c0 <suspend>:
 80152c0:	b538      	push	{r3, r4, r5, lr}
 80152c2:	4604      	mov	r4, r0
 80152c4:	f001 fb8a 	bl	80169dc <disable>
 80152c8:	4605      	mov	r5, r0
 80152ca:	2c09      	cmp	r4, #9
 80152cc:	d822      	bhi.n	8015314 <suspend+0x54>
 80152ce:	eb04 0384 	add.w	r3, r4, r4, lsl #2
 80152d2:	011b      	lsls	r3, r3, #4
 80152d4:	4a1a      	ldr	r2, [pc, #104]	; (8015340 <suspend+0x80>)
 80152d6:	5ad3      	ldrh	r3, [r2, r3]
 80152d8:	b1e3      	cbz	r3, 8015314 <suspend+0x54>
 80152da:	b1dc      	cbz	r4, 8015314 <suspend+0x54>
 80152dc:	1e5a      	subs	r2, r3, #1
 80152de:	b292      	uxth	r2, r2
 80152e0:	2a01      	cmp	r2, #1
 80152e2:	d81d      	bhi.n	8015320 <suspend+0x60>
 80152e4:	2b02      	cmp	r3, #2
 80152e6:	d020      	beq.n	801532a <suspend+0x6a>
 80152e8:	eb04 0384 	add.w	r3, r4, r4, lsl #2
 80152ec:	011b      	lsls	r3, r3, #4
 80152ee:	4a14      	ldr	r2, [pc, #80]	; (8015340 <suspend+0x80>)
 80152f0:	2105      	movs	r1, #5
 80152f2:	52d1      	strh	r1, [r2, r3]
 80152f4:	4b13      	ldr	r3, [pc, #76]	; (8015344 <suspend+0x84>)
 80152f6:	f04f 5280 	mov.w	r2, #268435456	; 0x10000000
 80152fa:	601a      	str	r2, [r3, #0]
 80152fc:	eb04 0484 	add.w	r4, r4, r4, lsl #2
 8015300:	480f      	ldr	r0, [pc, #60]	; (8015340 <suspend+0x80>)
 8015302:	eb00 1404 	add.w	r4, r0, r4, lsl #4
 8015306:	f9b4 4002 	ldrsh.w	r4, [r4, #2]
 801530a:	4628      	mov	r0, r5
 801530c:	f001 fb6a 	bl	80169e4 <restore>
 8015310:	4620      	mov	r0, r4
 8015312:	bd38      	pop	{r3, r4, r5, pc}
 8015314:	4628      	mov	r0, r5
 8015316:	f001 fb65 	bl	80169e4 <restore>
 801531a:	f04f 30ff 	mov.w	r0, #4294967295	; 0xffffffff
 801531e:	e7f8      	b.n	8015312 <suspend+0x52>
 8015320:	f001 fb60 	bl	80169e4 <restore>
 8015324:	f04f 30ff 	mov.w	r0, #4294967295	; 0xffffffff
 8015328:	e7f3      	b.n	8015312 <suspend+0x52>
 801532a:	4620      	mov	r0, r4
 801532c:	f000 f9f4 	bl	8015718 <getitem>
 8015330:	eb04 0384 	add.w	r3, r4, r4, lsl #2
 8015334:	011b      	lsls	r3, r3, #4
 8015336:	4a02      	ldr	r2, [pc, #8]	; (8015340 <suspend+0x80>)
 8015338:	2105      	movs	r1, #5
 801533a:	52d1      	strh	r1, [r2, r3]
 801533c:	e7de      	b.n	80152fc <suspend+0x3c>
 801533e:	bf00      	nop
 8015340:	2000129c 	.word	0x2000129c
 8015344:	e000ed04 	.word	0xe000ed04

08015348 <sleepms>:
 8015348:	b538      	push	{r3, r4, r5, lr}
 801534a:	1e04      	subs	r4, r0, #0
 801534c:	db29      	blt.n	80153a2 <sleepms+0x5a>
 801534e:	b304      	cbz	r4, 8015392 <sleepms+0x4a>
 8015350:	f001 fb44 	bl	80169dc <disable>
 8015354:	4605      	mov	r5, r0
 8015356:	4622      	mov	r2, r4
 8015358:	4b13      	ldr	r3, [pc, #76]	; (80153a8 <sleepms+0x60>)
 801535a:	f9b3 1000 	ldrsh.w	r1, [r3]
 801535e:	4b13      	ldr	r3, [pc, #76]	; (80153ac <sleepms+0x64>)
 8015360:	6818      	ldr	r0, [r3, #0]
 8015362:	f000 fa71 	bl	8015848 <insertd>
 8015366:	4604      	mov	r4, r0
 8015368:	f1b0 3fff 	cmp.w	r0, #4294967295	; 0xffffffff
 801536c:	d015      	beq.n	801539a <sleepms+0x52>
 801536e:	4b0f      	ldr	r3, [pc, #60]	; (80153ac <sleepms+0x64>)
 8015370:	681b      	ldr	r3, [r3, #0]
 8015372:	eb03 0383 	add.w	r3, r3, r3, lsl #2
 8015376:	011b      	lsls	r3, r3, #4
 8015378:	4a0d      	ldr	r2, [pc, #52]	; (80153b0 <sleepms+0x68>)
 801537a:	2104      	movs	r1, #4
 801537c:	52d1      	strh	r1, [r2, r3]
 801537e:	4b0d      	ldr	r3, [pc, #52]	; (80153b4 <sleepms+0x6c>)
 8015380:	f04f 5280 	mov.w	r2, #268435456	; 0x10000000
 8015384:	601a      	str	r2, [r3, #0]
 8015386:	4628      	mov	r0, r5
 8015388:	f001 fb2c 	bl	80169e4 <restore>
 801538c:	2401      	movs	r4, #1
 801538e:	4620      	mov	r0, r4
 8015390:	bd38      	pop	{r3, r4, r5, pc}
 8015392:	f7ff fe69 	bl	8015068 <yield>
 8015396:	2401      	movs	r4, #1
 8015398:	e7f9      	b.n	801538e <sleepms+0x46>
 801539a:	4628      	mov	r0, r5
 801539c:	f001 fb22 	bl	80169e4 <restore>
 80153a0:	e7f5      	b.n	801538e <sleepms+0x46>
 80153a2:	f04f 34ff 	mov.w	r4, #4294967295	; 0xffffffff
 80153a6:	e7f2      	b.n	801538e <sleepms+0x46>
 80153a8:	2000170c 	.word	0x2000170c
 80153ac:	20001298 	.word	0x20001298
 80153b0:	2000129c 	.word	0x2000129c
 80153b4:	e000ed04 	.word	0xe000ed04

080153b8 <sleep>:
 80153b8:	b508      	push	{r3, lr}
 80153ba:	4b07      	ldr	r3, [pc, #28]	; (80153d8 <sleep+0x20>)
 80153bc:	4298      	cmp	r0, r3
 80153be:	d902      	bls.n	80153c6 <sleep+0xe>
 80153c0:	f04f 30ff 	mov.w	r0, #4294967295	; 0xffffffff
 80153c4:	bd08      	pop	{r3, pc}
 80153c6:	f44f 737a 	mov.w	r3, #1000	; 0x3e8
 80153ca:	fb03 f000 	mul.w	r0, r3, r0
 80153ce:	f7ff ffbb 	bl	8015348 <sleepms>
 80153d2:	2001      	movs	r0, #1
 80153d4:	e7f6      	b.n	80153c4 <sleep+0xc>
 80153d6:	bf00      	nop
 80153d8:	0020c49b 	.word	0x0020c49b

080153dc <PendSV_Handler>:
 80153dc:	f3ef 8009 	mrs	r0, PSP
 80153e0:	e920 0ff0 	stmdb	r0!, {r4, r5, r6, r7, r8, r9, sl, fp}
 80153e4:	4605      	mov	r5, r0
 80153e6:	4b34      	ldr	r3, [pc, #208]	; (80154b8 <PendSV_Handler+0xdc>)
 80153e8:	681b      	ldr	r3, [r3, #0]
 80153ea:	2b00      	cmp	r3, #0
 80153ec:	dd0b      	ble.n	8015406 <PendSV_Handler+0x2a>
 80153ee:	4b32      	ldr	r3, [pc, #200]	; (80154b8 <PendSV_Handler+0xdc>)
 80153f0:	2201      	movs	r2, #1
 80153f2:	711a      	strb	r2, [r3, #4]
 80153f4:	4628      	mov	r0, r5
 80153f6:	e8b0 0ff0 	ldmia.w	r0!, {r4, r5, r6, r7, r8, r9, sl, fp}
 80153fa:	f380 8809 	msr	PSP, r0
 80153fe:	f06f 0002 	mvn.w	r0, #2
 8015402:	4686      	mov	lr, r0
 8015404:	4770      	bx	lr
 8015406:	4b2d      	ldr	r3, [pc, #180]	; (80154bc <PendSV_Handler+0xe0>)
 8015408:	681c      	ldr	r4, [r3, #0]
 801540a:	eb04 0384 	add.w	r3, r4, r4, lsl #2
 801540e:	011b      	lsls	r3, r3, #4
 8015410:	4a2b      	ldr	r2, [pc, #172]	; (80154c0 <PendSV_Handler+0xe4>)
 8015412:	5ad3      	ldrh	r3, [r2, r3]
 8015414:	2b01      	cmp	r3, #1
 8015416:	d022      	beq.n	801545e <PendSV_Handler+0x82>
 8015418:	4b2a      	ldr	r3, [pc, #168]	; (80154c4 <PendSV_Handler+0xe8>)
 801541a:	f9b3 0000 	ldrsh.w	r0, [r3]
 801541e:	f000 f99f 	bl	8015760 <dequeue>
 8015422:	4b26      	ldr	r3, [pc, #152]	; (80154bc <PendSV_Handler+0xe0>)
 8015424:	6018      	str	r0, [r3, #0]
 8015426:	4b26      	ldr	r3, [pc, #152]	; (80154c0 <PendSV_Handler+0xe4>)
 8015428:	eb00 0280 	add.w	r2, r0, r0, lsl #2
 801542c:	0112      	lsls	r2, r2, #4
 801542e:	2101      	movs	r1, #1
 8015430:	5299      	strh	r1, [r3, r2]
 8015432:	4a25      	ldr	r2, [pc, #148]	; (80154c8 <PendSV_Handler+0xec>)
 8015434:	210a      	movs	r1, #10
 8015436:	6011      	str	r1, [r2, #0]
 8015438:	eb04 0484 	add.w	r4, r4, r4, lsl #2
 801543c:	eb03 1404 	add.w	r4, r3, r4, lsl #4
 8015440:	6065      	str	r5, [r4, #4]
 8015442:	eb00 0080 	add.w	r0, r0, r0, lsl #2
 8015446:	eb03 1000 	add.w	r0, r3, r0, lsl #4
 801544a:	6843      	ldr	r3, [r0, #4]
 801544c:	4618      	mov	r0, r3
 801544e:	e8b0 0ff0 	ldmia.w	r0!, {r4, r5, r6, r7, r8, r9, sl, fp}
 8015452:	f380 8809 	msr	PSP, r0
 8015456:	f06f 0002 	mvn.w	r0, #2
 801545a:	4686      	mov	lr, r0
 801545c:	4770      	bx	lr
 801545e:	eb04 0384 	add.w	r3, r4, r4, lsl #2
 8015462:	eb02 1303 	add.w	r3, r2, r3, lsl #4
 8015466:	f9b3 1002 	ldrsh.w	r1, [r3, #2]
 801546a:	4a18      	ldr	r2, [pc, #96]	; (80154cc <PendSV_Handler+0xf0>)
 801546c:	4b15      	ldr	r3, [pc, #84]	; (80154c4 <PendSV_Handler+0xe8>)
 801546e:	f9b3 3000 	ldrsh.w	r3, [r3]
 8015472:	eb02 03c3 	add.w	r3, r2, r3, lsl #3
 8015476:	f9b3 3004 	ldrsh.w	r3, [r3, #4]
 801547a:	f852 3033 	ldr.w	r3, [r2, r3, lsl #3]
 801547e:	4299      	cmp	r1, r3
 8015480:	dd08      	ble.n	8015494 <PendSV_Handler+0xb8>
 8015482:	4628      	mov	r0, r5
 8015484:	e8b0 0ff0 	ldmia.w	r0!, {r4, r5, r6, r7, r8, r9, sl, fp}
 8015488:	f380 8809 	msr	PSP, r0
 801548c:	f06f 0002 	mvn.w	r0, #2
 8015490:	4686      	mov	lr, r0
 8015492:	4770      	bx	lr
 8015494:	4a0a      	ldr	r2, [pc, #40]	; (80154c0 <PendSV_Handler+0xe4>)
 8015496:	eb04 0384 	add.w	r3, r4, r4, lsl #2
 801549a:	0119      	lsls	r1, r3, #4
 801549c:	eb02 1303 	add.w	r3, r2, r3, lsl #4
 80154a0:	2002      	movs	r0, #2
 80154a2:	5250      	strh	r0, [r2, r1]
 80154a4:	f9b3 2002 	ldrsh.w	r2, [r3, #2]
 80154a8:	4b06      	ldr	r3, [pc, #24]	; (80154c4 <PendSV_Handler+0xe8>)
 80154aa:	f9b3 1000 	ldrsh.w	r1, [r3]
 80154ae:	4b03      	ldr	r3, [pc, #12]	; (80154bc <PendSV_Handler+0xe0>)
 80154b0:	6818      	ldr	r0, [r3, #0]
 80154b2:	f000 f98b 	bl	80157cc <insert>
 80154b6:	e7af      	b.n	8015418 <PendSV_Handler+0x3c>
 80154b8:	20001704 	.word	0x20001704
 80154bc:	20001298 	.word	0x20001298
 80154c0:	2000129c 	.word	0x2000129c
 80154c4:	20001700 	.word	0x20001700
 80154c8:	20001710 	.word	0x20001710
 80154cc:	2000171c 	.word	0x2000171c

080154d0 <resched_cntl>:
 80154d0:	2801      	cmp	r0, #1
 80154d2:	d004      	beq.n	80154de <resched_cntl+0xe>
 80154d4:	2802      	cmp	r0, #2
 80154d6:	d00b      	beq.n	80154f0 <resched_cntl+0x20>
 80154d8:	f04f 30ff 	mov.w	r0, #4294967295	; 0xffffffff
 80154dc:	4770      	bx	lr
 80154de:	4a10      	ldr	r2, [pc, #64]	; (8015520 <resched_cntl+0x50>)
 80154e0:	6813      	ldr	r3, [r2, #0]
 80154e2:	1c59      	adds	r1, r3, #1
 80154e4:	6011      	str	r1, [r2, #0]
 80154e6:	b9cb      	cbnz	r3, 801551c <resched_cntl+0x4c>
 80154e8:	4613      	mov	r3, r2
 80154ea:	2200      	movs	r2, #0
 80154ec:	711a      	strb	r2, [r3, #4]
 80154ee:	4770      	bx	lr
 80154f0:	4b0b      	ldr	r3, [pc, #44]	; (8015520 <resched_cntl+0x50>)
 80154f2:	681b      	ldr	r3, [r3, #0]
 80154f4:	2b00      	cmp	r3, #0
 80154f6:	dd0b      	ble.n	8015510 <resched_cntl+0x40>
 80154f8:	3b01      	subs	r3, #1
 80154fa:	4a09      	ldr	r2, [pc, #36]	; (8015520 <resched_cntl+0x50>)
 80154fc:	6013      	str	r3, [r2, #0]
 80154fe:	b953      	cbnz	r3, 8015516 <resched_cntl+0x46>
 8015500:	7913      	ldrb	r3, [r2, #4]
 8015502:	b153      	cbz	r3, 801551a <resched_cntl+0x4a>
 8015504:	4b07      	ldr	r3, [pc, #28]	; (8015524 <resched_cntl+0x54>)
 8015506:	f04f 5280 	mov.w	r2, #268435456	; 0x10000000
 801550a:	601a      	str	r2, [r3, #0]
 801550c:	2001      	movs	r0, #1
 801550e:	4770      	bx	lr
 8015510:	f04f 30ff 	mov.w	r0, #4294967295	; 0xffffffff
 8015514:	4770      	bx	lr
 8015516:	2001      	movs	r0, #1
 8015518:	4770      	bx	lr
 801551a:	2001      	movs	r0, #1
 801551c:	4770      	bx	lr
 801551e:	bf00      	nop
 8015520:	20001704 	.word	0x20001704
 8015524:	e000ed04 	.word	0xe000ed04

08015528 <ready>:
 8015528:	2809      	cmp	r0, #9
 801552a:	d81d      	bhi.n	8015568 <ready+0x40>
 801552c:	eb00 0380 	add.w	r3, r0, r0, lsl #2
 8015530:	011b      	lsls	r3, r3, #4
 8015532:	4a0f      	ldr	r2, [pc, #60]	; (8015570 <ready+0x48>)
 8015534:	5ad3      	ldrh	r3, [r2, r3]
 8015536:	b913      	cbnz	r3, 801553e <ready+0x16>
 8015538:	f04f 30ff 	mov.w	r0, #4294967295	; 0xffffffff
 801553c:	4770      	bx	lr
 801553e:	b510      	push	{r4, lr}
 8015540:	eb00 0380 	add.w	r3, r0, r0, lsl #2
 8015544:	0119      	lsls	r1, r3, #4
 8015546:	eb02 1303 	add.w	r3, r2, r3, lsl #4
 801554a:	2402      	movs	r4, #2
 801554c:	5254      	strh	r4, [r2, r1]
 801554e:	f9b3 2002 	ldrsh.w	r2, [r3, #2]
 8015552:	4b08      	ldr	r3, [pc, #32]	; (8015574 <ready+0x4c>)
 8015554:	f9b3 1000 	ldrsh.w	r1, [r3]
 8015558:	f000 f938 	bl	80157cc <insert>
 801555c:	4b06      	ldr	r3, [pc, #24]	; (8015578 <ready+0x50>)
 801555e:	f04f 5280 	mov.w	r2, #268435456	; 0x10000000
 8015562:	601a      	str	r2, [r3, #0]
 8015564:	2001      	movs	r0, #1
 8015566:	bd10      	pop	{r4, pc}
 8015568:	f04f 30ff 	mov.w	r0, #4294967295	; 0xffffffff
 801556c:	4770      	bx	lr
 801556e:	bf00      	nop
 8015570:	2000129c 	.word	0x2000129c
 8015574:	20001700 	.word	0x20001700
 8015578:	e000ed04 	.word	0xe000ed04

0801557c <wakeup>:
 801557c:	b508      	push	{r3, lr}
 801557e:	2001      	movs	r0, #1
 8015580:	f7ff ffa6 	bl	80154d0 <resched_cntl>
 8015584:	4b0b      	ldr	r3, [pc, #44]	; (80155b4 <wakeup+0x38>)
 8015586:	f9b3 0000 	ldrsh.w	r0, [r3]
 801558a:	4b0b      	ldr	r3, [pc, #44]	; (80155b8 <wakeup+0x3c>)
 801558c:	eb03 03c0 	add.w	r3, r3, r0, lsl #3
 8015590:	f9b3 3004 	ldrsh.w	r3, [r3, #4]
 8015594:	2b09      	cmp	r3, #9
 8015596:	dc09      	bgt.n	80155ac <wakeup+0x30>
 8015598:	4a07      	ldr	r2, [pc, #28]	; (80155b8 <wakeup+0x3c>)
 801559a:	f852 3033 	ldr.w	r3, [r2, r3, lsl #3]
 801559e:	2b00      	cmp	r3, #0
 80155a0:	dc04      	bgt.n	80155ac <wakeup+0x30>
 80155a2:	f000 f8dd 	bl	8015760 <dequeue>
 80155a6:	f7ff ffbf 	bl	8015528 <ready>
 80155aa:	e7eb      	b.n	8015584 <wakeup+0x8>
 80155ac:	2002      	movs	r0, #2
 80155ae:	f7ff ff8f 	bl	80154d0 <resched_cntl>
 80155b2:	bd08      	pop	{r3, pc}
 80155b4:	2000170c 	.word	0x2000170c
 80155b8:	2000171c 	.word	0x2000171c

080155bc <resume>:
 80155bc:	b510      	push	{r4, lr}
 80155be:	2809      	cmp	r0, #9
 80155c0:	d812      	bhi.n	80155e8 <resume+0x2c>
 80155c2:	eb00 0380 	add.w	r3, r0, r0, lsl #2
 80155c6:	011b      	lsls	r3, r3, #4
 80155c8:	4a0c      	ldr	r2, [pc, #48]	; (80155fc <resume+0x40>)
 80155ca:	5ad3      	ldrh	r3, [r2, r3]
 80155cc:	b17b      	cbz	r3, 80155ee <resume+0x32>
 80155ce:	2b05      	cmp	r3, #5
 80155d0:	d110      	bne.n	80155f4 <resume+0x38>
 80155d2:	eb00 0280 	add.w	r2, r0, r0, lsl #2
 80155d6:	4b09      	ldr	r3, [pc, #36]	; (80155fc <resume+0x40>)
 80155d8:	eb03 1302 	add.w	r3, r3, r2, lsl #4
 80155dc:	f9b3 4002 	ldrsh.w	r4, [r3, #2]
 80155e0:	f7ff ffa2 	bl	8015528 <ready>
 80155e4:	4620      	mov	r0, r4
 80155e6:	bd10      	pop	{r4, pc}
 80155e8:	f04f 34ff 	mov.w	r4, #4294967295	; 0xffffffff
 80155ec:	e7fa      	b.n	80155e4 <resume+0x28>
 80155ee:	f04f 34ff 	mov.w	r4, #4294967295	; 0xffffffff
 80155f2:	e7f7      	b.n	80155e4 <resume+0x28>
 80155f4:	f04f 34ff 	mov.w	r4, #4294967295	; 0xffffffff
 80155f8:	e7f4      	b.n	80155e4 <resume+0x28>
 80155fa:	bf00      	nop
 80155fc:	2000129c 	.word	0x2000129c

08015600 <exit>:
 8015600:	b508      	push	{r3, lr}
 8015602:	f7ff fc5f 	bl	8014ec4 <getpid>
 8015606:	f7ff fdbd 	bl	8015184 <kill>
 801560a:	bd08      	pop	{r3, pc}

0801560c <clkinit>:
 801560c:	b508      	push	{r3, lr}
 801560e:	f000 f969 	bl	80158e4 <newqueue>
 8015612:	4b14      	ldr	r3, [pc, #80]	; (8015664 <clkinit+0x58>)
 8015614:	8018      	strh	r0, [r3, #0]
 8015616:	4b14      	ldr	r3, [pc, #80]	; (8015668 <clkinit+0x5c>)
 8015618:	220a      	movs	r2, #10
 801561a:	601a      	str	r2, [r3, #0]
 801561c:	2300      	movs	r3, #0
 801561e:	4a13      	ldr	r2, [pc, #76]	; (801566c <clkinit+0x60>)
 8015620:	6013      	str	r3, [r2, #0]
 8015622:	4a13      	ldr	r2, [pc, #76]	; (8015670 <clkinit+0x64>)
 8015624:	6013      	str	r3, [r2, #0]
 8015626:	4a13      	ldr	r2, [pc, #76]	; (8015674 <clkinit+0x68>)
 8015628:	6c13      	ldr	r3, [r2, #64]	; 0x40
 801562a:	f043 0301 	orr.w	r3, r3, #1
 801562e:	6413      	str	r3, [r2, #64]	; 0x40
 8015630:	f04f 4380 	mov.w	r3, #1073741824	; 0x40000000
 8015634:	681a      	ldr	r2, [r3, #0]
 8015636:	f042 0204 	orr.w	r2, r2, #4
 801563a:	601a      	str	r2, [r3, #0]
 801563c:	2207      	movs	r2, #7
 801563e:	629a      	str	r2, [r3, #40]	; 0x28
 8015640:	f44f 5280 	mov.w	r2, #4096	; 0x1000
 8015644:	62da      	str	r2, [r3, #44]	; 0x2c
 8015646:	68da      	ldr	r2, [r3, #12]
 8015648:	f042 0201 	orr.w	r2, r2, #1
 801564c:	60da      	str	r2, [r3, #12]
 801564e:	4b0a      	ldr	r3, [pc, #40]	; (8015678 <clkinit+0x6c>)
 8015650:	f04f 5280 	mov.w	r2, #268435456	; 0x10000000
 8015654:	f8c3 2080 	str.w	r2, [r3, #128]	; 0x80
 8015658:	f3bf 8f4f 	dsb	sy
 801565c:	f3bf 8f6f 	isb	sy
 8015660:	bd08      	pop	{r3, pc}
 8015662:	bf00      	nop
 8015664:	2000170c 	.word	0x2000170c
 8015668:	20001710 	.word	0x20001710
 801566c:	20001718 	.word	0x20001718
 8015670:	20001714 	.word	0x20001714
 8015674:	40023800 	.word	0x40023800
 8015678:	e000e100 	.word	0xe000e100

0801567c <kputc>:
 801567c:	b538      	push	{r3, r4, r5, lr}
 801567e:	4605      	mov	r5, r0
 8015680:	f001 f9ac 	bl	80169dc <disable>
 8015684:	4604      	mov	r4, r0
 8015686:	4628      	mov	r0, r5
 8015688:	f000 fea8 	bl	80163dc <putcharuart>
 801568c:	4620      	mov	r0, r4
 801568e:	f001 f9a9 	bl	80169e4 <restore>
 8015692:	2001      	movs	r0, #1
 8015694:	bd38      	pop	{r3, r4, r5, pc}

08015696 <kgetc>:
 8015696:	4770      	bx	lr

08015698 <kprintf>:
 8015698:	b40f      	push	{r0, r1, r2, r3}
 801569a:	b500      	push	{lr}
 801569c:	b083      	sub	sp, #12
 801569e:	a904      	add	r1, sp, #16
 80156a0:	f851 0b04 	ldr.w	r0, [r1], #4
 80156a4:	9101      	str	r1, [sp, #4]
 80156a6:	4a04      	ldr	r2, [pc, #16]	; (80156b8 <kprintf+0x20>)
 80156a8:	f7fb fa28 	bl	8010afc <_doprnt>
 80156ac:	2001      	movs	r0, #1
 80156ae:	b003      	add	sp, #12
 80156b0:	f85d eb04 	ldr.w	lr, [sp], #4
 80156b4:	b004      	add	sp, #16
 80156b6:	4770      	bx	lr
 80156b8:	0801567d 	.word	0x0801567d

080156bc <enqueue>:
 80156bc:	b289      	uxth	r1, r1
 80156be:	f1a1 030a 	sub.w	r3, r1, #10
 80156c2:	b29b      	uxth	r3, r3
 80156c4:	2b16      	cmp	r3, #22
 80156c6:	d81a      	bhi.n	80156fe <enqueue+0x42>
 80156c8:	2809      	cmp	r0, #9
 80156ca:	d81b      	bhi.n	8015704 <enqueue+0x48>
 80156cc:	eb00 0380 	add.w	r3, r0, r0, lsl #2
 80156d0:	011b      	lsls	r3, r3, #4
 80156d2:	4a0f      	ldr	r2, [pc, #60]	; (8015710 <enqueue+0x54>)
 80156d4:	5ad3      	ldrh	r3, [r2, r3]
 80156d6:	b1c3      	cbz	r3, 801570a <enqueue+0x4e>
 80156d8:	b430      	push	{r4, r5}
 80156da:	3101      	adds	r1, #1
 80156dc:	b209      	sxth	r1, r1
 80156de:	4b0d      	ldr	r3, [pc, #52]	; (8015714 <enqueue+0x58>)
 80156e0:	eb03 02c1 	add.w	r2, r3, r1, lsl #3
 80156e4:	f9b2 4006 	ldrsh.w	r4, [r2, #6]
 80156e8:	eb03 05c0 	add.w	r5, r3, r0, lsl #3
 80156ec:	80a9      	strh	r1, [r5, #4]
 80156ee:	80ec      	strh	r4, [r5, #6]
 80156f0:	b201      	sxth	r1, r0
 80156f2:	eb03 03c4 	add.w	r3, r3, r4, lsl #3
 80156f6:	8099      	strh	r1, [r3, #4]
 80156f8:	80d1      	strh	r1, [r2, #6]
 80156fa:	bc30      	pop	{r4, r5}
 80156fc:	4770      	bx	lr
 80156fe:	f04f 30ff 	mov.w	r0, #4294967295	; 0xffffffff
 8015702:	4770      	bx	lr
 8015704:	f04f 30ff 	mov.w	r0, #4294967295	; 0xffffffff
 8015708:	4770      	bx	lr
 801570a:	f04f 30ff 	mov.w	r0, #4294967295	; 0xffffffff
 801570e:	4770      	bx	lr
 8015710:	2000129c 	.word	0x2000129c
 8015714:	2000171c 	.word	0x2000171c

08015718 <getitem>:
 8015718:	b410      	push	{r4}
 801571a:	4b08      	ldr	r3, [pc, #32]	; (801573c <getitem+0x24>)
 801571c:	eb03 02c0 	add.w	r2, r3, r0, lsl #3
 8015720:	f9b2 1004 	ldrsh.w	r1, [r2, #4]
 8015724:	f9b2 2006 	ldrsh.w	r2, [r2, #6]
 8015728:	eb03 04c2 	add.w	r4, r3, r2, lsl #3
 801572c:	80a1      	strh	r1, [r4, #4]
 801572e:	eb03 03c1 	add.w	r3, r3, r1, lsl #3
 8015732:	80da      	strh	r2, [r3, #6]
 8015734:	f85d 4b04 	ldr.w	r4, [sp], #4
 8015738:	4770      	bx	lr
 801573a:	bf00      	nop
 801573c:	2000171c 	.word	0x2000171c

08015740 <getfirst>:
 8015740:	b508      	push	{r3, lr}
 8015742:	4b06      	ldr	r3, [pc, #24]	; (801575c <getfirst+0x1c>)
 8015744:	eb03 03c0 	add.w	r3, r3, r0, lsl #3
 8015748:	f9b3 0004 	ldrsh.w	r0, [r3, #4]
 801574c:	2809      	cmp	r0, #9
 801574e:	dc02      	bgt.n	8015756 <getfirst+0x16>
 8015750:	f7ff ffe2 	bl	8015718 <getitem>
 8015754:	bd08      	pop	{r3, pc}
 8015756:	f04f 30ff 	mov.w	r0, #4294967295	; 0xffffffff
 801575a:	e7fb      	b.n	8015754 <getfirst+0x14>
 801575c:	2000171c 	.word	0x2000171c

08015760 <dequeue>:
 8015760:	b508      	push	{r3, lr}
 8015762:	f1a0 030a 	sub.w	r3, r0, #10
 8015766:	b29b      	uxth	r3, r3
 8015768:	2b16      	cmp	r3, #22
 801576a:	d810      	bhi.n	801578e <dequeue+0x2e>
 801576c:	4b0b      	ldr	r3, [pc, #44]	; (801579c <dequeue+0x3c>)
 801576e:	eb03 03c0 	add.w	r3, r3, r0, lsl #3
 8015772:	f9b3 3004 	ldrsh.w	r3, [r3, #4]
 8015776:	2b09      	cmp	r3, #9
 8015778:	dc0c      	bgt.n	8015794 <dequeue+0x34>
 801577a:	f7ff ffe1 	bl	8015740 <getfirst>
 801577e:	4b07      	ldr	r3, [pc, #28]	; (801579c <dequeue+0x3c>)
 8015780:	eb03 03c0 	add.w	r3, r3, r0, lsl #3
 8015784:	f64f 72ff 	movw	r2, #65535	; 0xffff
 8015788:	80da      	strh	r2, [r3, #6]
 801578a:	809a      	strh	r2, [r3, #4]
 801578c:	bd08      	pop	{r3, pc}
 801578e:	f04f 30ff 	mov.w	r0, #4294967295	; 0xffffffff
 8015792:	e7fb      	b.n	801578c <dequeue+0x2c>
 8015794:	f04f 30ff 	mov.w	r0, #4294967295	; 0xffffffff
 8015798:	e7f8      	b.n	801578c <dequeue+0x2c>
 801579a:	bf00      	nop
 801579c:	2000171c 	.word	0x2000171c

080157a0 <getlast>:
 80157a0:	b508      	push	{r3, lr}
 80157a2:	4b09      	ldr	r3, [pc, #36]	; (80157c8 <getlast+0x28>)
 80157a4:	eb03 03c0 	add.w	r3, r3, r0, lsl #3
 80157a8:	f9b3 3004 	ldrsh.w	r3, [r3, #4]
 80157ac:	2b09      	cmp	r3, #9
 80157ae:	dc08      	bgt.n	80157c2 <getlast+0x22>
 80157b0:	3001      	adds	r0, #1
 80157b2:	4b05      	ldr	r3, [pc, #20]	; (80157c8 <getlast+0x28>)
 80157b4:	eb03 00c0 	add.w	r0, r3, r0, lsl #3
 80157b8:	f9b0 0006 	ldrsh.w	r0, [r0, #6]
 80157bc:	f7ff ffac 	bl	8015718 <getitem>
 80157c0:	bd08      	pop	{r3, pc}
 80157c2:	f04f 30ff 	mov.w	r0, #4294967295	; 0xffffffff
 80157c6:	e7fb      	b.n	80157c0 <getlast+0x20>
 80157c8:	2000171c 	.word	0x2000171c

080157cc <insert>:
 80157cc:	f1a1 030a 	sub.w	r3, r1, #10
 80157d0:	b29b      	uxth	r3, r3
 80157d2:	2b16      	cmp	r3, #22
 80157d4:	d82b      	bhi.n	801582e <insert+0x62>
 80157d6:	2809      	cmp	r0, #9
 80157d8:	d82c      	bhi.n	8015834 <insert+0x68>
 80157da:	b470      	push	{r4, r5, r6}
 80157dc:	eb00 0380 	add.w	r3, r0, r0, lsl #2
 80157e0:	011b      	lsls	r3, r3, #4
 80157e2:	4c17      	ldr	r4, [pc, #92]	; (8015840 <insert+0x74>)
 80157e4:	5ae3      	ldrh	r3, [r4, r3]
 80157e6:	b343      	cbz	r3, 801583a <insert+0x6e>
 80157e8:	4b16      	ldr	r3, [pc, #88]	; (8015844 <insert+0x78>)
 80157ea:	eb03 01c1 	add.w	r1, r3, r1, lsl #3
 80157ee:	f9b1 3004 	ldrsh.w	r3, [r1, #4]
 80157f2:	4914      	ldr	r1, [pc, #80]	; (8015844 <insert+0x78>)
 80157f4:	f851 1033 	ldr.w	r1, [r1, r3, lsl #3]
 80157f8:	4291      	cmp	r1, r2
 80157fa:	db05      	blt.n	8015808 <insert+0x3c>
 80157fc:	4911      	ldr	r1, [pc, #68]	; (8015844 <insert+0x78>)
 80157fe:	eb01 03c3 	add.w	r3, r1, r3, lsl #3
 8015802:	f9b3 3004 	ldrsh.w	r3, [r3, #4]
 8015806:	e7f4      	b.n	80157f2 <insert+0x26>
 8015808:	490e      	ldr	r1, [pc, #56]	; (8015844 <insert+0x78>)
 801580a:	eb01 04c3 	add.w	r4, r1, r3, lsl #3
 801580e:	f9b4 5006 	ldrsh.w	r5, [r4, #6]
 8015812:	eb01 06c0 	add.w	r6, r1, r0, lsl #3
 8015816:	80b3      	strh	r3, [r6, #4]
 8015818:	80f5      	strh	r5, [r6, #6]
 801581a:	f841 2030 	str.w	r2, [r1, r0, lsl #3]
 801581e:	b200      	sxth	r0, r0
 8015820:	eb01 01c5 	add.w	r1, r1, r5, lsl #3
 8015824:	8088      	strh	r0, [r1, #4]
 8015826:	80e0      	strh	r0, [r4, #6]
 8015828:	2001      	movs	r0, #1
 801582a:	bc70      	pop	{r4, r5, r6}
 801582c:	4770      	bx	lr
 801582e:	f04f 30ff 	mov.w	r0, #4294967295	; 0xffffffff
 8015832:	4770      	bx	lr
 8015834:	f04f 30ff 	mov.w	r0, #4294967295	; 0xffffffff
 8015838:	4770      	bx	lr
 801583a:	f04f 30ff 	mov.w	r0, #4294967295	; 0xffffffff
 801583e:	e7f4      	b.n	801582a <insert+0x5e>
 8015840:	2000129c 	.word	0x2000129c
 8015844:	2000171c 	.word	0x2000171c

08015848 <insertd>:
 8015848:	f1a1 030a 	sub.w	r3, r1, #10
 801584c:	b29b      	uxth	r3, r3
 801584e:	2b16      	cmp	r3, #22
 8015850:	d838      	bhi.n	80158c4 <insertd+0x7c>
 8015852:	2809      	cmp	r0, #9
 8015854:	d839      	bhi.n	80158ca <insertd+0x82>
 8015856:	b470      	push	{r4, r5, r6}
 8015858:	eb00 0380 	add.w	r3, r0, r0, lsl #2
 801585c:	011b      	lsls	r3, r3, #4
 801585e:	4c1f      	ldr	r4, [pc, #124]	; (80158dc <insertd+0x94>)
 8015860:	5ae3      	ldrh	r3, [r4, r3]
 8015862:	2b00      	cmp	r3, #0
 8015864:	d034      	beq.n	80158d0 <insertd+0x88>
 8015866:	460e      	mov	r6, r1
 8015868:	4b1d      	ldr	r3, [pc, #116]	; (80158e0 <insertd+0x98>)
 801586a:	eb03 03c1 	add.w	r3, r3, r1, lsl #3
 801586e:	f9b3 3004 	ldrsh.w	r3, [r3, #4]
 8015872:	e006      	b.n	8015882 <insertd+0x3a>
 8015874:	1b12      	subs	r2, r2, r4
 8015876:	4c1a      	ldr	r4, [pc, #104]	; (80158e0 <insertd+0x98>)
 8015878:	eb04 04c3 	add.w	r4, r4, r3, lsl #3
 801587c:	4619      	mov	r1, r3
 801587e:	f9b4 3004 	ldrsh.w	r3, [r4, #4]
 8015882:	1c75      	adds	r5, r6, #1
 8015884:	429d      	cmp	r5, r3
 8015886:	d004      	beq.n	8015892 <insertd+0x4a>
 8015888:	4c15      	ldr	r4, [pc, #84]	; (80158e0 <insertd+0x98>)
 801588a:	f854 4033 	ldr.w	r4, [r4, r3, lsl #3]
 801588e:	4294      	cmp	r4, r2
 8015890:	ddf0      	ble.n	8015874 <insertd+0x2c>
 8015892:	4c13      	ldr	r4, [pc, #76]	; (80158e0 <insertd+0x98>)
 8015894:	eb04 06c0 	add.w	r6, r4, r0, lsl #3
 8015898:	80b3      	strh	r3, [r6, #4]
 801589a:	80f1      	strh	r1, [r6, #6]
 801589c:	f844 2030 	str.w	r2, [r4, r0, lsl #3]
 80158a0:	b200      	sxth	r0, r0
 80158a2:	eb04 01c1 	add.w	r1, r4, r1, lsl #3
 80158a6:	8088      	strh	r0, [r1, #4]
 80158a8:	eb04 04c3 	add.w	r4, r4, r3, lsl #3
 80158ac:	80e0      	strh	r0, [r4, #6]
 80158ae:	429d      	cmp	r5, r3
 80158b0:	d011      	beq.n	80158d6 <insertd+0x8e>
 80158b2:	480b      	ldr	r0, [pc, #44]	; (80158e0 <insertd+0x98>)
 80158b4:	f850 1033 	ldr.w	r1, [r0, r3, lsl #3]
 80158b8:	1a8a      	subs	r2, r1, r2
 80158ba:	f840 2033 	str.w	r2, [r0, r3, lsl #3]
 80158be:	2001      	movs	r0, #1
 80158c0:	bc70      	pop	{r4, r5, r6}
 80158c2:	4770      	bx	lr
 80158c4:	f04f 30ff 	mov.w	r0, #4294967295	; 0xffffffff
 80158c8:	4770      	bx	lr
 80158ca:	f04f 30ff 	mov.w	r0, #4294967295	; 0xffffffff
 80158ce:	4770      	bx	lr
 80158d0:	f04f 30ff 	mov.w	r0, #4294967295	; 0xffffffff
 80158d4:	e7f4      	b.n	80158c0 <insertd+0x78>
 80158d6:	2001      	movs	r0, #1
 80158d8:	e7f2      	b.n	80158c0 <insertd+0x78>
 80158da:	bf00      	nop
 80158dc:	2000129c 	.word	0x2000129c
 80158e0:	2000171c 	.word	0x2000171c

080158e4 <newqueue>:
 80158e4:	4b12      	ldr	r3, [pc, #72]	; (8015930 <newqueue+0x4c>)
 80158e6:	f9b3 0000 	ldrsh.w	r0, [r3]
 80158ea:	2821      	cmp	r0, #33	; 0x21
 80158ec:	dc1c      	bgt.n	8015928 <newqueue+0x44>
 80158ee:	b410      	push	{r4}
 80158f0:	b283      	uxth	r3, r0
 80158f2:	1c99      	adds	r1, r3, #2
 80158f4:	4a0e      	ldr	r2, [pc, #56]	; (8015930 <newqueue+0x4c>)
 80158f6:	8011      	strh	r1, [r2, #0]
 80158f8:	1c5a      	adds	r2, r3, #1
 80158fa:	4b0e      	ldr	r3, [pc, #56]	; (8015934 <newqueue+0x50>)
 80158fc:	eb03 01c0 	add.w	r1, r3, r0, lsl #3
 8015900:	808a      	strh	r2, [r1, #4]
 8015902:	f64f 74ff 	movw	r4, #65535	; 0xffff
 8015906:	80cc      	strh	r4, [r1, #6]
 8015908:	f06f 4200 	mvn.w	r2, #2147483648	; 0x80000000
 801590c:	f843 2030 	str.w	r2, [r3, r0, lsl #3]
 8015910:	1c42      	adds	r2, r0, #1
 8015912:	eb03 01c2 	add.w	r1, r3, r2, lsl #3
 8015916:	808c      	strh	r4, [r1, #4]
 8015918:	80c8      	strh	r0, [r1, #6]
 801591a:	f04f 4100 	mov.w	r1, #2147483648	; 0x80000000
 801591e:	f843 1032 	str.w	r1, [r3, r2, lsl #3]
 8015922:	f85d 4b04 	ldr.w	r4, [sp], #4
 8015926:	4770      	bx	lr
 8015928:	f04f 30ff 	mov.w	r0, #4294967295	; 0xffffffff
 801592c:	4770      	bx	lr
 801592e:	bf00      	nop
 8015930:	20000314 	.word	0x20000314
 8015934:	2000171c 	.word	0x2000171c

08015938 <platinit>:
 8015938:	b508      	push	{r3, lr}
 801593a:	f000 fd1f 	bl	801637c <uartinit>
 801593e:	bd08      	pop	{r3, pc}

08015940 <cycleCount>:
 8015940:	4b01      	ldr	r3, [pc, #4]	; (8015948 <cycleCount+0x8>)
 8015942:	e9d3 0100 	ldrd	r0, r1, [r3]
 8015946:	4770      	bx	lr
 8015948:	200003a0 	.word	0x200003a0

0801594c <SysTick_Handler>:
 801594c:	4a04      	ldr	r2, [pc, #16]	; (8015960 <SysTick_Handler+0x14>)
 801594e:	6813      	ldr	r3, [r2, #0]
 8015950:	6851      	ldr	r1, [r2, #4]
 8015952:	3301      	adds	r3, #1
 8015954:	f141 0100 	adc.w	r1, r1, #0
 8015958:	6013      	str	r3, [r2, #0]
 801595a:	6051      	str	r1, [r2, #4]
 801595c:	4770      	bx	lr
 801595e:	bf00      	nop
 8015960:	200003a0 	.word	0x200003a0

08015964 <delay>:
 8015964:	b570      	push	{r4, r5, r6, lr}
 8015966:	4606      	mov	r6, r0
 8015968:	f7ff ffea 	bl	8015940 <cycleCount>
 801596c:	1984      	adds	r4, r0, r6
 801596e:	f141 0500 	adc.w	r5, r1, #0
 8015972:	f7ff ffe5 	bl	8015940 <cycleCount>
 8015976:	42a9      	cmp	r1, r5
 8015978:	bf08      	it	eq
 801597a:	42a0      	cmpeq	r0, r4
 801597c:	d201      	bcs.n	8015982 <delay+0x1e>
 801597e:	bf00      	nop
 8015980:	e7f7      	b.n	8015972 <delay+0xe>
 8015982:	bd70      	pop	{r4, r5, r6, pc}

08015984 <delay_us>:
 8015984:	4b07      	ldr	r3, [pc, #28]	; (80159a4 <delay_us+0x20>)
 8015986:	685a      	ldr	r2, [r3, #4]
 8015988:	4b07      	ldr	r3, [pc, #28]	; (80159a8 <delay_us+0x24>)
 801598a:	681b      	ldr	r3, [r3, #0]
 801598c:	4907      	ldr	r1, [pc, #28]	; (80159ac <delay_us+0x28>)
 801598e:	fba1 1303 	umull	r1, r3, r1, r3
 8015992:	0c9b      	lsrs	r3, r3, #18
 8015994:	fb00 f003 	mul.w	r0, r0, r3
 8015998:	4b02      	ldr	r3, [pc, #8]	; (80159a4 <delay_us+0x20>)
 801599a:	685b      	ldr	r3, [r3, #4]
 801599c:	1a9b      	subs	r3, r3, r2
 801599e:	4283      	cmp	r3, r0
 80159a0:	d3fa      	bcc.n	8015998 <delay_us+0x14>
 80159a2:	4770      	bx	lr
 80159a4:	e0001000 	.word	0xe0001000
 80159a8:	20000318 	.word	0x20000318
 80159ac:	431bde83 	.word	0x431bde83

080159b0 <SetSysClock>:
 80159b0:	4a1e      	ldr	r2, [pc, #120]	; (8015a2c <SetSysClock+0x7c>)
 80159b2:	6813      	ldr	r3, [r2, #0]
 80159b4:	f443 3380 	orr.w	r3, r3, #65536	; 0x10000
 80159b8:	6013      	str	r3, [r2, #0]
 80159ba:	4b1c      	ldr	r3, [pc, #112]	; (8015a2c <SetSysClock+0x7c>)
 80159bc:	681b      	ldr	r3, [r3, #0]
 80159be:	f413 3f00 	tst.w	r3, #131072	; 0x20000
 80159c2:	d0fa      	beq.n	80159ba <SetSysClock+0xa>
 80159c4:	4b19      	ldr	r3, [pc, #100]	; (8015a2c <SetSysClock+0x7c>)
 80159c6:	6c1a      	ldr	r2, [r3, #64]	; 0x40
 80159c8:	f042 5280 	orr.w	r2, r2, #268435456	; 0x10000000
 80159cc:	641a      	str	r2, [r3, #64]	; 0x40
 80159ce:	4918      	ldr	r1, [pc, #96]	; (8015a30 <SetSysClock+0x80>)
 80159d0:	680a      	ldr	r2, [r1, #0]
 80159d2:	f442 4240 	orr.w	r2, r2, #49152	; 0xc000
 80159d6:	600a      	str	r2, [r1, #0]
 80159d8:	689a      	ldr	r2, [r3, #8]
 80159da:	609a      	str	r2, [r3, #8]
 80159dc:	689a      	ldr	r2, [r3, #8]
 80159de:	f442 4200 	orr.w	r2, r2, #32768	; 0x8000
 80159e2:	609a      	str	r2, [r3, #8]
 80159e4:	689a      	ldr	r2, [r3, #8]
 80159e6:	f442 52a0 	orr.w	r2, r2, #5120	; 0x1400
 80159ea:	609a      	str	r2, [r3, #8]
 80159ec:	4a11      	ldr	r2, [pc, #68]	; (8015a34 <SetSysClock+0x84>)
 80159ee:	605a      	str	r2, [r3, #4]
 80159f0:	681a      	ldr	r2, [r3, #0]
 80159f2:	f042 7280 	orr.w	r2, r2, #16777216	; 0x1000000
 80159f6:	601a      	str	r2, [r3, #0]
 80159f8:	4b0c      	ldr	r3, [pc, #48]	; (8015a2c <SetSysClock+0x7c>)
 80159fa:	681b      	ldr	r3, [r3, #0]
 80159fc:	f013 7f00 	tst.w	r3, #33554432	; 0x2000000
 8015a00:	d0fa      	beq.n	80159f8 <SetSysClock+0x48>
 8015a02:	4b0d      	ldr	r3, [pc, #52]	; (8015a38 <SetSysClock+0x88>)
 8015a04:	f240 7205 	movw	r2, #1797	; 0x705
 8015a08:	601a      	str	r2, [r3, #0]
 8015a0a:	f5a3 6380 	sub.w	r3, r3, #1024	; 0x400
 8015a0e:	689a      	ldr	r2, [r3, #8]
 8015a10:	f022 0203 	bic.w	r2, r2, #3
 8015a14:	609a      	str	r2, [r3, #8]
 8015a16:	689a      	ldr	r2, [r3, #8]
 8015a18:	f042 0202 	orr.w	r2, r2, #2
 8015a1c:	609a      	str	r2, [r3, #8]
 8015a1e:	4b03      	ldr	r3, [pc, #12]	; (8015a2c <SetSysClock+0x7c>)
 8015a20:	689b      	ldr	r3, [r3, #8]
 8015a22:	f003 030c 	and.w	r3, r3, #12
 8015a26:	2b08      	cmp	r3, #8
 8015a28:	d1f9      	bne.n	8015a1e <SetSysClock+0x6e>
 8015a2a:	4770      	bx	lr
 8015a2c:	40023800 	.word	0x40023800
 8015a30:	40007000 	.word	0x40007000
 8015a34:	07405408 	.word	0x07405408
 8015a38:	40023c00 	.word	0x40023c00

08015a3c <DWTInit>:
 8015a3c:	4a06      	ldr	r2, [pc, #24]	; (8015a58 <DWTInit+0x1c>)
 8015a3e:	68d3      	ldr	r3, [r2, #12]
 8015a40:	f043 7380 	orr.w	r3, r3, #16777216	; 0x1000000
 8015a44:	60d3      	str	r3, [r2, #12]
 8015a46:	4b05      	ldr	r3, [pc, #20]	; (8015a5c <DWTInit+0x20>)
 8015a48:	2200      	movs	r2, #0
 8015a4a:	605a      	str	r2, [r3, #4]
 8015a4c:	681a      	ldr	r2, [r3, #0]
 8015a4e:	f042 0201 	orr.w	r2, r2, #1
 8015a52:	601a      	str	r2, [r3, #0]
 8015a54:	4770      	bx	lr
 8015a56:	bf00      	nop
 8015a58:	e000edf0 	.word	0xe000edf0
 8015a5c:	e0001000 	.word	0xe0001000

08015a60 <init_systick>:
 8015a60:	4b09      	ldr	r3, [pc, #36]	; (8015a88 <init_systick+0x28>)
 8015a62:	2100      	movs	r1, #0
 8015a64:	6019      	str	r1, [r3, #0]
 8015a66:	681a      	ldr	r2, [r3, #0]
 8015a68:	f042 0204 	orr.w	r2, r2, #4
 8015a6c:	601a      	str	r2, [r3, #0]
 8015a6e:	681a      	ldr	r2, [r3, #0]
 8015a70:	f042 0202 	orr.w	r2, r2, #2
 8015a74:	601a      	str	r2, [r3, #0]
 8015a76:	3801      	subs	r0, #1
 8015a78:	6058      	str	r0, [r3, #4]
 8015a7a:	6099      	str	r1, [r3, #8]
 8015a7c:	681a      	ldr	r2, [r3, #0]
 8015a7e:	f042 0201 	orr.w	r2, r2, #1
 8015a82:	601a      	str	r2, [r3, #0]
 8015a84:	4770      	bx	lr
 8015a86:	bf00      	nop
 8015a88:	e000e010 	.word	0xe000e010

08015a8c <SystemCoreClockUpdate>:
 8015a8c:	4b22      	ldr	r3, [pc, #136]	; (8015b18 <SystemCoreClockUpdate+0x8c>)
 8015a8e:	689b      	ldr	r3, [r3, #8]
 8015a90:	f003 030c 	and.w	r3, r3, #12
 8015a94:	2b04      	cmp	r3, #4
 8015a96:	d014      	beq.n	8015ac2 <SystemCoreClockUpdate+0x36>
 8015a98:	2b08      	cmp	r3, #8
 8015a9a:	d016      	beq.n	8015aca <SystemCoreClockUpdate+0x3e>
 8015a9c:	b11b      	cbz	r3, 8015aa6 <SystemCoreClockUpdate+0x1a>
 8015a9e:	4b1f      	ldr	r3, [pc, #124]	; (8015b1c <SystemCoreClockUpdate+0x90>)
 8015aa0:	4a1f      	ldr	r2, [pc, #124]	; (8015b20 <SystemCoreClockUpdate+0x94>)
 8015aa2:	601a      	str	r2, [r3, #0]
 8015aa4:	e002      	b.n	8015aac <SystemCoreClockUpdate+0x20>
 8015aa6:	4b1d      	ldr	r3, [pc, #116]	; (8015b1c <SystemCoreClockUpdate+0x90>)
 8015aa8:	4a1d      	ldr	r2, [pc, #116]	; (8015b20 <SystemCoreClockUpdate+0x94>)
 8015aaa:	601a      	str	r2, [r3, #0]
 8015aac:	4b1a      	ldr	r3, [pc, #104]	; (8015b18 <SystemCoreClockUpdate+0x8c>)
 8015aae:	689b      	ldr	r3, [r3, #8]
 8015ab0:	f3c3 1303 	ubfx	r3, r3, #4, #4
 8015ab4:	4a1b      	ldr	r2, [pc, #108]	; (8015b24 <SystemCoreClockUpdate+0x98>)
 8015ab6:	5cd1      	ldrb	r1, [r2, r3]
 8015ab8:	4a18      	ldr	r2, [pc, #96]	; (8015b1c <SystemCoreClockUpdate+0x90>)
 8015aba:	6813      	ldr	r3, [r2, #0]
 8015abc:	40cb      	lsrs	r3, r1
 8015abe:	6013      	str	r3, [r2, #0]
 8015ac0:	4770      	bx	lr
 8015ac2:	4b16      	ldr	r3, [pc, #88]	; (8015b1c <SystemCoreClockUpdate+0x90>)
 8015ac4:	4a18      	ldr	r2, [pc, #96]	; (8015b28 <SystemCoreClockUpdate+0x9c>)
 8015ac6:	601a      	str	r2, [r3, #0]
 8015ac8:	e7f0      	b.n	8015aac <SystemCoreClockUpdate+0x20>
 8015aca:	4b13      	ldr	r3, [pc, #76]	; (8015b18 <SystemCoreClockUpdate+0x8c>)
 8015acc:	685a      	ldr	r2, [r3, #4]
 8015ace:	685b      	ldr	r3, [r3, #4]
 8015ad0:	f003 033f 	and.w	r3, r3, #63	; 0x3f
 8015ad4:	f412 0f80 	tst.w	r2, #4194304	; 0x400000
 8015ad8:	d013      	beq.n	8015b02 <SystemCoreClockUpdate+0x76>
 8015ada:	4a13      	ldr	r2, [pc, #76]	; (8015b28 <SystemCoreClockUpdate+0x9c>)
 8015adc:	fbb2 f2f3 	udiv	r2, r2, r3
 8015ae0:	4b0d      	ldr	r3, [pc, #52]	; (8015b18 <SystemCoreClockUpdate+0x8c>)
 8015ae2:	685b      	ldr	r3, [r3, #4]
 8015ae4:	f3c3 1388 	ubfx	r3, r3, #6, #9
 8015ae8:	fb03 f302 	mul.w	r3, r3, r2
 8015aec:	4a0a      	ldr	r2, [pc, #40]	; (8015b18 <SystemCoreClockUpdate+0x8c>)
 8015aee:	6852      	ldr	r2, [r2, #4]
 8015af0:	f3c2 4201 	ubfx	r2, r2, #16, #2
 8015af4:	3201      	adds	r2, #1
 8015af6:	0052      	lsls	r2, r2, #1
 8015af8:	fbb3 f3f2 	udiv	r3, r3, r2
 8015afc:	4a07      	ldr	r2, [pc, #28]	; (8015b1c <SystemCoreClockUpdate+0x90>)
 8015afe:	6013      	str	r3, [r2, #0]
 8015b00:	e7d4      	b.n	8015aac <SystemCoreClockUpdate+0x20>
 8015b02:	4a07      	ldr	r2, [pc, #28]	; (8015b20 <SystemCoreClockUpdate+0x94>)
 8015b04:	fbb2 f2f3 	udiv	r2, r2, r3
 8015b08:	4b03      	ldr	r3, [pc, #12]	; (8015b18 <SystemCoreClockUpdate+0x8c>)
 8015b0a:	685b      	ldr	r3, [r3, #4]
 8015b0c:	f3c3 1388 	ubfx	r3, r3, #6, #9
 8015b10:	fb03 f302 	mul.w	r3, r3, r2
 8015b14:	e7ea      	b.n	8015aec <SystemCoreClockUpdate+0x60>
 8015b16:	bf00      	nop
 8015b18:	40023800 	.word	0x40023800
 8015b1c:	20000318 	.word	0x20000318
 8015b20:	00f42400 	.word	0x00f42400
 8015b24:	0801a924 	.word	0x0801a924
 8015b28:	017d7840 	.word	0x017d7840

08015b2c <set_sysclk_to_168>:
 8015b2c:	4a1f      	ldr	r2, [pc, #124]	; (8015bac <set_sysclk_to_168+0x80>)
 8015b2e:	6813      	ldr	r3, [r2, #0]
 8015b30:	f443 3380 	orr.w	r3, r3, #65536	; 0x10000
 8015b34:	6013      	str	r3, [r2, #0]
 8015b36:	4b1d      	ldr	r3, [pc, #116]	; (8015bac <set_sysclk_to_168+0x80>)
 8015b38:	681b      	ldr	r3, [r3, #0]
 8015b3a:	f413 3f00 	tst.w	r3, #131072	; 0x20000
 8015b3e:	d0fa      	beq.n	8015b36 <set_sysclk_to_168+0xa>
 8015b40:	4b1a      	ldr	r3, [pc, #104]	; (8015bac <set_sysclk_to_168+0x80>)
 8015b42:	6c1a      	ldr	r2, [r3, #64]	; 0x40
 8015b44:	f042 5280 	orr.w	r2, r2, #268435456	; 0x10000000
 8015b48:	641a      	str	r2, [r3, #64]	; 0x40
 8015b4a:	4919      	ldr	r1, [pc, #100]	; (8015bb0 <set_sysclk_to_168+0x84>)
 8015b4c:	680a      	ldr	r2, [r1, #0]
 8015b4e:	f442 4280 	orr.w	r2, r2, #16384	; 0x4000
 8015b52:	600a      	str	r2, [r1, #0]
 8015b54:	689a      	ldr	r2, [r3, #8]
 8015b56:	609a      	str	r2, [r3, #8]
 8015b58:	689a      	ldr	r2, [r3, #8]
 8015b5a:	f442 52a0 	orr.w	r2, r2, #5120	; 0x1400
 8015b5e:	609a      	str	r2, [r3, #8]
 8015b60:	689a      	ldr	r2, [r3, #8]
 8015b62:	f442 4200 	orr.w	r2, r2, #32768	; 0x8000
 8015b66:	609a      	str	r2, [r3, #8]
 8015b68:	4a12      	ldr	r2, [pc, #72]	; (8015bb4 <set_sysclk_to_168+0x88>)
 8015b6a:	605a      	str	r2, [r3, #4]
 8015b6c:	681a      	ldr	r2, [r3, #0]
 8015b6e:	f042 7280 	orr.w	r2, r2, #16777216	; 0x1000000
 8015b72:	601a      	str	r2, [r3, #0]
 8015b74:	4b0d      	ldr	r3, [pc, #52]	; (8015bac <set_sysclk_to_168+0x80>)
 8015b76:	681b      	ldr	r3, [r3, #0]
 8015b78:	f013 7f00 	tst.w	r3, #33554432	; 0x2000000
 8015b7c:	d0fa      	beq.n	8015b74 <set_sysclk_to_168+0x48>
 8015b7e:	4b0e      	ldr	r3, [pc, #56]	; (8015bb8 <set_sysclk_to_168+0x8c>)
 8015b80:	f240 7205 	movw	r2, #1797	; 0x705
 8015b84:	601a      	str	r2, [r3, #0]
 8015b86:	f5a3 6380 	sub.w	r3, r3, #1024	; 0x400
 8015b8a:	689a      	ldr	r2, [r3, #8]
 8015b8c:	f022 0203 	bic.w	r2, r2, #3
 8015b90:	609a      	str	r2, [r3, #8]
 8015b92:	689a      	ldr	r2, [r3, #8]
 8015b94:	f042 0202 	orr.w	r2, r2, #2
 8015b98:	609a      	str	r2, [r3, #8]
 8015b9a:	4b04      	ldr	r3, [pc, #16]	; (8015bac <set_sysclk_to_168+0x80>)
 8015b9c:	689b      	ldr	r3, [r3, #8]
 8015b9e:	f013 0f08 	tst.w	r3, #8
 8015ba2:	d0fa      	beq.n	8015b9a <set_sysclk_to_168+0x6e>
 8015ba4:	4b05      	ldr	r3, [pc, #20]	; (8015bbc <set_sysclk_to_168+0x90>)
 8015ba6:	4a06      	ldr	r2, [pc, #24]	; (8015bc0 <set_sysclk_to_168+0x94>)
 8015ba8:	601a      	str	r2, [r3, #0]
 8015baa:	4770      	bx	lr
 8015bac:	40023800 	.word	0x40023800
 8015bb0:	40007000 	.word	0x40007000
 8015bb4:	07405408 	.word	0x07405408
 8015bb8:	40023c00 	.word	0x40023c00
 8015bbc:	20000318 	.word	0x20000318
 8015bc0:	0a037a00 	.word	0x0a037a00

08015bc4 <Reset_Handler>:
 8015bc4:	b508      	push	{r3, lr}
 8015bc6:	4a1f      	ldr	r2, [pc, #124]	; (8015c44 <Reset_Handler+0x80>)
 8015bc8:	f8d2 3088 	ldr.w	r3, [r2, #136]	; 0x88
 8015bcc:	f443 0370 	orr.w	r3, r3, #15728640	; 0xf00000
 8015bd0:	f8c2 3088 	str.w	r3, [r2, #136]	; 0x88
 8015bd4:	f000 ff02 	bl	80169dc <disable>
 8015bd8:	4b1b      	ldr	r3, [pc, #108]	; (8015c48 <Reset_Handler+0x84>)
 8015bda:	4a1c      	ldr	r2, [pc, #112]	; (8015c4c <Reset_Handler+0x88>)
 8015bdc:	e003      	b.n	8015be6 <Reset_Handler+0x22>
 8015bde:	f852 1b04 	ldr.w	r1, [r2], #4
 8015be2:	f843 1b04 	str.w	r1, [r3], #4
 8015be6:	491a      	ldr	r1, [pc, #104]	; (8015c50 <Reset_Handler+0x8c>)
 8015be8:	428b      	cmp	r3, r1
 8015bea:	d3f8      	bcc.n	8015bde <Reset_Handler+0x1a>
 8015bec:	4b19      	ldr	r3, [pc, #100]	; (8015c54 <Reset_Handler+0x90>)
 8015bee:	e002      	b.n	8015bf6 <Reset_Handler+0x32>
 8015bf0:	2200      	movs	r2, #0
 8015bf2:	f843 2b04 	str.w	r2, [r3], #4
 8015bf6:	4a18      	ldr	r2, [pc, #96]	; (8015c58 <Reset_Handler+0x94>)
 8015bf8:	4293      	cmp	r3, r2
 8015bfa:	d3f9      	bcc.n	8015bf0 <Reset_Handler+0x2c>
 8015bfc:	4b17      	ldr	r3, [pc, #92]	; (8015c5c <Reset_Handler+0x98>)
 8015bfe:	6b1a      	ldr	r2, [r3, #48]	; 0x30
 8015c00:	f042 0201 	orr.w	r2, r2, #1
 8015c04:	631a      	str	r2, [r3, #48]	; 0x30
 8015c06:	6b1a      	ldr	r2, [r3, #48]	; 0x30
 8015c08:	f042 0202 	orr.w	r2, r2, #2
 8015c0c:	631a      	str	r2, [r3, #48]	; 0x30
 8015c0e:	6b1a      	ldr	r2, [r3, #48]	; 0x30
 8015c10:	f042 0204 	orr.w	r2, r2, #4
 8015c14:	631a      	str	r2, [r3, #48]	; 0x30
 8015c16:	4a12      	ldr	r2, [pc, #72]	; (8015c60 <Reset_Handler+0x9c>)
 8015c18:	4b0a      	ldr	r3, [pc, #40]	; (8015c44 <Reset_Handler+0x80>)
 8015c1a:	609a      	str	r2, [r3, #8]
 8015c1c:	f7ff fec8 	bl	80159b0 <SetSysClock>
 8015c20:	f7ff ff34 	bl	8015a8c <SystemCoreClockUpdate>
 8015c24:	f7ff ff82 	bl	8015b2c <set_sysclk_to_168>
 8015c28:	4b0e      	ldr	r3, [pc, #56]	; (8015c64 <Reset_Handler+0xa0>)
 8015c2a:	6818      	ldr	r0, [r3, #0]
 8015c2c:	4b0e      	ldr	r3, [pc, #56]	; (8015c68 <Reset_Handler+0xa4>)
 8015c2e:	fba3 3000 	umull	r3, r0, r3, r0
 8015c32:	0980      	lsrs	r0, r0, #6
 8015c34:	f7ff ff14 	bl	8015a60 <init_systick>
 8015c38:	f7ff ff00 	bl	8015a3c <DWTInit>
 8015c3c:	f7ff f85c 	bl	8014cf8 <nulluser>
 8015c40:	bf00      	nop
 8015c42:	e7fd      	b.n	8015c40 <Reset_Handler+0x7c>
 8015c44:	e000ed00 	.word	0xe000ed00
 8015c48:	20000000 	.word	0x20000000
 8015c4c:	0801b698 	.word	0x0801b698
 8015c50:	20000390 	.word	0x20000390
 8015c54:	20000390 	.word	0x20000390
 8015c58:	20002834 	.word	0x20002834
 8015c5c:	40023800 	.word	0x40023800
 8015c60:	08010000 	.word	0x08010000
 8015c64:	20000318 	.word	0x20000318
 8015c68:	10624dd3 	.word	0x10624dd3

08015c6c <newsem>:
 8015c6c:	2300      	movs	r3, #0
 8015c6e:	e006      	b.n	8015c7e <newsem+0x12>
 8015c70:	eb00 0140 	add.w	r1, r0, r0, lsl #1
 8015c74:	008a      	lsls	r2, r1, #2
 8015c76:	490d      	ldr	r1, [pc, #52]	; (8015cac <newsem+0x40>)
 8015c78:	5c8a      	ldrb	r2, [r1, r2]
 8015c7a:	b162      	cbz	r2, 8015c96 <newsem+0x2a>
 8015c7c:	3301      	adds	r3, #1
 8015c7e:	2b09      	cmp	r3, #9
 8015c80:	dc10      	bgt.n	8015ca4 <newsem+0x38>
 8015c82:	490b      	ldr	r1, [pc, #44]	; (8015cb0 <newsem+0x44>)
 8015c84:	6808      	ldr	r0, [r1, #0]
 8015c86:	1c42      	adds	r2, r0, #1
 8015c88:	600a      	str	r2, [r1, #0]
 8015c8a:	2a09      	cmp	r2, #9
 8015c8c:	ddf0      	ble.n	8015c70 <newsem+0x4>
 8015c8e:	460a      	mov	r2, r1
 8015c90:	2100      	movs	r1, #0
 8015c92:	6011      	str	r1, [r2, #0]
 8015c94:	e7ec      	b.n	8015c70 <newsem+0x4>
 8015c96:	eb00 0240 	add.w	r2, r0, r0, lsl #1
 8015c9a:	0093      	lsls	r3, r2, #2
 8015c9c:	460a      	mov	r2, r1
 8015c9e:	2101      	movs	r1, #1
 8015ca0:	54d1      	strb	r1, [r2, r3]
 8015ca2:	4770      	bx	lr
 8015ca4:	f04f 30ff 	mov.w	r0, #4294967295	; 0xffffffff
 8015ca8:	4770      	bx	lr
 8015caa:	bf00      	nop
 8015cac:	200015c0 	.word	0x200015c0
 8015cb0:	200003ac 	.word	0x200003ac

08015cb4 <semcreate>:
 8015cb4:	b570      	push	{r4, r5, r6, lr}
 8015cb6:	4605      	mov	r5, r0
 8015cb8:	f000 fe90 	bl	80169dc <disable>
 8015cbc:	4606      	mov	r6, r0
 8015cbe:	2d00      	cmp	r5, #0
 8015cc0:	db10      	blt.n	8015ce4 <semcreate+0x30>
 8015cc2:	f7ff ffd3 	bl	8015c6c <newsem>
 8015cc6:	4604      	mov	r4, r0
 8015cc8:	f1b0 3fff 	cmp.w	r0, #4294967295	; 0xffffffff
 8015ccc:	d00a      	beq.n	8015ce4 <semcreate+0x30>
 8015cce:	eb00 0340 	add.w	r3, r0, r0, lsl #1
 8015cd2:	4a07      	ldr	r2, [pc, #28]	; (8015cf0 <semcreate+0x3c>)
 8015cd4:	eb02 0383 	add.w	r3, r2, r3, lsl #2
 8015cd8:	605d      	str	r5, [r3, #4]
 8015cda:	4630      	mov	r0, r6
 8015cdc:	f000 fe82 	bl	80169e4 <restore>
 8015ce0:	4620      	mov	r0, r4
 8015ce2:	bd70      	pop	{r4, r5, r6, pc}
 8015ce4:	4630      	mov	r0, r6
 8015ce6:	f000 fe7d 	bl	80169e4 <restore>
 8015cea:	f04f 34ff 	mov.w	r4, #4294967295	; 0xffffffff
 8015cee:	e7f7      	b.n	8015ce0 <semcreate+0x2c>
 8015cf0:	200015c0 	.word	0x200015c0

08015cf4 <semcount>:
 8015cf4:	b510      	push	{r4, lr}
 8015cf6:	4604      	mov	r4, r0
 8015cf8:	f000 fe70 	bl	80169dc <disable>
 8015cfc:	2c09      	cmp	r4, #9
 8015cfe:	d80f      	bhi.n	8015d20 <semcount+0x2c>
 8015d00:	eb04 0344 	add.w	r3, r4, r4, lsl #1
 8015d04:	4a09      	ldr	r2, [pc, #36]	; (8015d2c <semcount+0x38>)
 8015d06:	f812 3023 	ldrb.w	r3, [r2, r3, lsl #2]
 8015d0a:	b14b      	cbz	r3, 8015d20 <semcount+0x2c>
 8015d0c:	eb04 0444 	add.w	r4, r4, r4, lsl #1
 8015d10:	4b06      	ldr	r3, [pc, #24]	; (8015d2c <semcount+0x38>)
 8015d12:	eb03 0484 	add.w	r4, r3, r4, lsl #2
 8015d16:	6864      	ldr	r4, [r4, #4]
 8015d18:	f000 fe64 	bl	80169e4 <restore>
 8015d1c:	4620      	mov	r0, r4
 8015d1e:	bd10      	pop	{r4, pc}
 8015d20:	f000 fe60 	bl	80169e4 <restore>
 8015d24:	f04f 34ff 	mov.w	r4, #4294967295	; 0xffffffff
 8015d28:	e7f8      	b.n	8015d1c <semcount+0x28>
 8015d2a:	bf00      	nop
 8015d2c:	200015c0 	.word	0x200015c0

08015d30 <semdelete>:
 8015d30:	b538      	push	{r3, r4, r5, lr}
 8015d32:	4604      	mov	r4, r0
 8015d34:	f000 fe52 	bl	80169dc <disable>
 8015d38:	4605      	mov	r5, r0
 8015d3a:	2c09      	cmp	r4, #9
 8015d3c:	d80f      	bhi.n	8015d5e <semdelete+0x2e>
 8015d3e:	eb04 0344 	add.w	r3, r4, r4, lsl #1
 8015d42:	4a1a      	ldr	r2, [pc, #104]	; (8015dac <semdelete+0x7c>)
 8015d44:	f812 3023 	ldrb.w	r3, [r2, r3, lsl #2]
 8015d48:	b173      	cbz	r3, 8015d68 <semdelete+0x38>
 8015d4a:	eb04 0344 	add.w	r3, r4, r4, lsl #1
 8015d4e:	009b      	lsls	r3, r3, #2
 8015d50:	4a16      	ldr	r2, [pc, #88]	; (8015dac <semdelete+0x7c>)
 8015d52:	2100      	movs	r1, #0
 8015d54:	54d1      	strb	r1, [r2, r3]
 8015d56:	2001      	movs	r0, #1
 8015d58:	f7ff fbba 	bl	80154d0 <resched_cntl>
 8015d5c:	e014      	b.n	8015d88 <semdelete+0x58>
 8015d5e:	f000 fe41 	bl	80169e4 <restore>
 8015d62:	f04f 30ff 	mov.w	r0, #4294967295	; 0xffffffff
 8015d66:	e020      	b.n	8015daa <semdelete+0x7a>
 8015d68:	f000 fe3c 	bl	80169e4 <restore>
 8015d6c:	f04f 30ff 	mov.w	r0, #4294967295	; 0xffffffff
 8015d70:	e01b      	b.n	8015daa <semdelete+0x7a>
 8015d72:	eb04 0344 	add.w	r3, r4, r4, lsl #1
 8015d76:	4a0d      	ldr	r2, [pc, #52]	; (8015dac <semdelete+0x7c>)
 8015d78:	eb02 0383 	add.w	r3, r2, r3, lsl #2
 8015d7c:	f9b3 0008 	ldrsh.w	r0, [r3, #8]
 8015d80:	f7ff fcde 	bl	8015740 <getfirst>
 8015d84:	f7ff fbd0 	bl	8015528 <ready>
 8015d88:	eb04 0344 	add.w	r3, r4, r4, lsl #1
 8015d8c:	4a07      	ldr	r2, [pc, #28]	; (8015dac <semdelete+0x7c>)
 8015d8e:	eb02 0383 	add.w	r3, r2, r3, lsl #2
 8015d92:	685a      	ldr	r2, [r3, #4]
 8015d94:	1c51      	adds	r1, r2, #1
 8015d96:	6059      	str	r1, [r3, #4]
 8015d98:	2a00      	cmp	r2, #0
 8015d9a:	dbea      	blt.n	8015d72 <semdelete+0x42>
 8015d9c:	2002      	movs	r0, #2
 8015d9e:	f7ff fb97 	bl	80154d0 <resched_cntl>
 8015da2:	4628      	mov	r0, r5
 8015da4:	f000 fe1e 	bl	80169e4 <restore>
 8015da8:	2001      	movs	r0, #1
 8015daa:	bd38      	pop	{r3, r4, r5, pc}
 8015dac:	200015c0 	.word	0x200015c0

08015db0 <semreset>:
 8015db0:	b5f8      	push	{r3, r4, r5, r6, r7, lr}
 8015db2:	4604      	mov	r4, r0
 8015db4:	460d      	mov	r5, r1
 8015db6:	f000 fe11 	bl	80169dc <disable>
 8015dba:	4606      	mov	r6, r0
 8015dbc:	2d00      	cmp	r5, #0
 8015dbe:	db07      	blt.n	8015dd0 <semreset+0x20>
 8015dc0:	2c09      	cmp	r4, #9
 8015dc2:	d805      	bhi.n	8015dd0 <semreset+0x20>
 8015dc4:	eb04 0344 	add.w	r3, r4, r4, lsl #1
 8015dc8:	4a15      	ldr	r2, [pc, #84]	; (8015e20 <semreset+0x70>)
 8015dca:	f812 3023 	ldrb.w	r3, [r2, r3, lsl #2]
 8015dce:	b92b      	cbnz	r3, 8015ddc <semreset+0x2c>
 8015dd0:	4630      	mov	r0, r6
 8015dd2:	f000 fe07 	bl	80169e4 <restore>
 8015dd6:	f04f 30ff 	mov.w	r0, #4294967295	; 0xffffffff
 8015dda:	bdf8      	pop	{r3, r4, r5, r6, r7, pc}
 8015ddc:	eb04 0344 	add.w	r3, r4, r4, lsl #1
 8015de0:	4a0f      	ldr	r2, [pc, #60]	; (8015e20 <semreset+0x70>)
 8015de2:	eb02 0383 	add.w	r3, r2, r3, lsl #2
 8015de6:	f9b3 7008 	ldrsh.w	r7, [r3, #8]
 8015dea:	2001      	movs	r0, #1
 8015dec:	f7ff fb70 	bl	80154d0 <resched_cntl>
 8015df0:	e001      	b.n	8015df6 <semreset+0x46>
 8015df2:	f7ff fb99 	bl	8015528 <ready>
 8015df6:	4638      	mov	r0, r7
 8015df8:	f7ff fca2 	bl	8015740 <getfirst>
 8015dfc:	f1b0 3fff 	cmp.w	r0, #4294967295	; 0xffffffff
 8015e00:	d1f7      	bne.n	8015df2 <semreset+0x42>
 8015e02:	eb04 0444 	add.w	r4, r4, r4, lsl #1
 8015e06:	4b06      	ldr	r3, [pc, #24]	; (8015e20 <semreset+0x70>)
 8015e08:	eb03 0484 	add.w	r4, r3, r4, lsl #2
 8015e0c:	6065      	str	r5, [r4, #4]
 8015e0e:	2002      	movs	r0, #2
 8015e10:	f7ff fb5e 	bl	80154d0 <resched_cntl>
 8015e14:	4630      	mov	r0, r6
 8015e16:	f000 fde5 	bl	80169e4 <restore>
 8015e1a:	2001      	movs	r0, #1
 8015e1c:	e7dd      	b.n	8015dda <semreset+0x2a>
 8015e1e:	bf00      	nop
 8015e20:	200015c0 	.word	0x200015c0

08015e24 <readSector>:
 8015e24:	e92d 41f0 	stmdb	sp!, {r4, r5, r6, r7, r8, lr}
 8015e28:	4604      	mov	r4, r0
 8015e2a:	460e      	mov	r6, r1
 8015e2c:	4690      	mov	r8, r2
 8015e2e:	461f      	mov	r7, r3
 8015e30:	f000 fdd4 	bl	80169dc <disable>
 8015e34:	4605      	mov	r5, r0
 8015e36:	2c04      	cmp	r4, #4
 8015e38:	d80f      	bhi.n	8015e5a <readSector+0x36>
 8015e3a:	234c      	movs	r3, #76	; 0x4c
 8015e3c:	4809      	ldr	r0, [pc, #36]	; (8015e64 <readSector+0x40>)
 8015e3e:	fb03 0004 	mla	r0, r3, r4, r0
 8015e42:	6c44      	ldr	r4, [r0, #68]	; 0x44
 8015e44:	463b      	mov	r3, r7
 8015e46:	4642      	mov	r2, r8
 8015e48:	4631      	mov	r1, r6
 8015e4a:	47a0      	blx	r4
 8015e4c:	4604      	mov	r4, r0
 8015e4e:	4628      	mov	r0, r5
 8015e50:	f000 fdc8 	bl	80169e4 <restore>
 8015e54:	4620      	mov	r0, r4
 8015e56:	e8bd 81f0 	ldmia.w	sp!, {r4, r5, r6, r7, r8, pc}
 8015e5a:	f000 fdc3 	bl	80169e4 <restore>
 8015e5e:	f04f 34ff 	mov.w	r4, #4294967295	; 0xffffffff
 8015e62:	e7f7      	b.n	8015e54 <readSector+0x30>
 8015e64:	20000198 	.word	0x20000198

08015e68 <writeSector>:
 8015e68:	e92d 41f0 	stmdb	sp!, {r4, r5, r6, r7, r8, lr}
 8015e6c:	4604      	mov	r4, r0
 8015e6e:	460e      	mov	r6, r1
 8015e70:	4690      	mov	r8, r2
 8015e72:	461f      	mov	r7, r3
 8015e74:	f000 fdb2 	bl	80169dc <disable>
 8015e78:	4605      	mov	r5, r0
 8015e7a:	2c04      	cmp	r4, #4
 8015e7c:	d80f      	bhi.n	8015e9e <writeSector+0x36>
 8015e7e:	234c      	movs	r3, #76	; 0x4c
 8015e80:	4809      	ldr	r0, [pc, #36]	; (8015ea8 <writeSector+0x40>)
 8015e82:	fb03 0004 	mla	r0, r3, r4, r0
 8015e86:	6c84      	ldr	r4, [r0, #72]	; 0x48
 8015e88:	463b      	mov	r3, r7
 8015e8a:	4642      	mov	r2, r8
 8015e8c:	4631      	mov	r1, r6
 8015e8e:	47a0      	blx	r4
 8015e90:	4604      	mov	r4, r0
 8015e92:	4628      	mov	r0, r5
 8015e94:	f000 fda6 	bl	80169e4 <restore>
 8015e98:	4620      	mov	r0, r4
 8015e9a:	e8bd 81f0 	ldmia.w	sp!, {r4, r5, r6, r7, r8, pc}
 8015e9e:	f000 fda1 	bl	80169e4 <restore>
 8015ea2:	f04f 34ff 	mov.w	r4, #4294967295	; 0xffffffff
 8015ea6:	e7f7      	b.n	8015e98 <writeSector+0x30>
 8015ea8:	20000198 	.word	0x20000198

08015eac <set>:
 8015eac:	b570      	push	{r4, r5, r6, lr}
 8015eae:	4604      	mov	r4, r0
 8015eb0:	460d      	mov	r5, r1
 8015eb2:	f000 fd93 	bl	80169dc <disable>
 8015eb6:	4606      	mov	r6, r0
 8015eb8:	2c04      	cmp	r4, #4
 8015eba:	d80e      	bhi.n	8015eda <set+0x2e>
 8015ebc:	234c      	movs	r3, #76	; 0x4c
 8015ebe:	4809      	ldr	r0, [pc, #36]	; (8015ee4 <set+0x38>)
 8015ec0:	fb03 0004 	mla	r0, r3, r4, r0
 8015ec4:	6bc3      	ldr	r3, [r0, #60]	; 0x3c
 8015ec6:	1e29      	subs	r1, r5, #0
 8015ec8:	bf18      	it	ne
 8015eca:	2101      	movne	r1, #1
 8015ecc:	4798      	blx	r3
 8015ece:	4604      	mov	r4, r0
 8015ed0:	4630      	mov	r0, r6
 8015ed2:	f000 fd87 	bl	80169e4 <restore>
 8015ed6:	4620      	mov	r0, r4
 8015ed8:	bd70      	pop	{r4, r5, r6, pc}
 8015eda:	f000 fd83 	bl	80169e4 <restore>
 8015ede:	f04f 34ff 	mov.w	r4, #4294967295	; 0xffffffff
 8015ee2:	e7f8      	b.n	8015ed6 <set+0x2a>
 8015ee4:	20000198 	.word	0x20000198

08015ee8 <toggle>:
 8015ee8:	b538      	push	{r3, r4, r5, lr}
 8015eea:	4604      	mov	r4, r0
 8015eec:	f000 fd76 	bl	80169dc <disable>
 8015ef0:	4605      	mov	r5, r0
 8015ef2:	2c04      	cmp	r4, #4
 8015ef4:	d80b      	bhi.n	8015f0e <toggle+0x26>
 8015ef6:	234c      	movs	r3, #76	; 0x4c
 8015ef8:	4807      	ldr	r0, [pc, #28]	; (8015f18 <toggle+0x30>)
 8015efa:	fb03 0004 	mla	r0, r3, r4, r0
 8015efe:	6c03      	ldr	r3, [r0, #64]	; 0x40
 8015f00:	4798      	blx	r3
 8015f02:	4604      	mov	r4, r0
 8015f04:	4628      	mov	r0, r5
 8015f06:	f000 fd6d 	bl	80169e4 <restore>
 8015f0a:	4620      	mov	r0, r4
 8015f0c:	bd38      	pop	{r3, r4, r5, pc}
 8015f0e:	f000 fd69 	bl	80169e4 <restore>
 8015f12:	f04f 34ff 	mov.w	r4, #4294967295	; 0xffffffff
 8015f16:	e7f8      	b.n	8015f0a <toggle+0x22>
 8015f18:	20000198 	.word	0x20000198

08015f1c <init>:
 8015f1c:	b538      	push	{r3, r4, r5, lr}
 8015f1e:	4604      	mov	r4, r0
 8015f20:	f000 fd5c 	bl	80169dc <disable>
 8015f24:	4605      	mov	r5, r0
 8015f26:	2c04      	cmp	r4, #4
 8015f28:	d80b      	bhi.n	8015f42 <init+0x26>
 8015f2a:	234c      	movs	r3, #76	; 0x4c
 8015f2c:	4807      	ldr	r0, [pc, #28]	; (8015f4c <init+0x30>)
 8015f2e:	fb03 0004 	mla	r0, r3, r4, r0
 8015f32:	68c3      	ldr	r3, [r0, #12]
 8015f34:	4798      	blx	r3
 8015f36:	4604      	mov	r4, r0
 8015f38:	4628      	mov	r0, r5
 8015f3a:	f000 fd53 	bl	80169e4 <restore>
 8015f3e:	4620      	mov	r0, r4
 8015f40:	bd38      	pop	{r3, r4, r5, pc}
 8015f42:	f000 fd4f 	bl	80169e4 <restore>
 8015f46:	f04f 34ff 	mov.w	r4, #4294967295	; 0xffffffff
 8015f4a:	e7f8      	b.n	8015f3e <init+0x22>
 8015f4c:	20000198 	.word	0x20000198

08015f50 <close>:
 8015f50:	b538      	push	{r3, r4, r5, lr}
 8015f52:	4604      	mov	r4, r0
 8015f54:	f000 fd42 	bl	80169dc <disable>
 8015f58:	4605      	mov	r5, r0
 8015f5a:	2c04      	cmp	r4, #4
 8015f5c:	d80b      	bhi.n	8015f76 <close+0x26>
 8015f5e:	234c      	movs	r3, #76	; 0x4c
 8015f60:	4807      	ldr	r0, [pc, #28]	; (8015f80 <close+0x30>)
 8015f62:	fb03 0004 	mla	r0, r3, r4, r0
 8015f66:	6943      	ldr	r3, [r0, #20]
 8015f68:	4798      	blx	r3
 8015f6a:	4604      	mov	r4, r0
 8015f6c:	4628      	mov	r0, r5
 8015f6e:	f000 fd39 	bl	80169e4 <restore>
 8015f72:	4620      	mov	r0, r4
 8015f74:	bd38      	pop	{r3, r4, r5, pc}
 8015f76:	f000 fd35 	bl	80169e4 <restore>
 8015f7a:	f04f 34ff 	mov.w	r4, #4294967295	; 0xffffffff
 8015f7e:	e7f8      	b.n	8015f72 <close+0x22>
 8015f80:	20000198 	.word	0x20000198

08015f84 <getc>:
 8015f84:	b538      	push	{r3, r4, r5, lr}
 8015f86:	4604      	mov	r4, r0
 8015f88:	f000 fd28 	bl	80169dc <disable>
 8015f8c:	4605      	mov	r5, r0
 8015f8e:	2c04      	cmp	r4, #4
 8015f90:	d80b      	bhi.n	8015faa <getc+0x26>
 8015f92:	234c      	movs	r3, #76	; 0x4c
 8015f94:	4807      	ldr	r0, [pc, #28]	; (8015fb4 <getc+0x30>)
 8015f96:	fb03 0004 	mla	r0, r3, r4, r0
 8015f9a:	6a43      	ldr	r3, [r0, #36]	; 0x24
 8015f9c:	4798      	blx	r3
 8015f9e:	4604      	mov	r4, r0
 8015fa0:	4628      	mov	r0, r5
 8015fa2:	f000 fd1f 	bl	80169e4 <restore>
 8015fa6:	4620      	mov	r0, r4
 8015fa8:	bd38      	pop	{r3, r4, r5, pc}
 8015faa:	f000 fd1b 	bl	80169e4 <restore>
 8015fae:	f04f 34ff 	mov.w	r4, #4294967295	; 0xffffffff
 8015fb2:	e7f8      	b.n	8015fa6 <getc+0x22>
 8015fb4:	20000198 	.word	0x20000198

08015fb8 <ioerr>:
 8015fb8:	f04f 30ff 	mov.w	r0, #4294967295	; 0xffffffff
 8015fbc:	4770      	bx	lr

08015fbe <ionull>:
 8015fbe:	2001      	movs	r0, #1
 8015fc0:	4770      	bx	lr

08015fc2 <open>:
 8015fc2:	b5f8      	push	{r3, r4, r5, r6, r7, lr}
 8015fc4:	4604      	mov	r4, r0
 8015fc6:	460f      	mov	r7, r1
 8015fc8:	4615      	mov	r5, r2
 8015fca:	f000 fd07 	bl	80169dc <disable>
 8015fce:	4606      	mov	r6, r0
 8015fd0:	2c04      	cmp	r4, #4
 8015fd2:	d80d      	bhi.n	8015ff0 <open+0x2e>
 8015fd4:	234c      	movs	r3, #76	; 0x4c
 8015fd6:	4809      	ldr	r0, [pc, #36]	; (8015ffc <open+0x3a>)
 8015fd8:	fb03 0004 	mla	r0, r3, r4, r0
 8015fdc:	6903      	ldr	r3, [r0, #16]
 8015fde:	462a      	mov	r2, r5
 8015fe0:	4639      	mov	r1, r7
 8015fe2:	4798      	blx	r3
 8015fe4:	4604      	mov	r4, r0
 8015fe6:	4630      	mov	r0, r6
 8015fe8:	f000 fcfc 	bl	80169e4 <restore>
 8015fec:	4620      	mov	r0, r4
 8015fee:	bdf8      	pop	{r3, r4, r5, r6, r7, pc}
 8015ff0:	f000 fcf8 	bl	80169e4 <restore>
 8015ff4:	f04f 34ff 	mov.w	r4, #4294967295	; 0xffffffff
 8015ff8:	e7f8      	b.n	8015fec <open+0x2a>
 8015ffa:	bf00      	nop
 8015ffc:	20000198 	.word	0x20000198

08016000 <putc>:
 8016000:	b570      	push	{r4, r5, r6, lr}
 8016002:	4604      	mov	r4, r0
 8016004:	460d      	mov	r5, r1
 8016006:	f000 fce9 	bl	80169dc <disable>
 801600a:	4606      	mov	r6, r0
 801600c:	2c04      	cmp	r4, #4
 801600e:	d80c      	bhi.n	801602a <putc+0x2a>
 8016010:	234c      	movs	r3, #76	; 0x4c
 8016012:	4808      	ldr	r0, [pc, #32]	; (8016034 <putc+0x34>)
 8016014:	fb03 0004 	mla	r0, r3, r4, r0
 8016018:	6a83      	ldr	r3, [r0, #40]	; 0x28
 801601a:	4629      	mov	r1, r5
 801601c:	4798      	blx	r3
 801601e:	4604      	mov	r4, r0
 8016020:	4630      	mov	r0, r6
 8016022:	f000 fcdf 	bl	80169e4 <restore>
 8016026:	4620      	mov	r0, r4
 8016028:	bd70      	pop	{r4, r5, r6, pc}
 801602a:	f000 fcdb 	bl	80169e4 <restore>
 801602e:	f04f 34ff 	mov.w	r4, #4294967295	; 0xffffffff
 8016032:	e7f8      	b.n	8016026 <putc+0x26>
 8016034:	20000198 	.word	0x20000198

08016038 <read>:
 8016038:	b5f8      	push	{r3, r4, r5, r6, r7, lr}
 801603a:	4604      	mov	r4, r0
 801603c:	460f      	mov	r7, r1
 801603e:	4615      	mov	r5, r2
 8016040:	f000 fccc 	bl	80169dc <disable>
 8016044:	4606      	mov	r6, r0
 8016046:	2c04      	cmp	r4, #4
 8016048:	d80d      	bhi.n	8016066 <read+0x2e>
 801604a:	234c      	movs	r3, #76	; 0x4c
 801604c:	4808      	ldr	r0, [pc, #32]	; (8016070 <read+0x38>)
 801604e:	fb03 0004 	mla	r0, r3, r4, r0
 8016052:	6983      	ldr	r3, [r0, #24]
 8016054:	462a      	mov	r2, r5
 8016056:	4639      	mov	r1, r7
 8016058:	4798      	blx	r3
 801605a:	4604      	mov	r4, r0
 801605c:	4630      	mov	r0, r6
 801605e:	f000 fcc1 	bl	80169e4 <restore>
 8016062:	4620      	mov	r0, r4
 8016064:	bdf8      	pop	{r3, r4, r5, r6, r7, pc}
 8016066:	f000 fcbd 	bl	80169e4 <restore>
 801606a:	f04f 34ff 	mov.w	r4, #4294967295	; 0xffffffff
 801606e:	e7f8      	b.n	8016062 <read+0x2a>
 8016070:	20000198 	.word	0x20000198

08016074 <write>:
 8016074:	b5f8      	push	{r3, r4, r5, r6, r7, lr}
 8016076:	4604      	mov	r4, r0
 8016078:	460f      	mov	r7, r1
 801607a:	4615      	mov	r5, r2
 801607c:	f000 fcae 	bl	80169dc <disable>
 8016080:	4606      	mov	r6, r0
 8016082:	2c04      	cmp	r4, #4
 8016084:	d80d      	bhi.n	80160a2 <write+0x2e>
 8016086:	234c      	movs	r3, #76	; 0x4c
 8016088:	4808      	ldr	r0, [pc, #32]	; (80160ac <write+0x38>)
 801608a:	fb03 0004 	mla	r0, r3, r4, r0
 801608e:	69c3      	ldr	r3, [r0, #28]
 8016090:	462a      	mov	r2, r5
 8016092:	4639      	mov	r1, r7
 8016094:	4798      	blx	r3
 8016096:	4604      	mov	r4, r0
 8016098:	4630      	mov	r0, r6
 801609a:	f000 fca3 	bl	80169e4 <restore>
 801609e:	4620      	mov	r0, r4
 80160a0:	bdf8      	pop	{r3, r4, r5, r6, r7, pc}
 80160a2:	f000 fc9f 	bl	80169e4 <restore>
 80160a6:	f04f 34ff 	mov.w	r4, #4294967295	; 0xffffffff
 80160aa:	e7f8      	b.n	801609e <write+0x2a>
 80160ac:	20000198 	.word	0x20000198

080160b0 <seek>:
 80160b0:	b570      	push	{r4, r5, r6, lr}
 80160b2:	4604      	mov	r4, r0
 80160b4:	460d      	mov	r5, r1
 80160b6:	f000 fc91 	bl	80169dc <disable>
 80160ba:	4606      	mov	r6, r0
 80160bc:	2c04      	cmp	r4, #4
 80160be:	d80c      	bhi.n	80160da <seek+0x2a>
 80160c0:	234c      	movs	r3, #76	; 0x4c
 80160c2:	4808      	ldr	r0, [pc, #32]	; (80160e4 <seek+0x34>)
 80160c4:	fb03 0004 	mla	r0, r3, r4, r0
 80160c8:	6a03      	ldr	r3, [r0, #32]
 80160ca:	4629      	mov	r1, r5
 80160cc:	4798      	blx	r3
 80160ce:	4604      	mov	r4, r0
 80160d0:	4630      	mov	r0, r6
 80160d2:	f000 fc87 	bl	80169e4 <restore>
 80160d6:	4620      	mov	r0, r4
 80160d8:	bd70      	pop	{r4, r5, r6, pc}
 80160da:	f000 fc83 	bl	80169e4 <restore>
 80160de:	f04f 34ff 	mov.w	r4, #4294967295	; 0xffffffff
 80160e2:	e7f8      	b.n	80160d6 <seek+0x26>
 80160e4:	20000198 	.word	0x20000198

080160e8 <control>:
 80160e8:	e92d 41f0 	stmdb	sp!, {r4, r5, r6, r7, r8, lr}
 80160ec:	4604      	mov	r4, r0
 80160ee:	460e      	mov	r6, r1
 80160f0:	4690      	mov	r8, r2
 80160f2:	461f      	mov	r7, r3
 80160f4:	f000 fc72 	bl	80169dc <disable>
 80160f8:	4605      	mov	r5, r0
 80160fa:	2c04      	cmp	r4, #4
 80160fc:	d80f      	bhi.n	801611e <control+0x36>
 80160fe:	234c      	movs	r3, #76	; 0x4c
 8016100:	4809      	ldr	r0, [pc, #36]	; (8016128 <control+0x40>)
 8016102:	fb03 0004 	mla	r0, r3, r4, r0
 8016106:	6ac4      	ldr	r4, [r0, #44]	; 0x2c
 8016108:	463b      	mov	r3, r7
 801610a:	4642      	mov	r2, r8
 801610c:	4631      	mov	r1, r6
 801610e:	47a0      	blx	r4
 8016110:	4604      	mov	r4, r0
 8016112:	4628      	mov	r0, r5
 8016114:	f000 fc66 	bl	80169e4 <restore>
 8016118:	4620      	mov	r0, r4
 801611a:	e8bd 81f0 	ldmia.w	sp!, {r4, r5, r6, r7, r8, pc}
 801611e:	f000 fc61 	bl	80169e4 <restore>
 8016122:	f04f 34ff 	mov.w	r4, #4294967295	; 0xffffffff
 8016126:	e7f7      	b.n	8016118 <control+0x30>
 8016128:	20000198 	.word	0x20000198

0801612c <getdev>:
 801612c:	b570      	push	{r4, r5, r6, lr}
 801612e:	4605      	mov	r5, r0
 8016130:	f000 fc54 	bl	80169dc <disable>
 8016134:	4606      	mov	r6, r0
 8016136:	2400      	movs	r4, #0
 8016138:	2c04      	cmp	r4, #4
 801613a:	dc0f      	bgt.n	801615c <getdev+0x30>
 801613c:	4a0b      	ldr	r2, [pc, #44]	; (801616c <getdev+0x40>)
 801613e:	234c      	movs	r3, #76	; 0x4c
 8016140:	fb03 2304 	mla	r3, r3, r4, r2
 8016144:	2210      	movs	r2, #16
 8016146:	6899      	ldr	r1, [r3, #8]
 8016148:	4628      	mov	r0, r5
 801614a:	f7fc fc2b 	bl	80129a4 <strncmp>
 801614e:	b908      	cbnz	r0, 8016154 <getdev+0x28>
 8016150:	3401      	adds	r4, #1
 8016152:	e7f1      	b.n	8016138 <getdev+0xc>
 8016154:	4630      	mov	r0, r6
 8016156:	f000 fc45 	bl	80169e4 <restore>
 801615a:	e004      	b.n	8016166 <getdev+0x3a>
 801615c:	4630      	mov	r0, r6
 801615e:	f000 fc41 	bl	80169e4 <restore>
 8016162:	f04f 34ff 	mov.w	r4, #4294967295	; 0xffffffff
 8016166:	4620      	mov	r0, r4
 8016168:	bd70      	pop	{r4, r5, r6, pc}
 801616a:	bf00      	nop
 801616c:	20000198 	.word	0x20000198

08016170 <default_handler>:
 8016170:	b538      	push	{r3, r4, r5, lr}
 8016172:	f01e 0f04 	tst.w	lr, #4
 8016176:	bf0c      	ite	eq
 8016178:	f3ef 8508 	mrseq	r5, MSP
 801617c:	f3ef 8509 	mrsne	r5, PSP
 8016180:	2400      	movs	r4, #0
 8016182:	e006      	b.n	8016192 <default_handler+0x22>
 8016184:	f855 2024 	ldr.w	r2, [r5, r4, lsl #2]
 8016188:	4621      	mov	r1, r4
 801618a:	4803      	ldr	r0, [pc, #12]	; (8016198 <default_handler+0x28>)
 801618c:	f7ff fa84 	bl	8015698 <kprintf>
 8016190:	3401      	adds	r4, #1
 8016192:	2c0e      	cmp	r4, #14
 8016194:	ddf6      	ble.n	8016184 <default_handler+0x14>
 8016196:	bd38      	pop	{r3, r4, r5, pc}
 8016198:	0801b534 	.word	0x0801b534

0801619c <default_IRQ_Handler>:
 801619c:	b508      	push	{r3, lr}
 801619e:	f7ff ffe7 	bl	8016170 <default_handler>
 80161a2:	bf20      	wfe
 80161a4:	e7fd      	b.n	80161a2 <default_IRQ_Handler+0x6>
 80161a6:	bf00      	nop

080161a8 <receive>:
 80161a8:	4b10      	ldr	r3, [pc, #64]	; (80161ec <receive+0x44>)
 80161aa:	681b      	ldr	r3, [r3, #0]
 80161ac:	eb03 0283 	add.w	r2, r3, r3, lsl #2
 80161b0:	0111      	lsls	r1, r2, #4
 80161b2:	4a0f      	ldr	r2, [pc, #60]	; (80161f0 <receive+0x48>)
 80161b4:	440a      	add	r2, r1
 80161b6:	f892 2030 	ldrb.w	r2, [r2, #48]	; 0x30
 80161ba:	b94a      	cbnz	r2, 80161d0 <receive+0x28>
 80161bc:	eb03 0183 	add.w	r1, r3, r3, lsl #2
 80161c0:	010a      	lsls	r2, r1, #4
 80161c2:	490b      	ldr	r1, [pc, #44]	; (80161f0 <receive+0x48>)
 80161c4:	2003      	movs	r0, #3
 80161c6:	5288      	strh	r0, [r1, r2]
 80161c8:	4a0a      	ldr	r2, [pc, #40]	; (80161f4 <receive+0x4c>)
 80161ca:	f04f 5180 	mov.w	r1, #268435456	; 0x10000000
 80161ce:	6011      	str	r1, [r2, #0]
 80161d0:	4a07      	ldr	r2, [pc, #28]	; (80161f0 <receive+0x48>)
 80161d2:	eb03 0083 	add.w	r0, r3, r3, lsl #2
 80161d6:	0101      	lsls	r1, r0, #4
 80161d8:	4411      	add	r1, r2
 80161da:	6ac8      	ldr	r0, [r1, #44]	; 0x2c
 80161dc:	eb03 0383 	add.w	r3, r3, r3, lsl #2
 80161e0:	0119      	lsls	r1, r3, #4
 80161e2:	440a      	add	r2, r1
 80161e4:	2300      	movs	r3, #0
 80161e6:	f882 3030 	strb.w	r3, [r2, #48]	; 0x30
 80161ea:	4770      	bx	lr
 80161ec:	20001298 	.word	0x20001298
 80161f0:	2000129c 	.word	0x2000129c
 80161f4:	e000ed04 	.word	0xe000ed04

080161f8 <recvclr>:
 80161f8:	b510      	push	{r4, lr}
 80161fa:	f000 fbef 	bl	80169dc <disable>
 80161fe:	4b0c      	ldr	r3, [pc, #48]	; (8016230 <recvclr+0x38>)
 8016200:	681b      	ldr	r3, [r3, #0]
 8016202:	eb03 0183 	add.w	r1, r3, r3, lsl #2
 8016206:	4a0b      	ldr	r2, [pc, #44]	; (8016234 <recvclr+0x3c>)
 8016208:	eb02 1201 	add.w	r2, r2, r1, lsl #4
 801620c:	f892 2030 	ldrb.w	r2, [r2, #48]	; 0x30
 8016210:	2a01      	cmp	r2, #1
 8016212:	d004      	beq.n	801621e <recvclr+0x26>
 8016214:	2401      	movs	r4, #1
 8016216:	f000 fbe5 	bl	80169e4 <restore>
 801621a:	4620      	mov	r0, r4
 801621c:	bd10      	pop	{r4, pc}
 801621e:	4a05      	ldr	r2, [pc, #20]	; (8016234 <recvclr+0x3c>)
 8016220:	eb02 1101 	add.w	r1, r2, r1, lsl #4
 8016224:	6acc      	ldr	r4, [r1, #44]	; 0x2c
 8016226:	2200      	movs	r2, #0
 8016228:	f881 2030 	strb.w	r2, [r1, #48]	; 0x30
 801622c:	e7f3      	b.n	8016216 <recvclr+0x1e>
 801622e:	bf00      	nop
 8016230:	20001298 	.word	0x20001298
 8016234:	2000129c 	.word	0x2000129c

08016238 <recvtime>:
 8016238:	b570      	push	{r4, r5, r6, lr}
 801623a:	1e05      	subs	r5, r0, #0
 801623c:	db40      	blt.n	80162c0 <recvtime+0x88>
 801623e:	f000 fbcd 	bl	80169dc <disable>
 8016242:	4606      	mov	r6, r0
 8016244:	4b20      	ldr	r3, [pc, #128]	; (80162c8 <recvtime+0x90>)
 8016246:	681c      	ldr	r4, [r3, #0]
 8016248:	eb04 0284 	add.w	r2, r4, r4, lsl #2
 801624c:	4b1f      	ldr	r3, [pc, #124]	; (80162cc <recvtime+0x94>)
 801624e:	eb03 1302 	add.w	r3, r3, r2, lsl #4
 8016252:	f893 3030 	ldrb.w	r3, [r3, #48]	; 0x30
 8016256:	b1ab      	cbz	r3, 8016284 <recvtime+0x4c>
 8016258:	eb04 0384 	add.w	r3, r4, r4, lsl #2
 801625c:	4a1b      	ldr	r2, [pc, #108]	; (80162cc <recvtime+0x94>)
 801625e:	eb02 1303 	add.w	r3, r2, r3, lsl #4
 8016262:	f893 3030 	ldrb.w	r3, [r3, #48]	; 0x30
 8016266:	b343      	cbz	r3, 80162ba <recvtime+0x82>
 8016268:	4613      	mov	r3, r2
 801626a:	eb04 0284 	add.w	r2, r4, r4, lsl #2
 801626e:	eb03 1202 	add.w	r2, r3, r2, lsl #4
 8016272:	6ad5      	ldr	r5, [r2, #44]	; 0x2c
 8016274:	2300      	movs	r3, #0
 8016276:	f882 3030 	strb.w	r3, [r2, #48]	; 0x30
 801627a:	4630      	mov	r0, r6
 801627c:	f000 fbb2 	bl	80169e4 <restore>
 8016280:	4628      	mov	r0, r5
 8016282:	bd70      	pop	{r4, r5, r6, pc}
 8016284:	462a      	mov	r2, r5
 8016286:	4b12      	ldr	r3, [pc, #72]	; (80162d0 <recvtime+0x98>)
 8016288:	f9b3 1000 	ldrsh.w	r1, [r3]
 801628c:	4620      	mov	r0, r4
 801628e:	f7ff fadb 	bl	8015848 <insertd>
 8016292:	f1b0 3fff 	cmp.w	r0, #4294967295	; 0xffffffff
 8016296:	d00a      	beq.n	80162ae <recvtime+0x76>
 8016298:	eb04 0384 	add.w	r3, r4, r4, lsl #2
 801629c:	011b      	lsls	r3, r3, #4
 801629e:	4a0b      	ldr	r2, [pc, #44]	; (80162cc <recvtime+0x94>)
 80162a0:	2107      	movs	r1, #7
 80162a2:	52d1      	strh	r1, [r2, r3]
 80162a4:	4b0b      	ldr	r3, [pc, #44]	; (80162d4 <recvtime+0x9c>)
 80162a6:	f04f 5280 	mov.w	r2, #268435456	; 0x10000000
 80162aa:	601a      	str	r2, [r3, #0]
 80162ac:	e7d4      	b.n	8016258 <recvtime+0x20>
 80162ae:	4630      	mov	r0, r6
 80162b0:	f000 fb98 	bl	80169e4 <restore>
 80162b4:	f04f 35ff 	mov.w	r5, #4294967295	; 0xffffffff
 80162b8:	e7e2      	b.n	8016280 <recvtime+0x48>
 80162ba:	f06f 0502 	mvn.w	r5, #2
 80162be:	e7dc      	b.n	801627a <recvtime+0x42>
 80162c0:	f04f 35ff 	mov.w	r5, #4294967295	; 0xffffffff
 80162c4:	e7dc      	b.n	8016280 <recvtime+0x48>
 80162c6:	bf00      	nop
 80162c8:	20001298 	.word	0x20001298
 80162cc:	2000129c 	.word	0x2000129c
 80162d0:	2000170c 	.word	0x2000170c
 80162d4:	e000ed04 	.word	0xe000ed04

080162d8 <send>:
 80162d8:	b570      	push	{r4, r5, r6, lr}
 80162da:	4604      	mov	r4, r0
 80162dc:	460e      	mov	r6, r1
 80162de:	f000 fb7d 	bl	80169dc <disable>
 80162e2:	4605      	mov	r5, r0
 80162e4:	2c09      	cmp	r4, #9
 80162e6:	d81f      	bhi.n	8016328 <send+0x50>
 80162e8:	eb04 0384 	add.w	r3, r4, r4, lsl #2
 80162ec:	011b      	lsls	r3, r3, #4
 80162ee:	4a19      	ldr	r2, [pc, #100]	; (8016354 <send+0x7c>)
 80162f0:	5ad3      	ldrh	r3, [r2, r3]
 80162f2:	b1cb      	cbz	r3, 8016328 <send+0x50>
 80162f4:	eb04 0284 	add.w	r2, r4, r4, lsl #2
 80162f8:	4916      	ldr	r1, [pc, #88]	; (8016354 <send+0x7c>)
 80162fa:	eb01 1202 	add.w	r2, r1, r2, lsl #4
 80162fe:	f892 2030 	ldrb.w	r2, [r2, #48]	; 0x30
 8016302:	b9ba      	cbnz	r2, 8016334 <send+0x5c>
 8016304:	eb04 0284 	add.w	r2, r4, r4, lsl #2
 8016308:	4912      	ldr	r1, [pc, #72]	; (8016354 <send+0x7c>)
 801630a:	eb01 1202 	add.w	r2, r1, r2, lsl #4
 801630e:	62d6      	str	r6, [r2, #44]	; 0x2c
 8016310:	2101      	movs	r1, #1
 8016312:	f882 1030 	strb.w	r1, [r2, #48]	; 0x30
 8016316:	2b03      	cmp	r3, #3
 8016318:	d011      	beq.n	801633e <send+0x66>
 801631a:	2b07      	cmp	r3, #7
 801631c:	d013      	beq.n	8016346 <send+0x6e>
 801631e:	4628      	mov	r0, r5
 8016320:	f000 fb60 	bl	80169e4 <restore>
 8016324:	2001      	movs	r0, #1
 8016326:	e004      	b.n	8016332 <send+0x5a>
 8016328:	4628      	mov	r0, r5
 801632a:	f000 fb5b 	bl	80169e4 <restore>
 801632e:	f04f 30ff 	mov.w	r0, #4294967295	; 0xffffffff
 8016332:	bd70      	pop	{r4, r5, r6, pc}
 8016334:	f000 fb56 	bl	80169e4 <restore>
 8016338:	f04f 30ff 	mov.w	r0, #4294967295	; 0xffffffff
 801633c:	e7f9      	b.n	8016332 <send+0x5a>
 801633e:	4620      	mov	r0, r4
 8016340:	f7ff f8f2 	bl	8015528 <ready>
 8016344:	e7eb      	b.n	801631e <send+0x46>
 8016346:	4620      	mov	r0, r4
 8016348:	f7fe fee4 	bl	8015114 <unsleep>
 801634c:	4620      	mov	r0, r4
 801634e:	f7ff f8eb 	bl	8015528 <ready>
 8016352:	e7e4      	b.n	801631e <send+0x46>
 8016354:	2000129c 	.word	0x2000129c

08016358 <USART1_Handler>:
 8016358:	b510      	push	{r4, lr}
 801635a:	f000 fb3f 	bl	80169dc <disable>
 801635e:	4604      	mov	r4, r0
 8016360:	4b05      	ldr	r3, [pc, #20]	; (8016378 <USART1_Handler+0x20>)
 8016362:	6859      	ldr	r1, [r3, #4]
 8016364:	2200      	movs	r2, #0
 8016366:	b2c9      	uxtb	r1, r1
 8016368:	2001      	movs	r0, #1
 801636a:	f7fd fe47 	bl	8013ffc <ttyhandler>
 801636e:	4620      	mov	r0, r4
 8016370:	f000 fb38 	bl	80169e4 <restore>
 8016374:	bd10      	pop	{r4, pc}
 8016376:	bf00      	nop
 8016378:	40011000 	.word	0x40011000

0801637c <uartinit>:
 801637c:	b510      	push	{r4, lr}
 801637e:	4a13      	ldr	r2, [pc, #76]	; (80163cc <uartinit+0x50>)
 8016380:	6c53      	ldr	r3, [r2, #68]	; 0x44
 8016382:	f043 0310 	orr.w	r3, r3, #16
 8016386:	6453      	str	r3, [r2, #68]	; 0x44
 8016388:	4c11      	ldr	r4, [pc, #68]	; (80163d0 <uartinit+0x54>)
 801638a:	f240 32a7 	movw	r2, #935	; 0x3a7
 801638e:	2109      	movs	r1, #9
 8016390:	4620      	mov	r0, r4
 8016392:	f000 fb4e 	bl	8016a32 <hw_cfg_pin>
 8016396:	f240 32a7 	movw	r2, #935	; 0x3a7
 801639a:	210a      	movs	r1, #10
 801639c:	4620      	mov	r0, r4
 801639e:	f000 fb48 	bl	8016a32 <hw_cfg_pin>
 80163a2:	4b0c      	ldr	r3, [pc, #48]	; (80163d4 <uartinit+0x58>)
 80163a4:	68da      	ldr	r2, [r3, #12]
 80163a6:	f422 5200 	bic.w	r2, r2, #8192	; 0x2000
 80163aa:	60da      	str	r2, [r3, #12]
 80163ac:	f240 22d9 	movw	r2, #729	; 0x2d9
 80163b0:	609a      	str	r2, [r3, #8]
 80163b2:	68da      	ldr	r2, [r3, #12]
 80163b4:	f042 022c 	orr.w	r2, r2, #44	; 0x2c
 80163b8:	60da      	str	r2, [r3, #12]
 80163ba:	68da      	ldr	r2, [r3, #12]
 80163bc:	f442 5200 	orr.w	r2, r2, #8192	; 0x2000
 80163c0:	60da      	str	r2, [r3, #12]
 80163c2:	4b05      	ldr	r3, [pc, #20]	; (80163d8 <uartinit+0x5c>)
 80163c4:	2220      	movs	r2, #32
 80163c6:	605a      	str	r2, [r3, #4]
 80163c8:	bd10      	pop	{r4, pc}
 80163ca:	bf00      	nop
 80163cc:	40023800 	.word	0x40023800
 80163d0:	40020000 	.word	0x40020000
 80163d4:	40011000 	.word	0x40011000
 80163d8:	e000e100 	.word	0xe000e100

080163dc <putcharuart>:
 80163dc:	4b03      	ldr	r3, [pc, #12]	; (80163ec <putcharuart+0x10>)
 80163de:	681b      	ldr	r3, [r3, #0]
 80163e0:	f013 0f80 	tst.w	r3, #128	; 0x80
 80163e4:	d0fa      	beq.n	80163dc <putcharuart>
 80163e6:	4b01      	ldr	r3, [pc, #4]	; (80163ec <putcharuart+0x10>)
 80163e8:	6058      	str	r0, [r3, #4]
 80163ea:	4770      	bx	lr
 80163ec:	40011000 	.word	0x40011000

080163f0 <signal>:
 80163f0:	b538      	push	{r3, r4, r5, lr}
 80163f2:	4604      	mov	r4, r0
 80163f4:	f000 faf2 	bl	80169dc <disable>
 80163f8:	4605      	mov	r5, r0
 80163fa:	2c09      	cmp	r4, #9
 80163fc:	d814      	bhi.n	8016428 <signal+0x38>
 80163fe:	eb04 0344 	add.w	r3, r4, r4, lsl #1
 8016402:	4a14      	ldr	r2, [pc, #80]	; (8016454 <signal+0x64>)
 8016404:	f812 3023 	ldrb.w	r3, [r2, r3, lsl #2]
 8016408:	b19b      	cbz	r3, 8016432 <signal+0x42>
 801640a:	eb04 0344 	add.w	r3, r4, r4, lsl #1
 801640e:	4a11      	ldr	r2, [pc, #68]	; (8016454 <signal+0x64>)
 8016410:	eb02 0383 	add.w	r3, r2, r3, lsl #2
 8016414:	685a      	ldr	r2, [r3, #4]
 8016416:	1c51      	adds	r1, r2, #1
 8016418:	6059      	str	r1, [r3, #4]
 801641a:	2a00      	cmp	r2, #0
 801641c:	db0e      	blt.n	801643c <signal+0x4c>
 801641e:	4628      	mov	r0, r5
 8016420:	f000 fae0 	bl	80169e4 <restore>
 8016424:	2001      	movs	r0, #1
 8016426:	bd38      	pop	{r3, r4, r5, pc}
 8016428:	f000 fadc 	bl	80169e4 <restore>
 801642c:	f04f 30ff 	mov.w	r0, #4294967295	; 0xffffffff
 8016430:	e7f9      	b.n	8016426 <signal+0x36>
 8016432:	f000 fad7 	bl	80169e4 <restore>
 8016436:	f04f 30ff 	mov.w	r0, #4294967295	; 0xffffffff
 801643a:	e7f4      	b.n	8016426 <signal+0x36>
 801643c:	eb04 0444 	add.w	r4, r4, r4, lsl #1
 8016440:	4b04      	ldr	r3, [pc, #16]	; (8016454 <signal+0x64>)
 8016442:	eb03 0484 	add.w	r4, r3, r4, lsl #2
 8016446:	f9b4 0008 	ldrsh.w	r0, [r4, #8]
 801644a:	f7ff f989 	bl	8015760 <dequeue>
 801644e:	f7ff f86b 	bl	8015528 <ready>
 8016452:	e7e4      	b.n	801641e <signal+0x2e>
 8016454:	200015c0 	.word	0x200015c0

08016458 <signaln>:
 8016458:	b570      	push	{r4, r5, r6, lr}
 801645a:	4605      	mov	r5, r0
 801645c:	460c      	mov	r4, r1
 801645e:	f000 fabd 	bl	80169dc <disable>
 8016462:	4606      	mov	r6, r0
 8016464:	2d09      	cmp	r5, #9
 8016466:	d80b      	bhi.n	8016480 <signaln+0x28>
 8016468:	2c00      	cmp	r4, #0
 801646a:	db09      	blt.n	8016480 <signaln+0x28>
 801646c:	eb05 0345 	add.w	r3, r5, r5, lsl #1
 8016470:	4a19      	ldr	r2, [pc, #100]	; (80164d8 <signaln+0x80>)
 8016472:	f812 3023 	ldrb.w	r3, [r2, r3, lsl #2]
 8016476:	b14b      	cbz	r3, 801648c <signaln+0x34>
 8016478:	2001      	movs	r0, #1
 801647a:	f7ff f829 	bl	80154d0 <resched_cntl>
 801647e:	e00b      	b.n	8016498 <signaln+0x40>
 8016480:	4630      	mov	r0, r6
 8016482:	f000 faaf 	bl	80169e4 <restore>
 8016486:	f04f 30ff 	mov.w	r0, #4294967295	; 0xffffffff
 801648a:	bd70      	pop	{r4, r5, r6, pc}
 801648c:	f000 faaa 	bl	80169e4 <restore>
 8016490:	f04f 30ff 	mov.w	r0, #4294967295	; 0xffffffff
 8016494:	e7f9      	b.n	801648a <signaln+0x32>
 8016496:	3c01      	subs	r4, #1
 8016498:	2c00      	cmp	r4, #0
 801649a:	dd15      	ble.n	80164c8 <signaln+0x70>
 801649c:	eb05 0345 	add.w	r3, r5, r5, lsl #1
 80164a0:	4a0d      	ldr	r2, [pc, #52]	; (80164d8 <signaln+0x80>)
 80164a2:	eb02 0383 	add.w	r3, r2, r3, lsl #2
 80164a6:	685a      	ldr	r2, [r3, #4]
 80164a8:	1c51      	adds	r1, r2, #1
 80164aa:	6059      	str	r1, [r3, #4]
 80164ac:	2a00      	cmp	r2, #0
 80164ae:	daf2      	bge.n	8016496 <signaln+0x3e>
 80164b0:	eb05 0345 	add.w	r3, r5, r5, lsl #1
 80164b4:	4a08      	ldr	r2, [pc, #32]	; (80164d8 <signaln+0x80>)
 80164b6:	eb02 0383 	add.w	r3, r2, r3, lsl #2
 80164ba:	f9b3 0008 	ldrsh.w	r0, [r3, #8]
 80164be:	f7ff f94f 	bl	8015760 <dequeue>
 80164c2:	f7ff f831 	bl	8015528 <ready>
 80164c6:	e7e6      	b.n	8016496 <signaln+0x3e>
 80164c8:	2002      	movs	r0, #2
 80164ca:	f7ff f801 	bl	80154d0 <resched_cntl>
 80164ce:	4630      	mov	r0, r6
 80164d0:	f000 fa88 	bl	80169e4 <restore>
 80164d4:	2001      	movs	r0, #1
 80164d6:	e7d8      	b.n	801648a <signaln+0x32>
 80164d8:	200015c0 	.word	0x200015c0

080164dc <hexdump_print>:
 80164dc:	b508      	push	{r3, lr}
 80164de:	2901      	cmp	r1, #1
 80164e0:	d002      	beq.n	80164e8 <hexdump_print+0xc>
 80164e2:	2902      	cmp	r1, #2
 80164e4:	d00b      	beq.n	80164fe <hexdump_print+0x22>
 80164e6:	bd08      	pop	{r3, pc}
 80164e8:	f1a0 0320 	sub.w	r3, r0, #32
 80164ec:	b2db      	uxtb	r3, r3
 80164ee:	2b5e      	cmp	r3, #94	; 0x5e
 80164f0:	d900      	bls.n	80164f4 <hexdump_print+0x18>
 80164f2:	202e      	movs	r0, #46	; 0x2e
 80164f4:	4601      	mov	r1, r0
 80164f6:	4804      	ldr	r0, [pc, #16]	; (8016508 <hexdump_print+0x2c>)
 80164f8:	f7f9 ffce 	bl	8010498 <printf>
 80164fc:	e7f3      	b.n	80164e6 <hexdump_print+0xa>
 80164fe:	4601      	mov	r1, r0
 8016500:	4802      	ldr	r0, [pc, #8]	; (801650c <hexdump_print+0x30>)
 8016502:	f7f9 ffc9 	bl	8010498 <printf>
 8016506:	e7ee      	b.n	80164e6 <hexdump_print+0xa>
 8016508:	0801b544 	.word	0x0801b544
 801650c:	0801b548 	.word	0x0801b548

08016510 <hexdump>:
 8016510:	e92d 43f8 	stmdb	sp!, {r3, r4, r5, r6, r7, r8, r9, lr}
 8016514:	4607      	mov	r7, r0
 8016516:	4688      	mov	r8, r1
 8016518:	4691      	mov	r9, r2
 801651a:	2500      	movs	r5, #0
 801651c:	e019      	b.n	8016552 <hexdump+0x42>
 801651e:	4826      	ldr	r0, [pc, #152]	; (80165b8 <hexdump+0xa8>)
 8016520:	f7f9 ffba 	bl	8010498 <printf>
 8016524:	1963      	adds	r3, r4, r5
 8016526:	2102      	movs	r1, #2
 8016528:	5cf8      	ldrb	r0, [r7, r3]
 801652a:	f7ff ffd7 	bl	80164dc <hexdump_print>
 801652e:	3401      	adds	r4, #1
 8016530:	42b4      	cmp	r4, r6
 8016532:	d205      	bcs.n	8016540 <hexdump+0x30>
 8016534:	2c0f      	cmp	r4, #15
 8016536:	d803      	bhi.n	8016540 <hexdump+0x30>
 8016538:	f014 0f07 	tst.w	r4, #7
 801653c:	d1f2      	bne.n	8016524 <hexdump+0x14>
 801653e:	e7ee      	b.n	801651e <hexdump+0xe>
 8016540:	2e0f      	cmp	r6, #15
 8016542:	d922      	bls.n	801658a <hexdump+0x7a>
 8016544:	f1b9 0f00 	cmp.w	r9, #0
 8016548:	d121      	bne.n	801658e <hexdump+0x7e>
 801654a:	481c      	ldr	r0, [pc, #112]	; (80165bc <hexdump+0xac>)
 801654c:	f7f9 ffa4 	bl	8010498 <printf>
 8016550:	3510      	adds	r5, #16
 8016552:	4545      	cmp	r5, r8
 8016554:	d22e      	bcs.n	80165b4 <hexdump+0xa4>
 8016556:	4629      	mov	r1, r5
 8016558:	4819      	ldr	r0, [pc, #100]	; (80165c0 <hexdump+0xb0>)
 801655a:	f7f9 ff9d 	bl	8010498 <printf>
 801655e:	eba8 0605 	sub.w	r6, r8, r5
 8016562:	2400      	movs	r4, #0
 8016564:	e7e4      	b.n	8016530 <hexdump+0x20>
 8016566:	4814      	ldr	r0, [pc, #80]	; (80165b8 <hexdump+0xa8>)
 8016568:	f7f9 ff96 	bl	8010498 <printf>
 801656c:	4815      	ldr	r0, [pc, #84]	; (80165c4 <hexdump+0xb4>)
 801656e:	f7f9 ff93 	bl	8010498 <printf>
 8016572:	3401      	adds	r4, #1
 8016574:	eba5 0308 	sub.w	r3, r5, r8
 8016578:	3310      	adds	r3, #16
 801657a:	42a3      	cmp	r3, r4
 801657c:	d9e2      	bls.n	8016544 <hexdump+0x34>
 801657e:	2c00      	cmp	r4, #0
 8016580:	d0f4      	beq.n	801656c <hexdump+0x5c>
 8016582:	f014 0f07 	tst.w	r4, #7
 8016586:	d1f1      	bne.n	801656c <hexdump+0x5c>
 8016588:	e7ed      	b.n	8016566 <hexdump+0x56>
 801658a:	2400      	movs	r4, #0
 801658c:	e7f2      	b.n	8016574 <hexdump+0x64>
 801658e:	480e      	ldr	r0, [pc, #56]	; (80165c8 <hexdump+0xb8>)
 8016590:	f7f9 ff82 	bl	8010498 <printf>
 8016594:	2400      	movs	r4, #0
 8016596:	e005      	b.n	80165a4 <hexdump+0x94>
 8016598:	1963      	adds	r3, r4, r5
 801659a:	2101      	movs	r1, #1
 801659c:	5cf8      	ldrb	r0, [r7, r3]
 801659e:	f7ff ff9d 	bl	80164dc <hexdump_print>
 80165a2:	3401      	adds	r4, #1
 80165a4:	42b4      	cmp	r4, r6
 80165a6:	d201      	bcs.n	80165ac <hexdump+0x9c>
 80165a8:	2c0f      	cmp	r4, #15
 80165aa:	d9f5      	bls.n	8016598 <hexdump+0x88>
 80165ac:	4807      	ldr	r0, [pc, #28]	; (80165cc <hexdump+0xbc>)
 80165ae:	f7f9 ff73 	bl	8010498 <printf>
 80165b2:	e7ca      	b.n	801654a <hexdump+0x3a>
 80165b4:	e8bd 83f8 	ldmia.w	sp!, {r3, r4, r5, r6, r7, r8, r9, pc}
 80165b8:	0801ac0c 	.word	0x0801ac0c
 80165bc:	0801ac50 	.word	0x0801ac50
 80165c0:	0801b550 	.word	0x0801b550
 80165c4:	0801ae64 	.word	0x0801ae64
 80165c8:	0801b558 	.word	0x0801b558
 80165cc:	0801b55c 	.word	0x0801b55c

080165d0 <hexdump2>:
 80165d0:	e92d 4ff8 	stmdb	sp!, {r3, r4, r5, r6, r7, r8, r9, sl, fp, lr}
 80165d4:	4680      	mov	r8, r0
 80165d6:	4689      	mov	r9, r1
 80165d8:	4693      	mov	fp, r2
 80165da:	469a      	mov	sl, r3
 80165dc:	2500      	movs	r5, #0
 80165de:	e01a      	b.n	8016616 <hexdump2+0x46>
 80165e0:	4827      	ldr	r0, [pc, #156]	; (8016680 <hexdump2+0xb0>)
 80165e2:	f7f9 ff59 	bl	8010498 <printf>
 80165e6:	1966      	adds	r6, r4, r5
 80165e8:	2102      	movs	r1, #2
 80165ea:	f818 0006 	ldrb.w	r0, [r8, r6]
 80165ee:	f7ff ff75 	bl	80164dc <hexdump_print>
 80165f2:	3401      	adds	r4, #1
 80165f4:	42bc      	cmp	r4, r7
 80165f6:	d205      	bcs.n	8016604 <hexdump2+0x34>
 80165f8:	2c0f      	cmp	r4, #15
 80165fa:	d803      	bhi.n	8016604 <hexdump2+0x34>
 80165fc:	f014 0f07 	tst.w	r4, #7
 8016600:	d1f1      	bne.n	80165e6 <hexdump2+0x16>
 8016602:	e7ed      	b.n	80165e0 <hexdump2+0x10>
 8016604:	2f0f      	cmp	r7, #15
 8016606:	d923      	bls.n	8016650 <hexdump2+0x80>
 8016608:	f1ba 0f00 	cmp.w	sl, #0
 801660c:	d122      	bne.n	8016654 <hexdump2+0x84>
 801660e:	481d      	ldr	r0, [pc, #116]	; (8016684 <hexdump2+0xb4>)
 8016610:	f7f9 ff42 	bl	8010498 <printf>
 8016614:	3510      	adds	r5, #16
 8016616:	454d      	cmp	r5, r9
 8016618:	d230      	bcs.n	801667c <hexdump2+0xac>
 801661a:	eb05 010b 	add.w	r1, r5, fp
 801661e:	481a      	ldr	r0, [pc, #104]	; (8016688 <hexdump2+0xb8>)
 8016620:	f7f9 ff3a 	bl	8010498 <printf>
 8016624:	eba9 0705 	sub.w	r7, r9, r5
 8016628:	2400      	movs	r4, #0
 801662a:	e7e3      	b.n	80165f4 <hexdump2+0x24>
 801662c:	4814      	ldr	r0, [pc, #80]	; (8016680 <hexdump2+0xb0>)
 801662e:	f7f9 ff33 	bl	8010498 <printf>
 8016632:	4816      	ldr	r0, [pc, #88]	; (801668c <hexdump2+0xbc>)
 8016634:	f7f9 ff30 	bl	8010498 <printf>
 8016638:	3401      	adds	r4, #1
 801663a:	eba5 0309 	sub.w	r3, r5, r9
 801663e:	3310      	adds	r3, #16
 8016640:	42a3      	cmp	r3, r4
 8016642:	d9e1      	bls.n	8016608 <hexdump2+0x38>
 8016644:	2c00      	cmp	r4, #0
 8016646:	d0f4      	beq.n	8016632 <hexdump2+0x62>
 8016648:	f014 0f07 	tst.w	r4, #7
 801664c:	d1f1      	bne.n	8016632 <hexdump2+0x62>
 801664e:	e7ed      	b.n	801662c <hexdump2+0x5c>
 8016650:	2400      	movs	r4, #0
 8016652:	e7f2      	b.n	801663a <hexdump2+0x6a>
 8016654:	480e      	ldr	r0, [pc, #56]	; (8016690 <hexdump2+0xc0>)
 8016656:	f7f9 ff1f 	bl	8010498 <printf>
 801665a:	2400      	movs	r4, #0
 801665c:	e006      	b.n	801666c <hexdump2+0x9c>
 801665e:	1963      	adds	r3, r4, r5
 8016660:	2101      	movs	r1, #1
 8016662:	f818 0003 	ldrb.w	r0, [r8, r3]
 8016666:	f7ff ff39 	bl	80164dc <hexdump_print>
 801666a:	3401      	adds	r4, #1
 801666c:	42bc      	cmp	r4, r7
 801666e:	d201      	bcs.n	8016674 <hexdump2+0xa4>
 8016670:	2c0f      	cmp	r4, #15
 8016672:	d9f4      	bls.n	801665e <hexdump2+0x8e>
 8016674:	4807      	ldr	r0, [pc, #28]	; (8016694 <hexdump2+0xc4>)
 8016676:	f7f9 ff0f 	bl	8010498 <printf>
 801667a:	e7c8      	b.n	801660e <hexdump2+0x3e>
 801667c:	e8bd 8ff8 	ldmia.w	sp!, {r3, r4, r5, r6, r7, r8, r9, sl, fp, pc}
 8016680:	0801ac0c 	.word	0x0801ac0c
 8016684:	0801ac50 	.word	0x0801ac50
 8016688:	0801b550 	.word	0x0801b550
 801668c:	0801ae64 	.word	0x0801ae64
 8016690:	0801b558 	.word	0x0801b558
 8016694:	0801b55c 	.word	0x0801b55c

08016698 <hexDump2>:
 8016698:	e92d 41f0 	stmdb	sp!, {r4, r5, r6, r7, r8, lr}
 801669c:	b086      	sub	sp, #24
 801669e:	4680      	mov	r8, r0
 80166a0:	460e      	mov	r6, r1
 80166a2:	4617      	mov	r7, r2
 80166a4:	2400      	movs	r4, #0
 80166a6:	e02c      	b.n	8016702 <hexDump2+0x6a>
 80166a8:	a901      	add	r1, sp, #4
 80166aa:	4827      	ldr	r0, [pc, #156]	; (8016748 <hexDump2+0xb0>)
 80166ac:	f7f9 fef4 	bl	8010498 <printf>
 80166b0:	eb05 0108 	add.w	r1, r5, r8
 80166b4:	4825      	ldr	r0, [pc, #148]	; (801674c <hexDump2+0xb4>)
 80166b6:	f7f9 feef 	bl	8010498 <printf>
 80166ba:	5d71      	ldrb	r1, [r6, r5]
 80166bc:	4824      	ldr	r0, [pc, #144]	; (8016750 <hexDump2+0xb8>)
 80166be:	f7f9 feeb 	bl	8010498 <printf>
 80166c2:	5d72      	ldrb	r2, [r6, r5]
 80166c4:	f1a2 0320 	sub.w	r3, r2, #32
 80166c8:	b2db      	uxtb	r3, r3
 80166ca:	2b5e      	cmp	r3, #94	; 0x5e
 80166cc:	d922      	bls.n	8016714 <hexDump2+0x7c>
 80166ce:	4262      	negs	r2, r4
 80166d0:	f004 030f 	and.w	r3, r4, #15
 80166d4:	f002 020f 	and.w	r2, r2, #15
 80166d8:	bf58      	it	pl
 80166da:	4253      	negpl	r3, r2
 80166dc:	aa06      	add	r2, sp, #24
 80166de:	4413      	add	r3, r2
 80166e0:	222e      	movs	r2, #46	; 0x2e
 80166e2:	f803 2c14 	strb.w	r2, [r3, #-20]
 80166e6:	4265      	negs	r5, r4
 80166e8:	f004 030f 	and.w	r3, r4, #15
 80166ec:	f005 050f 	and.w	r5, r5, #15
 80166f0:	bf58      	it	pl
 80166f2:	426b      	negpl	r3, r5
 80166f4:	3301      	adds	r3, #1
 80166f6:	aa06      	add	r2, sp, #24
 80166f8:	4413      	add	r3, r2
 80166fa:	2200      	movs	r2, #0
 80166fc:	f803 2c14 	strb.w	r2, [r3, #-20]
 8016700:	3401      	adds	r4, #1
 8016702:	42bc      	cmp	r4, r7
 8016704:	da16      	bge.n	8016734 <hexDump2+0x9c>
 8016706:	4625      	mov	r5, r4
 8016708:	f014 0f0f 	tst.w	r4, #15
 801670c:	d1d5      	bne.n	80166ba <hexDump2+0x22>
 801670e:	2c00      	cmp	r4, #0
 8016710:	d0ce      	beq.n	80166b0 <hexDump2+0x18>
 8016712:	e7c9      	b.n	80166a8 <hexDump2+0x10>
 8016714:	4261      	negs	r1, r4
 8016716:	f004 030f 	and.w	r3, r4, #15
 801671a:	f001 010f 	and.w	r1, r1, #15
 801671e:	bf58      	it	pl
 8016720:	424b      	negpl	r3, r1
 8016722:	a906      	add	r1, sp, #24
 8016724:	440b      	add	r3, r1
 8016726:	f803 2c14 	strb.w	r2, [r3, #-20]
 801672a:	e7dc      	b.n	80166e6 <hexDump2+0x4e>
 801672c:	4809      	ldr	r0, [pc, #36]	; (8016754 <hexDump2+0xbc>)
 801672e:	f7f9 feb3 	bl	8010498 <printf>
 8016732:	3401      	adds	r4, #1
 8016734:	f014 0f0f 	tst.w	r4, #15
 8016738:	d1f8      	bne.n	801672c <hexDump2+0x94>
 801673a:	a901      	add	r1, sp, #4
 801673c:	4802      	ldr	r0, [pc, #8]	; (8016748 <hexDump2+0xb0>)
 801673e:	f7f9 feab 	bl	8010498 <printf>
 8016742:	b006      	add	sp, #24
 8016744:	e8bd 81f0 	ldmia.w	sp!, {r4, r5, r6, r7, r8, pc}
 8016748:	0801b560 	.word	0x0801b560
 801674c:	0801b568 	.word	0x0801b568
 8016750:	0801b570 	.word	0x0801b570
 8016754:	0801ae64 	.word	0x0801ae64

08016758 <TIM2_Handler>:
 8016758:	b508      	push	{r3, lr}
 801675a:	f04f 4280 	mov.w	r2, #1073741824	; 0x40000000
 801675e:	6913      	ldr	r3, [r2, #16]
 8016760:	f023 0301 	bic.w	r3, r3, #1
 8016764:	6113      	str	r3, [r2, #16]
 8016766:	4a19      	ldr	r2, [pc, #100]	; (80167cc <TIM2_Handler+0x74>)
 8016768:	6813      	ldr	r3, [r2, #0]
 801676a:	3301      	adds	r3, #1
 801676c:	6013      	str	r3, [r2, #0]
 801676e:	f5b3 7f7a 	cmp.w	r3, #1000	; 0x3e8
 8016772:	d306      	bcc.n	8016782 <TIM2_Handler+0x2a>
 8016774:	4a16      	ldr	r2, [pc, #88]	; (80167d0 <TIM2_Handler+0x78>)
 8016776:	6813      	ldr	r3, [r2, #0]
 8016778:	3301      	adds	r3, #1
 801677a:	6013      	str	r3, [r2, #0]
 801677c:	4b13      	ldr	r3, [pc, #76]	; (80167cc <TIM2_Handler+0x74>)
 801677e:	2200      	movs	r2, #0
 8016780:	601a      	str	r2, [r3, #0]
 8016782:	4b14      	ldr	r3, [pc, #80]	; (80167d4 <TIM2_Handler+0x7c>)
 8016784:	681b      	ldr	r3, [r3, #0]
 8016786:	b1e3      	cbz	r3, 80167c2 <TIM2_Handler+0x6a>
 8016788:	4b13      	ldr	r3, [pc, #76]	; (80167d8 <TIM2_Handler+0x80>)
 801678a:	f9b3 2000 	ldrsh.w	r2, [r3]
 801678e:	4b13      	ldr	r3, [pc, #76]	; (80167dc <TIM2_Handler+0x84>)
 8016790:	eb03 03c2 	add.w	r3, r3, r2, lsl #3
 8016794:	f9b3 3004 	ldrsh.w	r3, [r3, #4]
 8016798:	2b09      	cmp	r3, #9
 801679a:	dc06      	bgt.n	80167aa <TIM2_Handler+0x52>
 801679c:	490f      	ldr	r1, [pc, #60]	; (80167dc <TIM2_Handler+0x84>)
 801679e:	f851 2033 	ldr.w	r2, [r1, r3, lsl #3]
 80167a2:	3a01      	subs	r2, #1
 80167a4:	f841 2033 	str.w	r2, [r1, r3, lsl #3]
 80167a8:	b162      	cbz	r2, 80167c4 <TIM2_Handler+0x6c>
 80167aa:	4a0d      	ldr	r2, [pc, #52]	; (80167e0 <TIM2_Handler+0x88>)
 80167ac:	6813      	ldr	r3, [r2, #0]
 80167ae:	3b01      	subs	r3, #1
 80167b0:	6013      	str	r3, [r2, #0]
 80167b2:	b933      	cbnz	r3, 80167c2 <TIM2_Handler+0x6a>
 80167b4:	4613      	mov	r3, r2
 80167b6:	220a      	movs	r2, #10
 80167b8:	601a      	str	r2, [r3, #0]
 80167ba:	4b0a      	ldr	r3, [pc, #40]	; (80167e4 <TIM2_Handler+0x8c>)
 80167bc:	f04f 5280 	mov.w	r2, #268435456	; 0x10000000
 80167c0:	601a      	str	r2, [r3, #0]
 80167c2:	bd08      	pop	{r3, pc}
 80167c4:	f7fe feda 	bl	801557c <wakeup>
 80167c8:	e7ef      	b.n	80167aa <TIM2_Handler+0x52>
 80167ca:	bf00      	nop
 80167cc:	20001714 	.word	0x20001714
 80167d0:	20001718 	.word	0x20001718
 80167d4:	200003a8 	.word	0x200003a8
 80167d8:	2000170c 	.word	0x2000170c
 80167dc:	2000171c 	.word	0x2000171c
 80167e0:	20001710 	.word	0x20001710
 80167e4:	e000ed04 	.word	0xe000ed04

080167e8 <xdone>:
 80167e8:	b508      	push	{r3, lr}
 80167ea:	4803      	ldr	r0, [pc, #12]	; (80167f8 <xdone+0x10>)
 80167ec:	f7fe ff54 	bl	8015698 <kprintf>
 80167f0:	f000 f8fe 	bl	80169f0 <halt>
 80167f4:	bd08      	pop	{r3, pc}
 80167f6:	bf00      	nop
 80167f8:	0801b578 	.word	0x0801b578

080167fc <meminit>:
 80167fc:	4b08      	ldr	r3, [pc, #32]	; (8016820 <meminit+0x24>)
 80167fe:	4a09      	ldr	r2, [pc, #36]	; (8016824 <meminit+0x28>)
 8016800:	6013      	str	r3, [r2, #0]
 8016802:	4a09      	ldr	r2, [pc, #36]	; (8016828 <meminit+0x2c>)
 8016804:	4909      	ldr	r1, [pc, #36]	; (801682c <meminit+0x30>)
 8016806:	6011      	str	r1, [r2, #0]
 8016808:	4909      	ldr	r1, [pc, #36]	; (8016830 <meminit+0x34>)
 801680a:	600b      	str	r3, [r1, #0]
 801680c:	2200      	movs	r2, #0
 801680e:	601a      	str	r2, [r3, #0]
 8016810:	f1c3 5200 	rsb	r2, r3, #536870912	; 0x20000000
 8016814:	f502 32f8 	add.w	r2, r2, #126976	; 0x1f000
 8016818:	605a      	str	r2, [r3, #4]
 801681a:	604a      	str	r2, [r1, #4]
 801681c:	4770      	bx	lr
 801681e:	bf00      	nop
 8016820:	20002834 	.word	0x20002834
 8016824:	2000182c 	.word	0x2000182c
 8016828:	20001830 	.word	0x20001830
 801682c:	2001f000 	.word	0x2001f000
 8016830:	200016f8 	.word	0x200016f8

08016834 <freemem>:
 8016834:	b5f8      	push	{r3, r4, r5, r6, r7, lr}
 8016836:	4604      	mov	r4, r0
 8016838:	460d      	mov	r5, r1
 801683a:	f000 f8cf 	bl	80169dc <disable>
 801683e:	b19d      	cbz	r5, 8016868 <freemem+0x34>
 8016840:	4627      	mov	r7, r4
 8016842:	4b26      	ldr	r3, [pc, #152]	; (80168dc <freemem+0xa8>)
 8016844:	681b      	ldr	r3, [r3, #0]
 8016846:	429c      	cmp	r4, r3
 8016848:	d30e      	bcc.n	8016868 <freemem+0x34>
 801684a:	4b25      	ldr	r3, [pc, #148]	; (80168e0 <freemem+0xac>)
 801684c:	681b      	ldr	r3, [r3, #0]
 801684e:	429c      	cmp	r4, r3
 8016850:	d80a      	bhi.n	8016868 <freemem+0x34>
 8016852:	3507      	adds	r5, #7
 8016854:	f025 0507 	bic.w	r5, r5, #7
 8016858:	4a22      	ldr	r2, [pc, #136]	; (80168e4 <freemem+0xb0>)
 801685a:	6813      	ldr	r3, [r2, #0]
 801685c:	b14b      	cbz	r3, 8016872 <freemem+0x3e>
 801685e:	42a3      	cmp	r3, r4
 8016860:	d207      	bcs.n	8016872 <freemem+0x3e>
 8016862:	461a      	mov	r2, r3
 8016864:	681b      	ldr	r3, [r3, #0]
 8016866:	e7f9      	b.n	801685c <freemem+0x28>
 8016868:	f000 f8bc 	bl	80169e4 <restore>
 801686c:	f04f 30ff 	mov.w	r0, #4294967295	; 0xffffffff
 8016870:	bdf8      	pop	{r3, r4, r5, r6, r7, pc}
 8016872:	491c      	ldr	r1, [pc, #112]	; (80168e4 <freemem+0xb0>)
 8016874:	428a      	cmp	r2, r1
 8016876:	d01e      	beq.n	80168b6 <freemem+0x82>
 8016878:	6856      	ldr	r6, [r2, #4]
 801687a:	4416      	add	r6, r2
 801687c:	4919      	ldr	r1, [pc, #100]	; (80168e4 <freemem+0xb0>)
 801687e:	428a      	cmp	r2, r1
 8016880:	d001      	beq.n	8016886 <freemem+0x52>
 8016882:	42b7      	cmp	r7, r6
 8016884:	d319      	bcc.n	80168ba <freemem+0x86>
 8016886:	b113      	cbz	r3, 801688e <freemem+0x5a>
 8016888:	1979      	adds	r1, r7, r5
 801688a:	4299      	cmp	r1, r3
 801688c:	d815      	bhi.n	80168ba <freemem+0x86>
 801688e:	f8df c054 	ldr.w	ip, [pc, #84]	; 80168e4 <freemem+0xb0>
 8016892:	f8dc 1004 	ldr.w	r1, [ip, #4]
 8016896:	4429      	add	r1, r5
 8016898:	f8cc 1004 	str.w	r1, [ip, #4]
 801689c:	42b7      	cmp	r7, r6
 801689e:	d011      	beq.n	80168c4 <freemem+0x90>
 80168a0:	6023      	str	r3, [r4, #0]
 80168a2:	6065      	str	r5, [r4, #4]
 80168a4:	6014      	str	r4, [r2, #0]
 80168a6:	6862      	ldr	r2, [r4, #4]
 80168a8:	1911      	adds	r1, r2, r4
 80168aa:	4299      	cmp	r1, r3
 80168ac:	d00f      	beq.n	80168ce <freemem+0x9a>
 80168ae:	f000 f899 	bl	80169e4 <restore>
 80168b2:	2001      	movs	r0, #1
 80168b4:	e7dc      	b.n	8016870 <freemem+0x3c>
 80168b6:	2600      	movs	r6, #0
 80168b8:	e7e0      	b.n	801687c <freemem+0x48>
 80168ba:	f000 f893 	bl	80169e4 <restore>
 80168be:	f04f 30ff 	mov.w	r0, #4294967295	; 0xffffffff
 80168c2:	e7d5      	b.n	8016870 <freemem+0x3c>
 80168c4:	6851      	ldr	r1, [r2, #4]
 80168c6:	440d      	add	r5, r1
 80168c8:	6055      	str	r5, [r2, #4]
 80168ca:	4614      	mov	r4, r2
 80168cc:	e7eb      	b.n	80168a6 <freemem+0x72>
 80168ce:	6859      	ldr	r1, [r3, #4]
 80168d0:	440a      	add	r2, r1
 80168d2:	6062      	str	r2, [r4, #4]
 80168d4:	681b      	ldr	r3, [r3, #0]
 80168d6:	6023      	str	r3, [r4, #0]
 80168d8:	e7e9      	b.n	80168ae <freemem+0x7a>
 80168da:	bf00      	nop
 80168dc:	2000182c 	.word	0x2000182c
 80168e0:	20001830 	.word	0x20001830
 80168e4:	200016f8 	.word	0x200016f8

080168e8 <getmem>:
 80168e8:	b538      	push	{r3, r4, r5, lr}
 80168ea:	4604      	mov	r4, r0
 80168ec:	f000 f876 	bl	80169dc <disable>
 80168f0:	b12c      	cbz	r4, 80168fe <getmem+0x16>
 80168f2:	1de3      	adds	r3, r4, #7
 80168f4:	f023 0307 	bic.w	r3, r3, #7
 80168f8:	4916      	ldr	r1, [pc, #88]	; (8016954 <getmem+0x6c>)
 80168fa:	680c      	ldr	r4, [r1, #0]
 80168fc:	e00f      	b.n	801691e <getmem+0x36>
 80168fe:	f000 f871 	bl	80169e4 <restore>
 8016902:	f04f 34ff 	mov.w	r4, #4294967295	; 0xffffffff
 8016906:	e022      	b.n	801694e <getmem+0x66>
 8016908:	6822      	ldr	r2, [r4, #0]
 801690a:	600a      	str	r2, [r1, #0]
 801690c:	4911      	ldr	r1, [pc, #68]	; (8016954 <getmem+0x6c>)
 801690e:	684a      	ldr	r2, [r1, #4]
 8016910:	1ad3      	subs	r3, r2, r3
 8016912:	604b      	str	r3, [r1, #4]
 8016914:	f000 f866 	bl	80169e4 <restore>
 8016918:	e019      	b.n	801694e <getmem+0x66>
 801691a:	4621      	mov	r1, r4
 801691c:	6824      	ldr	r4, [r4, #0]
 801691e:	b194      	cbz	r4, 8016946 <getmem+0x5e>
 8016920:	6862      	ldr	r2, [r4, #4]
 8016922:	429a      	cmp	r2, r3
 8016924:	d0f0      	beq.n	8016908 <getmem+0x20>
 8016926:	429a      	cmp	r2, r3
 8016928:	d9f7      	bls.n	801691a <getmem+0x32>
 801692a:	18e5      	adds	r5, r4, r3
 801692c:	600d      	str	r5, [r1, #0]
 801692e:	6822      	ldr	r2, [r4, #0]
 8016930:	50e2      	str	r2, [r4, r3]
 8016932:	6862      	ldr	r2, [r4, #4]
 8016934:	1ad2      	subs	r2, r2, r3
 8016936:	606a      	str	r2, [r5, #4]
 8016938:	4906      	ldr	r1, [pc, #24]	; (8016954 <getmem+0x6c>)
 801693a:	684a      	ldr	r2, [r1, #4]
 801693c:	1ad3      	subs	r3, r2, r3
 801693e:	604b      	str	r3, [r1, #4]
 8016940:	f000 f850 	bl	80169e4 <restore>
 8016944:	e003      	b.n	801694e <getmem+0x66>
 8016946:	f000 f84d 	bl	80169e4 <restore>
 801694a:	f04f 34ff 	mov.w	r4, #4294967295	; 0xffffffff
 801694e:	4620      	mov	r0, r4
 8016950:	bd38      	pop	{r3, r4, r5, pc}
 8016952:	bf00      	nop
 8016954:	200016f8 	.word	0x200016f8

08016958 <getstk>:
 8016958:	b570      	push	{r4, r5, r6, lr}
 801695a:	4604      	mov	r4, r0
 801695c:	f000 f83e 	bl	80169dc <disable>
 8016960:	b13c      	cbz	r4, 8016972 <getstk+0x1a>
 8016962:	3407      	adds	r4, #7
 8016964:	f024 0407 	bic.w	r4, r4, #7
 8016968:	4915      	ldr	r1, [pc, #84]	; (80169c0 <getstk+0x68>)
 801696a:	680b      	ldr	r3, [r1, #0]
 801696c:	2600      	movs	r6, #0
 801696e:	4635      	mov	r5, r6
 8016970:	e006      	b.n	8016980 <getstk+0x28>
 8016972:	f000 f837 	bl	80169e4 <restore>
 8016976:	f04f 30ff 	mov.w	r0, #4294967295	; 0xffffffff
 801697a:	e017      	b.n	80169ac <getstk+0x54>
 801697c:	4619      	mov	r1, r3
 801697e:	681b      	ldr	r3, [r3, #0]
 8016980:	b12b      	cbz	r3, 801698e <getstk+0x36>
 8016982:	685a      	ldr	r2, [r3, #4]
 8016984:	42a2      	cmp	r2, r4
 8016986:	d3f9      	bcc.n	801697c <getstk+0x24>
 8016988:	460e      	mov	r6, r1
 801698a:	461d      	mov	r5, r3
 801698c:	e7f6      	b.n	801697c <getstk+0x24>
 801698e:	b175      	cbz	r5, 80169ae <getstk+0x56>
 8016990:	686b      	ldr	r3, [r5, #4]
 8016992:	42a3      	cmp	r3, r4
 8016994:	d010      	beq.n	80169b8 <getstk+0x60>
 8016996:	1b1b      	subs	r3, r3, r4
 8016998:	606b      	str	r3, [r5, #4]
 801699a:	441d      	add	r5, r3
 801699c:	4a08      	ldr	r2, [pc, #32]	; (80169c0 <getstk+0x68>)
 801699e:	6853      	ldr	r3, [r2, #4]
 80169a0:	1b1b      	subs	r3, r3, r4
 80169a2:	6053      	str	r3, [r2, #4]
 80169a4:	f000 f81e 	bl	80169e4 <restore>
 80169a8:	442c      	add	r4, r5
 80169aa:	1f20      	subs	r0, r4, #4
 80169ac:	bd70      	pop	{r4, r5, r6, pc}
 80169ae:	f000 f819 	bl	80169e4 <restore>
 80169b2:	f04f 30ff 	mov.w	r0, #4294967295	; 0xffffffff
 80169b6:	e7f9      	b.n	80169ac <getstk+0x54>
 80169b8:	682b      	ldr	r3, [r5, #0]
 80169ba:	6033      	str	r3, [r6, #0]
 80169bc:	e7ee      	b.n	801699c <getstk+0x44>
 80169be:	bf00      	nop
 80169c0:	200016f8 	.word	0x200016f8

080169c4 <heap_free>:
 80169c4:	4b04      	ldr	r3, [pc, #16]	; (80169d8 <heap_free+0x14>)
 80169c6:	681b      	ldr	r3, [r3, #0]
 80169c8:	2000      	movs	r0, #0
 80169ca:	b11b      	cbz	r3, 80169d4 <heap_free+0x10>
 80169cc:	685a      	ldr	r2, [r3, #4]
 80169ce:	4410      	add	r0, r2
 80169d0:	681b      	ldr	r3, [r3, #0]
 80169d2:	e7fa      	b.n	80169ca <heap_free+0x6>
 80169d4:	4770      	bx	lr
 80169d6:	bf00      	nop
 80169d8:	200016f8 	.word	0x200016f8

080169dc <disable>:
 80169dc:	f3ef 8003 	mrs	r0, PSR
 80169e0:	b672      	cpsid	i
 80169e2:	4770      	bx	lr

080169e4 <restore>:
 80169e4:	f380 8803 	msr	PSR, r0
 80169e8:	b662      	cpsie	i
 80169ea:	4770      	bx	lr

080169ec <enable>:
 80169ec:	b662      	cpsie	i
 80169ee:	4770      	bx	lr

080169f0 <halt>:
 80169f0:	b672      	cpsid	i

080169f2 <dloop>:
 80169f2:	e7fe      	b.n	80169f2 <dloop>

080169f4 <__syscall>:
 80169f4:	df00      	svc	0
 80169f6:	bf00      	nop
 80169f8:	4770      	bx	lr

080169fa <save_context>:
 80169fa:	f3ef 8009 	mrs	r0, PSP
 80169fe:	e920 0ff0 	stmdb	r0!, {r4, r5, r6, r7, r8, r9, sl, fp}
 8016a02:	f380 8809 	msr	PSP, r0
 8016a06:	4770      	bx	lr

08016a08 <restore_context>:
 8016a08:	f3ef 8009 	mrs	r0, PSP
 8016a0c:	e8b0 0ff0 	ldmia.w	r0!, {r4, r5, r6, r7, r8, r9, sl, fp}
 8016a10:	f380 8809 	msr	PSP, r0
 8016a14:	4770      	bx	lr

08016a16 <SVCall_Handler>:
 8016a16:	f3ef 8009 	mrs	r0, PSP
 8016a1a:	b500      	push	{lr}
 8016a1c:	b401      	push	{r0}
 8016a1e:	f7ff ffec 	bl	80169fa <save_context>
 8016a22:	bc01      	pop	{r0}
 8016a24:	f7fe f872 	bl	8014b0c <svccall_handler>
 8016a28:	f7ff ffee 	bl	8016a08 <restore_context>
 8016a2c:	f85d eb04 	ldr.w	lr, [sp], #4
 8016a30:	4770      	bx	lr

08016a32 <hw_cfg_pin>:
 8016a32:	b4f0      	push	{r4, r5, r6, r7}
 8016a34:	004b      	lsls	r3, r1, #1
 8016a36:	b2db      	uxtb	r3, r3
 8016a38:	08cd      	lsrs	r5, r1, #3
 8016a3a:	3508      	adds	r5, #8
 8016a3c:	f850 4025 	ldr.w	r4, [r0, r5, lsl #2]
 8016a40:	f001 0607 	and.w	r6, r1, #7
 8016a44:	00b6      	lsls	r6, r6, #2
 8016a46:	270f      	movs	r7, #15
 8016a48:	40b7      	lsls	r7, r6
 8016a4a:	ea24 0407 	bic.w	r4, r4, r7
 8016a4e:	f002 070f 	and.w	r7, r2, #15
 8016a52:	fa07 f606 	lsl.w	r6, r7, r6
 8016a56:	4334      	orrs	r4, r6
 8016a58:	f840 4025 	str.w	r4, [r0, r5, lsl #2]
 8016a5c:	6805      	ldr	r5, [r0, #0]
 8016a5e:	2403      	movs	r4, #3
 8016a60:	409c      	lsls	r4, r3
 8016a62:	ea25 0504 	bic.w	r5, r5, r4
 8016a66:	f3c2 1601 	ubfx	r6, r2, #4, #2
 8016a6a:	409e      	lsls	r6, r3
 8016a6c:	4335      	orrs	r5, r6
 8016a6e:	6005      	str	r5, [r0, #0]
 8016a70:	6885      	ldr	r5, [r0, #8]
 8016a72:	ea25 0504 	bic.w	r5, r5, r4
 8016a76:	f3c2 16c1 	ubfx	r6, r2, #7, #2
 8016a7a:	409e      	lsls	r6, r3
 8016a7c:	4335      	orrs	r5, r6
 8016a7e:	6085      	str	r5, [r0, #8]
 8016a80:	6845      	ldr	r5, [r0, #4]
 8016a82:	2601      	movs	r6, #1
 8016a84:	408e      	lsls	r6, r1
 8016a86:	ea25 0506 	bic.w	r5, r5, r6
 8016a8a:	f3c2 1680 	ubfx	r6, r2, #6, #1
 8016a8e:	fa06 f101 	lsl.w	r1, r6, r1
 8016a92:	4329      	orrs	r1, r5
 8016a94:	6041      	str	r1, [r0, #4]
 8016a96:	68c1      	ldr	r1, [r0, #12]
 8016a98:	ea21 0104 	bic.w	r1, r1, r4
 8016a9c:	f3c2 2241 	ubfx	r2, r2, #9, #2
 8016aa0:	409a      	lsls	r2, r3
 8016aa2:	430a      	orrs	r2, r1
 8016aa4:	60c2      	str	r2, [r0, #12]
 8016aa6:	bcf0      	pop	{r4, r5, r6, r7}
 8016aa8:	4770      	bx	lr

08016aaa <hw_set_pin>:
 8016aaa:	b410      	push	{r4}
 8016aac:	6943      	ldr	r3, [r0, #20]
 8016aae:	2401      	movs	r4, #1
 8016ab0:	408c      	lsls	r4, r1
 8016ab2:	ea23 0304 	bic.w	r3, r3, r4
 8016ab6:	f002 0201 	and.w	r2, r2, #1
 8016aba:	fa02 f101 	lsl.w	r1, r2, r1
 8016abe:	430b      	orrs	r3, r1
 8016ac0:	6143      	str	r3, [r0, #20]
 8016ac2:	f85d 4b04 	ldr.w	r4, [sp], #4
 8016ac6:	4770      	bx	lr

08016ac8 <hw_toggle_pin>:
 8016ac8:	6943      	ldr	r3, [r0, #20]
 8016aca:	2201      	movs	r2, #1
 8016acc:	fa02 f101 	lsl.w	r1, r2, r1
 8016ad0:	ea23 0301 	bic.w	r3, r3, r1
 8016ad4:	430b      	orrs	r3, r1
 8016ad6:	6941      	ldr	r1, [r0, #20]
 8016ad8:	404b      	eors	r3, r1
 8016ada:	6143      	str	r3, [r0, #20]
 8016adc:	4770      	bx	lr

08016ade <hw_get_pin>:
 8016ade:	6900      	ldr	r0, [r0, #16]
 8016ae0:	2301      	movs	r3, #1
 8016ae2:	408b      	lsls	r3, r1
 8016ae4:	4018      	ands	r0, r3
 8016ae6:	40c8      	lsrs	r0, r1
 8016ae8:	b2c0      	uxtb	r0, r0
 8016aea:	4770      	bx	lr

08016aec <crc7_one>:
 8016aec:	4048      	eors	r0, r1
 8016aee:	2300      	movs	r3, #0
 8016af0:	e005      	b.n	8016afe <crc7_one+0x12>
 8016af2:	f080 0089 	eor.w	r0, r0, #137	; 0x89
 8016af6:	0040      	lsls	r0, r0, #1
 8016af8:	b2c0      	uxtb	r0, r0
 8016afa:	3301      	adds	r3, #1
 8016afc:	b2db      	uxtb	r3, r3
 8016afe:	2b07      	cmp	r3, #7
 8016b00:	d803      	bhi.n	8016b0a <crc7_one+0x1e>
 8016b02:	f010 0f80 	tst.w	r0, #128	; 0x80
 8016b06:	d0f6      	beq.n	8016af6 <crc7_one+0xa>
 8016b08:	e7f3      	b.n	8016af2 <crc7_one+0x6>
 8016b0a:	4770      	bx	lr

08016b0c <crc7>:
 8016b0c:	b570      	push	{r4, r5, r6, lr}
 8016b0e:	4606      	mov	r6, r0
 8016b10:	460d      	mov	r5, r1
 8016b12:	2000      	movs	r0, #0
 8016b14:	4604      	mov	r4, r0
 8016b16:	42ac      	cmp	r4, r5
 8016b18:	d205      	bcs.n	8016b26 <crc7+0x1a>
 8016b1a:	5d31      	ldrb	r1, [r6, r4]
 8016b1c:	f7ff ffe6 	bl	8016aec <crc7_one>
 8016b20:	3401      	adds	r4, #1
 8016b22:	b2e4      	uxtb	r4, r4
 8016b24:	e7f7      	b.n	8016b16 <crc7+0xa>
 8016b26:	f3c0 0047 	ubfx	r0, r0, #1, #8
 8016b2a:	bd70      	pop	{r4, r5, r6, pc}

08016b2c <crc16_one>:
 8016b2c:	0203      	lsls	r3, r0, #8
 8016b2e:	ea43 2010 	orr.w	r0, r3, r0, lsr #8
 8016b32:	b280      	uxth	r0, r0
 8016b34:	4041      	eors	r1, r0
 8016b36:	f3c1 1303 	ubfx	r3, r1, #4, #4
 8016b3a:	4059      	eors	r1, r3
 8016b3c:	ea81 3101 	eor.w	r1, r1, r1, lsl #12
 8016b40:	b20b      	sxth	r3, r1
 8016b42:	b288      	uxth	r0, r1
 8016b44:	0140      	lsls	r0, r0, #5
 8016b46:	f400 50ff 	and.w	r0, r0, #8160	; 0x1fe0
 8016b4a:	4058      	eors	r0, r3
 8016b4c:	b280      	uxth	r0, r0
 8016b4e:	4770      	bx	lr

08016b50 <crc16>:
 8016b50:	b570      	push	{r4, r5, r6, lr}
 8016b52:	4606      	mov	r6, r0
 8016b54:	460d      	mov	r5, r1
 8016b56:	2000      	movs	r0, #0
 8016b58:	4604      	mov	r4, r0
 8016b5a:	42ac      	cmp	r4, r5
 8016b5c:	d205      	bcs.n	8016b6a <crc16+0x1a>
 8016b5e:	5d31      	ldrb	r1, [r6, r4]
 8016b60:	f7ff ffe4 	bl	8016b2c <crc16_one>
 8016b64:	3401      	adds	r4, #1
 8016b66:	b2a4      	uxth	r4, r4
 8016b68:	e7f7      	b.n	8016b5a <crc16+0xa>
 8016b6a:	bd70      	pop	{r4, r5, r6, pc}

08016b6c <sd_spi_getcardinfo>:
 8016b6c:	4800      	ldr	r0, [pc, #0]	; (8016b70 <sd_spi_getcardinfo+0x4>)
 8016b6e:	4770      	bx	lr
 8016b70:	200003b0 	.word	0x200003b0

08016b74 <reset_prepare>:
 8016b74:	b510      	push	{r4, lr}
 8016b76:	f000 fba5 	bl	80172c4 <hal_sd_spi_release>
 8016b7a:	2400      	movs	r4, #0
 8016b7c:	2c09      	cmp	r4, #9
 8016b7e:	d805      	bhi.n	8016b8c <reset_prepare+0x18>
 8016b80:	20ff      	movs	r0, #255	; 0xff
 8016b82:	f000 fba9 	bl	80172d8 <hal_sd_spi_txrx>
 8016b86:	3401      	adds	r4, #1
 8016b88:	b2e4      	uxtb	r4, r4
 8016b8a:	e7f7      	b.n	8016b7c <reset_prepare+0x8>
 8016b8c:	bd10      	pop	{r4, pc}

08016b8e <send_command>:
 8016b8e:	e92d 41f0 	stmdb	sp!, {r4, r5, r6, r7, r8, lr}
 8016b92:	b082      	sub	sp, #8
 8016b94:	4607      	mov	r7, r0
 8016b96:	4688      	mov	r8, r1
 8016b98:	4614      	mov	r4, r2
 8016b9a:	461d      	mov	r5, r3
 8016b9c:	20ff      	movs	r0, #255	; 0xff
 8016b9e:	f000 fb9b 	bl	80172d8 <hal_sd_spi_txrx>
 8016ba2:	20ff      	movs	r0, #255	; 0xff
 8016ba4:	f000 fb98 	bl	80172d8 <hal_sd_spi_txrx>
 8016ba8:	1e62      	subs	r2, r4, #1
 8016baa:	2a05      	cmp	r2, #5
 8016bac:	d855      	bhi.n	8016c5a <send_command+0xcc>
 8016bae:	e8df f002 	tbb	[pc, r2]
 8016bb2:	0303      	.short	0x0303
 8016bb4:	2a542a2c 	.word	0x2a542a2c
 8016bb8:	2601      	movs	r6, #1
 8016bba:	f047 0340 	orr.w	r3, r7, #64	; 0x40
 8016bbe:	f88d 3000 	strb.w	r3, [sp]
 8016bc2:	ea4f 6318 	mov.w	r3, r8, lsr #24
 8016bc6:	f88d 3001 	strb.w	r3, [sp, #1]
 8016bca:	f3c8 4307 	ubfx	r3, r8, #16, #8
 8016bce:	f88d 3002 	strb.w	r3, [sp, #2]
 8016bd2:	f3c8 2307 	ubfx	r3, r8, #8, #8
 8016bd6:	f88d 3003 	strb.w	r3, [sp, #3]
 8016bda:	f88d 8004 	strb.w	r8, [sp, #4]
 8016bde:	2105      	movs	r1, #5
 8016be0:	4668      	mov	r0, sp
 8016be2:	f7ff ff93 	bl	8016b0c <crc7>
 8016be6:	0040      	lsls	r0, r0, #1
 8016be8:	f040 0001 	orr.w	r0, r0, #1
 8016bec:	f88d 0005 	strb.w	r0, [sp, #5]
 8016bf0:	2400      	movs	r4, #0
 8016bf2:	2c05      	cmp	r4, #5
 8016bf4:	d80b      	bhi.n	8016c0e <send_command+0x80>
 8016bf6:	ab02      	add	r3, sp, #8
 8016bf8:	191a      	adds	r2, r3, r4
 8016bfa:	f812 0c08 	ldrb.w	r0, [r2, #-8]
 8016bfe:	f000 fb6b 	bl	80172d8 <hal_sd_spi_txrx>
 8016c02:	3401      	adds	r4, #1
 8016c04:	e7f5      	b.n	8016bf2 <send_command+0x64>
 8016c06:	2605      	movs	r6, #5
 8016c08:	e7d7      	b.n	8016bba <send_command+0x2c>
 8016c0a:	2602      	movs	r6, #2
 8016c0c:	e7d5      	b.n	8016bba <send_command+0x2c>
 8016c0e:	2f0c      	cmp	r7, #12
 8016c10:	d002      	beq.n	8016c18 <send_command+0x8a>
 8016c12:	20ff      	movs	r0, #255	; 0xff
 8016c14:	2400      	movs	r4, #0
 8016c16:	e007      	b.n	8016c28 <send_command+0x9a>
 8016c18:	20ff      	movs	r0, #255	; 0xff
 8016c1a:	f000 fb5d 	bl	80172d8 <hal_sd_spi_txrx>
 8016c1e:	e7f8      	b.n	8016c12 <send_command+0x84>
 8016c20:	20ff      	movs	r0, #255	; 0xff
 8016c22:	f000 fb59 	bl	80172d8 <hal_sd_spi_txrx>
 8016c26:	3401      	adds	r4, #1
 8016c28:	f5b4 7f7a 	cmp.w	r4, #1000	; 0x3e8
 8016c2c:	d202      	bcs.n	8016c34 <send_command+0xa6>
 8016c2e:	f010 0f80 	tst.w	r0, #128	; 0x80
 8016c32:	d1f5      	bne.n	8016c20 <send_command+0x92>
 8016c34:	f5b4 7f7a 	cmp.w	r4, #1000	; 0x3e8
 8016c38:	d011      	beq.n	8016c5e <send_command+0xd0>
 8016c3a:	f010 0f04 	tst.w	r0, #4
 8016c3e:	d113      	bne.n	8016c68 <send_command+0xda>
 8016c40:	f010 0708 	ands.w	r7, r0, #8
 8016c44:	d112      	bne.n	8016c6c <send_command+0xde>
 8016c46:	7028      	strb	r0, [r5, #0]
 8016c48:	2401      	movs	r4, #1
 8016c4a:	42a6      	cmp	r6, r4
 8016c4c:	d908      	bls.n	8016c60 <send_command+0xd2>
 8016c4e:	20ff      	movs	r0, #255	; 0xff
 8016c50:	f000 fb42 	bl	80172d8 <hal_sd_spi_txrx>
 8016c54:	5528      	strb	r0, [r5, r4]
 8016c56:	3401      	adds	r4, #1
 8016c58:	e7f7      	b.n	8016c4a <send_command+0xbc>
 8016c5a:	270a      	movs	r7, #10
 8016c5c:	e000      	b.n	8016c60 <send_command+0xd2>
 8016c5e:	2701      	movs	r7, #1
 8016c60:	4638      	mov	r0, r7
 8016c62:	b002      	add	sp, #8
 8016c64:	e8bd 81f0 	ldmia.w	sp!, {r4, r5, r6, r7, r8, pc}
 8016c68:	2709      	movs	r7, #9
 8016c6a:	e7f9      	b.n	8016c60 <send_command+0xd2>
 8016c6c:	2702      	movs	r7, #2
 8016c6e:	e7f7      	b.n	8016c60 <send_command+0xd2>

08016c70 <read_ocr>:
 8016c70:	b500      	push	{lr}
 8016c72:	b083      	sub	sp, #12
 8016c74:	466b      	mov	r3, sp
 8016c76:	2204      	movs	r2, #4
 8016c78:	2100      	movs	r1, #0
 8016c7a:	203a      	movs	r0, #58	; 0x3a
 8016c7c:	f7ff ff87 	bl	8016b8e <send_command>
 8016c80:	b928      	cbnz	r0, 8016c8e <read_ocr+0x1e>
 8016c82:	f89d 3001 	ldrb.w	r3, [sp, #1]
 8016c86:	f99d 2001 	ldrsb.w	r2, [sp, #1]
 8016c8a:	2a00      	cmp	r2, #0
 8016c8c:	db02      	blt.n	8016c94 <read_ocr+0x24>
 8016c8e:	b003      	add	sp, #12
 8016c90:	f85d fb04 	ldr.w	pc, [sp], #4
 8016c94:	f013 0340 	ands.w	r3, r3, #64	; 0x40
 8016c98:	d003      	beq.n	8016ca2 <read_ocr+0x32>
 8016c9a:	4b04      	ldr	r3, [pc, #16]	; (8016cac <read_ocr+0x3c>)
 8016c9c:	2201      	movs	r2, #1
 8016c9e:	701a      	strb	r2, [r3, #0]
 8016ca0:	e7f5      	b.n	8016c8e <read_ocr+0x1e>
 8016ca2:	4a02      	ldr	r2, [pc, #8]	; (8016cac <read_ocr+0x3c>)
 8016ca4:	2100      	movs	r1, #0
 8016ca6:	7011      	strb	r1, [r2, #0]
 8016ca8:	4618      	mov	r0, r3
 8016caa:	e7f0      	b.n	8016c8e <read_ocr+0x1e>
 8016cac:	200003b0 	.word	0x200003b0

08016cb0 <read_data>:
 8016cb0:	b570      	push	{r4, r5, r6, lr}
 8016cb2:	4606      	mov	r6, r0
 8016cb4:	460d      	mov	r5, r1
 8016cb6:	20ff      	movs	r0, #255	; 0xff
 8016cb8:	2400      	movs	r4, #0
 8016cba:	e003      	b.n	8016cc4 <read_data+0x14>
 8016cbc:	20ff      	movs	r0, #255	; 0xff
 8016cbe:	f000 fb0b 	bl	80172d8 <hal_sd_spi_txrx>
 8016cc2:	3401      	adds	r4, #1
 8016cc4:	4b13      	ldr	r3, [pc, #76]	; (8016d14 <read_data+0x64>)
 8016cc6:	429c      	cmp	r4, r3
 8016cc8:	d801      	bhi.n	8016cce <read_data+0x1e>
 8016cca:	28fe      	cmp	r0, #254	; 0xfe
 8016ccc:	d1f6      	bne.n	8016cbc <read_data+0xc>
 8016cce:	4b12      	ldr	r3, [pc, #72]	; (8016d18 <read_data+0x68>)
 8016cd0:	429c      	cmp	r4, r3
 8016cd2:	d01b      	beq.n	8016d0c <read_data+0x5c>
 8016cd4:	2400      	movs	r4, #0
 8016cd6:	42a5      	cmp	r5, r4
 8016cd8:	d905      	bls.n	8016ce6 <read_data+0x36>
 8016cda:	20ff      	movs	r0, #255	; 0xff
 8016cdc:	f000 fafc 	bl	80172d8 <hal_sd_spi_txrx>
 8016ce0:	5530      	strb	r0, [r6, r4]
 8016ce2:	3401      	adds	r4, #1
 8016ce4:	e7f7      	b.n	8016cd6 <read_data+0x26>
 8016ce6:	20ff      	movs	r0, #255	; 0xff
 8016ce8:	f000 faf6 	bl	80172d8 <hal_sd_spi_txrx>
 8016cec:	b284      	uxth	r4, r0
 8016cee:	0224      	lsls	r4, r4, #8
 8016cf0:	b2a4      	uxth	r4, r4
 8016cf2:	20ff      	movs	r0, #255	; 0xff
 8016cf4:	f000 faf0 	bl	80172d8 <hal_sd_spi_txrx>
 8016cf8:	b280      	uxth	r0, r0
 8016cfa:	4304      	orrs	r4, r0
 8016cfc:	4629      	mov	r1, r5
 8016cfe:	4630      	mov	r0, r6
 8016d00:	f7ff ff26 	bl	8016b50 <crc16>
 8016d04:	4284      	cmp	r4, r0
 8016d06:	d103      	bne.n	8016d10 <read_data+0x60>
 8016d08:	2000      	movs	r0, #0
 8016d0a:	bd70      	pop	{r4, r5, r6, pc}
 8016d0c:	2003      	movs	r0, #3
 8016d0e:	e7fc      	b.n	8016d0a <read_data+0x5a>
 8016d10:	2004      	movs	r0, #4
 8016d12:	e7fa      	b.n	8016d0a <read_data+0x5a>
 8016d14:	0001869f 	.word	0x0001869f
 8016d18:	000186a0 	.word	0x000186a0

08016d1c <read_scr>:
 8016d1c:	b500      	push	{lr}
 8016d1e:	b083      	sub	sp, #12
 8016d20:	466b      	mov	r3, sp
 8016d22:	2201      	movs	r2, #1
 8016d24:	2100      	movs	r1, #0
 8016d26:	2037      	movs	r0, #55	; 0x37
 8016d28:	f7ff ff31 	bl	8016b8e <send_command>
 8016d2c:	b110      	cbz	r0, 8016d34 <read_scr+0x18>
 8016d2e:	b003      	add	sp, #12
 8016d30:	f85d fb04 	ldr.w	pc, [sp], #4
 8016d34:	466b      	mov	r3, sp
 8016d36:	2201      	movs	r2, #1
 8016d38:	2100      	movs	r1, #0
 8016d3a:	2033      	movs	r0, #51	; 0x33
 8016d3c:	f7ff ff27 	bl	8016b8e <send_command>
 8016d40:	2800      	cmp	r0, #0
 8016d42:	d1f4      	bne.n	8016d2e <read_scr+0x12>
 8016d44:	2108      	movs	r1, #8
 8016d46:	4668      	mov	r0, sp
 8016d48:	f7ff ffb2 	bl	8016cb0 <read_data>
 8016d4c:	2800      	cmp	r0, #0
 8016d4e:	d1ee      	bne.n	8016d2e <read_scr+0x12>
 8016d50:	f89d 3001 	ldrb.w	r3, [sp, #1]
 8016d54:	f003 0370 	and.w	r3, r3, #112	; 0x70
 8016d58:	2b20      	cmp	r3, #32
 8016d5a:	d007      	beq.n	8016d6c <read_scr+0x50>
 8016d5c:	2b30      	cmp	r3, #48	; 0x30
 8016d5e:	d009      	beq.n	8016d74 <read_scr+0x58>
 8016d60:	2b40      	cmp	r3, #64	; 0x40
 8016d62:	d1e4      	bne.n	8016d2e <read_scr+0x12>
 8016d64:	4b05      	ldr	r3, [pc, #20]	; (8016d7c <read_scr+0x60>)
 8016d66:	2202      	movs	r2, #2
 8016d68:	701a      	strb	r2, [r3, #0]
 8016d6a:	e7e0      	b.n	8016d2e <read_scr+0x12>
 8016d6c:	4a03      	ldr	r2, [pc, #12]	; (8016d7c <read_scr+0x60>)
 8016d6e:	2100      	movs	r1, #0
 8016d70:	7011      	strb	r1, [r2, #0]
 8016d72:	e7f3      	b.n	8016d5c <read_scr+0x40>
 8016d74:	4a01      	ldr	r2, [pc, #4]	; (8016d7c <read_scr+0x60>)
 8016d76:	2101      	movs	r1, #1
 8016d78:	7011      	strb	r1, [r2, #0]
 8016d7a:	e7f1      	b.n	8016d60 <read_scr+0x44>
 8016d7c:	200003b0 	.word	0x200003b0

08016d80 <read_csd>:
 8016d80:	b510      	push	{r4, lr}
 8016d82:	b084      	sub	sp, #16
 8016d84:	466b      	mov	r3, sp
 8016d86:	2201      	movs	r2, #1
 8016d88:	2100      	movs	r1, #0
 8016d8a:	2009      	movs	r0, #9
 8016d8c:	f7ff feff 	bl	8016b8e <send_command>
 8016d90:	b108      	cbz	r0, 8016d96 <read_csd+0x16>
 8016d92:	b004      	add	sp, #16
 8016d94:	bd10      	pop	{r4, pc}
 8016d96:	2110      	movs	r1, #16
 8016d98:	4668      	mov	r0, sp
 8016d9a:	f7ff ff89 	bl	8016cb0 <read_data>
 8016d9e:	2800      	cmp	r0, #0
 8016da0:	d1f7      	bne.n	8016d92 <read_csd+0x12>
 8016da2:	4b20      	ldr	r3, [pc, #128]	; (8016e24 <read_csd+0xa4>)
 8016da4:	7819      	ldrb	r1, [r3, #0]
 8016da6:	bb39      	cbnz	r1, 8016df8 <read_csd+0x78>
 8016da8:	f89d 3005 	ldrb.w	r3, [sp, #5]
 8016dac:	f003 000f 	and.w	r0, r3, #15
 8016db0:	f89d 3006 	ldrb.w	r3, [sp, #6]
 8016db4:	029b      	lsls	r3, r3, #10
 8016db6:	f403 6340 	and.w	r3, r3, #3072	; 0xc00
 8016dba:	f89d 2007 	ldrb.w	r2, [sp, #7]
 8016dbe:	ea43 0382 	orr.w	r3, r3, r2, lsl #2
 8016dc2:	f89d 2008 	ldrb.w	r2, [sp, #8]
 8016dc6:	ea43 1392 	orr.w	r3, r3, r2, lsr #6
 8016dca:	f89d 2009 	ldrb.w	r2, [sp, #9]
 8016dce:	0052      	lsls	r2, r2, #1
 8016dd0:	f002 0206 	and.w	r2, r2, #6
 8016dd4:	f89d 400a 	ldrb.w	r4, [sp, #10]
 8016dd8:	ea42 12d4 	orr.w	r2, r2, r4, lsr #7
 8016ddc:	3301      	adds	r3, #1
 8016dde:	3202      	adds	r2, #2
 8016de0:	4093      	lsls	r3, r2
 8016de2:	4083      	lsls	r3, r0
 8016de4:	0a5b      	lsrs	r3, r3, #9
 8016de6:	4a0f      	ldr	r2, [pc, #60]	; (8016e24 <read_csd+0xa4>)
 8016de8:	6093      	str	r3, [r2, #8]
 8016dea:	f44f 7300 	mov.w	r3, #512	; 0x200
 8016dee:	60d3      	str	r3, [r2, #12]
 8016df0:	2301      	movs	r3, #1
 8016df2:	6113      	str	r3, [r2, #16]
 8016df4:	4608      	mov	r0, r1
 8016df6:	e7cc      	b.n	8016d92 <read_csd+0x12>
 8016df8:	f89d 3007 	ldrb.w	r3, [sp, #7]
 8016dfc:	041b      	lsls	r3, r3, #16
 8016dfe:	f403 137c 	and.w	r3, r3, #4128768	; 0x3f0000
 8016e02:	f89d 2008 	ldrb.w	r2, [sp, #8]
 8016e06:	ea43 2202 	orr.w	r2, r3, r2, lsl #8
 8016e0a:	f89d 3009 	ldrb.w	r3, [sp, #9]
 8016e0e:	4313      	orrs	r3, r2
 8016e10:	3301      	adds	r3, #1
 8016e12:	029b      	lsls	r3, r3, #10
 8016e14:	4a03      	ldr	r2, [pc, #12]	; (8016e24 <read_csd+0xa4>)
 8016e16:	6093      	str	r3, [r2, #8]
 8016e18:	f44f 7300 	mov.w	r3, #512	; 0x200
 8016e1c:	60d3      	str	r3, [r2, #12]
 8016e1e:	2301      	movs	r3, #1
 8016e20:	6113      	str	r3, [r2, #16]
 8016e22:	e7b6      	b.n	8016d92 <read_csd+0x12>
 8016e24:	200003b0 	.word	0x200003b0

08016e28 <read>:
 8016e28:	b5f0      	push	{r4, r5, r6, r7, lr}
 8016e2a:	b083      	sub	sp, #12
 8016e2c:	4604      	mov	r4, r0
 8016e2e:	460d      	mov	r5, r1
 8016e30:	4616      	mov	r6, r2
 8016e32:	ab01      	add	r3, sp, #4
 8016e34:	2203      	movs	r2, #3
 8016e36:	2100      	movs	r1, #0
 8016e38:	200d      	movs	r0, #13
 8016e3a:	f7ff fea8 	bl	8016b8e <send_command>
 8016e3e:	4603      	mov	r3, r0
 8016e40:	bbc0      	cbnz	r0, 8016eb4 <read+0x8c>
 8016e42:	f89d 3004 	ldrb.w	r3, [sp, #4]
 8016e46:	bba3      	cbnz	r3, 8016eb2 <read+0x8a>
 8016e48:	f89d 7005 	ldrb.w	r7, [sp, #5]
 8016e4c:	bbaf      	cbnz	r7, 8016eba <read+0x92>
 8016e4e:	4b1c      	ldr	r3, [pc, #112]	; (8016ec0 <read+0x98>)
 8016e50:	781b      	ldrb	r3, [r3, #0]
 8016e52:	b903      	cbnz	r3, 8016e56 <read+0x2e>
 8016e54:	026d      	lsls	r5, r5, #9
 8016e56:	2e01      	cmp	r6, #1
 8016e58:	d015      	beq.n	8016e86 <read+0x5e>
 8016e5a:	ab01      	add	r3, sp, #4
 8016e5c:	2201      	movs	r2, #1
 8016e5e:	4629      	mov	r1, r5
 8016e60:	2012      	movs	r0, #18
 8016e62:	f7ff fe94 	bl	8016b8e <send_command>
 8016e66:	4603      	mov	r3, r0
 8016e68:	bb20      	cbnz	r0, 8016eb4 <read+0x8c>
 8016e6a:	2500      	movs	r5, #0
 8016e6c:	42b5      	cmp	r5, r6
 8016e6e:	d214      	bcs.n	8016e9a <read+0x72>
 8016e70:	f44f 7100 	mov.w	r1, #512	; 0x200
 8016e74:	4620      	mov	r0, r4
 8016e76:	f7ff ff1b 	bl	8016cb0 <read_data>
 8016e7a:	4603      	mov	r3, r0
 8016e7c:	b9d0      	cbnz	r0, 8016eb4 <read+0x8c>
 8016e7e:	f504 7400 	add.w	r4, r4, #512	; 0x200
 8016e82:	3501      	adds	r5, #1
 8016e84:	e7f2      	b.n	8016e6c <read+0x44>
 8016e86:	ab01      	add	r3, sp, #4
 8016e88:	2201      	movs	r2, #1
 8016e8a:	4629      	mov	r1, r5
 8016e8c:	2011      	movs	r0, #17
 8016e8e:	f7ff fe7e 	bl	8016b8e <send_command>
 8016e92:	4603      	mov	r3, r0
 8016e94:	2800      	cmp	r0, #0
 8016e96:	d0e8      	beq.n	8016e6a <read+0x42>
 8016e98:	e00c      	b.n	8016eb4 <read+0x8c>
 8016e9a:	2e01      	cmp	r6, #1
 8016e9c:	d801      	bhi.n	8016ea2 <read+0x7a>
 8016e9e:	463b      	mov	r3, r7
 8016ea0:	e008      	b.n	8016eb4 <read+0x8c>
 8016ea2:	ab01      	add	r3, sp, #4
 8016ea4:	2202      	movs	r2, #2
 8016ea6:	2100      	movs	r1, #0
 8016ea8:	200c      	movs	r0, #12
 8016eaa:	f7ff fe70 	bl	8016b8e <send_command>
 8016eae:	4603      	mov	r3, r0
 8016eb0:	e000      	b.n	8016eb4 <read+0x8c>
 8016eb2:	230b      	movs	r3, #11
 8016eb4:	4618      	mov	r0, r3
 8016eb6:	b003      	add	sp, #12
 8016eb8:	bdf0      	pop	{r4, r5, r6, r7, pc}
 8016eba:	230b      	movs	r3, #11
 8016ebc:	e7fa      	b.n	8016eb4 <read+0x8c>
 8016ebe:	bf00      	nop
 8016ec0:	200003b0 	.word	0x200003b0

08016ec4 <sd_spi_read>:
 8016ec4:	b570      	push	{r4, r5, r6, lr}
 8016ec6:	4604      	mov	r4, r0
 8016ec8:	460d      	mov	r5, r1
 8016eca:	4616      	mov	r6, r2
 8016ecc:	f000 f9f0 	bl	80172b0 <hal_sd_spi_select>
 8016ed0:	4632      	mov	r2, r6
 8016ed2:	4629      	mov	r1, r5
 8016ed4:	4620      	mov	r0, r4
 8016ed6:	f7ff ffa7 	bl	8016e28 <read>
 8016eda:	4604      	mov	r4, r0
 8016edc:	f000 f9f2 	bl	80172c4 <hal_sd_spi_release>
 8016ee0:	4620      	mov	r0, r4
 8016ee2:	bd70      	pop	{r4, r5, r6, pc}

08016ee4 <write_data>:
 8016ee4:	b5f8      	push	{r3, r4, r5, r6, r7, lr}
 8016ee6:	4606      	mov	r6, r0
 8016ee8:	460d      	mov	r5, r1
 8016eea:	f7ff fe31 	bl	8016b50 <crc16>
 8016eee:	4607      	mov	r7, r0
 8016ef0:	2400      	movs	r4, #0
 8016ef2:	42a5      	cmp	r5, r4
 8016ef4:	d904      	bls.n	8016f00 <write_data+0x1c>
 8016ef6:	5d30      	ldrb	r0, [r6, r4]
 8016ef8:	f000 f9ee 	bl	80172d8 <hal_sd_spi_txrx>
 8016efc:	3401      	adds	r4, #1
 8016efe:	e7f8      	b.n	8016ef2 <write_data+0xe>
 8016f00:	f3c7 2007 	ubfx	r0, r7, #8, #8
 8016f04:	f000 f9e8 	bl	80172d8 <hal_sd_spi_txrx>
 8016f08:	b2f8      	uxtb	r0, r7
 8016f0a:	f000 f9e5 	bl	80172d8 <hal_sd_spi_txrx>
 8016f0e:	20ff      	movs	r0, #255	; 0xff
 8016f10:	2400      	movs	r4, #0
 8016f12:	4b16      	ldr	r3, [pc, #88]	; (8016f6c <write_data+0x88>)
 8016f14:	429c      	cmp	r4, r3
 8016f16:	d806      	bhi.n	8016f26 <write_data+0x42>
 8016f18:	28ff      	cmp	r0, #255	; 0xff
 8016f1a:	d104      	bne.n	8016f26 <write_data+0x42>
 8016f1c:	20ff      	movs	r0, #255	; 0xff
 8016f1e:	f000 f9db 	bl	80172d8 <hal_sd_spi_txrx>
 8016f22:	3401      	adds	r4, #1
 8016f24:	e7f5      	b.n	8016f12 <write_data+0x2e>
 8016f26:	4b12      	ldr	r3, [pc, #72]	; (8016f70 <write_data+0x8c>)
 8016f28:	429c      	cmp	r4, r3
 8016f2a:	d016      	beq.n	8016f5a <write_data+0x76>
 8016f2c:	f000 001f 	and.w	r0, r0, #31
 8016f30:	280b      	cmp	r0, #11
 8016f32:	d014      	beq.n	8016f5e <write_data+0x7a>
 8016f34:	280d      	cmp	r0, #13
 8016f36:	d014      	beq.n	8016f62 <write_data+0x7e>
 8016f38:	2000      	movs	r0, #0
 8016f3a:	4604      	mov	r4, r0
 8016f3c:	e003      	b.n	8016f46 <write_data+0x62>
 8016f3e:	20ff      	movs	r0, #255	; 0xff
 8016f40:	f000 f9ca 	bl	80172d8 <hal_sd_spi_txrx>
 8016f44:	3401      	adds	r4, #1
 8016f46:	4b09      	ldr	r3, [pc, #36]	; (8016f6c <write_data+0x88>)
 8016f48:	429c      	cmp	r4, r3
 8016f4a:	d801      	bhi.n	8016f50 <write_data+0x6c>
 8016f4c:	28ff      	cmp	r0, #255	; 0xff
 8016f4e:	d1f6      	bne.n	8016f3e <write_data+0x5a>
 8016f50:	4b07      	ldr	r3, [pc, #28]	; (8016f70 <write_data+0x8c>)
 8016f52:	429c      	cmp	r4, r3
 8016f54:	d007      	beq.n	8016f66 <write_data+0x82>
 8016f56:	2000      	movs	r0, #0
 8016f58:	bdf8      	pop	{r3, r4, r5, r6, r7, pc}
 8016f5a:	2003      	movs	r0, #3
 8016f5c:	e7fc      	b.n	8016f58 <write_data+0x74>
 8016f5e:	2004      	movs	r0, #4
 8016f60:	e7fa      	b.n	8016f58 <write_data+0x74>
 8016f62:	2008      	movs	r0, #8
 8016f64:	e7f8      	b.n	8016f58 <write_data+0x74>
 8016f66:	2003      	movs	r0, #3
 8016f68:	e7f6      	b.n	8016f58 <write_data+0x74>
 8016f6a:	bf00      	nop
 8016f6c:	0001869f 	.word	0x0001869f
 8016f70:	000186a0 	.word	0x000186a0

08016f74 <write_data_token>:
 8016f74:	b510      	push	{r4, lr}
 8016f76:	4604      	mov	r4, r0
 8016f78:	f000 f9ae 	bl	80172d8 <hal_sd_spi_txrx>
 8016f7c:	2cfd      	cmp	r4, #253	; 0xfd
 8016f7e:	d00f      	beq.n	8016fa0 <write_data_token+0x2c>
 8016f80:	2000      	movs	r0, #0
 8016f82:	bd10      	pop	{r4, pc}
 8016f84:	20ff      	movs	r0, #255	; 0xff
 8016f86:	f000 f9a7 	bl	80172d8 <hal_sd_spi_txrx>
 8016f8a:	3401      	adds	r4, #1
 8016f8c:	4b07      	ldr	r3, [pc, #28]	; (8016fac <write_data_token+0x38>)
 8016f8e:	429c      	cmp	r4, r3
 8016f90:	d801      	bhi.n	8016f96 <write_data_token+0x22>
 8016f92:	28ff      	cmp	r0, #255	; 0xff
 8016f94:	d1f6      	bne.n	8016f84 <write_data_token+0x10>
 8016f96:	4b06      	ldr	r3, [pc, #24]	; (8016fb0 <write_data_token+0x3c>)
 8016f98:	429c      	cmp	r4, r3
 8016f9a:	d004      	beq.n	8016fa6 <write_data_token+0x32>
 8016f9c:	2000      	movs	r0, #0
 8016f9e:	e7f0      	b.n	8016f82 <write_data_token+0xe>
 8016fa0:	2000      	movs	r0, #0
 8016fa2:	4604      	mov	r4, r0
 8016fa4:	e7f2      	b.n	8016f8c <write_data_token+0x18>
 8016fa6:	2003      	movs	r0, #3
 8016fa8:	e7eb      	b.n	8016f82 <write_data_token+0xe>
 8016faa:	bf00      	nop
 8016fac:	0001869f 	.word	0x0001869f
 8016fb0:	000186a0 	.word	0x000186a0

08016fb4 <write>:
 8016fb4:	b5f0      	push	{r4, r5, r6, r7, lr}
 8016fb6:	b083      	sub	sp, #12
 8016fb8:	4604      	mov	r4, r0
 8016fba:	460e      	mov	r6, r1
 8016fbc:	4615      	mov	r5, r2
 8016fbe:	ab01      	add	r3, sp, #4
 8016fc0:	2203      	movs	r2, #3
 8016fc2:	2100      	movs	r1, #0
 8016fc4:	200d      	movs	r0, #13
 8016fc6:	f7ff fde2 	bl	8016b8e <send_command>
 8016fca:	4603      	mov	r3, r0
 8016fcc:	2800      	cmp	r0, #0
 8016fce:	d14f      	bne.n	8017070 <write+0xbc>
 8016fd0:	f89d 3004 	ldrb.w	r3, [sp, #4]
 8016fd4:	2b00      	cmp	r3, #0
 8016fd6:	d14a      	bne.n	801706e <write+0xba>
 8016fd8:	f89d 7005 	ldrb.w	r7, [sp, #5]
 8016fdc:	2f00      	cmp	r7, #0
 8016fde:	d14a      	bne.n	8017076 <write+0xc2>
 8016fe0:	4b26      	ldr	r3, [pc, #152]	; (801707c <write+0xc8>)
 8016fe2:	781b      	ldrb	r3, [r3, #0]
 8016fe4:	b903      	cbnz	r3, 8016fe8 <write+0x34>
 8016fe6:	0276      	lsls	r6, r6, #9
 8016fe8:	2d01      	cmp	r5, #1
 8016fea:	d018      	beq.n	801701e <write+0x6a>
 8016fec:	ab01      	add	r3, sp, #4
 8016fee:	2201      	movs	r2, #1
 8016ff0:	2100      	movs	r1, #0
 8016ff2:	2037      	movs	r0, #55	; 0x37
 8016ff4:	f7ff fdcb 	bl	8016b8e <send_command>
 8016ff8:	4603      	mov	r3, r0
 8016ffa:	bbc8      	cbnz	r0, 8017070 <write+0xbc>
 8016ffc:	ab01      	add	r3, sp, #4
 8016ffe:	2201      	movs	r2, #1
 8017000:	4629      	mov	r1, r5
 8017002:	2017      	movs	r0, #23
 8017004:	f7ff fdc3 	bl	8016b8e <send_command>
 8017008:	4603      	mov	r3, r0
 801700a:	bb88      	cbnz	r0, 8017070 <write+0xbc>
 801700c:	ab01      	add	r3, sp, #4
 801700e:	2201      	movs	r2, #1
 8017010:	4631      	mov	r1, r6
 8017012:	2019      	movs	r0, #25
 8017014:	f7ff fdbb 	bl	8016b8e <send_command>
 8017018:	4603      	mov	r3, r0
 801701a:	b140      	cbz	r0, 801702e <write+0x7a>
 801701c:	e028      	b.n	8017070 <write+0xbc>
 801701e:	ab01      	add	r3, sp, #4
 8017020:	2201      	movs	r2, #1
 8017022:	4631      	mov	r1, r6
 8017024:	2018      	movs	r0, #24
 8017026:	f7ff fdb2 	bl	8016b8e <send_command>
 801702a:	4603      	mov	r3, r0
 801702c:	bb00      	cbnz	r0, 8017070 <write+0xbc>
 801702e:	2600      	movs	r6, #0
 8017030:	e00c      	b.n	801704c <write+0x98>
 8017032:	20fc      	movs	r0, #252	; 0xfc
 8017034:	f7ff ff9e 	bl	8016f74 <write_data_token>
 8017038:	f44f 7100 	mov.w	r1, #512	; 0x200
 801703c:	4620      	mov	r0, r4
 801703e:	f7ff ff51 	bl	8016ee4 <write_data>
 8017042:	4603      	mov	r3, r0
 8017044:	b9a0      	cbnz	r0, 8017070 <write+0xbc>
 8017046:	f504 7400 	add.w	r4, r4, #512	; 0x200
 801704a:	3601      	adds	r6, #1
 801704c:	42ae      	cmp	r6, r5
 801704e:	d205      	bcs.n	801705c <write+0xa8>
 8017050:	2d01      	cmp	r5, #1
 8017052:	d1ee      	bne.n	8017032 <write+0x7e>
 8017054:	20fe      	movs	r0, #254	; 0xfe
 8017056:	f7ff ff8d 	bl	8016f74 <write_data_token>
 801705a:	e7ed      	b.n	8017038 <write+0x84>
 801705c:	2d01      	cmp	r5, #1
 801705e:	d801      	bhi.n	8017064 <write+0xb0>
 8017060:	463b      	mov	r3, r7
 8017062:	e005      	b.n	8017070 <write+0xbc>
 8017064:	20fd      	movs	r0, #253	; 0xfd
 8017066:	f7ff ff85 	bl	8016f74 <write_data_token>
 801706a:	463b      	mov	r3, r7
 801706c:	e000      	b.n	8017070 <write+0xbc>
 801706e:	230b      	movs	r3, #11
 8017070:	4618      	mov	r0, r3
 8017072:	b003      	add	sp, #12
 8017074:	bdf0      	pop	{r4, r5, r6, r7, pc}
 8017076:	230b      	movs	r3, #11
 8017078:	e7fa      	b.n	8017070 <write+0xbc>
 801707a:	bf00      	nop
 801707c:	200003b0 	.word	0x200003b0

08017080 <sd_spi_write>:
 8017080:	b570      	push	{r4, r5, r6, lr}
 8017082:	4604      	mov	r4, r0
 8017084:	460d      	mov	r5, r1
 8017086:	4616      	mov	r6, r2
 8017088:	f000 f912 	bl	80172b0 <hal_sd_spi_select>
 801708c:	4632      	mov	r2, r6
 801708e:	4629      	mov	r1, r5
 8017090:	4620      	mov	r0, r4
 8017092:	f7ff ff8f 	bl	8016fb4 <write>
 8017096:	4604      	mov	r4, r0
 8017098:	f000 f914 	bl	80172c4 <hal_sd_spi_release>
 801709c:	4620      	mov	r0, r4
 801709e:	bd70      	pop	{r4, r5, r6, pc}

080170a0 <reset_idle>:
 80170a0:	b510      	push	{r4, lr}
 80170a2:	b084      	sub	sp, #16
 80170a4:	466b      	mov	r3, sp
 80170a6:	2201      	movs	r2, #1
 80170a8:	2100      	movs	r1, #0
 80170aa:	4608      	mov	r0, r1
 80170ac:	f7ff fd6f 	bl	8016b8e <send_command>
 80170b0:	4603      	mov	r3, r0
 80170b2:	b110      	cbz	r0, 80170ba <reset_idle+0x1a>
 80170b4:	4618      	mov	r0, r3
 80170b6:	b004      	add	sp, #16
 80170b8:	bd10      	pop	{r4, pc}
 80170ba:	466b      	mov	r3, sp
 80170bc:	2206      	movs	r2, #6
 80170be:	f44f 71d5 	mov.w	r1, #426	; 0x1aa
 80170c2:	2008      	movs	r0, #8
 80170c4:	f7ff fd63 	bl	8016b8e <send_command>
 80170c8:	4603      	mov	r3, r0
 80170ca:	2809      	cmp	r0, #9
 80170cc:	d001      	beq.n	80170d2 <reset_idle+0x32>
 80170ce:	2800      	cmp	r0, #0
 80170d0:	d1f0      	bne.n	80170b4 <reset_idle+0x14>
 80170d2:	2b09      	cmp	r3, #9
 80170d4:	d031      	beq.n	801713a <reset_idle+0x9a>
 80170d6:	f89d 2001 	ldrb.w	r2, [sp, #1]
 80170da:	f89d 3002 	ldrb.w	r3, [sp, #2]
 80170de:	041b      	lsls	r3, r3, #16
 80170e0:	ea43 6302 	orr.w	r3, r3, r2, lsl #24
 80170e4:	f89d 2003 	ldrb.w	r2, [sp, #3]
 80170e8:	ea43 2302 	orr.w	r3, r3, r2, lsl #8
 80170ec:	f89d 2004 	ldrb.w	r2, [sp, #4]
 80170f0:	4313      	orrs	r3, r2
 80170f2:	f5b3 7fd5 	cmp.w	r3, #426	; 0x1aa
 80170f6:	d169      	bne.n	80171cc <reset_idle+0x12c>
 80170f8:	2400      	movs	r4, #0
 80170fa:	e040      	b.n	801717e <reset_idle+0xde>
 80170fc:	2064      	movs	r0, #100	; 0x64
 80170fe:	f7fe fc31 	bl	8015964 <delay>
 8017102:	3401      	adds	r4, #1
 8017104:	f5b4 7f7a 	cmp.w	r4, #1000	; 0x3e8
 8017108:	d219      	bcs.n	801713e <reset_idle+0x9e>
 801710a:	f89d 3000 	ldrb.w	r3, [sp]
 801710e:	f013 0f01 	tst.w	r3, #1
 8017112:	d014      	beq.n	801713e <reset_idle+0x9e>
 8017114:	466b      	mov	r3, sp
 8017116:	2201      	movs	r2, #1
 8017118:	2100      	movs	r1, #0
 801711a:	2037      	movs	r0, #55	; 0x37
 801711c:	f7ff fd37 	bl	8016b8e <send_command>
 8017120:	4603      	mov	r3, r0
 8017122:	2800      	cmp	r0, #0
 8017124:	d1c6      	bne.n	80170b4 <reset_idle+0x14>
 8017126:	466b      	mov	r3, sp
 8017128:	2201      	movs	r2, #1
 801712a:	2100      	movs	r1, #0
 801712c:	2029      	movs	r0, #41	; 0x29
 801712e:	f7ff fd2e 	bl	8016b8e <send_command>
 8017132:	4603      	mov	r3, r0
 8017134:	2800      	cmp	r0, #0
 8017136:	d0e1      	beq.n	80170fc <reset_idle+0x5c>
 8017138:	e7bc      	b.n	80170b4 <reset_idle+0x14>
 801713a:	2400      	movs	r4, #0
 801713c:	e7e2      	b.n	8017104 <reset_idle+0x64>
 801713e:	f5b4 7f7a 	cmp.w	r4, #1000	; 0x3e8
 8017142:	d041      	beq.n	80171c8 <reset_idle+0x128>
 8017144:	4b23      	ldr	r3, [pc, #140]	; (80171d4 <reset_idle+0x134>)
 8017146:	2200      	movs	r2, #0
 8017148:	701a      	strb	r2, [r3, #0]
 801714a:	4b22      	ldr	r3, [pc, #136]	; (80171d4 <reset_idle+0x134>)
 801714c:	781b      	ldrb	r3, [r3, #0]
 801714e:	b94b      	cbnz	r3, 8017164 <reset_idle+0xc4>
 8017150:	466b      	mov	r3, sp
 8017152:	2201      	movs	r2, #1
 8017154:	f44f 7100 	mov.w	r1, #512	; 0x200
 8017158:	2010      	movs	r0, #16
 801715a:	f7ff fd18 	bl	8016b8e <send_command>
 801715e:	4603      	mov	r3, r0
 8017160:	2800      	cmp	r0, #0
 8017162:	d1a7      	bne.n	80170b4 <reset_idle+0x14>
 8017164:	f7ff fdda 	bl	8016d1c <read_scr>
 8017168:	4603      	mov	r3, r0
 801716a:	2800      	cmp	r0, #0
 801716c:	d1a2      	bne.n	80170b4 <reset_idle+0x14>
 801716e:	f7ff fe07 	bl	8016d80 <read_csd>
 8017172:	4603      	mov	r3, r0
 8017174:	e79e      	b.n	80170b4 <reset_idle+0x14>
 8017176:	200a      	movs	r0, #10
 8017178:	f7fe fbf4 	bl	8015964 <delay>
 801717c:	3401      	adds	r4, #1
 801717e:	f5b4 7f7a 	cmp.w	r4, #1000	; 0x3e8
 8017182:	d218      	bcs.n	80171b6 <reset_idle+0x116>
 8017184:	f89d 3000 	ldrb.w	r3, [sp]
 8017188:	f013 0f01 	tst.w	r3, #1
 801718c:	d013      	beq.n	80171b6 <reset_idle+0x116>
 801718e:	466b      	mov	r3, sp
 8017190:	2201      	movs	r2, #1
 8017192:	2100      	movs	r1, #0
 8017194:	2037      	movs	r0, #55	; 0x37
 8017196:	f7ff fcfa 	bl	8016b8e <send_command>
 801719a:	4603      	mov	r3, r0
 801719c:	2800      	cmp	r0, #0
 801719e:	d189      	bne.n	80170b4 <reset_idle+0x14>
 80171a0:	466b      	mov	r3, sp
 80171a2:	2201      	movs	r2, #1
 80171a4:	f04f 4180 	mov.w	r1, #1073741824	; 0x40000000
 80171a8:	2029      	movs	r0, #41	; 0x29
 80171aa:	f7ff fcf0 	bl	8016b8e <send_command>
 80171ae:	4603      	mov	r3, r0
 80171b0:	2800      	cmp	r0, #0
 80171b2:	d0e0      	beq.n	8017176 <reset_idle+0xd6>
 80171b4:	e77e      	b.n	80170b4 <reset_idle+0x14>
 80171b6:	f5b4 7f7a 	cmp.w	r4, #1000	; 0x3e8
 80171ba:	d009      	beq.n	80171d0 <reset_idle+0x130>
 80171bc:	f7ff fd58 	bl	8016c70 <read_ocr>
 80171c0:	4603      	mov	r3, r0
 80171c2:	2800      	cmp	r0, #0
 80171c4:	d0c1      	beq.n	801714a <reset_idle+0xaa>
 80171c6:	e775      	b.n	80170b4 <reset_idle+0x14>
 80171c8:	230a      	movs	r3, #10
 80171ca:	e773      	b.n	80170b4 <reset_idle+0x14>
 80171cc:	230a      	movs	r3, #10
 80171ce:	e771      	b.n	80170b4 <reset_idle+0x14>
 80171d0:	230a      	movs	r3, #10
 80171d2:	e76f      	b.n	80170b4 <reset_idle+0x14>
 80171d4:	200003b0 	.word	0x200003b0

080171d8 <sd_spi_reset>:
 80171d8:	b510      	push	{r4, lr}
 80171da:	f000 f88f 	bl	80172fc <hal_sd_spi_slow>
 80171de:	f7ff fcc9 	bl	8016b74 <reset_prepare>
 80171e2:	f000 f865 	bl	80172b0 <hal_sd_spi_select>
 80171e6:	f7ff ff5b 	bl	80170a0 <reset_idle>
 80171ea:	4604      	mov	r4, r0
 80171ec:	f000 f86a 	bl	80172c4 <hal_sd_spi_release>
 80171f0:	b10c      	cbz	r4, 80171f6 <sd_spi_reset+0x1e>
 80171f2:	4620      	mov	r0, r4
 80171f4:	bd10      	pop	{r4, pc}
 80171f6:	f000 f889 	bl	801730c <hal_sd_spi_fast>
 80171fa:	e7fa      	b.n	80171f2 <sd_spi_reset+0x1a>

080171fc <hal_w25q_spi_select>:
 80171fc:	b508      	push	{r3, lr}
 80171fe:	2200      	movs	r2, #0
 8017200:	210f      	movs	r1, #15
 8017202:	4802      	ldr	r0, [pc, #8]	; (801720c <hal_w25q_spi_select+0x10>)
 8017204:	f7ff fc51 	bl	8016aaa <hw_set_pin>
 8017208:	bd08      	pop	{r3, pc}
 801720a:	bf00      	nop
 801720c:	40020000 	.word	0x40020000

08017210 <hal_w25q_spi_release>:
 8017210:	b508      	push	{r3, lr}
 8017212:	2201      	movs	r2, #1
 8017214:	210f      	movs	r1, #15
 8017216:	4802      	ldr	r0, [pc, #8]	; (8017220 <hal_w25q_spi_release+0x10>)
 8017218:	f7ff fc47 	bl	8016aaa <hw_set_pin>
 801721c:	bd08      	pop	{r3, pc}
 801721e:	bf00      	nop
 8017220:	40020000 	.word	0x40020000

08017224 <hal_w25q_spi_txrx>:
 8017224:	4b07      	ldr	r3, [pc, #28]	; (8017244 <hal_w25q_spi_txrx+0x20>)
 8017226:	689b      	ldr	r3, [r3, #8]
 8017228:	f013 0f02 	tst.w	r3, #2
 801722c:	d0fa      	beq.n	8017224 <hal_w25q_spi_txrx>
 801722e:	4b05      	ldr	r3, [pc, #20]	; (8017244 <hal_w25q_spi_txrx+0x20>)
 8017230:	60d8      	str	r0, [r3, #12]
 8017232:	4b04      	ldr	r3, [pc, #16]	; (8017244 <hal_w25q_spi_txrx+0x20>)
 8017234:	689b      	ldr	r3, [r3, #8]
 8017236:	f013 0f01 	tst.w	r3, #1
 801723a:	d0fa      	beq.n	8017232 <hal_w25q_spi_txrx+0xe>
 801723c:	4b01      	ldr	r3, [pc, #4]	; (8017244 <hal_w25q_spi_txrx+0x20>)
 801723e:	68d8      	ldr	r0, [r3, #12]
 8017240:	b2c0      	uxtb	r0, r0
 8017242:	4770      	bx	lr
 8017244:	40013000 	.word	0x40013000

08017248 <hal_sd_spi_init>:
 8017248:	b510      	push	{r4, lr}
 801724a:	4b16      	ldr	r3, [pc, #88]	; (80172a4 <hal_sd_spi_init+0x5c>)
 801724c:	6c1a      	ldr	r2, [r3, #64]	; 0x40
 801724e:	f442 4280 	orr.w	r2, r2, #16384	; 0x4000
 8017252:	641a      	str	r2, [r3, #64]	; 0x40
 8017254:	6b1a      	ldr	r2, [r3, #48]	; 0x30
 8017256:	f042 0202 	orr.w	r2, r2, #2
 801725a:	631a      	str	r2, [r3, #48]	; 0x30
 801725c:	4c12      	ldr	r4, [pc, #72]	; (80172a8 <hal_sd_spi_init+0x60>)
 801725e:	f240 32a5 	movw	r2, #933	; 0x3a5
 8017262:	210d      	movs	r1, #13
 8017264:	4620      	mov	r0, r4
 8017266:	f7ff fbe4 	bl	8016a32 <hw_cfg_pin>
 801726a:	f240 32a5 	movw	r2, #933	; 0x3a5
 801726e:	210e      	movs	r1, #14
 8017270:	4620      	mov	r0, r4
 8017272:	f7ff fbde 	bl	8016a32 <hw_cfg_pin>
 8017276:	f240 32a5 	movw	r2, #933	; 0x3a5
 801727a:	210f      	movs	r1, #15
 801727c:	4620      	mov	r0, r4
 801727e:	f7ff fbd8 	bl	8016a32 <hw_cfg_pin>
 8017282:	f44f 7264 	mov.w	r2, #912	; 0x390
 8017286:	210c      	movs	r1, #12
 8017288:	4620      	mov	r0, r4
 801728a:	f7ff fbd2 	bl	8016a32 <hw_cfg_pin>
 801728e:	4b07      	ldr	r3, [pc, #28]	; (80172ac <hal_sd_spi_init+0x64>)
 8017290:	f44f 7259 	mov.w	r2, #868	; 0x364
 8017294:	601a      	str	r2, [r3, #0]
 8017296:	2201      	movs	r2, #1
 8017298:	210c      	movs	r1, #12
 801729a:	4620      	mov	r0, r4
 801729c:	f7ff fc05 	bl	8016aaa <hw_set_pin>
 80172a0:	bd10      	pop	{r4, pc}
 80172a2:	bf00      	nop
 80172a4:	40023800 	.word	0x40023800
 80172a8:	40020400 	.word	0x40020400
 80172ac:	40003800 	.word	0x40003800

080172b0 <hal_sd_spi_select>:
 80172b0:	b508      	push	{r3, lr}
 80172b2:	2200      	movs	r2, #0
 80172b4:	210c      	movs	r1, #12
 80172b6:	4802      	ldr	r0, [pc, #8]	; (80172c0 <hal_sd_spi_select+0x10>)
 80172b8:	f7ff fbf7 	bl	8016aaa <hw_set_pin>
 80172bc:	bd08      	pop	{r3, pc}
 80172be:	bf00      	nop
 80172c0:	40020400 	.word	0x40020400

080172c4 <hal_sd_spi_release>:
 80172c4:	b508      	push	{r3, lr}
 80172c6:	2201      	movs	r2, #1
 80172c8:	210c      	movs	r1, #12
 80172ca:	4802      	ldr	r0, [pc, #8]	; (80172d4 <hal_sd_spi_release+0x10>)
 80172cc:	f7ff fbed 	bl	8016aaa <hw_set_pin>
 80172d0:	bd08      	pop	{r3, pc}
 80172d2:	bf00      	nop
 80172d4:	40020400 	.word	0x40020400

080172d8 <hal_sd_spi_txrx>:
 80172d8:	4b07      	ldr	r3, [pc, #28]	; (80172f8 <hal_sd_spi_txrx+0x20>)
 80172da:	689b      	ldr	r3, [r3, #8]
 80172dc:	f013 0f02 	tst.w	r3, #2
 80172e0:	d0fa      	beq.n	80172d8 <hal_sd_spi_txrx>
 80172e2:	4b05      	ldr	r3, [pc, #20]	; (80172f8 <hal_sd_spi_txrx+0x20>)
 80172e4:	60d8      	str	r0, [r3, #12]
 80172e6:	4b04      	ldr	r3, [pc, #16]	; (80172f8 <hal_sd_spi_txrx+0x20>)
 80172e8:	689b      	ldr	r3, [r3, #8]
 80172ea:	f013 0f01 	tst.w	r3, #1
 80172ee:	d0fa      	beq.n	80172e6 <hal_sd_spi_txrx+0xe>
 80172f0:	4b01      	ldr	r3, [pc, #4]	; (80172f8 <hal_sd_spi_txrx+0x20>)
 80172f2:	68d8      	ldr	r0, [r3, #12]
 80172f4:	b2c0      	uxtb	r0, r0
 80172f6:	4770      	bx	lr
 80172f8:	40003800 	.word	0x40003800

080172fc <hal_sd_spi_slow>:
 80172fc:	4b02      	ldr	r3, [pc, #8]	; (8017308 <hal_sd_spi_slow+0xc>)
 80172fe:	f44f 725f 	mov.w	r2, #892	; 0x37c
 8017302:	601a      	str	r2, [r3, #0]
 8017304:	4770      	bx	lr
 8017306:	bf00      	nop
 8017308:	40003800 	.word	0x40003800

0801730c <hal_sd_spi_fast>:
 801730c:	4b02      	ldr	r3, [pc, #8]	; (8017318 <hal_sd_spi_fast+0xc>)
 801730e:	f44f 7253 	mov.w	r2, #844	; 0x34c
 8017312:	601a      	str	r2, [r3, #0]
 8017314:	4770      	bx	lr
 8017316:	bf00      	nop
 8017318:	40003800 	.word	0x40003800

0801731c <hal_w25q_spi_init>:
 801731c:	b510      	push	{r4, lr}
 801731e:	4b18      	ldr	r3, [pc, #96]	; (8017380 <hal_w25q_spi_init+0x64>)
 8017320:	6c5a      	ldr	r2, [r3, #68]	; 0x44
 8017322:	f442 5280 	orr.w	r2, r2, #4096	; 0x1000
 8017326:	645a      	str	r2, [r3, #68]	; 0x44
 8017328:	6b1a      	ldr	r2, [r3, #48]	; 0x30
 801732a:	f042 0203 	orr.w	r2, r2, #3
 801732e:	631a      	str	r2, [r3, #48]	; 0x30
 8017330:	4c14      	ldr	r4, [pc, #80]	; (8017384 <hal_w25q_spi_init+0x68>)
 8017332:	f240 32a5 	movw	r2, #933	; 0x3a5
 8017336:	2103      	movs	r1, #3
 8017338:	4620      	mov	r0, r4
 801733a:	f7ff fb7a 	bl	8016a32 <hw_cfg_pin>
 801733e:	f240 32a5 	movw	r2, #933	; 0x3a5
 8017342:	2104      	movs	r1, #4
 8017344:	4620      	mov	r0, r4
 8017346:	f7ff fb74 	bl	8016a32 <hw_cfg_pin>
 801734a:	f240 32a5 	movw	r2, #933	; 0x3a5
 801734e:	2105      	movs	r1, #5
 8017350:	4620      	mov	r0, r4
 8017352:	f7ff fb6e 	bl	8016a32 <hw_cfg_pin>
 8017356:	f5a4 6480 	sub.w	r4, r4, #1024	; 0x400
 801735a:	f44f 7264 	mov.w	r2, #912	; 0x390
 801735e:	210f      	movs	r1, #15
 8017360:	4620      	mov	r0, r4
 8017362:	f7ff fb66 	bl	8016a32 <hw_cfg_pin>
 8017366:	4b08      	ldr	r3, [pc, #32]	; (8017388 <hal_w25q_spi_init+0x6c>)
 8017368:	f44f 7259 	mov.w	r2, #868	; 0x364
 801736c:	601a      	str	r2, [r3, #0]
 801736e:	2201      	movs	r2, #1
 8017370:	210f      	movs	r1, #15
 8017372:	4620      	mov	r0, r4
 8017374:	f7ff fb99 	bl	8016aaa <hw_set_pin>
 8017378:	f7ff ffc8 	bl	801730c <hal_sd_spi_fast>
 801737c:	bd10      	pop	{r4, pc}
 801737e:	bf00      	nop
 8017380:	40023800 	.word	0x40023800
 8017384:	40020400 	.word	0x40020400
 8017388:	40013000 	.word	0x40013000

0801738c <hal_st7735_spi_init>:
 801738c:	b510      	push	{r4, lr}
 801738e:	4b14      	ldr	r3, [pc, #80]	; (80173e0 <hal_st7735_spi_init+0x54>)
 8017390:	6b1a      	ldr	r2, [r3, #48]	; 0x30
 8017392:	f042 0202 	orr.w	r2, r2, #2
 8017396:	631a      	str	r2, [r3, #48]	; 0x30
 8017398:	6b1a      	ldr	r2, [r3, #48]	; 0x30
 801739a:	f042 0204 	orr.w	r2, r2, #4
 801739e:	631a      	str	r2, [r3, #48]	; 0x30
 80173a0:	4c10      	ldr	r4, [pc, #64]	; (80173e4 <hal_st7735_spi_init+0x58>)
 80173a2:	f44f 7264 	mov.w	r2, #912	; 0x390
 80173a6:	210b      	movs	r1, #11
 80173a8:	4620      	mov	r0, r4
 80173aa:	f7ff fb42 	bl	8016a32 <hw_cfg_pin>
 80173ae:	f44f 7264 	mov.w	r2, #912	; 0x390
 80173b2:	210a      	movs	r1, #10
 80173b4:	4620      	mov	r0, r4
 80173b6:	f7ff fb3c 	bl	8016a32 <hw_cfg_pin>
 80173ba:	f44f 7264 	mov.w	r2, #912	; 0x390
 80173be:	2100      	movs	r1, #0
 80173c0:	4620      	mov	r0, r4
 80173c2:	f7ff fb36 	bl	8016a32 <hw_cfg_pin>
 80173c6:	f44f 7264 	mov.w	r2, #912	; 0x390
 80173ca:	2102      	movs	r1, #2
 80173cc:	4620      	mov	r0, r4
 80173ce:	f7ff fb30 	bl	8016a32 <hw_cfg_pin>
 80173d2:	f44f 7264 	mov.w	r2, #912	; 0x390
 80173d6:	2101      	movs	r1, #1
 80173d8:	4620      	mov	r0, r4
 80173da:	f7ff fb2a 	bl	8016a32 <hw_cfg_pin>
 80173de:	bd10      	pop	{r4, pc}
 80173e0:	40023800 	.word	0x40023800
 80173e4:	40020400 	.word	0x40020400

080173e8 <hal_st7735_spi_select>:
 80173e8:	b508      	push	{r3, lr}
 80173ea:	2200      	movs	r2, #0
 80173ec:	4611      	mov	r1, r2
 80173ee:	4802      	ldr	r0, [pc, #8]	; (80173f8 <hal_st7735_spi_select+0x10>)
 80173f0:	f7ff fb5b 	bl	8016aaa <hw_set_pin>
 80173f4:	bd08      	pop	{r3, pc}
 80173f6:	bf00      	nop
 80173f8:	40020400 	.word	0x40020400

080173fc <hal_st7735_spi_release>:
 80173fc:	b508      	push	{r3, lr}
 80173fe:	2201      	movs	r2, #1
 8017400:	2100      	movs	r1, #0
 8017402:	4802      	ldr	r0, [pc, #8]	; (801740c <hal_st7735_spi_release+0x10>)
 8017404:	f7ff fb51 	bl	8016aaa <hw_set_pin>
 8017408:	bd08      	pop	{r3, pc}
 801740a:	bf00      	nop
 801740c:	40020400 	.word	0x40020400

08017410 <hal_st7735_spi_txrx>:
 8017410:	b570      	push	{r4, r5, r6, lr}
 8017412:	4604      	mov	r4, r0
 8017414:	2200      	movs	r2, #0
 8017416:	210a      	movs	r1, #10
 8017418:	4812      	ldr	r0, [pc, #72]	; (8017464 <hal_st7735_spi_txrx+0x54>)
 801741a:	f7ff fb46 	bl	8016aaa <hw_set_pin>
 801741e:	2508      	movs	r5, #8
 8017420:	e013      	b.n	801744a <hal_st7735_spi_txrx+0x3a>
 8017422:	2201      	movs	r2, #1
 8017424:	210b      	movs	r1, #11
 8017426:	480f      	ldr	r0, [pc, #60]	; (8017464 <hal_st7735_spi_txrx+0x54>)
 8017428:	f7ff fb3f 	bl	8016aaa <hw_set_pin>
 801742c:	0064      	lsls	r4, r4, #1
 801742e:	b2e4      	uxtb	r4, r4
 8017430:	4e0c      	ldr	r6, [pc, #48]	; (8017464 <hal_st7735_spi_txrx+0x54>)
 8017432:	2201      	movs	r2, #1
 8017434:	210a      	movs	r1, #10
 8017436:	4630      	mov	r0, r6
 8017438:	f7ff fb37 	bl	8016aaa <hw_set_pin>
 801743c:	2200      	movs	r2, #0
 801743e:	210a      	movs	r1, #10
 8017440:	4630      	mov	r0, r6
 8017442:	f7ff fb32 	bl	8016aaa <hw_set_pin>
 8017446:	3d01      	subs	r5, #1
 8017448:	b2ed      	uxtb	r5, r5
 801744a:	b145      	cbz	r5, 801745e <hal_st7735_spi_txrx+0x4e>
 801744c:	f014 0f80 	tst.w	r4, #128	; 0x80
 8017450:	d1e7      	bne.n	8017422 <hal_st7735_spi_txrx+0x12>
 8017452:	2200      	movs	r2, #0
 8017454:	210b      	movs	r1, #11
 8017456:	4803      	ldr	r0, [pc, #12]	; (8017464 <hal_st7735_spi_txrx+0x54>)
 8017458:	f7ff fb27 	bl	8016aaa <hw_set_pin>
 801745c:	e7e6      	b.n	801742c <hal_st7735_spi_txrx+0x1c>
 801745e:	2000      	movs	r0, #0
 8017460:	bd70      	pop	{r4, r5, r6, pc}
 8017462:	bf00      	nop
 8017464:	40020400 	.word	0x40020400

08017468 <hal_st7735_spi_slow>:
 8017468:	4b02      	ldr	r3, [pc, #8]	; (8017474 <hal_st7735_spi_slow+0xc>)
 801746a:	f44f 725f 	mov.w	r2, #892	; 0x37c
 801746e:	601a      	str	r2, [r3, #0]
 8017470:	4770      	bx	lr
 8017472:	bf00      	nop
 8017474:	40003c00 	.word	0x40003c00

08017478 <hal_st7735_spi_fast>:
 8017478:	4b02      	ldr	r3, [pc, #8]	; (8017484 <hal_st7735_spi_fast+0xc>)
 801747a:	f44f 7253 	mov.w	r2, #844	; 0x34c
 801747e:	601a      	str	r2, [r3, #0]
 8017480:	4770      	bx	lr
 8017482:	bf00      	nop
 8017484:	40003c00 	.word	0x40003c00

08017488 <fatfs_cache_init>:
 8017488:	2001      	movs	r0, #1
 801748a:	4770      	bx	lr

0801748c <fatfs_cache_get_next_cluster>:
 801748c:	2000      	movs	r0, #0
 801748e:	4770      	bx	lr

08017490 <fatfs_cache_set_next_cluster>:
 8017490:	2001      	movs	r0, #1
 8017492:	4770      	bx	lr

08017494 <sd_init>:
 8017494:	b510      	push	{r4, lr}
 8017496:	4c07      	ldr	r4, [pc, #28]	; (80174b4 <sd_init+0x20>)
 8017498:	6823      	ldr	r3, [r4, #0]
 801749a:	4798      	blx	r3
 801749c:	6863      	ldr	r3, [r4, #4]
 801749e:	4798      	blx	r3
 80174a0:	b920      	cbnz	r0, 80174ac <sd_init+0x18>
 80174a2:	4b04      	ldr	r3, [pc, #16]	; (80174b4 <sd_init+0x20>)
 80174a4:	691b      	ldr	r3, [r3, #16]
 80174a6:	4798      	blx	r3
 80174a8:	6880      	ldr	r0, [r0, #8]
 80174aa:	bd10      	pop	{r4, pc}
 80174ac:	4802      	ldr	r0, [pc, #8]	; (80174b8 <sd_init+0x24>)
 80174ae:	f7fe f8f3 	bl	8015698 <kprintf>
 80174b2:	e7fe      	b.n	80174b2 <sd_init+0x1e>
 80174b4:	0801a93c 	.word	0x0801a93c
 80174b8:	0801b5a0 	.word	0x0801b5a0

080174bc <sd_readsector>:
 80174bc:	b510      	push	{r4, lr}
 80174be:	4604      	mov	r4, r0
 80174c0:	4608      	mov	r0, r1
 80174c2:	4b03      	ldr	r3, [pc, #12]	; (80174d0 <sd_readsector+0x14>)
 80174c4:	689b      	ldr	r3, [r3, #8]
 80174c6:	4621      	mov	r1, r4
 80174c8:	4798      	blx	r3
 80174ca:	2001      	movs	r0, #1
 80174cc:	bd10      	pop	{r4, pc}
 80174ce:	bf00      	nop
 80174d0:	0801a93c 	.word	0x0801a93c

080174d4 <sd_writesector>:
 80174d4:	b510      	push	{r4, lr}
 80174d6:	4604      	mov	r4, r0
 80174d8:	4608      	mov	r0, r1
 80174da:	4b03      	ldr	r3, [pc, #12]	; (80174e8 <sd_writesector+0x14>)
 80174dc:	68db      	ldr	r3, [r3, #12]
 80174de:	4621      	mov	r1, r4
 80174e0:	4798      	blx	r3
 80174e2:	2001      	movs	r0, #1
 80174e4:	bd10      	pop	{r4, pc}
 80174e6:	bf00      	nop
 80174e8:	0801a93c 	.word	0x0801a93c

080174ec <fatfs_init>:
 80174ec:	e92d 47f0 	stmdb	sp!, {r4, r5, r6, r7, r8, r9, sl, lr}
 80174f0:	4604      	mov	r4, r0
 80174f2:	f04f 33ff 	mov.w	r3, #4294967295	; 0xffffffff
 80174f6:	f8c0 3240 	str.w	r3, [r0, #576]	; 0x240
 80174fa:	2300      	movs	r3, #0
 80174fc:	f8c0 3244 	str.w	r3, [r0, #580]	; 0x244
 8017500:	6243      	str	r3, [r0, #36]	; 0x24
 8017502:	f002 fda6 	bl	801a052 <fatfs_fat_init>
 8017506:	6b23      	ldr	r3, [r4, #48]	; 0x30
 8017508:	2b00      	cmp	r3, #0
 801750a:	f000 80f9 	beq.w	8017700 <fatfs_init+0x214>
 801750e:	f104 0540 	add.w	r5, r4, #64	; 0x40
 8017512:	2201      	movs	r2, #1
 8017514:	4629      	mov	r1, r5
 8017516:	2000      	movs	r0, #0
 8017518:	4798      	blx	r3
 801751a:	2800      	cmp	r0, #0
 801751c:	f000 80f3 	beq.w	8017706 <fatfs_init+0x21a>
 8017520:	f8b4 223e 	ldrh.w	r2, [r4, #574]	; 0x23e
 8017524:	f64a 2355 	movw	r3, #43605	; 0xaa55
 8017528:	429a      	cmp	r2, r3
 801752a:	f040 80ef 	bne.w	801770c <fatfs_init+0x220>
 801752e:	f894 223f 	ldrb.w	r2, [r4, #575]	; 0x23f
 8017532:	f894 323e 	ldrb.w	r3, [r4, #574]	; 0x23e
 8017536:	eb03 2302 	add.w	r3, r3, r2, lsl #8
 801753a:	f64a 2255 	movw	r2, #43605	; 0xaa55
 801753e:	4293      	cmp	r3, r2
 8017540:	f040 80e7 	bne.w	8017712 <fatfs_init+0x226>
 8017544:	f894 3202 	ldrb.w	r3, [r4, #514]	; 0x202
 8017548:	2b0f      	cmp	r3, #15
 801754a:	d809      	bhi.n	8017560 <fatfs_init+0x74>
 801754c:	e8df f003 	tbb	[pc, r3]
 8017550:	080808b1 	.word	0x080808b1
 8017554:	080b0b08 	.word	0x080b0b08
 8017558:	0b080808 	.word	0x0b080808
 801755c:	0b0b080b 	.word	0x0b0b080b
 8017560:	2b06      	cmp	r3, #6
 8017562:	f200 80a6 	bhi.w	80176b2 <fatfs_init+0x1c6>
 8017566:	f894 2209 	ldrb.w	r2, [r4, #521]	; 0x209
 801756a:	f894 3208 	ldrb.w	r3, [r4, #520]	; 0x208
 801756e:	041b      	lsls	r3, r3, #16
 8017570:	eb03 6302 	add.w	r3, r3, r2, lsl #24
 8017574:	f894 2207 	ldrb.w	r2, [r4, #519]	; 0x207
 8017578:	eb03 2302 	add.w	r3, r3, r2, lsl #8
 801757c:	f894 2206 	ldrb.w	r2, [r4, #518]	; 0x206
 8017580:	4413      	add	r3, r2
 8017582:	61e3      	str	r3, [r4, #28]
 8017584:	6b23      	ldr	r3, [r4, #48]	; 0x30
 8017586:	2201      	movs	r2, #1
 8017588:	4629      	mov	r1, r5
 801758a:	69e0      	ldr	r0, [r4, #28]
 801758c:	4798      	blx	r3
 801758e:	2800      	cmp	r0, #0
 8017590:	f000 80c2 	beq.w	8017718 <fatfs_init+0x22c>
 8017594:	f894 304c 	ldrb.w	r3, [r4, #76]	; 0x4c
 8017598:	f894 e04b 	ldrb.w	lr, [r4, #75]	; 0x4b
 801759c:	eb0e 2e03 	add.w	lr, lr, r3, lsl #8
 80175a0:	f5be 7f00 	cmp.w	lr, #512	; 0x200
 80175a4:	f040 80bb 	bne.w	801771e <fatfs_init+0x232>
 80175a8:	f894 604d 	ldrb.w	r6, [r4, #77]	; 0x4d
 80175ac:	7026      	strb	r6, [r4, #0]
 80175ae:	f894 704f 	ldrb.w	r7, [r4, #79]	; 0x4f
 80175b2:	f894 504e 	ldrb.w	r5, [r4, #78]	; 0x4e
 80175b6:	eb05 2c07 	add.w	ip, r5, r7, lsl #8
 80175ba:	fa1f fc8c 	uxth.w	ip, ip
 80175be:	f894 0050 	ldrb.w	r0, [r4, #80]	; 0x50
 80175c2:	f894 9052 	ldrb.w	r9, [r4, #82]	; 0x52
 80175c6:	f894 8051 	ldrb.w	r8, [r4, #81]	; 0x51
 80175ca:	eb08 2109 	add.w	r1, r8, r9, lsl #8
 80175ce:	b289      	uxth	r1, r1
 80175d0:	8521      	strh	r1, [r4, #40]	; 0x28
 80175d2:	f894 3057 	ldrb.w	r3, [r4, #87]	; 0x57
 80175d6:	f894 2056 	ldrb.w	r2, [r4, #86]	; 0x56
 80175da:	eb12 2203 	adds.w	r2, r2, r3, lsl #8
 80175de:	d06b      	beq.n	80176b8 <fatfs_init+0x1cc>
 80175e0:	6222      	str	r2, [r4, #32]
 80175e2:	f894 a06f 	ldrb.w	sl, [r4, #111]	; 0x6f
 80175e6:	f894 306e 	ldrb.w	r3, [r4, #110]	; 0x6e
 80175ea:	041b      	lsls	r3, r3, #16
 80175ec:	eb03 630a 	add.w	r3, r3, sl, lsl #24
 80175f0:	f894 a06d 	ldrb.w	sl, [r4, #109]	; 0x6d
 80175f4:	eb03 230a 	add.w	r3, r3, sl, lsl #8
 80175f8:	f894 a06c 	ldrb.w	sl, [r4, #108]	; 0x6c
 80175fc:	4453      	add	r3, sl
 80175fe:	60a3      	str	r3, [r4, #8]
 8017600:	f894 a071 	ldrb.w	sl, [r4, #113]	; 0x71
 8017604:	f894 3070 	ldrb.w	r3, [r4, #112]	; 0x70
 8017608:	eb03 230a 	add.w	r3, r3, sl, lsl #8
 801760c:	8323      	strh	r3, [r4, #24]
 801760e:	6a23      	ldr	r3, [r4, #32]
 8017610:	fb03 fa00 	mul.w	sl, r3, r0
 8017614:	eb0c 030a 	add.w	r3, ip, sl
 8017618:	60e3      	str	r3, [r4, #12]
 801761a:	014b      	lsls	r3, r1, #5
 801761c:	f203 13ff 	addw	r3, r3, #511	; 0x1ff
 8017620:	125b      	asrs	r3, r3, #9
 8017622:	6123      	str	r3, [r4, #16]
 8017624:	69e1      	ldr	r1, [r4, #28]
 8017626:	4461      	add	r1, ip
 8017628:	6161      	str	r1, [r4, #20]
 801762a:	4451      	add	r1, sl
 801762c:	6061      	str	r1, [r4, #4]
 801762e:	f894 123f 	ldrb.w	r1, [r4, #575]	; 0x23f
 8017632:	f894 323e 	ldrb.w	r3, [r4, #574]	; 0x23e
 8017636:	eb03 2301 	add.w	r3, r3, r1, lsl #8
 801763a:	f64a 2155 	movw	r1, #43605	; 0xaa55
 801763e:	428b      	cmp	r3, r1
 8017640:	d170      	bne.n	8017724 <fatfs_init+0x238>
 8017642:	eb08 2809 	add.w	r8, r8, r9, lsl #8
 8017646:	f10e 39ff 	add.w	r9, lr, #4294967295	; 0xffffffff
 801764a:	eb09 1848 	add.w	r8, r9, r8, lsl #5
 801764e:	fb98 fefe 	sdiv	lr, r8, lr
 8017652:	2a00      	cmp	r2, #0
 8017654:	d040      	beq.n	80176d8 <fatfs_init+0x1ec>
 8017656:	4611      	mov	r1, r2
 8017658:	f894 2054 	ldrb.w	r2, [r4, #84]	; 0x54
 801765c:	f894 3053 	ldrb.w	r3, [r4, #83]	; 0x53
 8017660:	eb13 2302 	adds.w	r3, r3, r2, lsl #8
 8017664:	d10d      	bne.n	8017682 <fatfs_init+0x196>
 8017666:	f894 3063 	ldrb.w	r3, [r4, #99]	; 0x63
 801766a:	f894 2062 	ldrb.w	r2, [r4, #98]	; 0x62
 801766e:	0412      	lsls	r2, r2, #16
 8017670:	eb02 6203 	add.w	r2, r2, r3, lsl #24
 8017674:	f894 3061 	ldrb.w	r3, [r4, #97]	; 0x61
 8017678:	eb02 2203 	add.w	r2, r2, r3, lsl #8
 801767c:	f894 3060 	ldrb.w	r3, [r4, #96]	; 0x60
 8017680:	4413      	add	r3, r2
 8017682:	eb05 2507 	add.w	r5, r5, r7, lsl #8
 8017686:	fb01 5000 	mla	r0, r1, r0, r5
 801768a:	4470      	add	r0, lr
 801768c:	1a1b      	subs	r3, r3, r0
 801768e:	2e00      	cmp	r6, #0
 8017690:	d04b      	beq.n	801772a <fatfs_init+0x23e>
 8017692:	fbb3 f3f6 	udiv	r3, r3, r6
 8017696:	f640 72f4 	movw	r2, #4084	; 0xff4
 801769a:	4293      	cmp	r3, r2
 801769c:	d948      	bls.n	8017730 <fatfs_init+0x244>
 801769e:	f64f 72f4 	movw	r2, #65524	; 0xfff4
 80176a2:	4293      	cmp	r3, r2
 80176a4:	d827      	bhi.n	80176f6 <fatfs_init+0x20a>
 80176a6:	2000      	movs	r0, #0
 80176a8:	60a0      	str	r0, [r4, #8]
 80176aa:	f884 002d 	strb.w	r0, [r4, #45]	; 0x2d
 80176ae:	e8bd 87f0 	ldmia.w	sp!, {r4, r5, r6, r7, r8, r9, sl, pc}
 80176b2:	2300      	movs	r3, #0
 80176b4:	61e3      	str	r3, [r4, #28]
 80176b6:	e765      	b.n	8017584 <fatfs_init+0x98>
 80176b8:	f894 a067 	ldrb.w	sl, [r4, #103]	; 0x67
 80176bc:	f894 3066 	ldrb.w	r3, [r4, #102]	; 0x66
 80176c0:	041b      	lsls	r3, r3, #16
 80176c2:	eb03 630a 	add.w	r3, r3, sl, lsl #24
 80176c6:	f894 a065 	ldrb.w	sl, [r4, #101]	; 0x65
 80176ca:	eb03 230a 	add.w	r3, r3, sl, lsl #8
 80176ce:	f894 a064 	ldrb.w	sl, [r4, #100]	; 0x64
 80176d2:	4453      	add	r3, sl
 80176d4:	6223      	str	r3, [r4, #32]
 80176d6:	e784      	b.n	80175e2 <fatfs_init+0xf6>
 80176d8:	f894 1067 	ldrb.w	r1, [r4, #103]	; 0x67
 80176dc:	f894 2066 	ldrb.w	r2, [r4, #102]	; 0x66
 80176e0:	0412      	lsls	r2, r2, #16
 80176e2:	eb02 6201 	add.w	r2, r2, r1, lsl #24
 80176e6:	f894 1065 	ldrb.w	r1, [r4, #101]	; 0x65
 80176ea:	eb02 2201 	add.w	r2, r2, r1, lsl #8
 80176ee:	f894 1064 	ldrb.w	r1, [r4, #100]	; 0x64
 80176f2:	4411      	add	r1, r2
 80176f4:	e7b0      	b.n	8017658 <fatfs_init+0x16c>
 80176f6:	2301      	movs	r3, #1
 80176f8:	f884 302d 	strb.w	r3, [r4, #45]	; 0x2d
 80176fc:	2000      	movs	r0, #0
 80176fe:	e7d6      	b.n	80176ae <fatfs_init+0x1c2>
 8017700:	f04f 30ff 	mov.w	r0, #4294967295	; 0xffffffff
 8017704:	e7d3      	b.n	80176ae <fatfs_init+0x1c2>
 8017706:	f04f 30ff 	mov.w	r0, #4294967295	; 0xffffffff
 801770a:	e7d0      	b.n	80176ae <fatfs_init+0x1c2>
 801770c:	f06f 0002 	mvn.w	r0, #2
 8017710:	e7cd      	b.n	80176ae <fatfs_init+0x1c2>
 8017712:	f06f 0003 	mvn.w	r0, #3
 8017716:	e7ca      	b.n	80176ae <fatfs_init+0x1c2>
 8017718:	f04f 30ff 	mov.w	r0, #4294967295	; 0xffffffff
 801771c:	e7c7      	b.n	80176ae <fatfs_init+0x1c2>
 801771e:	f06f 0001 	mvn.w	r0, #1
 8017722:	e7c4      	b.n	80176ae <fatfs_init+0x1c2>
 8017724:	f06f 0002 	mvn.w	r0, #2
 8017728:	e7c1      	b.n	80176ae <fatfs_init+0x1c2>
 801772a:	f06f 0004 	mvn.w	r0, #4
 801772e:	e7be      	b.n	80176ae <fatfs_init+0x1c2>
 8017730:	f06f 0004 	mvn.w	r0, #4
 8017734:	e7bb      	b.n	80176ae <fatfs_init+0x1c2>

08017736 <fatfs_lba_of_cluster>:
 8017736:	f890 302d 	ldrb.w	r3, [r0, #45]	; 0x2d
 801773a:	b943      	cbnz	r3, 801774e <fatfs_lba_of_cluster+0x18>
 801773c:	6843      	ldr	r3, [r0, #4]
 801773e:	8d02      	ldrh	r2, [r0, #40]	; 0x28
 8017740:	eb03 1322 	add.w	r3, r3, r2, asr #4
 8017744:	3902      	subs	r1, #2
 8017746:	7800      	ldrb	r0, [r0, #0]
 8017748:	fb00 3001 	mla	r0, r0, r1, r3
 801774c:	4770      	bx	lr
 801774e:	6843      	ldr	r3, [r0, #4]
 8017750:	3902      	subs	r1, #2
 8017752:	7800      	ldrb	r0, [r0, #0]
 8017754:	fb00 3001 	mla	r0, r0, r1, r3
 8017758:	4770      	bx	lr

0801775a <fatfs_sector_read>:
 801775a:	b510      	push	{r4, lr}
 801775c:	4604      	mov	r4, r0
 801775e:	4608      	mov	r0, r1
 8017760:	4611      	mov	r1, r2
 8017762:	6b24      	ldr	r4, [r4, #48]	; 0x30
 8017764:	461a      	mov	r2, r3
 8017766:	47a0      	blx	r4
 8017768:	bd10      	pop	{r4, pc}

0801776a <fatfs_sector_write>:
 801776a:	b510      	push	{r4, lr}
 801776c:	4604      	mov	r4, r0
 801776e:	4608      	mov	r0, r1
 8017770:	4611      	mov	r1, r2
 8017772:	6b64      	ldr	r4, [r4, #52]	; 0x34
 8017774:	461a      	mov	r2, r3
 8017776:	47a0      	blx	r4
 8017778:	bd10      	pop	{r4, pc}

0801777a <fatfs_sector_reader>:
 801777a:	e92d 41f0 	stmdb	sp!, {r4, r5, r6, r7, r8, lr}
 801777e:	4605      	mov	r5, r0
 8017780:	461f      	mov	r7, r3
 8017782:	f890 302d 	ldrb.w	r3, [r0, #45]	; 0x2d
 8017786:	b943      	cbnz	r3, 801779a <fatfs_sector_reader+0x20>
 8017788:	b939      	cbnz	r1, 801779a <fatfs_sector_reader+0x20>
 801778a:	6903      	ldr	r3, [r0, #16]
 801778c:	4293      	cmp	r3, r2
 801778e:	d92c      	bls.n	80177ea <fatfs_sector_reader+0x70>
 8017790:	69c0      	ldr	r0, [r0, #28]
 8017792:	68eb      	ldr	r3, [r5, #12]
 8017794:	4418      	add	r0, r3
 8017796:	4410      	add	r0, r2
 8017798:	e014      	b.n	80177c4 <fatfs_sector_reader+0x4a>
 801779a:	7828      	ldrb	r0, [r5, #0]
 801779c:	fbb2 f6f0 	udiv	r6, r2, r0
 80177a0:	fb06 2810 	mls	r8, r6, r0, r2
 80177a4:	2400      	movs	r4, #0
 80177a6:	e004      	b.n	80177b2 <fatfs_sector_reader+0x38>
 80177a8:	4628      	mov	r0, r5
 80177aa:	f002 fc96 	bl	801a0da <fatfs_find_next_cluster>
 80177ae:	4601      	mov	r1, r0
 80177b0:	3401      	adds	r4, #1
 80177b2:	42b4      	cmp	r4, r6
 80177b4:	d3f8      	bcc.n	80177a8 <fatfs_sector_reader+0x2e>
 80177b6:	f1b1 3fff 	cmp.w	r1, #4294967295	; 0xffffffff
 80177ba:	d018      	beq.n	80177ee <fatfs_sector_reader+0x74>
 80177bc:	4628      	mov	r0, r5
 80177be:	f7ff ffba 	bl	8017736 <fatfs_lba_of_cluster>
 80177c2:	4440      	add	r0, r8
 80177c4:	b12f      	cbz	r7, 80177d2 <fatfs_sector_reader+0x58>
 80177c6:	6b2b      	ldr	r3, [r5, #48]	; 0x30
 80177c8:	2201      	movs	r2, #1
 80177ca:	4639      	mov	r1, r7
 80177cc:	4798      	blx	r3
 80177ce:	e8bd 81f0 	ldmia.w	sp!, {r4, r5, r6, r7, r8, pc}
 80177d2:	f8d5 3240 	ldr.w	r3, [r5, #576]	; 0x240
 80177d6:	4283      	cmp	r3, r0
 80177d8:	d00b      	beq.n	80177f2 <fatfs_sector_reader+0x78>
 80177da:	f8c5 0240 	str.w	r0, [r5, #576]	; 0x240
 80177de:	6b2b      	ldr	r3, [r5, #48]	; 0x30
 80177e0:	2201      	movs	r2, #1
 80177e2:	f105 0140 	add.w	r1, r5, #64	; 0x40
 80177e6:	4798      	blx	r3
 80177e8:	e7f1      	b.n	80177ce <fatfs_sector_reader+0x54>
 80177ea:	2000      	movs	r0, #0
 80177ec:	e7ef      	b.n	80177ce <fatfs_sector_reader+0x54>
 80177ee:	2000      	movs	r0, #0
 80177f0:	e7ed      	b.n	80177ce <fatfs_sector_reader+0x54>
 80177f2:	2001      	movs	r0, #1
 80177f4:	e7eb      	b.n	80177ce <fatfs_sector_reader+0x54>

080177f6 <fatfs_read_sector>:
 80177f6:	b570      	push	{r4, r5, r6, lr}
 80177f8:	4604      	mov	r4, r0
 80177fa:	4616      	mov	r6, r2
 80177fc:	461d      	mov	r5, r3
 80177fe:	f890 302d 	ldrb.w	r3, [r0, #45]	; 0x2d
 8017802:	b9ab      	cbnz	r3, 8017830 <fatfs_read_sector+0x3a>
 8017804:	b9a1      	cbnz	r1, 8017830 <fatfs_read_sector+0x3a>
 8017806:	6903      	ldr	r3, [r0, #16]
 8017808:	4293      	cmp	r3, r2
 801780a:	d927      	bls.n	801785c <fatfs_read_sector+0x66>
 801780c:	69c0      	ldr	r0, [r0, #28]
 801780e:	68e3      	ldr	r3, [r4, #12]
 8017810:	4418      	add	r0, r3
 8017812:	4410      	add	r0, r2
 8017814:	b125      	cbz	r5, 8017820 <fatfs_read_sector+0x2a>
 8017816:	6b23      	ldr	r3, [r4, #48]	; 0x30
 8017818:	2201      	movs	r2, #1
 801781a:	4629      	mov	r1, r5
 801781c:	4798      	blx	r3
 801781e:	e010      	b.n	8017842 <fatfs_read_sector+0x4c>
 8017820:	f8c4 0240 	str.w	r0, [r4, #576]	; 0x240
 8017824:	6b23      	ldr	r3, [r4, #48]	; 0x30
 8017826:	2201      	movs	r2, #1
 8017828:	f104 0140 	add.w	r1, r4, #64	; 0x40
 801782c:	4798      	blx	r3
 801782e:	e008      	b.n	8017842 <fatfs_read_sector+0x4c>
 8017830:	b145      	cbz	r5, 8017844 <fatfs_read_sector+0x4e>
 8017832:	4620      	mov	r0, r4
 8017834:	f7ff ff7f 	bl	8017736 <fatfs_lba_of_cluster>
 8017838:	6b23      	ldr	r3, [r4, #48]	; 0x30
 801783a:	2201      	movs	r2, #1
 801783c:	4629      	mov	r1, r5
 801783e:	4430      	add	r0, r6
 8017840:	4798      	blx	r3
 8017842:	bd70      	pop	{r4, r5, r6, pc}
 8017844:	4620      	mov	r0, r4
 8017846:	f7ff ff76 	bl	8017736 <fatfs_lba_of_cluster>
 801784a:	4430      	add	r0, r6
 801784c:	f8c4 0240 	str.w	r0, [r4, #576]	; 0x240
 8017850:	6b23      	ldr	r3, [r4, #48]	; 0x30
 8017852:	2201      	movs	r2, #1
 8017854:	f104 0140 	add.w	r1, r4, #64	; 0x40
 8017858:	4798      	blx	r3
 801785a:	e7f2      	b.n	8017842 <fatfs_read_sector+0x4c>
 801785c:	2000      	movs	r0, #0
 801785e:	e7f0      	b.n	8017842 <fatfs_read_sector+0x4c>

08017860 <fatfs_write_sector>:
 8017860:	b5f8      	push	{r3, r4, r5, r6, r7, lr}
 8017862:	6b46      	ldr	r6, [r0, #52]	; 0x34
 8017864:	b36e      	cbz	r6, 80178c2 <fatfs_write_sector+0x62>
 8017866:	4604      	mov	r4, r0
 8017868:	4617      	mov	r7, r2
 801786a:	461d      	mov	r5, r3
 801786c:	f890 302d 	ldrb.w	r3, [r0, #45]	; 0x2d
 8017870:	b99b      	cbnz	r3, 801789a <fatfs_write_sector+0x3a>
 8017872:	b991      	cbnz	r1, 801789a <fatfs_write_sector+0x3a>
 8017874:	6903      	ldr	r3, [r0, #16]
 8017876:	4293      	cmp	r3, r2
 8017878:	d925      	bls.n	80178c6 <fatfs_write_sector+0x66>
 801787a:	69c0      	ldr	r0, [r0, #28]
 801787c:	68e2      	ldr	r2, [r4, #12]
 801787e:	4410      	add	r0, r2
 8017880:	4438      	add	r0, r7
 8017882:	b11d      	cbz	r5, 801788c <fatfs_write_sector+0x2c>
 8017884:	2201      	movs	r2, #1
 8017886:	4629      	mov	r1, r5
 8017888:	47b0      	blx	r6
 801788a:	e00e      	b.n	80178aa <fatfs_write_sector+0x4a>
 801788c:	f8c4 0240 	str.w	r0, [r4, #576]	; 0x240
 8017890:	2201      	movs	r2, #1
 8017892:	f104 0140 	add.w	r1, r4, #64	; 0x40
 8017896:	47b0      	blx	r6
 8017898:	e007      	b.n	80178aa <fatfs_write_sector+0x4a>
 801789a:	b13d      	cbz	r5, 80178ac <fatfs_write_sector+0x4c>
 801789c:	4620      	mov	r0, r4
 801789e:	f7ff ff4a 	bl	8017736 <fatfs_lba_of_cluster>
 80178a2:	2201      	movs	r2, #1
 80178a4:	4629      	mov	r1, r5
 80178a6:	4438      	add	r0, r7
 80178a8:	47b0      	blx	r6
 80178aa:	bdf8      	pop	{r3, r4, r5, r6, r7, pc}
 80178ac:	4620      	mov	r0, r4
 80178ae:	f7ff ff42 	bl	8017736 <fatfs_lba_of_cluster>
 80178b2:	4438      	add	r0, r7
 80178b4:	f8c4 0240 	str.w	r0, [r4, #576]	; 0x240
 80178b8:	2201      	movs	r2, #1
 80178ba:	f104 0140 	add.w	r1, r4, #64	; 0x40
 80178be:	47b0      	blx	r6
 80178c0:	e7f3      	b.n	80178aa <fatfs_write_sector+0x4a>
 80178c2:	2000      	movs	r0, #0
 80178c4:	e7f1      	b.n	80178aa <fatfs_write_sector+0x4a>
 80178c6:	2000      	movs	r0, #0
 80178c8:	e7ef      	b.n	80178aa <fatfs_write_sector+0x4a>

080178ca <fatfs_show_details>:
 80178ca:	b510      	push	{r4, lr}
 80178cc:	4604      	mov	r4, r0
 80178ce:	480f      	ldr	r0, [pc, #60]	; (801790c <fatfs_show_details+0x42>)
 80178d0:	f7f8 fde2 	bl	8010498 <printf>
 80178d4:	f894 302d 	ldrb.w	r3, [r4, #45]	; 0x2d
 80178d8:	2b01      	cmp	r3, #1
 80178da:	d014      	beq.n	8017906 <fatfs_show_details+0x3c>
 80178dc:	490c      	ldr	r1, [pc, #48]	; (8017910 <fatfs_show_details+0x46>)
 80178de:	480d      	ldr	r0, [pc, #52]	; (8017914 <fatfs_show_details+0x4a>)
 80178e0:	f7f8 fdda 	bl	8010498 <printf>
 80178e4:	68a1      	ldr	r1, [r4, #8]
 80178e6:	480c      	ldr	r0, [pc, #48]	; (8017918 <fatfs_show_details+0x4e>)
 80178e8:	f7f8 fdd6 	bl	8010498 <printf>
 80178ec:	6961      	ldr	r1, [r4, #20]
 80178ee:	480b      	ldr	r0, [pc, #44]	; (801791c <fatfs_show_details+0x52>)
 80178f0:	f7f8 fdd2 	bl	8010498 <printf>
 80178f4:	6861      	ldr	r1, [r4, #4]
 80178f6:	480a      	ldr	r0, [pc, #40]	; (8017920 <fatfs_show_details+0x56>)
 80178f8:	f7f8 fdce 	bl	8010498 <printf>
 80178fc:	7821      	ldrb	r1, [r4, #0]
 80178fe:	4809      	ldr	r0, [pc, #36]	; (8017924 <fatfs_show_details+0x5a>)
 8017900:	f7f8 fdca 	bl	8010498 <printf>
 8017904:	bd10      	pop	{r4, pc}
 8017906:	4908      	ldr	r1, [pc, #32]	; (8017928 <fatfs_show_details+0x5e>)
 8017908:	e7e9      	b.n	80178de <fatfs_show_details+0x14>
 801790a:	bf00      	nop
 801790c:	0801b5c4 	.word	0x0801b5c4
 8017910:	0801b5b4 	.word	0x0801b5b4
 8017914:	0801b5d4 	.word	0x0801b5d4
 8017918:	0801b5e0 	.word	0x0801b5e0
 801791c:	0801b600 	.word	0x0801b600
 8017920:	0801b618 	.word	0x0801b618
 8017924:	0801b634 	.word	0x0801b634
 8017928:	0801b5bc 	.word	0x0801b5bc

0801792c <fatfs_get_root_cluster>:
 801792c:	6880      	ldr	r0, [r0, #8]
 801792e:	4770      	bx	lr

08017930 <fatfs_get_file_entry>:
 8017930:	e92d 4ff0 	stmdb	sp!, {r4, r5, r6, r7, r8, r9, sl, fp, lr}
 8017934:	b0c7      	sub	sp, #284	; 0x11c
 8017936:	4606      	mov	r6, r0
 8017938:	4689      	mov	r9, r1
 801793a:	4690      	mov	r8, r2
 801793c:	469a      	mov	sl, r3
 801793e:	2101      	movs	r1, #1
 8017940:	4668      	mov	r0, sp
 8017942:	f002 f92b 	bl	8019b9c <fatfs_lfn_cache_init>
 8017946:	2700      	movs	r7, #0
 8017948:	463a      	mov	r2, r7
 801794a:	2300      	movs	r3, #0
 801794c:	3701      	adds	r7, #1
 801794e:	4649      	mov	r1, r9
 8017950:	4630      	mov	r0, r6
 8017952:	f7ff ff12 	bl	801777a <fatfs_sector_reader>
 8017956:	b398      	cbz	r0, 80179c0 <fatfs_get_file_entry+0x90>
 8017958:	2400      	movs	r4, #0
 801795a:	e009      	b.n	8017970 <fatfs_get_file_entry+0x40>
 801795c:	4628      	mov	r0, r5
 801795e:	f002 f993 	bl	8019c88 <fatfs_entry_lfn_invalid>
 8017962:	b1a8      	cbz	r0, 8017990 <fatfs_get_file_entry+0x60>
 8017964:	2100      	movs	r1, #0
 8017966:	4668      	mov	r0, sp
 8017968:	f002 f918 	bl	8019b9c <fatfs_lfn_cache_init>
 801796c:	3401      	adds	r4, #1
 801796e:	b2e4      	uxtb	r4, r4
 8017970:	2c0f      	cmp	r4, #15
 8017972:	d8e9      	bhi.n	8017948 <fatfs_get_file_entry+0x18>
 8017974:	f106 0540 	add.w	r5, r6, #64	; 0x40
 8017978:	eb05 1544 	add.w	r5, r5, r4, lsl #5
 801797c:	4628      	mov	r0, r5
 801797e:	f002 f97a 	bl	8019c76 <fatfs_entry_lfn_text>
 8017982:	2800      	cmp	r0, #0
 8017984:	d0ea      	beq.n	801795c <fatfs_get_file_entry+0x2c>
 8017986:	4629      	mov	r1, r5
 8017988:	4668      	mov	r0, sp
 801798a:	f002 f91c 	bl	8019bc6 <fatfs_lfn_cache_entry>
 801798e:	e7ed      	b.n	801796c <fatfs_get_file_entry+0x3c>
 8017990:	4629      	mov	r1, r5
 8017992:	4668      	mov	r0, sp
 8017994:	f002 f98c 	bl	8019cb0 <fatfs_entry_lfn_exists>
 8017998:	4683      	mov	fp, r0
 801799a:	b1a0      	cbz	r0, 80179c6 <fatfs_get_file_entry+0x96>
 801799c:	4668      	mov	r0, sp
 801799e:	f002 f957 	bl	8019c50 <fatfs_lfn_cache_get>
 80179a2:	4641      	mov	r1, r8
 80179a4:	f000 fabc 	bl	8017f20 <fatfs_compare_names>
 80179a8:	b920      	cbnz	r0, 80179b4 <fatfs_get_file_entry+0x84>
 80179aa:	2100      	movs	r1, #0
 80179ac:	4668      	mov	r0, sp
 80179ae:	f002 f8f5 	bl	8019b9c <fatfs_lfn_cache_init>
 80179b2:	e7db      	b.n	801796c <fatfs_get_file_entry+0x3c>
 80179b4:	2220      	movs	r2, #32
 80179b6:	4629      	mov	r1, r5
 80179b8:	4650      	mov	r0, sl
 80179ba:	f7fa ff99 	bl	80128f0 <memcpy>
 80179be:	2001      	movs	r0, #1
 80179c0:	b047      	add	sp, #284	; 0x11c
 80179c2:	e8bd 8ff0 	ldmia.w	sp!, {r4, r5, r6, r7, r8, r9, sl, fp, pc}
 80179c6:	4628      	mov	r0, r5
 80179c8:	f002 f98f 	bl	8019cea <fatfs_entry_sfn_only>
 80179cc:	2800      	cmp	r0, #0
 80179ce:	d0cd      	beq.n	801796c <fatfs_get_file_entry+0x3c>
 80179d0:	220d      	movs	r2, #13
 80179d2:	2100      	movs	r1, #0
 80179d4:	a842      	add	r0, sp, #264	; 0x108
 80179d6:	f7fa ff84 	bl	80128e2 <memset>
 80179da:	2300      	movs	r3, #0
 80179dc:	e006      	b.n	80179ec <fatfs_get_file_entry+0xbc>
 80179de:	5ce9      	ldrb	r1, [r5, r3]
 80179e0:	aa46      	add	r2, sp, #280	; 0x118
 80179e2:	441a      	add	r2, r3
 80179e4:	f802 1c10 	strb.w	r1, [r2, #-16]
 80179e8:	3301      	adds	r3, #1
 80179ea:	b2db      	uxtb	r3, r3
 80179ec:	2b07      	cmp	r3, #7
 80179ee:	d9f6      	bls.n	80179de <fatfs_get_file_entry+0xae>
 80179f0:	2308      	movs	r3, #8
 80179f2:	e001      	b.n	80179f8 <fatfs_get_file_entry+0xc8>
 80179f4:	3301      	adds	r3, #1
 80179f6:	b2db      	uxtb	r3, r3
 80179f8:	2b0a      	cmp	r3, #10
 80179fa:	d80a      	bhi.n	8017a12 <fatfs_get_file_entry+0xe2>
 80179fc:	1c5a      	adds	r2, r3, #1
 80179fe:	5ce9      	ldrb	r1, [r5, r3]
 8017a00:	a846      	add	r0, sp, #280	; 0x118
 8017a02:	4402      	add	r2, r0
 8017a04:	f802 1c10 	strb.w	r1, [r2, #-16]
 8017a08:	2920      	cmp	r1, #32
 8017a0a:	d0f3      	beq.n	80179f4 <fatfs_get_file_entry+0xc4>
 8017a0c:	f04f 0b01 	mov.w	fp, #1
 8017a10:	e7f0      	b.n	80179f4 <fatfs_get_file_entry+0xc4>
 8017a12:	f1bb 0f00 	cmp.w	fp, #0
 8017a16:	d00b      	beq.n	8017a30 <fatfs_get_file_entry+0x100>
 8017a18:	f89d 3108 	ldrb.w	r3, [sp, #264]	; 0x108
 8017a1c:	2b2e      	cmp	r3, #46	; 0x2e
 8017a1e:	d003      	beq.n	8017a28 <fatfs_get_file_entry+0xf8>
 8017a20:	232e      	movs	r3, #46	; 0x2e
 8017a22:	f88d 3110 	strb.w	r3, [sp, #272]	; 0x110
 8017a26:	e006      	b.n	8017a36 <fatfs_get_file_entry+0x106>
 8017a28:	2320      	movs	r3, #32
 8017a2a:	f88d 3110 	strb.w	r3, [sp, #272]	; 0x110
 8017a2e:	e002      	b.n	8017a36 <fatfs_get_file_entry+0x106>
 8017a30:	2320      	movs	r3, #32
 8017a32:	f88d 3110 	strb.w	r3, [sp, #272]	; 0x110
 8017a36:	4641      	mov	r1, r8
 8017a38:	a842      	add	r0, sp, #264	; 0x108
 8017a3a:	f000 fa71 	bl	8017f20 <fatfs_compare_names>
 8017a3e:	b920      	cbnz	r0, 8017a4a <fatfs_get_file_entry+0x11a>
 8017a40:	2100      	movs	r1, #0
 8017a42:	4668      	mov	r0, sp
 8017a44:	f002 f8aa 	bl	8019b9c <fatfs_lfn_cache_init>
 8017a48:	e790      	b.n	801796c <fatfs_get_file_entry+0x3c>
 8017a4a:	2220      	movs	r2, #32
 8017a4c:	4629      	mov	r1, r5
 8017a4e:	4650      	mov	r0, sl
 8017a50:	f7fa ff4e 	bl	80128f0 <memcpy>
 8017a54:	2001      	movs	r0, #1
 8017a56:	e7b3      	b.n	80179c0 <fatfs_get_file_entry+0x90>

08017a58 <fatfs_sfn_exists>:
 8017a58:	e92d 43f8 	stmdb	sp!, {r3, r4, r5, r6, r7, r8, r9, lr}
 8017a5c:	4606      	mov	r6, r0
 8017a5e:	4688      	mov	r8, r1
 8017a60:	4691      	mov	r9, r2
 8017a62:	2700      	movs	r7, #0
 8017a64:	463a      	mov	r2, r7
 8017a66:	2300      	movs	r3, #0
 8017a68:	3701      	adds	r7, #1
 8017a6a:	4641      	mov	r1, r8
 8017a6c:	4630      	mov	r0, r6
 8017a6e:	f7ff fe84 	bl	801777a <fatfs_sector_reader>
 8017a72:	4603      	mov	r3, r0
 8017a74:	b300      	cbz	r0, 8017ab8 <fatfs_sfn_exists+0x60>
 8017a76:	2400      	movs	r4, #0
 8017a78:	e001      	b.n	8017a7e <fatfs_sfn_exists+0x26>
 8017a7a:	3401      	adds	r4, #1
 8017a7c:	b2e4      	uxtb	r4, r4
 8017a7e:	2c0f      	cmp	r4, #15
 8017a80:	d8f0      	bhi.n	8017a64 <fatfs_sfn_exists+0xc>
 8017a82:	f106 0540 	add.w	r5, r6, #64	; 0x40
 8017a86:	eb05 1544 	add.w	r5, r5, r4, lsl #5
 8017a8a:	4628      	mov	r0, r5
 8017a8c:	f002 f8f3 	bl	8019c76 <fatfs_entry_lfn_text>
 8017a90:	2800      	cmp	r0, #0
 8017a92:	d1f2      	bne.n	8017a7a <fatfs_sfn_exists+0x22>
 8017a94:	4628      	mov	r0, r5
 8017a96:	f002 f8f7 	bl	8019c88 <fatfs_entry_lfn_invalid>
 8017a9a:	2800      	cmp	r0, #0
 8017a9c:	d1ed      	bne.n	8017a7a <fatfs_sfn_exists+0x22>
 8017a9e:	4628      	mov	r0, r5
 8017aa0:	f002 f923 	bl	8019cea <fatfs_entry_sfn_only>
 8017aa4:	2800      	cmp	r0, #0
 8017aa6:	d0e8      	beq.n	8017a7a <fatfs_sfn_exists+0x22>
 8017aa8:	220b      	movs	r2, #11
 8017aaa:	4649      	mov	r1, r9
 8017aac:	4628      	mov	r0, r5
 8017aae:	f7fa ff79 	bl	80129a4 <strncmp>
 8017ab2:	2800      	cmp	r0, #0
 8017ab4:	d1e1      	bne.n	8017a7a <fatfs_sfn_exists+0x22>
 8017ab6:	2301      	movs	r3, #1
 8017ab8:	4618      	mov	r0, r3
 8017aba:	e8bd 83f8 	ldmia.w	sp!, {r3, r4, r5, r6, r7, r8, r9, pc}

08017abe <fatfs_update_file_length>:
 8017abe:	e92d 4ff8 	stmdb	sp!, {r3, r4, r5, r6, r7, r8, r9, sl, fp, lr}
 8017ac2:	469b      	mov	fp, r3
 8017ac4:	6b43      	ldr	r3, [r0, #52]	; 0x34
 8017ac6:	2b00      	cmp	r3, #0
 8017ac8:	d03f      	beq.n	8017b4a <fatfs_update_file_length+0x8c>
 8017aca:	4607      	mov	r7, r0
 8017acc:	4689      	mov	r9, r1
 8017ace:	4692      	mov	sl, r2
 8017ad0:	f04f 0800 	mov.w	r8, #0
 8017ad4:	4642      	mov	r2, r8
 8017ad6:	2300      	movs	r3, #0
 8017ad8:	f108 0801 	add.w	r8, r8, #1
 8017adc:	4649      	mov	r1, r9
 8017ade:	4638      	mov	r0, r7
 8017ae0:	f7ff fe4b 	bl	801777a <fatfs_sector_reader>
 8017ae4:	4603      	mov	r3, r0
 8017ae6:	b368      	cbz	r0, 8017b44 <fatfs_update_file_length+0x86>
 8017ae8:	2400      	movs	r4, #0
 8017aea:	e001      	b.n	8017af0 <fatfs_update_file_length+0x32>
 8017aec:	3401      	adds	r4, #1
 8017aee:	b2e4      	uxtb	r4, r4
 8017af0:	2c0f      	cmp	r4, #15
 8017af2:	d8ef      	bhi.n	8017ad4 <fatfs_update_file_length+0x16>
 8017af4:	f107 0640 	add.w	r6, r7, #64	; 0x40
 8017af8:	eb06 1544 	add.w	r5, r6, r4, lsl #5
 8017afc:	4628      	mov	r0, r5
 8017afe:	f002 f8ba 	bl	8019c76 <fatfs_entry_lfn_text>
 8017b02:	2800      	cmp	r0, #0
 8017b04:	d1f2      	bne.n	8017aec <fatfs_update_file_length+0x2e>
 8017b06:	4628      	mov	r0, r5
 8017b08:	f002 f8be 	bl	8019c88 <fatfs_entry_lfn_invalid>
 8017b0c:	2800      	cmp	r0, #0
 8017b0e:	d1ed      	bne.n	8017aec <fatfs_update_file_length+0x2e>
 8017b10:	4628      	mov	r0, r5
 8017b12:	f002 f8ea 	bl	8019cea <fatfs_entry_sfn_only>
 8017b16:	2800      	cmp	r0, #0
 8017b18:	d0e8      	beq.n	8017aec <fatfs_update_file_length+0x2e>
 8017b1a:	220b      	movs	r2, #11
 8017b1c:	4651      	mov	r1, sl
 8017b1e:	4628      	mov	r0, r5
 8017b20:	f7fa ff40 	bl	80129a4 <strncmp>
 8017b24:	2800      	cmp	r0, #0
 8017b26:	d1e1      	bne.n	8017aec <fatfs_update_file_length+0x2e>
 8017b28:	f8c5 b01c 	str.w	fp, [r5, #28]
 8017b2c:	2220      	movs	r2, #32
 8017b2e:	4629      	mov	r1, r5
 8017b30:	4628      	mov	r0, r5
 8017b32:	f7fa fedd 	bl	80128f0 <memcpy>
 8017b36:	6b7b      	ldr	r3, [r7, #52]	; 0x34
 8017b38:	2201      	movs	r2, #1
 8017b3a:	4631      	mov	r1, r6
 8017b3c:	f8d7 0240 	ldr.w	r0, [r7, #576]	; 0x240
 8017b40:	4798      	blx	r3
 8017b42:	4603      	mov	r3, r0
 8017b44:	4618      	mov	r0, r3
 8017b46:	e8bd 8ff8 	ldmia.w	sp!, {r3, r4, r5, r6, r7, r8, r9, sl, fp, pc}
 8017b4a:	2300      	movs	r3, #0
 8017b4c:	e7fa      	b.n	8017b44 <fatfs_update_file_length+0x86>

08017b4e <fatfs_mark_file_deleted>:
 8017b4e:	6b43      	ldr	r3, [r0, #52]	; 0x34
 8017b50:	2b00      	cmp	r3, #0
 8017b52:	d041      	beq.n	8017bd8 <fatfs_mark_file_deleted+0x8a>
 8017b54:	e92d 47f0 	stmdb	sp!, {r4, r5, r6, r7, r8, r9, sl, lr}
 8017b58:	4607      	mov	r7, r0
 8017b5a:	4689      	mov	r9, r1
 8017b5c:	4692      	mov	sl, r2
 8017b5e:	f04f 0800 	mov.w	r8, #0
 8017b62:	4642      	mov	r2, r8
 8017b64:	2300      	movs	r3, #0
 8017b66:	f108 0801 	add.w	r8, r8, #1
 8017b6a:	4649      	mov	r1, r9
 8017b6c:	4638      	mov	r0, r7
 8017b6e:	f7ff fe04 	bl	801777a <fatfs_sector_reader>
 8017b72:	4603      	mov	r3, r0
 8017b74:	b368      	cbz	r0, 8017bd2 <fatfs_mark_file_deleted+0x84>
 8017b76:	2400      	movs	r4, #0
 8017b78:	e001      	b.n	8017b7e <fatfs_mark_file_deleted+0x30>
 8017b7a:	3401      	adds	r4, #1
 8017b7c:	b2e4      	uxtb	r4, r4
 8017b7e:	2c0f      	cmp	r4, #15
 8017b80:	d8ef      	bhi.n	8017b62 <fatfs_mark_file_deleted+0x14>
 8017b82:	f107 0640 	add.w	r6, r7, #64	; 0x40
 8017b86:	eb06 1544 	add.w	r5, r6, r4, lsl #5
 8017b8a:	4628      	mov	r0, r5
 8017b8c:	f002 f873 	bl	8019c76 <fatfs_entry_lfn_text>
 8017b90:	2800      	cmp	r0, #0
 8017b92:	d1f2      	bne.n	8017b7a <fatfs_mark_file_deleted+0x2c>
 8017b94:	4628      	mov	r0, r5
 8017b96:	f002 f877 	bl	8019c88 <fatfs_entry_lfn_invalid>
 8017b9a:	2800      	cmp	r0, #0
 8017b9c:	d1ed      	bne.n	8017b7a <fatfs_mark_file_deleted+0x2c>
 8017b9e:	4628      	mov	r0, r5
 8017ba0:	f002 f8a3 	bl	8019cea <fatfs_entry_sfn_only>
 8017ba4:	2800      	cmp	r0, #0
 8017ba6:	d0e8      	beq.n	8017b7a <fatfs_mark_file_deleted+0x2c>
 8017ba8:	220b      	movs	r2, #11
 8017baa:	4651      	mov	r1, sl
 8017bac:	4628      	mov	r0, r5
 8017bae:	f7fa fef9 	bl	80129a4 <strncmp>
 8017bb2:	2800      	cmp	r0, #0
 8017bb4:	d1e1      	bne.n	8017b7a <fatfs_mark_file_deleted+0x2c>
 8017bb6:	23e5      	movs	r3, #229	; 0xe5
 8017bb8:	702b      	strb	r3, [r5, #0]
 8017bba:	2220      	movs	r2, #32
 8017bbc:	4629      	mov	r1, r5
 8017bbe:	4628      	mov	r0, r5
 8017bc0:	f7fa fe96 	bl	80128f0 <memcpy>
 8017bc4:	6b7b      	ldr	r3, [r7, #52]	; 0x34
 8017bc6:	2201      	movs	r2, #1
 8017bc8:	4631      	mov	r1, r6
 8017bca:	f8d7 0240 	ldr.w	r0, [r7, #576]	; 0x240
 8017bce:	4798      	blx	r3
 8017bd0:	4603      	mov	r3, r0
 8017bd2:	4618      	mov	r0, r3
 8017bd4:	e8bd 87f0 	ldmia.w	sp!, {r4, r5, r6, r7, r8, r9, sl, pc}
 8017bd8:	2300      	movs	r3, #0
 8017bda:	4618      	mov	r0, r3
 8017bdc:	4770      	bx	lr

08017bde <fatfs_list_directory_start>:
 8017bde:	604a      	str	r2, [r1, #4]
 8017be0:	2300      	movs	r3, #0
 8017be2:	600b      	str	r3, [r1, #0]
 8017be4:	720b      	strb	r3, [r1, #8]
 8017be6:	4770      	bx	lr

08017be8 <fatfs_list_directory_next>:
 8017be8:	e92d 43f0 	stmdb	sp!, {r4, r5, r6, r7, r8, r9, lr}
 8017bec:	b0c7      	sub	sp, #284	; 0x11c
 8017bee:	4606      	mov	r6, r0
 8017bf0:	460f      	mov	r7, r1
 8017bf2:	4690      	mov	r8, r2
 8017bf4:	2100      	movs	r1, #0
 8017bf6:	4668      	mov	r0, sp
 8017bf8:	f001 ffd0 	bl	8019b9c <fatfs_lfn_cache_init>
 8017bfc:	e0a0      	b.n	8017d40 <fatfs_list_directory_next+0x158>
 8017bfe:	4628      	mov	r0, r5
 8017c00:	f002 f842 	bl	8019c88 <fatfs_entry_lfn_invalid>
 8017c04:	b1b0      	cbz	r0, 8017c34 <fatfs_list_directory_next+0x4c>
 8017c06:	2100      	movs	r1, #0
 8017c08:	4668      	mov	r0, sp
 8017c0a:	f001 ffc7 	bl	8019b9c <fatfs_lfn_cache_init>
 8017c0e:	3401      	adds	r4, #1
 8017c10:	b2e4      	uxtb	r4, r4
 8017c12:	2c0f      	cmp	r4, #15
 8017c14:	f200 808f 	bhi.w	8017d36 <fatfs_list_directory_next+0x14e>
 8017c18:	f106 0540 	add.w	r5, r6, #64	; 0x40
 8017c1c:	eb05 1544 	add.w	r5, r5, r4, lsl #5
 8017c20:	4628      	mov	r0, r5
 8017c22:	f002 f828 	bl	8019c76 <fatfs_entry_lfn_text>
 8017c26:	2800      	cmp	r0, #0
 8017c28:	d0e9      	beq.n	8017bfe <fatfs_list_directory_next+0x16>
 8017c2a:	4629      	mov	r1, r5
 8017c2c:	4668      	mov	r0, sp
 8017c2e:	f001 ffca 	bl	8019bc6 <fatfs_lfn_cache_entry>
 8017c32:	e7ec      	b.n	8017c0e <fatfs_list_directory_next+0x26>
 8017c34:	4629      	mov	r1, r5
 8017c36:	4668      	mov	r0, sp
 8017c38:	f002 f83a 	bl	8019cb0 <fatfs_entry_lfn_exists>
 8017c3c:	4681      	mov	r9, r0
 8017c3e:	b978      	cbnz	r0, 8017c60 <fatfs_list_directory_next+0x78>
 8017c40:	4628      	mov	r0, r5
 8017c42:	f002 f852 	bl	8019cea <fatfs_entry_sfn_only>
 8017c46:	2800      	cmp	r0, #0
 8017c48:	d0e1      	beq.n	8017c0e <fatfs_list_directory_next+0x26>
 8017c4a:	2100      	movs	r1, #0
 8017c4c:	4668      	mov	r0, sp
 8017c4e:	f001 ffa5 	bl	8019b9c <fatfs_lfn_cache_init>
 8017c52:	220d      	movs	r2, #13
 8017c54:	2100      	movs	r1, #0
 8017c56:	a842      	add	r0, sp, #264	; 0x108
 8017c58:	f7fa fe43 	bl	80128e2 <memset>
 8017c5c:	2300      	movs	r3, #0
 8017c5e:	e029      	b.n	8017cb4 <fatfs_list_directory_next+0xcc>
 8017c60:	4668      	mov	r0, sp
 8017c62:	f001 fff5 	bl	8019c50 <fatfs_lfn_cache_get>
 8017c66:	4601      	mov	r1, r0
 8017c68:	223f      	movs	r2, #63	; 0x3f
 8017c6a:	4640      	mov	r0, r8
 8017c6c:	f7fa feb6 	bl	80129dc <strncpy>
 8017c70:	4628      	mov	r0, r5
 8017c72:	f002 f852 	bl	8019d1a <fatfs_entry_is_dir>
 8017c76:	b190      	cbz	r0, 8017c9e <fatfs_list_directory_next+0xb6>
 8017c78:	2301      	movs	r3, #1
 8017c7a:	f888 3040 	strb.w	r3, [r8, #64]	; 0x40
 8017c7e:	69eb      	ldr	r3, [r5, #28]
 8017c80:	f8c8 3048 	str.w	r3, [r8, #72]	; 0x48
 8017c84:	8aaa      	ldrh	r2, [r5, #20]
 8017c86:	8b6b      	ldrh	r3, [r5, #26]
 8017c88:	ea43 4302 	orr.w	r3, r3, r2, lsl #16
 8017c8c:	f8c8 3044 	str.w	r3, [r8, #68]	; 0x44
 8017c90:	3401      	adds	r4, #1
 8017c92:	723c      	strb	r4, [r7, #8]
 8017c94:	2301      	movs	r3, #1
 8017c96:	4618      	mov	r0, r3
 8017c98:	b047      	add	sp, #284	; 0x11c
 8017c9a:	e8bd 83f0 	ldmia.w	sp!, {r4, r5, r6, r7, r8, r9, pc}
 8017c9e:	2300      	movs	r3, #0
 8017ca0:	f888 3040 	strb.w	r3, [r8, #64]	; 0x40
 8017ca4:	e7eb      	b.n	8017c7e <fatfs_list_directory_next+0x96>
 8017ca6:	5ce9      	ldrb	r1, [r5, r3]
 8017ca8:	aa46      	add	r2, sp, #280	; 0x118
 8017caa:	441a      	add	r2, r3
 8017cac:	f802 1c10 	strb.w	r1, [r2, #-16]
 8017cb0:	3301      	adds	r3, #1
 8017cb2:	b2db      	uxtb	r3, r3
 8017cb4:	2b07      	cmp	r3, #7
 8017cb6:	d9f6      	bls.n	8017ca6 <fatfs_list_directory_next+0xbe>
 8017cb8:	2308      	movs	r3, #8
 8017cba:	e001      	b.n	8017cc0 <fatfs_list_directory_next+0xd8>
 8017cbc:	3301      	adds	r3, #1
 8017cbe:	b2db      	uxtb	r3, r3
 8017cc0:	2b0a      	cmp	r3, #10
 8017cc2:	d80a      	bhi.n	8017cda <fatfs_list_directory_next+0xf2>
 8017cc4:	1c5a      	adds	r2, r3, #1
 8017cc6:	5ce9      	ldrb	r1, [r5, r3]
 8017cc8:	a846      	add	r0, sp, #280	; 0x118
 8017cca:	4402      	add	r2, r0
 8017ccc:	f802 1c10 	strb.w	r1, [r2, #-16]
 8017cd0:	2920      	cmp	r1, #32
 8017cd2:	d0f3      	beq.n	8017cbc <fatfs_list_directory_next+0xd4>
 8017cd4:	f04f 0901 	mov.w	r9, #1
 8017cd8:	e7f0      	b.n	8017cbc <fatfs_list_directory_next+0xd4>
 8017cda:	f1b9 0f00 	cmp.w	r9, #0
 8017cde:	d00b      	beq.n	8017cf8 <fatfs_list_directory_next+0x110>
 8017ce0:	f89d 3108 	ldrb.w	r3, [sp, #264]	; 0x108
 8017ce4:	2b2e      	cmp	r3, #46	; 0x2e
 8017ce6:	d003      	beq.n	8017cf0 <fatfs_list_directory_next+0x108>
 8017ce8:	232e      	movs	r3, #46	; 0x2e
 8017cea:	f88d 3110 	strb.w	r3, [sp, #272]	; 0x110
 8017cee:	e006      	b.n	8017cfe <fatfs_list_directory_next+0x116>
 8017cf0:	2320      	movs	r3, #32
 8017cf2:	f88d 3110 	strb.w	r3, [sp, #272]	; 0x110
 8017cf6:	e002      	b.n	8017cfe <fatfs_list_directory_next+0x116>
 8017cf8:	2320      	movs	r3, #32
 8017cfa:	f88d 3110 	strb.w	r3, [sp, #272]	; 0x110
 8017cfe:	a942      	add	r1, sp, #264	; 0x108
 8017d00:	4640      	mov	r0, r8
 8017d02:	f000 f979 	bl	8017ff8 <fatfs_get_sfn_display_name>
 8017d06:	4628      	mov	r0, r5
 8017d08:	f002 f807 	bl	8019d1a <fatfs_entry_is_dir>
 8017d0c:	b178      	cbz	r0, 8017d2e <fatfs_list_directory_next+0x146>
 8017d0e:	2301      	movs	r3, #1
 8017d10:	f888 3040 	strb.w	r3, [r8, #64]	; 0x40
 8017d14:	69eb      	ldr	r3, [r5, #28]
 8017d16:	f8c8 3048 	str.w	r3, [r8, #72]	; 0x48
 8017d1a:	8aaa      	ldrh	r2, [r5, #20]
 8017d1c:	8b6b      	ldrh	r3, [r5, #26]
 8017d1e:	ea43 4302 	orr.w	r3, r3, r2, lsl #16
 8017d22:	f8c8 3044 	str.w	r3, [r8, #68]	; 0x44
 8017d26:	3401      	adds	r4, #1
 8017d28:	723c      	strb	r4, [r7, #8]
 8017d2a:	2301      	movs	r3, #1
 8017d2c:	e7b3      	b.n	8017c96 <fatfs_list_directory_next+0xae>
 8017d2e:	2300      	movs	r3, #0
 8017d30:	f888 3040 	strb.w	r3, [r8, #64]	; 0x40
 8017d34:	e7ee      	b.n	8017d14 <fatfs_list_directory_next+0x12c>
 8017d36:	683b      	ldr	r3, [r7, #0]
 8017d38:	3301      	adds	r3, #1
 8017d3a:	603b      	str	r3, [r7, #0]
 8017d3c:	2300      	movs	r3, #0
 8017d3e:	723b      	strb	r3, [r7, #8]
 8017d40:	2300      	movs	r3, #0
 8017d42:	683a      	ldr	r2, [r7, #0]
 8017d44:	6879      	ldr	r1, [r7, #4]
 8017d46:	4630      	mov	r0, r6
 8017d48:	f7ff fd17 	bl	801777a <fatfs_sector_reader>
 8017d4c:	4603      	mov	r3, r0
 8017d4e:	2800      	cmp	r0, #0
 8017d50:	d0a1      	beq.n	8017c96 <fatfs_list_directory_next+0xae>
 8017d52:	7a3c      	ldrb	r4, [r7, #8]
 8017d54:	e75d      	b.n	8017c12 <fatfs_list_directory_next+0x2a>
 8017d56:	bf00      	nop

08017d58 <FileString_StrCmpNoCase>:
 8017d58:	b4f0      	push	{r4, r5, r6, r7}
 8017d5a:	4604      	mov	r4, r0
 8017d5c:	e011      	b.n	8017d82 <FileString_StrCmpNoCase+0x2a>
 8017d5e:	462a      	mov	r2, r5
 8017d60:	f1a7 0341 	sub.w	r3, r7, #65	; 0x41
 8017d64:	b2db      	uxtb	r3, r3
 8017d66:	2b19      	cmp	r3, #25
 8017d68:	d803      	bhi.n	8017d72 <FileString_StrCmpNoCase+0x1a>
 8017d6a:	f107 0020 	add.w	r0, r7, #32
 8017d6e:	b2c0      	uxtb	r0, r0
 8017d70:	e000      	b.n	8017d74 <FileString_StrCmpNoCase+0x1c>
 8017d72:	4638      	mov	r0, r7
 8017d74:	1a10      	subs	r0, r2, r0
 8017d76:	d112      	bne.n	8017d9e <FileString_StrCmpNoCase+0x46>
 8017d78:	b18d      	cbz	r5, 8017d9e <FileString_StrCmpNoCase+0x46>
 8017d7a:	b187      	cbz	r7, 8017d9e <FileString_StrCmpNoCase+0x46>
 8017d7c:	3401      	adds	r4, #1
 8017d7e:	3101      	adds	r1, #1
 8017d80:	4632      	mov	r2, r6
 8017d82:	1e56      	subs	r6, r2, #1
 8017d84:	b152      	cbz	r2, 8017d9c <FileString_StrCmpNoCase+0x44>
 8017d86:	7825      	ldrb	r5, [r4, #0]
 8017d88:	780f      	ldrb	r7, [r1, #0]
 8017d8a:	f1a5 0341 	sub.w	r3, r5, #65	; 0x41
 8017d8e:	b2db      	uxtb	r3, r3
 8017d90:	2b19      	cmp	r3, #25
 8017d92:	d8e4      	bhi.n	8017d5e <FileString_StrCmpNoCase+0x6>
 8017d94:	f105 0220 	add.w	r2, r5, #32
 8017d98:	b2d2      	uxtb	r2, r2
 8017d9a:	e7e1      	b.n	8017d60 <FileString_StrCmpNoCase+0x8>
 8017d9c:	4610      	mov	r0, r2
 8017d9e:	bcf0      	pop	{r4, r5, r6, r7}
 8017da0:	4770      	bx	lr

08017da2 <FileString_GetExtension>:
 8017da2:	4601      	mov	r1, r0
 8017da4:	4603      	mov	r3, r0
 8017da6:	f04f 30ff 	mov.w	r0, #4294967295	; 0xffffffff
 8017daa:	e000      	b.n	8017dae <FileString_GetExtension+0xc>
 8017dac:	3301      	adds	r3, #1
 8017dae:	781a      	ldrb	r2, [r3, #0]
 8017db0:	b11a      	cbz	r2, 8017dba <FileString_GetExtension+0x18>
 8017db2:	2a2e      	cmp	r2, #46	; 0x2e
 8017db4:	d1fa      	bne.n	8017dac <FileString_GetExtension+0xa>
 8017db6:	1a58      	subs	r0, r3, r1
 8017db8:	e7f8      	b.n	8017dac <FileString_GetExtension+0xa>
 8017dba:	4770      	bx	lr

08017dbc <FileString_TrimLength>:
 8017dbc:	b410      	push	{r4}
 8017dbe:	4604      	mov	r4, r0
 8017dc0:	1e4b      	subs	r3, r1, #1
 8017dc2:	4403      	add	r3, r0
 8017dc4:	4608      	mov	r0, r1
 8017dc6:	b131      	cbz	r1, 8017dd6 <FileString_TrimLength+0x1a>
 8017dc8:	781a      	ldrb	r2, [r3, #0]
 8017dca:	2a20      	cmp	r2, #32
 8017dcc:	d103      	bne.n	8017dd6 <FileString_TrimLength+0x1a>
 8017dce:	1b18      	subs	r0, r3, r4
 8017dd0:	3b01      	subs	r3, #1
 8017dd2:	3901      	subs	r1, #1
 8017dd4:	e7f7      	b.n	8017dc6 <FileString_TrimLength+0xa>
 8017dd6:	f85d 4b04 	ldr.w	r4, [sp], #4
 8017dda:	4770      	bx	lr

08017ddc <fatfs_total_path_levels>:
 8017ddc:	4603      	mov	r3, r0
 8017dde:	b1d8      	cbz	r0, 8017e18 <fatfs_total_path_levels+0x3c>
 8017de0:	7801      	ldrb	r1, [r0, #0]
 8017de2:	292f      	cmp	r1, #47	; 0x2f
 8017de4:	d009      	beq.n	8017dfa <fatfs_total_path_levels+0x1e>
 8017de6:	7842      	ldrb	r2, [r0, #1]
 8017de8:	2a3a      	cmp	r2, #58	; 0x3a
 8017dea:	d002      	beq.n	8017df2 <fatfs_total_path_levels+0x16>
 8017dec:	7882      	ldrb	r2, [r0, #2]
 8017dee:	2a5c      	cmp	r2, #92	; 0x5c
 8017df0:	d115      	bne.n	8017e1e <fatfs_total_path_levels+0x42>
 8017df2:	3303      	adds	r3, #3
 8017df4:	215c      	movs	r1, #92	; 0x5c
 8017df6:	2000      	movs	r0, #0
 8017df8:	e003      	b.n	8017e02 <fatfs_total_path_levels+0x26>
 8017dfa:	3301      	adds	r3, #1
 8017dfc:	e7fb      	b.n	8017df6 <fatfs_total_path_levels+0x1a>
 8017dfe:	3301      	adds	r3, #1
 8017e00:	3001      	adds	r0, #1
 8017e02:	781a      	ldrb	r2, [r3, #0]
 8017e04:	b132      	cbz	r2, 8017e14 <fatfs_total_path_levels+0x38>
 8017e06:	781a      	ldrb	r2, [r3, #0]
 8017e08:	2a00      	cmp	r2, #0
 8017e0a:	d0f9      	beq.n	8017e00 <fatfs_total_path_levels+0x24>
 8017e0c:	428a      	cmp	r2, r1
 8017e0e:	d0f6      	beq.n	8017dfe <fatfs_total_path_levels+0x22>
 8017e10:	3301      	adds	r3, #1
 8017e12:	e7f8      	b.n	8017e06 <fatfs_total_path_levels+0x2a>
 8017e14:	3801      	subs	r0, #1
 8017e16:	4770      	bx	lr
 8017e18:	f04f 30ff 	mov.w	r0, #4294967295	; 0xffffffff
 8017e1c:	4770      	bx	lr
 8017e1e:	f04f 30ff 	mov.w	r0, #4294967295	; 0xffffffff
 8017e22:	4770      	bx	lr

08017e24 <fatfs_get_substring>:
 8017e24:	b3e0      	cbz	r0, 8017ea0 <fatfs_get_substring+0x7c>
 8017e26:	e92d 4ff8 	stmdb	sp!, {r3, r4, r5, r6, r7, r8, r9, sl, fp, lr}
 8017e2a:	4689      	mov	r9, r1
 8017e2c:	4692      	mov	sl, r2
 8017e2e:	469b      	mov	fp, r3
 8017e30:	4604      	mov	r4, r0
 8017e32:	2b00      	cmp	r3, #0
 8017e34:	dd37      	ble.n	8017ea6 <fatfs_get_substring+0x82>
 8017e36:	f890 8000 	ldrb.w	r8, [r0]
 8017e3a:	f1b8 0f2f 	cmp.w	r8, #47	; 0x2f
 8017e3e:	d00f      	beq.n	8017e60 <fatfs_get_substring+0x3c>
 8017e40:	7843      	ldrb	r3, [r0, #1]
 8017e42:	2b3a      	cmp	r3, #58	; 0x3a
 8017e44:	d002      	beq.n	8017e4c <fatfs_get_substring+0x28>
 8017e46:	7883      	ldrb	r3, [r0, #2]
 8017e48:	2b5c      	cmp	r3, #92	; 0x5c
 8017e4a:	d12f      	bne.n	8017eac <fatfs_get_substring+0x88>
 8017e4c:	3403      	adds	r4, #3
 8017e4e:	f04f 085c 	mov.w	r8, #92	; 0x5c
 8017e52:	4620      	mov	r0, r4
 8017e54:	f7fa fd76 	bl	8012944 <strlen>
 8017e58:	2300      	movs	r3, #0
 8017e5a:	461f      	mov	r7, r3
 8017e5c:	461d      	mov	r5, r3
 8017e5e:	e005      	b.n	8017e6c <fatfs_get_substring+0x48>
 8017e60:	3401      	adds	r4, #1
 8017e62:	e7f6      	b.n	8017e52 <fatfs_get_substring+0x2e>
 8017e64:	3701      	adds	r7, #1
 8017e66:	e006      	b.n	8017e76 <fatfs_get_substring+0x52>
 8017e68:	3401      	adds	r4, #1
 8017e6a:	3501      	adds	r5, #1
 8017e6c:	4285      	cmp	r5, r0
 8017e6e:	da0e      	bge.n	8017e8e <fatfs_get_substring+0x6a>
 8017e70:	7826      	ldrb	r6, [r4, #0]
 8017e72:	4546      	cmp	r6, r8
 8017e74:	d0f6      	beq.n	8017e64 <fatfs_get_substring+0x40>
 8017e76:	454f      	cmp	r7, r9
 8017e78:	d1f6      	bne.n	8017e68 <fatfs_get_substring+0x44>
 8017e7a:	4546      	cmp	r6, r8
 8017e7c:	d0f4      	beq.n	8017e68 <fatfs_get_substring+0x44>
 8017e7e:	f10b 32ff 	add.w	r2, fp, #4294967295	; 0xffffffff
 8017e82:	429a      	cmp	r2, r3
 8017e84:	ddf0      	ble.n	8017e68 <fatfs_get_substring+0x44>
 8017e86:	f80a 6003 	strb.w	r6, [sl, r3]
 8017e8a:	3301      	adds	r3, #1
 8017e8c:	e7ec      	b.n	8017e68 <fatfs_get_substring+0x44>
 8017e8e:	2200      	movs	r2, #0
 8017e90:	f80a 2003 	strb.w	r2, [sl, r3]
 8017e94:	f89a 3000 	ldrb.w	r3, [sl]
 8017e98:	b15b      	cbz	r3, 8017eb2 <fatfs_get_substring+0x8e>
 8017e9a:	4610      	mov	r0, r2
 8017e9c:	e8bd 8ff8 	ldmia.w	sp!, {r3, r4, r5, r6, r7, r8, r9, sl, fp, pc}
 8017ea0:	f04f 30ff 	mov.w	r0, #4294967295	; 0xffffffff
 8017ea4:	4770      	bx	lr
 8017ea6:	f04f 30ff 	mov.w	r0, #4294967295	; 0xffffffff
 8017eaa:	e7f7      	b.n	8017e9c <fatfs_get_substring+0x78>
 8017eac:	f04f 30ff 	mov.w	r0, #4294967295	; 0xffffffff
 8017eb0:	e7f4      	b.n	8017e9c <fatfs_get_substring+0x78>
 8017eb2:	f04f 30ff 	mov.w	r0, #4294967295	; 0xffffffff
 8017eb6:	e7f1      	b.n	8017e9c <fatfs_get_substring+0x78>

08017eb8 <fatfs_split_path>:
 8017eb8:	e92d 43f8 	stmdb	sp!, {r3, r4, r5, r6, r7, r8, r9, lr}
 8017ebc:	4607      	mov	r7, r0
 8017ebe:	4688      	mov	r8, r1
 8017ec0:	4615      	mov	r5, r2
 8017ec2:	461e      	mov	r6, r3
 8017ec4:	f7ff ff8a 	bl	8017ddc <fatfs_total_path_levels>
 8017ec8:	4604      	mov	r4, r0
 8017eca:	f1b0 3fff 	cmp.w	r0, #4294967295	; 0xffffffff
 8017ece:	d00b      	beq.n	8017ee8 <fatfs_split_path+0x30>
 8017ed0:	9b08      	ldr	r3, [sp, #32]
 8017ed2:	4632      	mov	r2, r6
 8017ed4:	4601      	mov	r1, r0
 8017ed6:	4638      	mov	r0, r7
 8017ed8:	f7ff ffa4 	bl	8017e24 <fatfs_get_substring>
 8017edc:	4681      	mov	r9, r0
 8017ede:	b9e0      	cbnz	r0, 8017f1a <fatfs_split_path+0x62>
 8017ee0:	b92c      	cbnz	r4, 8017eee <fatfs_split_path+0x36>
 8017ee2:	2300      	movs	r3, #0
 8017ee4:	f888 3000 	strb.w	r3, [r8]
 8017ee8:	4620      	mov	r0, r4
 8017eea:	e8bd 83f8 	ldmia.w	sp!, {r3, r4, r5, r6, r7, r8, r9, pc}
 8017eee:	4638      	mov	r0, r7
 8017ef0:	f7fa fd28 	bl	8012944 <strlen>
 8017ef4:	4604      	mov	r4, r0
 8017ef6:	4630      	mov	r0, r6
 8017ef8:	f7fa fd24 	bl	8012944 <strlen>
 8017efc:	1a20      	subs	r0, r4, r0
 8017efe:	42a8      	cmp	r0, r5
 8017f00:	dc00      	bgt.n	8017f04 <fatfs_split_path+0x4c>
 8017f02:	4605      	mov	r5, r0
 8017f04:	462a      	mov	r2, r5
 8017f06:	4639      	mov	r1, r7
 8017f08:	4640      	mov	r0, r8
 8017f0a:	f7fa fcf1 	bl	80128f0 <memcpy>
 8017f0e:	3d01      	subs	r5, #1
 8017f10:	2300      	movs	r3, #0
 8017f12:	f808 3005 	strb.w	r3, [r8, r5]
 8017f16:	464c      	mov	r4, r9
 8017f18:	e7e6      	b.n	8017ee8 <fatfs_split_path+0x30>
 8017f1a:	f04f 34ff 	mov.w	r4, #4294967295	; 0xffffffff
 8017f1e:	e7e3      	b.n	8017ee8 <fatfs_split_path+0x30>

08017f20 <fatfs_compare_names>:
 8017f20:	e92d 47f0 	stmdb	sp!, {r4, r5, r6, r7, r8, r9, sl, lr}
 8017f24:	4680      	mov	r8, r0
 8017f26:	460f      	mov	r7, r1
 8017f28:	f7ff ff3b 	bl	8017da2 <FileString_GetExtension>
 8017f2c:	4604      	mov	r4, r0
 8017f2e:	4638      	mov	r0, r7
 8017f30:	f7ff ff37 	bl	8017da2 <FileString_GetExtension>
 8017f34:	4605      	mov	r5, r0
 8017f36:	f1b4 3fff 	cmp.w	r4, #4294967295	; 0xffffffff
 8017f3a:	d016      	beq.n	8017f6a <fatfs_compare_names+0x4a>
 8017f3c:	f1b5 3fff 	cmp.w	r5, #4294967295	; 0xffffffff
 8017f40:	d018      	beq.n	8017f74 <fatfs_compare_names+0x54>
 8017f42:	f1b4 3fff 	cmp.w	r4, #4294967295	; 0xffffffff
 8017f46:	d025      	beq.n	8017f94 <fatfs_compare_names+0x74>
 8017f48:	1c66      	adds	r6, r4, #1
 8017f4a:	4446      	add	r6, r8
 8017f4c:	f105 0901 	add.w	r9, r5, #1
 8017f50:	44b9      	add	r9, r7
 8017f52:	4630      	mov	r0, r6
 8017f54:	f7fa fcf6 	bl	8012944 <strlen>
 8017f58:	4682      	mov	sl, r0
 8017f5a:	4648      	mov	r0, r9
 8017f5c:	f7fa fcf2 	bl	8012944 <strlen>
 8017f60:	4582      	cmp	sl, r0
 8017f62:	d00c      	beq.n	8017f7e <fatfs_compare_names+0x5e>
 8017f64:	2000      	movs	r0, #0
 8017f66:	e8bd 87f0 	ldmia.w	sp!, {r4, r5, r6, r7, r8, r9, sl, pc}
 8017f6a:	f1b0 3fff 	cmp.w	r0, #4294967295	; 0xffffffff
 8017f6e:	d0e5      	beq.n	8017f3c <fatfs_compare_names+0x1c>
 8017f70:	2000      	movs	r0, #0
 8017f72:	e7f8      	b.n	8017f66 <fatfs_compare_names+0x46>
 8017f74:	f1b4 3fff 	cmp.w	r4, #4294967295	; 0xffffffff
 8017f78:	d0e3      	beq.n	8017f42 <fatfs_compare_names+0x22>
 8017f7a:	2000      	movs	r0, #0
 8017f7c:	e7f3      	b.n	8017f66 <fatfs_compare_names+0x46>
 8017f7e:	4630      	mov	r0, r6
 8017f80:	f7fa fce0 	bl	8012944 <strlen>
 8017f84:	4602      	mov	r2, r0
 8017f86:	4649      	mov	r1, r9
 8017f88:	4630      	mov	r0, r6
 8017f8a:	f7ff fee5 	bl	8017d58 <FileString_StrCmpNoCase>
 8017f8e:	b148      	cbz	r0, 8017fa4 <fatfs_compare_names+0x84>
 8017f90:	2000      	movs	r0, #0
 8017f92:	e7e8      	b.n	8017f66 <fatfs_compare_names+0x46>
 8017f94:	4640      	mov	r0, r8
 8017f96:	f7fa fcd5 	bl	8012944 <strlen>
 8017f9a:	4604      	mov	r4, r0
 8017f9c:	4638      	mov	r0, r7
 8017f9e:	f7fa fcd1 	bl	8012944 <strlen>
 8017fa2:	4605      	mov	r5, r0
 8017fa4:	4621      	mov	r1, r4
 8017fa6:	4640      	mov	r0, r8
 8017fa8:	f7ff ff08 	bl	8017dbc <FileString_TrimLength>
 8017fac:	4604      	mov	r4, r0
 8017fae:	4629      	mov	r1, r5
 8017fb0:	4638      	mov	r0, r7
 8017fb2:	f7ff ff03 	bl	8017dbc <FileString_TrimLength>
 8017fb6:	4284      	cmp	r4, r0
 8017fb8:	d107      	bne.n	8017fca <fatfs_compare_names+0xaa>
 8017fba:	4622      	mov	r2, r4
 8017fbc:	4639      	mov	r1, r7
 8017fbe:	4640      	mov	r0, r8
 8017fc0:	f7ff feca 	bl	8017d58 <FileString_StrCmpNoCase>
 8017fc4:	b118      	cbz	r0, 8017fce <fatfs_compare_names+0xae>
 8017fc6:	2000      	movs	r0, #0
 8017fc8:	e7cd      	b.n	8017f66 <fatfs_compare_names+0x46>
 8017fca:	2000      	movs	r0, #0
 8017fcc:	e7cb      	b.n	8017f66 <fatfs_compare_names+0x46>
 8017fce:	2001      	movs	r0, #1
 8017fd0:	e7c9      	b.n	8017f66 <fatfs_compare_names+0x46>

08017fd2 <fatfs_string_ends_with_slash>:
 8017fd2:	4603      	mov	r3, r0
 8017fd4:	b908      	cbnz	r0, 8017fda <fatfs_string_ends_with_slash+0x8>
 8017fd6:	4770      	bx	lr
 8017fd8:	3301      	adds	r3, #1
 8017fda:	781a      	ldrb	r2, [r3, #0]
 8017fdc:	b142      	cbz	r2, 8017ff0 <fatfs_string_ends_with_slash+0x1e>
 8017fde:	7859      	ldrb	r1, [r3, #1]
 8017fe0:	2900      	cmp	r1, #0
 8017fe2:	d1f9      	bne.n	8017fd8 <fatfs_string_ends_with_slash+0x6>
 8017fe4:	2a5c      	cmp	r2, #92	; 0x5c
 8017fe6:	d005      	beq.n	8017ff4 <fatfs_string_ends_with_slash+0x22>
 8017fe8:	2a2f      	cmp	r2, #47	; 0x2f
 8017fea:	d1f5      	bne.n	8017fd8 <fatfs_string_ends_with_slash+0x6>
 8017fec:	2001      	movs	r0, #1
 8017fee:	4770      	bx	lr
 8017ff0:	2000      	movs	r0, #0
 8017ff2:	4770      	bx	lr
 8017ff4:	2001      	movs	r0, #1
 8017ff6:	4770      	bx	lr

08017ff8 <fatfs_get_sfn_display_name>:
 8017ff8:	b410      	push	{r4}
 8017ffa:	2400      	movs	r4, #0
 8017ffc:	e002      	b.n	8018004 <fatfs_get_sfn_display_name+0xc>
 8017ffe:	f800 3b01 	strb.w	r3, [r0], #1
 8018002:	3401      	adds	r4, #1
 8018004:	780b      	ldrb	r3, [r1, #0]
 8018006:	b163      	cbz	r3, 8018022 <fatfs_get_sfn_display_name+0x2a>
 8018008:	2c0b      	cmp	r4, #11
 801800a:	dc0a      	bgt.n	8018022 <fatfs_get_sfn_display_name+0x2a>
 801800c:	3101      	adds	r1, #1
 801800e:	2b20      	cmp	r3, #32
 8018010:	d0f8      	beq.n	8018004 <fatfs_get_sfn_display_name+0xc>
 8018012:	f1a3 0241 	sub.w	r2, r3, #65	; 0x41
 8018016:	b2d2      	uxtb	r2, r2
 8018018:	2a19      	cmp	r2, #25
 801801a:	d8f0      	bhi.n	8017ffe <fatfs_get_sfn_display_name+0x6>
 801801c:	3320      	adds	r3, #32
 801801e:	b2db      	uxtb	r3, r3
 8018020:	e7ed      	b.n	8017ffe <fatfs_get_sfn_display_name+0x6>
 8018022:	2300      	movs	r3, #0
 8018024:	7003      	strb	r3, [r0, #0]
 8018026:	2001      	movs	r0, #1
 8018028:	f85d 4b04 	ldr.w	r4, [sp], #4
 801802c:	4770      	bx	lr

0801802e <fatfs_get_extension>:
 801802e:	b570      	push	{r4, r5, r6, lr}
 8018030:	4604      	mov	r4, r0
 8018032:	460d      	mov	r5, r1
 8018034:	4616      	mov	r6, r2
 8018036:	f7ff feb4 	bl	8017da2 <FileString_GetExtension>
 801803a:	2800      	cmp	r0, #0
 801803c:	dd1e      	ble.n	801807c <fatfs_get_extension+0x4e>
 801803e:	b1fd      	cbz	r5, 8018080 <fatfs_get_extension+0x52>
 8018040:	b90e      	cbnz	r6, 8018046 <fatfs_get_extension+0x18>
 8018042:	4630      	mov	r0, r6
 8018044:	e01b      	b.n	801807e <fatfs_get_extension+0x50>
 8018046:	3001      	adds	r0, #1
 8018048:	4404      	add	r4, r0
 801804a:	2000      	movs	r0, #0
 801804c:	e004      	b.n	8018058 <fatfs_get_extension+0x2a>
 801804e:	4629      	mov	r1, r5
 8018050:	f801 3b01 	strb.w	r3, [r1], #1
 8018054:	3001      	adds	r0, #1
 8018056:	460d      	mov	r5, r1
 8018058:	7823      	ldrb	r3, [r4, #0]
 801805a:	b15b      	cbz	r3, 8018074 <fatfs_get_extension+0x46>
 801805c:	1e72      	subs	r2, r6, #1
 801805e:	4282      	cmp	r2, r0
 8018060:	dd08      	ble.n	8018074 <fatfs_get_extension+0x46>
 8018062:	3401      	adds	r4, #1
 8018064:	f1a3 0241 	sub.w	r2, r3, #65	; 0x41
 8018068:	b2d2      	uxtb	r2, r2
 801806a:	2a19      	cmp	r2, #25
 801806c:	d8ef      	bhi.n	801804e <fatfs_get_extension+0x20>
 801806e:	3320      	adds	r3, #32
 8018070:	b2db      	uxtb	r3, r3
 8018072:	e7ec      	b.n	801804e <fatfs_get_extension+0x20>
 8018074:	2300      	movs	r3, #0
 8018076:	702b      	strb	r3, [r5, #0]
 8018078:	2001      	movs	r0, #1
 801807a:	e000      	b.n	801807e <fatfs_get_extension+0x50>
 801807c:	2000      	movs	r0, #0
 801807e:	bd70      	pop	{r4, r5, r6, pc}
 8018080:	2000      	movs	r0, #0
 8018082:	e7fc      	b.n	801807e <fatfs_get_extension+0x50>

08018084 <fatfs_create_path_string>:
 8018084:	b370      	cbz	r0, 80180e4 <fatfs_create_path_string+0x60>
 8018086:	b4f0      	push	{r4, r5, r6, r7}
 8018088:	4605      	mov	r5, r0
 801808a:	b369      	cbz	r1, 80180e8 <fatfs_create_path_string+0x64>
 801808c:	b37a      	cbz	r2, 80180ee <fatfs_create_path_string+0x6a>
 801808e:	2b00      	cmp	r3, #0
 8018090:	dc0f      	bgt.n	80180b2 <fatfs_create_path_string+0x2e>
 8018092:	2000      	movs	r0, #0
 8018094:	e029      	b.n	80180ea <fatfs_create_path_string+0x66>
 8018096:	f802 4b01 	strb.w	r4, [r2], #1
 801809a:	3001      	adds	r0, #1
 801809c:	4627      	mov	r7, r4
 801809e:	782c      	ldrb	r4, [r5, #0]
 80180a0:	b164      	cbz	r4, 80180bc <fatfs_create_path_string+0x38>
 80180a2:	1e9e      	subs	r6, r3, #2
 80180a4:	4286      	cmp	r6, r0
 80180a6:	dd09      	ble.n	80180bc <fatfs_create_path_string+0x38>
 80180a8:	3501      	adds	r5, #1
 80180aa:	2c5c      	cmp	r4, #92	; 0x5c
 80180ac:	d1f3      	bne.n	8018096 <fatfs_create_path_string+0x12>
 80180ae:	46a4      	mov	ip, r4
 80180b0:	e7f1      	b.n	8018096 <fatfs_create_path_string+0x12>
 80180b2:	f04f 0c2f 	mov.w	ip, #47	; 0x2f
 80180b6:	2700      	movs	r7, #0
 80180b8:	4638      	mov	r0, r7
 80180ba:	e7f0      	b.n	801809e <fatfs_create_path_string+0x1a>
 80180bc:	2f5c      	cmp	r7, #92	; 0x5c
 80180be:	d008      	beq.n	80180d2 <fatfs_create_path_string+0x4e>
 80180c0:	2f2f      	cmp	r7, #47	; 0x2f
 80180c2:	d006      	beq.n	80180d2 <fatfs_create_path_string+0x4e>
 80180c4:	f802 cb01 	strb.w	ip, [r2], #1
 80180c8:	e003      	b.n	80180d2 <fatfs_create_path_string+0x4e>
 80180ca:	3101      	adds	r1, #1
 80180cc:	f802 4b01 	strb.w	r4, [r2], #1
 80180d0:	3001      	adds	r0, #1
 80180d2:	780c      	ldrb	r4, [r1, #0]
 80180d4:	b114      	cbz	r4, 80180dc <fatfs_create_path_string+0x58>
 80180d6:	1e5d      	subs	r5, r3, #1
 80180d8:	4285      	cmp	r5, r0
 80180da:	dcf6      	bgt.n	80180ca <fatfs_create_path_string+0x46>
 80180dc:	2300      	movs	r3, #0
 80180de:	7013      	strb	r3, [r2, #0]
 80180e0:	2001      	movs	r0, #1
 80180e2:	e002      	b.n	80180ea <fatfs_create_path_string+0x66>
 80180e4:	2000      	movs	r0, #0
 80180e6:	4770      	bx	lr
 80180e8:	2000      	movs	r0, #0
 80180ea:	bcf0      	pop	{r4, r5, r6, r7}
 80180ec:	4770      	bx	lr
 80180ee:	2000      	movs	r0, #0
 80180f0:	e7fb      	b.n	80180ea <fatfs_create_path_string+0x66>

080180f2 <fatfs_find_free_dir_offset>:
 80180f2:	e92d 4ff0 	stmdb	sp!, {r4, r5, r6, r7, r8, r9, sl, fp, lr}
 80180f6:	b087      	sub	sp, #28
 80180f8:	9103      	str	r1, [sp, #12]
 80180fa:	f8dd a040 	ldr.w	sl, [sp, #64]	; 0x40
 80180fe:	4693      	mov	fp, r2
 8018100:	2a00      	cmp	r2, #0
 8018102:	d072      	beq.n	80181ea <fatfs_find_free_dir_offset+0xf8>
 8018104:	4607      	mov	r7, r0
 8018106:	4699      	mov	r9, r3
 8018108:	2300      	movs	r3, #0
 801810a:	9301      	str	r3, [sp, #4]
 801810c:	461d      	mov	r5, r3
 801810e:	9302      	str	r3, [sp, #8]
 8018110:	9b02      	ldr	r3, [sp, #8]
 8018112:	461a      	mov	r2, r3
 8018114:	4698      	mov	r8, r3
 8018116:	3301      	adds	r3, #1
 8018118:	9302      	str	r3, [sp, #8]
 801811a:	2300      	movs	r3, #0
 801811c:	9903      	ldr	r1, [sp, #12]
 801811e:	4638      	mov	r0, r7
 8018120:	f7ff fb2b 	bl	801777a <fatfs_sector_reader>
 8018124:	b3c0      	cbz	r0, 8018198 <fatfs_find_free_dir_offset+0xa6>
 8018126:	2400      	movs	r4, #0
 8018128:	e002      	b.n	8018130 <fatfs_find_free_dir_offset+0x3e>
 801812a:	3501      	adds	r5, #1
 801812c:	3401      	adds	r4, #1
 801812e:	b2e4      	uxtb	r4, r4
 8018130:	2c0f      	cmp	r4, #15
 8018132:	d8ed      	bhi.n	8018110 <fatfs_find_free_dir_offset+0x1e>
 8018134:	0166      	lsls	r6, r4, #5
 8018136:	f107 0040 	add.w	r0, r7, #64	; 0x40
 801813a:	eb00 1044 	add.w	r0, r0, r4, lsl #5
 801813e:	f001 fd9a 	bl	8019c76 <fatfs_entry_lfn_text>
 8018142:	b140      	cbz	r0, 8018156 <fatfs_find_free_dir_offset+0x64>
 8018144:	2d00      	cmp	r5, #0
 8018146:	d1f0      	bne.n	801812a <fatfs_find_free_dir_offset+0x38>
 8018148:	f8c9 8000 	str.w	r8, [r9]
 801814c:	f88a 4000 	strb.w	r4, [sl]
 8018150:	2301      	movs	r3, #1
 8018152:	9301      	str	r3, [sp, #4]
 8018154:	e7e9      	b.n	801812a <fatfs_find_free_dir_offset+0x38>
 8018156:	443e      	add	r6, r7
 8018158:	f896 2040 	ldrb.w	r2, [r6, #64]	; 0x40
 801815c:	2ae5      	cmp	r2, #229	; 0xe5
 801815e:	d00c      	beq.n	801817a <fatfs_find_free_dir_offset+0x88>
 8018160:	b9ba      	cbnz	r2, 8018192 <fatfs_find_free_dir_offset+0xa0>
 8018162:	b92d      	cbnz	r5, 8018170 <fatfs_find_free_dir_offset+0x7e>
 8018164:	f8c9 8000 	str.w	r8, [r9]
 8018168:	f88a 4000 	strb.w	r4, [sl]
 801816c:	2301      	movs	r3, #1
 801816e:	9301      	str	r3, [sp, #4]
 8018170:	3501      	adds	r5, #1
 8018172:	45ab      	cmp	fp, r5
 8018174:	dcda      	bgt.n	801812c <fatfs_find_free_dir_offset+0x3a>
 8018176:	2001      	movs	r0, #1
 8018178:	e038      	b.n	80181ec <fatfs_find_free_dir_offset+0xfa>
 801817a:	b92d      	cbnz	r5, 8018188 <fatfs_find_free_dir_offset+0x96>
 801817c:	f8c9 8000 	str.w	r8, [r9]
 8018180:	f88a 4000 	strb.w	r4, [sl]
 8018184:	2301      	movs	r3, #1
 8018186:	9301      	str	r3, [sp, #4]
 8018188:	3501      	adds	r5, #1
 801818a:	45ab      	cmp	fp, r5
 801818c:	dcce      	bgt.n	801812c <fatfs_find_free_dir_offset+0x3a>
 801818e:	2001      	movs	r0, #1
 8018190:	e02c      	b.n	80181ec <fatfs_find_free_dir_offset+0xfa>
 8018192:	9001      	str	r0, [sp, #4]
 8018194:	4605      	mov	r5, r0
 8018196:	e7c9      	b.n	801812c <fatfs_find_free_dir_offset+0x3a>
 8018198:	aa05      	add	r2, sp, #20
 801819a:	68b9      	ldr	r1, [r7, #8]
 801819c:	4638      	mov	r0, r7
 801819e:	f002 f818 	bl	801a1d2 <fatfs_find_blank_cluster>
 80181a2:	b318      	cbz	r0, 80181ec <fatfs_find_free_dir_offset+0xfa>
 80181a4:	9a05      	ldr	r2, [sp, #20]
 80181a6:	9903      	ldr	r1, [sp, #12]
 80181a8:	4638      	mov	r0, r7
 80181aa:	f002 f8ae 	bl	801a30a <fatfs_fat_add_cluster_to_chain>
 80181ae:	b1e8      	cbz	r0, 80181ec <fatfs_find_free_dir_offset+0xfa>
 80181b0:	f44f 7200 	mov.w	r2, #512	; 0x200
 80181b4:	2100      	movs	r1, #0
 80181b6:	f107 0040 	add.w	r0, r7, #64	; 0x40
 80181ba:	f7fa fb92 	bl	80128e2 <memset>
 80181be:	2400      	movs	r4, #0
 80181c0:	783b      	ldrb	r3, [r7, #0]
 80181c2:	42a3      	cmp	r3, r4
 80181c4:	d909      	bls.n	80181da <fatfs_find_free_dir_offset+0xe8>
 80181c6:	2300      	movs	r3, #0
 80181c8:	4622      	mov	r2, r4
 80181ca:	9905      	ldr	r1, [sp, #20]
 80181cc:	4638      	mov	r0, r7
 80181ce:	f7ff fb47 	bl	8017860 <fatfs_write_sector>
 80181d2:	b158      	cbz	r0, 80181ec <fatfs_find_free_dir_offset+0xfa>
 80181d4:	3401      	adds	r4, #1
 80181d6:	b2e4      	uxtb	r4, r4
 80181d8:	e7f2      	b.n	80181c0 <fatfs_find_free_dir_offset+0xce>
 80181da:	9b01      	ldr	r3, [sp, #4]
 80181dc:	b91b      	cbnz	r3, 80181e6 <fatfs_find_free_dir_offset+0xf4>
 80181de:	f8c9 8000 	str.w	r8, [r9]
 80181e2:	f88a 3000 	strb.w	r3, [sl]
 80181e6:	2001      	movs	r0, #1
 80181e8:	e000      	b.n	80181ec <fatfs_find_free_dir_offset+0xfa>
 80181ea:	4610      	mov	r0, r2
 80181ec:	b007      	add	sp, #28
 80181ee:	e8bd 8ff0 	ldmia.w	sp!, {r4, r5, r6, r7, r8, r9, sl, fp, pc}

080181f2 <fatfs_add_free_space>:
 80181f2:	e92d 41f0 	stmdb	sp!, {r4, r5, r6, r7, r8, lr}
 80181f6:	b082      	sub	sp, #8
 80181f8:	4604      	mov	r4, r0
 80181fa:	4688      	mov	r8, r1
 80181fc:	4617      	mov	r7, r2
 80181fe:	680e      	ldr	r6, [r1, #0]
 8018200:	6a43      	ldr	r3, [r0, #36]	; 0x24
 8018202:	f1b3 3fff 	cmp.w	r3, #4294967295	; 0xffffffff
 8018206:	d101      	bne.n	801820c <fatfs_add_free_space+0x1a>
 8018208:	2500      	movs	r5, #0
 801820a:	e007      	b.n	801821c <fatfs_add_free_space+0x2a>
 801820c:	f04f 31ff 	mov.w	r1, #4294967295	; 0xffffffff
 8018210:	f001 ffa9 	bl	801a166 <fatfs_set_fs_info_next_free_cluster>
 8018214:	e7f8      	b.n	8018208 <fatfs_add_free_space+0x16>
 8018216:	f8c8 6000 	str.w	r6, [r8]
 801821a:	3501      	adds	r5, #1
 801821c:	42bd      	cmp	r5, r7
 801821e:	d215      	bcs.n	801824c <fatfs_add_free_space+0x5a>
 8018220:	aa01      	add	r2, sp, #4
 8018222:	68a1      	ldr	r1, [r4, #8]
 8018224:	4620      	mov	r0, r4
 8018226:	f001 ffd4 	bl	801a1d2 <fatfs_find_blank_cluster>
 801822a:	4603      	mov	r3, r0
 801822c:	b178      	cbz	r0, 801824e <fatfs_add_free_space+0x5c>
 801822e:	9a01      	ldr	r2, [sp, #4]
 8018230:	4631      	mov	r1, r6
 8018232:	4620      	mov	r0, r4
 8018234:	f002 f811 	bl	801a25a <fatfs_fat_set_cluster>
 8018238:	f04f 32ff 	mov.w	r2, #4294967295	; 0xffffffff
 801823c:	9901      	ldr	r1, [sp, #4]
 801823e:	4620      	mov	r0, r4
 8018240:	f002 f80b 	bl	801a25a <fatfs_fat_set_cluster>
 8018244:	9e01      	ldr	r6, [sp, #4]
 8018246:	2d00      	cmp	r5, #0
 8018248:	d1e7      	bne.n	801821a <fatfs_add_free_space+0x28>
 801824a:	e7e4      	b.n	8018216 <fatfs_add_free_space+0x24>
 801824c:	2301      	movs	r3, #1
 801824e:	4618      	mov	r0, r3
 8018250:	b002      	add	sp, #8
 8018252:	e8bd 81f0 	ldmia.w	sp!, {r4, r5, r6, r7, r8, pc}

08018256 <fatfs_allocate_free_space>:
 8018256:	2b00      	cmp	r3, #0
 8018258:	d03a      	beq.n	80182d0 <fatfs_allocate_free_space+0x7a>
 801825a:	e92d 41f0 	stmdb	sp!, {r4, r5, r6, r7, r8, lr}
 801825e:	b082      	sub	sp, #8
 8018260:	4604      	mov	r4, r0
 8018262:	460d      	mov	r5, r1
 8018264:	4616      	mov	r6, r2
 8018266:	461f      	mov	r7, r3
 8018268:	6a43      	ldr	r3, [r0, #36]	; 0x24
 801826a:	f1b3 3fff 	cmp.w	r3, #4294967295	; 0xffffffff
 801826e:	d116      	bne.n	801829e <fatfs_allocate_free_space+0x48>
 8018270:	7823      	ldrb	r3, [r4, #0]
 8018272:	025b      	lsls	r3, r3, #9
 8018274:	fbb7 f8f3 	udiv	r8, r7, r3
 8018278:	fb08 f303 	mul.w	r3, r8, r3
 801827c:	42bb      	cmp	r3, r7
 801827e:	d001      	beq.n	8018284 <fatfs_allocate_free_space+0x2e>
 8018280:	f108 0801 	add.w	r8, r8, #1
 8018284:	b985      	cbnz	r5, 80182a8 <fatfs_allocate_free_space+0x52>
 8018286:	6833      	ldr	r3, [r6, #0]
 8018288:	9301      	str	r3, [sp, #4]
 801828a:	4642      	mov	r2, r8
 801828c:	a901      	add	r1, sp, #4
 801828e:	4620      	mov	r0, r4
 8018290:	f7ff ffaf 	bl	80181f2 <fatfs_add_free_space>
 8018294:	b100      	cbz	r0, 8018298 <fatfs_allocate_free_space+0x42>
 8018296:	2001      	movs	r0, #1
 8018298:	b002      	add	sp, #8
 801829a:	e8bd 81f0 	ldmia.w	sp!, {r4, r5, r6, r7, r8, pc}
 801829e:	f04f 31ff 	mov.w	r1, #4294967295	; 0xffffffff
 80182a2:	f001 ff60 	bl	801a166 <fatfs_set_fs_info_next_free_cluster>
 80182a6:	e7e3      	b.n	8018270 <fatfs_allocate_free_space+0x1a>
 80182a8:	aa01      	add	r2, sp, #4
 80182aa:	68a1      	ldr	r1, [r4, #8]
 80182ac:	4620      	mov	r0, r4
 80182ae:	f001 ff90 	bl	801a1d2 <fatfs_find_blank_cluster>
 80182b2:	2800      	cmp	r0, #0
 80182b4:	d0f0      	beq.n	8018298 <fatfs_allocate_free_space+0x42>
 80182b6:	f1b8 0f01 	cmp.w	r8, #1
 80182ba:	d1e6      	bne.n	801828a <fatfs_allocate_free_space+0x34>
 80182bc:	f04f 32ff 	mov.w	r2, #4294967295	; 0xffffffff
 80182c0:	9901      	ldr	r1, [sp, #4]
 80182c2:	4620      	mov	r0, r4
 80182c4:	f001 ffc9 	bl	801a25a <fatfs_fat_set_cluster>
 80182c8:	9b01      	ldr	r3, [sp, #4]
 80182ca:	6033      	str	r3, [r6, #0]
 80182cc:	2001      	movs	r0, #1
 80182ce:	e7e3      	b.n	8018298 <fatfs_allocate_free_space+0x42>
 80182d0:	2000      	movs	r0, #0
 80182d2:	4770      	bx	lr

080182d4 <fatfs_add_file_entry>:
 80182d4:	e92d 4ff0 	stmdb	sp!, {r4, r5, r6, r7, r8, r9, sl, fp, lr}
 80182d8:	b091      	sub	sp, #68	; 0x44
 80182da:	9102      	str	r1, [sp, #8]
 80182dc:	9203      	str	r2, [sp, #12]
 80182de:	461d      	mov	r5, r3
 80182e0:	9304      	str	r3, [sp, #16]
 80182e2:	2300      	movs	r3, #0
 80182e4:	9307      	str	r3, [sp, #28]
 80182e6:	f88d 301b 	strb.w	r3, [sp, #27]
 80182ea:	6b43      	ldr	r3, [r0, #52]	; 0x34
 80182ec:	2b00      	cmp	r3, #0
 80182ee:	f000 808a 	beq.w	8018406 <fatfs_add_file_entry+0x132>
 80182f2:	4682      	mov	sl, r0
 80182f4:	460c      	mov	r4, r1
 80182f6:	4610      	mov	r0, r2
 80182f8:	f001 fd1f 	bl	8019d3a <fatfs_lfn_entries_required>
 80182fc:	4607      	mov	r7, r0
 80182fe:	b918      	cbnz	r0, 8018308 <fatfs_add_file_entry+0x34>
 8018300:	4638      	mov	r0, r7
 8018302:	b011      	add	sp, #68	; 0x44
 8018304:	e8bd 8ff0 	ldmia.w	sp!, {r4, r5, r6, r7, r8, r9, sl, fp, pc}
 8018308:	f10d 031b 	add.w	r3, sp, #27
 801830c:	9300      	str	r3, [sp, #0]
 801830e:	ab07      	add	r3, sp, #28
 8018310:	1c42      	adds	r2, r0, #1
 8018312:	4621      	mov	r1, r4
 8018314:	4650      	mov	r0, sl
 8018316:	f7ff feec 	bl	80180f2 <fatfs_find_free_dir_offset>
 801831a:	2800      	cmp	r0, #0
 801831c:	d075      	beq.n	801840a <fatfs_add_file_entry+0x136>
 801831e:	462b      	mov	r3, r5
 8018320:	2600      	movs	r6, #0
 8018322:	f04f 090b 	mov.w	r9, #11
 8018326:	464a      	mov	r2, r9
 8018328:	4631      	mov	r1, r6
 801832a:	e009      	b.n	8018340 <fatfs_add_file_entry+0x6c>
 801832c:	084e      	lsrs	r6, r1, #1
 801832e:	eb06 16c1 	add.w	r6, r6, r1, lsl #7
 8018332:	f813 1b01 	ldrb.w	r1, [r3], #1
 8018336:	fa51 f686 	uxtab	r6, r1, r6
 801833a:	b2f1      	uxtb	r1, r6
 801833c:	3a01      	subs	r2, #1
 801833e:	b2d2      	uxtb	r2, r2
 8018340:	2a00      	cmp	r2, #0
 8018342:	d1f3      	bne.n	801832c <fatfs_add_file_entry+0x58>
 8018344:	f8dd b01c 	ldr.w	fp, [sp, #28]
 8018348:	f04f 0800 	mov.w	r8, #0
 801834c:	4643      	mov	r3, r8
 801834e:	9205      	str	r2, [sp, #20]
 8018350:	4645      	mov	r5, r8
 8018352:	4688      	mov	r8, r1
 8018354:	461e      	mov	r6, r3
 8018356:	f8dd 900c 	ldr.w	r9, [sp, #12]
 801835a:	e045      	b.n	80183e8 <fatfs_add_file_entry+0x114>
 801835c:	4607      	mov	r7, r0
 801835e:	e7cf      	b.n	8018300 <fatfs_add_file_entry+0x2c>
 8018360:	b14d      	cbz	r5, 8018376 <fatfs_add_file_entry+0xa2>
 8018362:	b1cf      	cbz	r7, 8018398 <fatfs_add_file_entry+0xc4>
 8018364:	3f01      	subs	r7, #1
 8018366:	3140      	adds	r1, #64	; 0x40
 8018368:	4643      	mov	r3, r8
 801836a:	463a      	mov	r2, r7
 801836c:	4451      	add	r1, sl
 801836e:	4648      	mov	r0, r9
 8018370:	f001 fcf4 	bl	8019d5c <fatfs_filename_to_lfn>
 8018374:	2601      	movs	r6, #1
 8018376:	3401      	adds	r4, #1
 8018378:	b2e4      	uxtb	r4, r4
 801837a:	2c0f      	cmp	r4, #15
 801837c:	d827      	bhi.n	80183ce <fatfs_add_file_entry+0xfa>
 801837e:	0161      	lsls	r1, r4, #5
 8018380:	b289      	uxth	r1, r1
 8018382:	2d00      	cmp	r5, #0
 8018384:	d1ec      	bne.n	8018360 <fatfs_add_file_entry+0x8c>
 8018386:	9b07      	ldr	r3, [sp, #28]
 8018388:	455b      	cmp	r3, fp
 801838a:	d1e9      	bne.n	8018360 <fatfs_add_file_entry+0x8c>
 801838c:	f89d 301b 	ldrb.w	r3, [sp, #27]
 8018390:	42a3      	cmp	r3, r4
 8018392:	d1e5      	bne.n	8018360 <fatfs_add_file_entry+0x8c>
 8018394:	2501      	movs	r5, #1
 8018396:	e7e4      	b.n	8018362 <fatfs_add_file_entry+0x8e>
 8018398:	460d      	mov	r5, r1
 801839a:	9b1c      	ldr	r3, [sp, #112]	; 0x70
 801839c:	9300      	str	r3, [sp, #0]
 801839e:	ab08      	add	r3, sp, #32
 80183a0:	9a1a      	ldr	r2, [sp, #104]	; 0x68
 80183a2:	991b      	ldr	r1, [sp, #108]	; 0x6c
 80183a4:	9804      	ldr	r0, [sp, #16]
 80183a6:	f001 fd37 	bl	8019e18 <fatfs_sfn_create_entry>
 80183aa:	f105 0040 	add.w	r0, r5, #64	; 0x40
 80183ae:	2220      	movs	r2, #32
 80183b0:	eb0d 0102 	add.w	r1, sp, r2
 80183b4:	4450      	add	r0, sl
 80183b6:	f7fa fa9b 	bl	80128f0 <memcpy>
 80183ba:	f8da 3034 	ldr.w	r3, [sl, #52]	; 0x34
 80183be:	2201      	movs	r2, #1
 80183c0:	f10a 0140 	add.w	r1, sl, #64	; 0x40
 80183c4:	f8da 0240 	ldr.w	r0, [sl, #576]	; 0x240
 80183c8:	4798      	blx	r3
 80183ca:	4607      	mov	r7, r0
 80183cc:	e798      	b.n	8018300 <fatfs_add_file_entry+0x2c>
 80183ce:	b14e      	cbz	r6, 80183e4 <fatfs_add_file_entry+0x110>
 80183d0:	f8da 3034 	ldr.w	r3, [sl, #52]	; 0x34
 80183d4:	2201      	movs	r2, #1
 80183d6:	f10a 0140 	add.w	r1, sl, #64	; 0x40
 80183da:	f8da 0240 	ldr.w	r0, [sl, #576]	; 0x240
 80183de:	4798      	blx	r3
 80183e0:	b178      	cbz	r0, 8018402 <fatfs_add_file_entry+0x12e>
 80183e2:	2600      	movs	r6, #0
 80183e4:	f8dd b00c 	ldr.w	fp, [sp, #12]
 80183e8:	f10b 0301 	add.w	r3, fp, #1
 80183ec:	9303      	str	r3, [sp, #12]
 80183ee:	2300      	movs	r3, #0
 80183f0:	465a      	mov	r2, fp
 80183f2:	9902      	ldr	r1, [sp, #8]
 80183f4:	4650      	mov	r0, sl
 80183f6:	f7ff f9c0 	bl	801777a <fatfs_sector_reader>
 80183fa:	2800      	cmp	r0, #0
 80183fc:	d0ae      	beq.n	801835c <fatfs_add_file_entry+0x88>
 80183fe:	9c05      	ldr	r4, [sp, #20]
 8018400:	e7bb      	b.n	801837a <fatfs_add_file_entry+0xa6>
 8018402:	4607      	mov	r7, r0
 8018404:	e77c      	b.n	8018300 <fatfs_add_file_entry+0x2c>
 8018406:	2700      	movs	r7, #0
 8018408:	e77a      	b.n	8018300 <fatfs_add_file_entry+0x2c>
 801840a:	4607      	mov	r7, r0
 801840c:	e778      	b.n	8018300 <fatfs_add_file_entry+0x2c>
	...

08018410 <fatfs_calc_cluster_size>:
 8018410:	b410      	push	{r4}
 8018412:	4604      	mov	r4, r0
 8018414:	460a      	mov	r2, r1
 8018416:	b171      	cbz	r1, 8018436 <fatfs_calc_cluster_size+0x26>
 8018418:	2200      	movs	r2, #0
 801841a:	4b0e      	ldr	r3, [pc, #56]	; (8018454 <fatfs_calc_cluster_size+0x44>)
 801841c:	eb03 03c2 	add.w	r3, r3, r2, lsl #3
 8018420:	f893 0044 	ldrb.w	r0, [r3, #68]	; 0x44
 8018424:	b198      	cbz	r0, 801844e <fatfs_calc_cluster_size+0x3e>
 8018426:	4b0b      	ldr	r3, [pc, #44]	; (8018454 <fatfs_calc_cluster_size+0x44>)
 8018428:	eb03 03c2 	add.w	r3, r3, r2, lsl #3
 801842c:	6c1b      	ldr	r3, [r3, #64]	; 0x40
 801842e:	42a3      	cmp	r3, r4
 8018430:	d20d      	bcs.n	801844e <fatfs_calc_cluster_size+0x3e>
 8018432:	3201      	adds	r2, #1
 8018434:	e7f1      	b.n	801841a <fatfs_calc_cluster_size+0xa>
 8018436:	4b07      	ldr	r3, [pc, #28]	; (8018454 <fatfs_calc_cluster_size+0x44>)
 8018438:	eb03 03c2 	add.w	r3, r3, r2, lsl #3
 801843c:	7918      	ldrb	r0, [r3, #4]
 801843e:	b130      	cbz	r0, 801844e <fatfs_calc_cluster_size+0x3e>
 8018440:	4b04      	ldr	r3, [pc, #16]	; (8018454 <fatfs_calc_cluster_size+0x44>)
 8018442:	f853 3032 	ldr.w	r3, [r3, r2, lsl #3]
 8018446:	42a3      	cmp	r3, r4
 8018448:	d201      	bcs.n	801844e <fatfs_calc_cluster_size+0x3e>
 801844a:	3201      	adds	r2, #1
 801844c:	e7f3      	b.n	8018436 <fatfs_calc_cluster_size+0x26>
 801844e:	f85d 4b04 	ldr.w	r4, [sp], #4
 8018452:	4770      	bx	lr
 8018454:	2000031c 	.word	0x2000031c

08018458 <fatfs_erase_fat>:
 8018458:	b570      	push	{r4, r5, r6, lr}
 801845a:	4604      	mov	r4, r0
 801845c:	460d      	mov	r5, r1
 801845e:	f100 0640 	add.w	r6, r0, #64	; 0x40
 8018462:	f44f 7200 	mov.w	r2, #512	; 0x200
 8018466:	2100      	movs	r1, #0
 8018468:	4630      	mov	r0, r6
 801846a:	f7fa fa3a 	bl	80128e2 <memset>
 801846e:	b995      	cbnz	r5, 8018496 <fatfs_erase_fat+0x3e>
 8018470:	23f8      	movs	r3, #248	; 0xf8
 8018472:	f884 3040 	strb.w	r3, [r4, #64]	; 0x40
 8018476:	23ff      	movs	r3, #255	; 0xff
 8018478:	f884 3041 	strb.w	r3, [r4, #65]	; 0x41
 801847c:	f884 3042 	strb.w	r3, [r4, #66]	; 0x42
 8018480:	f884 3043 	strb.w	r3, [r4, #67]	; 0x43
 8018484:	6b63      	ldr	r3, [r4, #52]	; 0x34
 8018486:	2201      	movs	r2, #1
 8018488:	4631      	mov	r1, r6
 801848a:	6960      	ldr	r0, [r4, #20]
 801848c:	4798      	blx	r3
 801848e:	4603      	mov	r3, r0
 8018490:	b9e8      	cbnz	r0, 80184ce <fatfs_erase_fat+0x76>
 8018492:	4618      	mov	r0, r3
 8018494:	bd70      	pop	{r4, r5, r6, pc}
 8018496:	23f8      	movs	r3, #248	; 0xf8
 8018498:	f884 3040 	strb.w	r3, [r4, #64]	; 0x40
 801849c:	23ff      	movs	r3, #255	; 0xff
 801849e:	f884 3041 	strb.w	r3, [r4, #65]	; 0x41
 80184a2:	f884 3042 	strb.w	r3, [r4, #66]	; 0x42
 80184a6:	220f      	movs	r2, #15
 80184a8:	f884 2043 	strb.w	r2, [r4, #67]	; 0x43
 80184ac:	f884 3044 	strb.w	r3, [r4, #68]	; 0x44
 80184b0:	f884 3045 	strb.w	r3, [r4, #69]	; 0x45
 80184b4:	f884 3046 	strb.w	r3, [r4, #70]	; 0x46
 80184b8:	f884 3047 	strb.w	r3, [r4, #71]	; 0x47
 80184bc:	f884 3048 	strb.w	r3, [r4, #72]	; 0x48
 80184c0:	f884 3049 	strb.w	r3, [r4, #73]	; 0x49
 80184c4:	f884 304a 	strb.w	r3, [r4, #74]	; 0x4a
 80184c8:	f884 204b 	strb.w	r2, [r4, #75]	; 0x4b
 80184cc:	e7da      	b.n	8018484 <fatfs_erase_fat+0x2c>
 80184ce:	f44f 7200 	mov.w	r2, #512	; 0x200
 80184d2:	2100      	movs	r1, #0
 80184d4:	4630      	mov	r0, r6
 80184d6:	f7fa fa04 	bl	80128e2 <memset>
 80184da:	2501      	movs	r5, #1
 80184dc:	e000      	b.n	80184e0 <fatfs_erase_fat+0x88>
 80184de:	3501      	adds	r5, #1
 80184e0:	6a22      	ldr	r2, [r4, #32]
 80184e2:	f894 302c 	ldrb.w	r3, [r4, #44]	; 0x2c
 80184e6:	fb03 f302 	mul.w	r3, r3, r2
 80184ea:	42ab      	cmp	r3, r5
 80184ec:	d909      	bls.n	8018502 <fatfs_erase_fat+0xaa>
 80184ee:	6b63      	ldr	r3, [r4, #52]	; 0x34
 80184f0:	6960      	ldr	r0, [r4, #20]
 80184f2:	2201      	movs	r2, #1
 80184f4:	4631      	mov	r1, r6
 80184f6:	4428      	add	r0, r5
 80184f8:	4798      	blx	r3
 80184fa:	4603      	mov	r3, r0
 80184fc:	2800      	cmp	r0, #0
 80184fe:	d1ee      	bne.n	80184de <fatfs_erase_fat+0x86>
 8018500:	e7c7      	b.n	8018492 <fatfs_erase_fat+0x3a>
 8018502:	2301      	movs	r3, #1
 8018504:	e7c5      	b.n	8018492 <fatfs_erase_fat+0x3a>

08018506 <fatfs_erase_sectors>:
 8018506:	e92d 41f0 	stmdb	sp!, {r4, r5, r6, r7, r8, lr}
 801850a:	4605      	mov	r5, r0
 801850c:	460f      	mov	r7, r1
 801850e:	4616      	mov	r6, r2
 8018510:	f100 0840 	add.w	r8, r0, #64	; 0x40
 8018514:	f44f 7200 	mov.w	r2, #512	; 0x200
 8018518:	2100      	movs	r1, #0
 801851a:	4640      	mov	r0, r8
 801851c:	f7fa f9e1 	bl	80128e2 <memset>
 8018520:	2400      	movs	r4, #0
 8018522:	42b4      	cmp	r4, r6
 8018524:	da08      	bge.n	8018538 <fatfs_erase_sectors+0x32>
 8018526:	6b6b      	ldr	r3, [r5, #52]	; 0x34
 8018528:	2201      	movs	r2, #1
 801852a:	4641      	mov	r1, r8
 801852c:	19e0      	adds	r0, r4, r7
 801852e:	4798      	blx	r3
 8018530:	4603      	mov	r3, r0
 8018532:	b110      	cbz	r0, 801853a <fatfs_erase_sectors+0x34>
 8018534:	3401      	adds	r4, #1
 8018536:	e7f4      	b.n	8018522 <fatfs_erase_sectors+0x1c>
 8018538:	2301      	movs	r3, #1
 801853a:	4618      	mov	r0, r3
 801853c:	e8bd 81f0 	ldmia.w	sp!, {r4, r5, r6, r7, r8, pc}

08018540 <fatfs_create_fsinfo_sector>:
 8018540:	b570      	push	{r4, r5, r6, lr}
 8018542:	4604      	mov	r4, r0
 8018544:	460d      	mov	r5, r1
 8018546:	f100 0640 	add.w	r6, r0, #64	; 0x40
 801854a:	f44f 7200 	mov.w	r2, #512	; 0x200
 801854e:	2100      	movs	r1, #0
 8018550:	4630      	mov	r0, r6
 8018552:	f7fa f9c6 	bl	80128e2 <memset>
 8018556:	2352      	movs	r3, #82	; 0x52
 8018558:	f884 3040 	strb.w	r3, [r4, #64]	; 0x40
 801855c:	f884 3041 	strb.w	r3, [r4, #65]	; 0x41
 8018560:	2361      	movs	r3, #97	; 0x61
 8018562:	f884 3042 	strb.w	r3, [r4, #66]	; 0x42
 8018566:	2241      	movs	r2, #65	; 0x41
 8018568:	f884 2043 	strb.w	r2, [r4, #67]	; 0x43
 801856c:	2172      	movs	r1, #114	; 0x72
 801856e:	f884 1224 	strb.w	r1, [r4, #548]	; 0x224
 8018572:	f884 1225 	strb.w	r1, [r4, #549]	; 0x225
 8018576:	f884 2226 	strb.w	r2, [r4, #550]	; 0x226
 801857a:	f884 3227 	strb.w	r3, [r4, #551]	; 0x227
 801857e:	23ff      	movs	r3, #255	; 0xff
 8018580:	f884 3228 	strb.w	r3, [r4, #552]	; 0x228
 8018584:	f884 3229 	strb.w	r3, [r4, #553]	; 0x229
 8018588:	f884 322a 	strb.w	r3, [r4, #554]	; 0x22a
 801858c:	f884 322b 	strb.w	r3, [r4, #555]	; 0x22b
 8018590:	f884 322c 	strb.w	r3, [r4, #556]	; 0x22c
 8018594:	f884 322d 	strb.w	r3, [r4, #557]	; 0x22d
 8018598:	f884 322e 	strb.w	r3, [r4, #558]	; 0x22e
 801859c:	f884 322f 	strb.w	r3, [r4, #559]	; 0x22f
 80185a0:	2355      	movs	r3, #85	; 0x55
 80185a2:	f884 323e 	strb.w	r3, [r4, #574]	; 0x23e
 80185a6:	23aa      	movs	r3, #170	; 0xaa
 80185a8:	f884 323f 	strb.w	r3, [r4, #575]	; 0x23f
 80185ac:	6b63      	ldr	r3, [r4, #52]	; 0x34
 80185ae:	2201      	movs	r2, #1
 80185b0:	4631      	mov	r1, r6
 80185b2:	4628      	mov	r0, r5
 80185b4:	4798      	blx	r3
 80185b6:	b100      	cbz	r0, 80185ba <fatfs_create_fsinfo_sector+0x7a>
 80185b8:	2001      	movs	r0, #1
 80185ba:	bd70      	pop	{r4, r5, r6, pc}

080185bc <fatfs_create_boot_sector>:
 80185bc:	e92d 43f8 	stmdb	sp!, {r3, r4, r5, r6, r7, r8, r9, lr}
 80185c0:	4604      	mov	r4, r0
 80185c2:	4688      	mov	r8, r1
 80185c4:	4617      	mov	r7, r2
 80185c6:	461e      	mov	r6, r3
 80185c8:	9d08      	ldr	r5, [sp, #32]
 80185ca:	f100 0940 	add.w	r9, r0, #64	; 0x40
 80185ce:	f44f 7200 	mov.w	r2, #512	; 0x200
 80185d2:	2100      	movs	r1, #0
 80185d4:	4648      	mov	r0, r9
 80185d6:	f7fa f984 	bl	80128e2 <memset>
 80185da:	23eb      	movs	r3, #235	; 0xeb
 80185dc:	f884 3040 	strb.w	r3, [r4, #64]	; 0x40
 80185e0:	233c      	movs	r3, #60	; 0x3c
 80185e2:	f884 3041 	strb.w	r3, [r4, #65]	; 0x41
 80185e6:	2390      	movs	r3, #144	; 0x90
 80185e8:	f884 3042 	strb.w	r3, [r4, #66]	; 0x42
 80185ec:	234d      	movs	r3, #77	; 0x4d
 80185ee:	f884 3043 	strb.w	r3, [r4, #67]	; 0x43
 80185f2:	2353      	movs	r3, #83	; 0x53
 80185f4:	f884 3044 	strb.w	r3, [r4, #68]	; 0x44
 80185f8:	2244      	movs	r2, #68	; 0x44
 80185fa:	f884 2045 	strb.w	r2, [r4, #69]	; 0x45
 80185fe:	224f      	movs	r2, #79	; 0x4f
 8018600:	f884 2046 	strb.w	r2, [r4, #70]	; 0x46
 8018604:	f884 3047 	strb.w	r3, [r4, #71]	; 0x47
 8018608:	2335      	movs	r3, #53	; 0x35
 801860a:	f884 3048 	strb.w	r3, [r4, #72]	; 0x48
 801860e:	232e      	movs	r3, #46	; 0x2e
 8018610:	f884 3049 	strb.w	r3, [r4, #73]	; 0x49
 8018614:	2330      	movs	r3, #48	; 0x30
 8018616:	f884 304a 	strb.w	r3, [r4, #74]	; 0x4a
 801861a:	2300      	movs	r3, #0
 801861c:	f884 304b 	strb.w	r3, [r4, #75]	; 0x4b
 8018620:	2302      	movs	r3, #2
 8018622:	f884 304c 	strb.w	r3, [r4, #76]	; 0x4c
 8018626:	4629      	mov	r1, r5
 8018628:	4638      	mov	r0, r7
 801862a:	f7ff fef1 	bl	8018410 <fatfs_calc_cluster_size>
 801862e:	7020      	strb	r0, [r4, #0]
 8018630:	2800      	cmp	r0, #0
 8018632:	f000 8147 	beq.w	80188c4 <fatfs_create_boot_sector+0x308>
 8018636:	f884 004d 	strb.w	r0, [r4, #77]	; 0x4d
 801863a:	2d00      	cmp	r5, #0
 801863c:	d161      	bne.n	8018702 <fatfs_create_boot_sector+0x146>
 801863e:	2308      	movs	r3, #8
 8018640:	8563      	strh	r3, [r4, #42]	; 0x2a
 8018642:	8d63      	ldrh	r3, [r4, #42]	; 0x2a
 8018644:	f884 304e 	strb.w	r3, [r4, #78]	; 0x4e
 8018648:	0a1b      	lsrs	r3, r3, #8
 801864a:	f884 304f 	strb.w	r3, [r4, #79]	; 0x4f
 801864e:	2302      	movs	r3, #2
 8018650:	f884 302c 	strb.w	r3, [r4, #44]	; 0x2c
 8018654:	f884 3050 	strb.w	r3, [r4, #80]	; 0x50
 8018658:	2d00      	cmp	r5, #0
 801865a:	d155      	bne.n	8018708 <fatfs_create_boot_sector+0x14c>
 801865c:	f44f 7300 	mov.w	r3, #512	; 0x200
 8018660:	8523      	strh	r3, [r4, #40]	; 0x28
 8018662:	2300      	movs	r3, #0
 8018664:	f884 3051 	strb.w	r3, [r4, #81]	; 0x51
 8018668:	2302      	movs	r3, #2
 801866a:	f884 3052 	strb.w	r3, [r4, #82]	; 0x52
 801866e:	2300      	movs	r3, #0
 8018670:	f884 3053 	strb.w	r3, [r4, #83]	; 0x53
 8018674:	f884 3054 	strb.w	r3, [r4, #84]	; 0x54
 8018678:	23f8      	movs	r3, #248	; 0xf8
 801867a:	f884 3055 	strb.w	r3, [r4, #85]	; 0x55
 801867e:	2d00      	cmp	r5, #0
 8018680:	f040 8084 	bne.w	801878c <fatfs_create_boot_sector+0x1d0>
 8018684:	fbb7 f3f0 	udiv	r3, r7, r0
 8018688:	3301      	adds	r3, #1
 801868a:	0a1b      	lsrs	r3, r3, #8
 801868c:	3301      	adds	r3, #1
 801868e:	6223      	str	r3, [r4, #32]
 8018690:	f884 3056 	strb.w	r3, [r4, #86]	; 0x56
 8018694:	f3c3 2307 	ubfx	r3, r3, #8, #8
 8018698:	f884 3057 	strb.w	r3, [r4, #87]	; 0x57
 801869c:	2300      	movs	r3, #0
 801869e:	f884 3058 	strb.w	r3, [r4, #88]	; 0x58
 80186a2:	f884 3059 	strb.w	r3, [r4, #89]	; 0x59
 80186a6:	f884 305a 	strb.w	r3, [r4, #90]	; 0x5a
 80186aa:	f884 305b 	strb.w	r3, [r4, #91]	; 0x5b
 80186ae:	2220      	movs	r2, #32
 80186b0:	f884 205c 	strb.w	r2, [r4, #92]	; 0x5c
 80186b4:	f884 305d 	strb.w	r3, [r4, #93]	; 0x5d
 80186b8:	f884 305e 	strb.w	r3, [r4, #94]	; 0x5e
 80186bc:	f884 305f 	strb.w	r3, [r4, #95]	; 0x5f
 80186c0:	f884 7060 	strb.w	r7, [r4, #96]	; 0x60
 80186c4:	f3c7 2207 	ubfx	r2, r7, #8, #8
 80186c8:	f884 2061 	strb.w	r2, [r4, #97]	; 0x61
 80186cc:	f3c7 4207 	ubfx	r2, r7, #16, #8
 80186d0:	f884 2062 	strb.w	r2, [r4, #98]	; 0x62
 80186d4:	0e3f      	lsrs	r7, r7, #24
 80186d6:	f884 7063 	strb.w	r7, [r4, #99]	; 0x63
 80186da:	f884 3064 	strb.w	r3, [r4, #100]	; 0x64
 80186de:	f884 3065 	strb.w	r3, [r4, #101]	; 0x65
 80186e2:	2329      	movs	r3, #41	; 0x29
 80186e4:	f884 3066 	strb.w	r3, [r4, #102]	; 0x66
 80186e8:	2312      	movs	r3, #18
 80186ea:	f884 3067 	strb.w	r3, [r4, #103]	; 0x67
 80186ee:	2334      	movs	r3, #52	; 0x34
 80186f0:	f884 3068 	strb.w	r3, [r4, #104]	; 0x68
 80186f4:	2356      	movs	r3, #86	; 0x56
 80186f6:	f884 3069 	strb.w	r3, [r4, #105]	; 0x69
 80186fa:	2378      	movs	r3, #120	; 0x78
 80186fc:	f884 306a 	strb.w	r3, [r4, #106]	; 0x6a
 8018700:	e010      	b.n	8018724 <fatfs_create_boot_sector+0x168>
 8018702:	2320      	movs	r3, #32
 8018704:	8563      	strh	r3, [r4, #42]	; 0x2a
 8018706:	e79c      	b.n	8018642 <fatfs_create_boot_sector+0x86>
 8018708:	2300      	movs	r3, #0
 801870a:	8523      	strh	r3, [r4, #40]	; 0x28
 801870c:	f884 3051 	strb.w	r3, [r4, #81]	; 0x51
 8018710:	f884 3052 	strb.w	r3, [r4, #82]	; 0x52
 8018714:	e7ab      	b.n	801866e <fatfs_create_boot_sector+0xb2>
 8018716:	f105 032b 	add.w	r3, r5, #43	; 0x2b
 801871a:	4423      	add	r3, r4
 801871c:	2220      	movs	r2, #32
 801871e:	f883 2040 	strb.w	r2, [r3, #64]	; 0x40
 8018722:	3501      	adds	r5, #1
 8018724:	2d0a      	cmp	r5, #10
 8018726:	dc0b      	bgt.n	8018740 <fatfs_create_boot_sector+0x184>
 8018728:	4630      	mov	r0, r6
 801872a:	f7fa f90b 	bl	8012944 <strlen>
 801872e:	42a8      	cmp	r0, r5
 8018730:	ddf1      	ble.n	8018716 <fatfs_create_boot_sector+0x15a>
 8018732:	f105 032b 	add.w	r3, r5, #43	; 0x2b
 8018736:	5d72      	ldrb	r2, [r6, r5]
 8018738:	4423      	add	r3, r4
 801873a:	f883 2040 	strb.w	r2, [r3, #64]	; 0x40
 801873e:	e7f0      	b.n	8018722 <fatfs_create_boot_sector+0x166>
 8018740:	2346      	movs	r3, #70	; 0x46
 8018742:	f884 3076 	strb.w	r3, [r4, #118]	; 0x76
 8018746:	2341      	movs	r3, #65	; 0x41
 8018748:	f884 3077 	strb.w	r3, [r4, #119]	; 0x77
 801874c:	2354      	movs	r3, #84	; 0x54
 801874e:	f884 3078 	strb.w	r3, [r4, #120]	; 0x78
 8018752:	2331      	movs	r3, #49	; 0x31
 8018754:	f884 3079 	strb.w	r3, [r4, #121]	; 0x79
 8018758:	2336      	movs	r3, #54	; 0x36
 801875a:	f884 307a 	strb.w	r3, [r4, #122]	; 0x7a
 801875e:	2320      	movs	r3, #32
 8018760:	f884 307b 	strb.w	r3, [r4, #123]	; 0x7b
 8018764:	f884 307c 	strb.w	r3, [r4, #124]	; 0x7c
 8018768:	f884 307d 	strb.w	r3, [r4, #125]	; 0x7d
 801876c:	2355      	movs	r3, #85	; 0x55
 801876e:	f884 323e 	strb.w	r3, [r4, #574]	; 0x23e
 8018772:	23aa      	movs	r3, #170	; 0xaa
 8018774:	f884 323f 	strb.w	r3, [r4, #575]	; 0x23f
 8018778:	6b63      	ldr	r3, [r4, #52]	; 0x34
 801877a:	2201      	movs	r2, #1
 801877c:	4649      	mov	r1, r9
 801877e:	4640      	mov	r0, r8
 8018780:	4798      	blx	r3
 8018782:	2800      	cmp	r0, #0
 8018784:	f000 809f 	beq.w	80188c6 <fatfs_create_boot_sector+0x30a>
 8018788:	2001      	movs	r0, #1
 801878a:	e09c      	b.n	80188c6 <fatfs_create_boot_sector+0x30a>
 801878c:	2500      	movs	r5, #0
 801878e:	f884 5056 	strb.w	r5, [r4, #86]	; 0x56
 8018792:	f884 5057 	strb.w	r5, [r4, #87]	; 0x57
 8018796:	233f      	movs	r3, #63	; 0x3f
 8018798:	f884 3058 	strb.w	r3, [r4, #88]	; 0x58
 801879c:	f884 5059 	strb.w	r5, [r4, #89]	; 0x59
 80187a0:	23ff      	movs	r3, #255	; 0xff
 80187a2:	f884 305a 	strb.w	r3, [r4, #90]	; 0x5a
 80187a6:	f884 505b 	strb.w	r5, [r4, #91]	; 0x5b
 80187aa:	f884 505c 	strb.w	r5, [r4, #92]	; 0x5c
 80187ae:	f884 505d 	strb.w	r5, [r4, #93]	; 0x5d
 80187b2:	f884 505e 	strb.w	r5, [r4, #94]	; 0x5e
 80187b6:	f884 505f 	strb.w	r5, [r4, #95]	; 0x5f
 80187ba:	f884 7060 	strb.w	r7, [r4, #96]	; 0x60
 80187be:	f3c7 2307 	ubfx	r3, r7, #8, #8
 80187c2:	f884 3061 	strb.w	r3, [r4, #97]	; 0x61
 80187c6:	f3c7 4307 	ubfx	r3, r7, #16, #8
 80187ca:	f884 3062 	strb.w	r3, [r4, #98]	; 0x62
 80187ce:	0e3b      	lsrs	r3, r7, #24
 80187d0:	f884 3063 	strb.w	r3, [r4, #99]	; 0x63
 80187d4:	fbb7 f3f0 	udiv	r3, r7, r0
 80187d8:	3301      	adds	r3, #1
 80187da:	09db      	lsrs	r3, r3, #7
 80187dc:	3301      	adds	r3, #1
 80187de:	6223      	str	r3, [r4, #32]
 80187e0:	f884 3064 	strb.w	r3, [r4, #100]	; 0x64
 80187e4:	f3c3 2207 	ubfx	r2, r3, #8, #8
 80187e8:	f884 2065 	strb.w	r2, [r4, #101]	; 0x65
 80187ec:	f3c3 4207 	ubfx	r2, r3, #16, #8
 80187f0:	f884 2066 	strb.w	r2, [r4, #102]	; 0x66
 80187f4:	0e1b      	lsrs	r3, r3, #24
 80187f6:	f884 3067 	strb.w	r3, [r4, #103]	; 0x67
 80187fa:	f884 5068 	strb.w	r5, [r4, #104]	; 0x68
 80187fe:	f884 5069 	strb.w	r5, [r4, #105]	; 0x69
 8018802:	f884 506a 	strb.w	r5, [r4, #106]	; 0x6a
 8018806:	f884 506b 	strb.w	r5, [r4, #107]	; 0x6b
 801880a:	68a3      	ldr	r3, [r4, #8]
 801880c:	f884 306c 	strb.w	r3, [r4, #108]	; 0x6c
 8018810:	f3c3 2207 	ubfx	r2, r3, #8, #8
 8018814:	f884 206d 	strb.w	r2, [r4, #109]	; 0x6d
 8018818:	f3c3 4207 	ubfx	r2, r3, #16, #8
 801881c:	f884 206e 	strb.w	r2, [r4, #110]	; 0x6e
 8018820:	0e1b      	lsrs	r3, r3, #24
 8018822:	f884 306f 	strb.w	r3, [r4, #111]	; 0x6f
 8018826:	8b23      	ldrh	r3, [r4, #24]
 8018828:	f884 3070 	strb.w	r3, [r4, #112]	; 0x70
 801882c:	0a1b      	lsrs	r3, r3, #8
 801882e:	f884 3071 	strb.w	r3, [r4, #113]	; 0x71
 8018832:	2306      	movs	r3, #6
 8018834:	f884 3072 	strb.w	r3, [r4, #114]	; 0x72
 8018838:	f884 5073 	strb.w	r5, [r4, #115]	; 0x73
 801883c:	f884 5080 	strb.w	r5, [r4, #128]	; 0x80
 8018840:	2329      	movs	r3, #41	; 0x29
 8018842:	f884 3082 	strb.w	r3, [r4, #130]	; 0x82
 8018846:	2312      	movs	r3, #18
 8018848:	f884 3083 	strb.w	r3, [r4, #131]	; 0x83
 801884c:	2334      	movs	r3, #52	; 0x34
 801884e:	f884 3084 	strb.w	r3, [r4, #132]	; 0x84
 8018852:	2356      	movs	r3, #86	; 0x56
 8018854:	f884 3085 	strb.w	r3, [r4, #133]	; 0x85
 8018858:	2378      	movs	r3, #120	; 0x78
 801885a:	f884 3086 	strb.w	r3, [r4, #134]	; 0x86
 801885e:	e006      	b.n	801886e <fatfs_create_boot_sector+0x2b2>
 8018860:	f105 0347 	add.w	r3, r5, #71	; 0x47
 8018864:	4423      	add	r3, r4
 8018866:	2220      	movs	r2, #32
 8018868:	f883 2040 	strb.w	r2, [r3, #64]	; 0x40
 801886c:	3501      	adds	r5, #1
 801886e:	2d0a      	cmp	r5, #10
 8018870:	dc0b      	bgt.n	801888a <fatfs_create_boot_sector+0x2ce>
 8018872:	4630      	mov	r0, r6
 8018874:	f7fa f866 	bl	8012944 <strlen>
 8018878:	42a8      	cmp	r0, r5
 801887a:	ddf1      	ble.n	8018860 <fatfs_create_boot_sector+0x2a4>
 801887c:	f105 0347 	add.w	r3, r5, #71	; 0x47
 8018880:	5d72      	ldrb	r2, [r6, r5]
 8018882:	4423      	add	r3, r4
 8018884:	f883 2040 	strb.w	r2, [r3, #64]	; 0x40
 8018888:	e7f0      	b.n	801886c <fatfs_create_boot_sector+0x2b0>
 801888a:	2346      	movs	r3, #70	; 0x46
 801888c:	f884 3092 	strb.w	r3, [r4, #146]	; 0x92
 8018890:	2341      	movs	r3, #65	; 0x41
 8018892:	f884 3093 	strb.w	r3, [r4, #147]	; 0x93
 8018896:	2354      	movs	r3, #84	; 0x54
 8018898:	f884 3094 	strb.w	r3, [r4, #148]	; 0x94
 801889c:	2333      	movs	r3, #51	; 0x33
 801889e:	f884 3095 	strb.w	r3, [r4, #149]	; 0x95
 80188a2:	2332      	movs	r3, #50	; 0x32
 80188a4:	f884 3096 	strb.w	r3, [r4, #150]	; 0x96
 80188a8:	2320      	movs	r3, #32
 80188aa:	f884 3097 	strb.w	r3, [r4, #151]	; 0x97
 80188ae:	f884 3098 	strb.w	r3, [r4, #152]	; 0x98
 80188b2:	f884 3099 	strb.w	r3, [r4, #153]	; 0x99
 80188b6:	2355      	movs	r3, #85	; 0x55
 80188b8:	f884 323e 	strb.w	r3, [r4, #574]	; 0x23e
 80188bc:	23aa      	movs	r3, #170	; 0xaa
 80188be:	f884 323f 	strb.w	r3, [r4, #575]	; 0x23f
 80188c2:	e759      	b.n	8018778 <fatfs_create_boot_sector+0x1bc>
 80188c4:	2000      	movs	r0, #0
 80188c6:	e8bd 83f8 	ldmia.w	sp!, {r3, r4, r5, r6, r7, r8, r9, pc}

080188ca <fatfs_format_fat16>:
 80188ca:	b570      	push	{r4, r5, r6, lr}
 80188cc:	b082      	sub	sp, #8
 80188ce:	4604      	mov	r4, r0
 80188d0:	460e      	mov	r6, r1
 80188d2:	4615      	mov	r5, r2
 80188d4:	f04f 33ff 	mov.w	r3, #4294967295	; 0xffffffff
 80188d8:	f8c0 3240 	str.w	r3, [r0, #576]	; 0x240
 80188dc:	2300      	movs	r3, #0
 80188de:	f8c0 3244 	str.w	r3, [r0, #580]	; 0x244
 80188e2:	6243      	str	r3, [r0, #36]	; 0x24
 80188e4:	f001 fbb5 	bl	801a052 <fatfs_fat_init>
 80188e8:	6b23      	ldr	r3, [r4, #48]	; 0x30
 80188ea:	2b00      	cmp	r3, #0
 80188ec:	d035      	beq.n	801895a <fatfs_format_fat16+0x90>
 80188ee:	6b63      	ldr	r3, [r4, #52]	; 0x34
 80188f0:	2b00      	cmp	r3, #0
 80188f2:	d035      	beq.n	8018960 <fatfs_format_fat16+0x96>
 80188f4:	2100      	movs	r1, #0
 80188f6:	f884 102d 	strb.w	r1, [r4, #45]	; 0x2d
 80188fa:	8321      	strh	r1, [r4, #24]
 80188fc:	60a1      	str	r1, [r4, #8]
 80188fe:	61e1      	str	r1, [r4, #28]
 8018900:	9100      	str	r1, [sp, #0]
 8018902:	462b      	mov	r3, r5
 8018904:	4632      	mov	r2, r6
 8018906:	4620      	mov	r0, r4
 8018908:	f7ff fe58 	bl	80185bc <fatfs_create_boot_sector>
 801890c:	b908      	cbnz	r0, 8018912 <fatfs_format_fat16+0x48>
 801890e:	b002      	add	sp, #8
 8018910:	bd70      	pop	{r4, r5, r6, pc}
 8018912:	8d61      	ldrh	r1, [r4, #42]	; 0x2a
 8018914:	f894 302c 	ldrb.w	r3, [r4, #44]	; 0x2c
 8018918:	6a22      	ldr	r2, [r4, #32]
 801891a:	fb02 f203 	mul.w	r2, r2, r3
 801891e:	188b      	adds	r3, r1, r2
 8018920:	60e3      	str	r3, [r4, #12]
 8018922:	8d23      	ldrh	r3, [r4, #40]	; 0x28
 8018924:	015b      	lsls	r3, r3, #5
 8018926:	f203 13ff 	addw	r3, r3, #511	; 0x1ff
 801892a:	125b      	asrs	r3, r3, #9
 801892c:	6123      	str	r3, [r4, #16]
 801892e:	69e3      	ldr	r3, [r4, #28]
 8018930:	440b      	add	r3, r1
 8018932:	6163      	str	r3, [r4, #20]
 8018934:	441a      	add	r2, r3
 8018936:	6062      	str	r2, [r4, #4]
 8018938:	2100      	movs	r1, #0
 801893a:	4620      	mov	r0, r4
 801893c:	f7ff fd8c 	bl	8018458 <fatfs_erase_fat>
 8018940:	2800      	cmp	r0, #0
 8018942:	d0e4      	beq.n	801890e <fatfs_format_fat16+0x44>
 8018944:	69e1      	ldr	r1, [r4, #28]
 8018946:	68e3      	ldr	r3, [r4, #12]
 8018948:	6922      	ldr	r2, [r4, #16]
 801894a:	4419      	add	r1, r3
 801894c:	4620      	mov	r0, r4
 801894e:	f7ff fdda 	bl	8018506 <fatfs_erase_sectors>
 8018952:	2800      	cmp	r0, #0
 8018954:	d0db      	beq.n	801890e <fatfs_format_fat16+0x44>
 8018956:	2001      	movs	r0, #1
 8018958:	e7d9      	b.n	801890e <fatfs_format_fat16+0x44>
 801895a:	f04f 30ff 	mov.w	r0, #4294967295	; 0xffffffff
 801895e:	e7d6      	b.n	801890e <fatfs_format_fat16+0x44>
 8018960:	f04f 30ff 	mov.w	r0, #4294967295	; 0xffffffff
 8018964:	e7d3      	b.n	801890e <fatfs_format_fat16+0x44>

08018966 <fatfs_format_fat32>:
 8018966:	b570      	push	{r4, r5, r6, lr}
 8018968:	b082      	sub	sp, #8
 801896a:	4604      	mov	r4, r0
 801896c:	460e      	mov	r6, r1
 801896e:	4615      	mov	r5, r2
 8018970:	f04f 33ff 	mov.w	r3, #4294967295	; 0xffffffff
 8018974:	f8c0 3240 	str.w	r3, [r0, #576]	; 0x240
 8018978:	2300      	movs	r3, #0
 801897a:	f8c0 3244 	str.w	r3, [r0, #580]	; 0x244
 801897e:	6243      	str	r3, [r0, #36]	; 0x24
 8018980:	f001 fb67 	bl	801a052 <fatfs_fat_init>
 8018984:	6b23      	ldr	r3, [r4, #48]	; 0x30
 8018986:	2b00      	cmp	r3, #0
 8018988:	d03b      	beq.n	8018a02 <fatfs_format_fat32+0x9c>
 801898a:	6b63      	ldr	r3, [r4, #52]	; 0x34
 801898c:	2b00      	cmp	r3, #0
 801898e:	d03b      	beq.n	8018a08 <fatfs_format_fat32+0xa2>
 8018990:	2301      	movs	r3, #1
 8018992:	f884 302d 	strb.w	r3, [r4, #45]	; 0x2d
 8018996:	8323      	strh	r3, [r4, #24]
 8018998:	2202      	movs	r2, #2
 801899a:	60a2      	str	r2, [r4, #8]
 801899c:	2100      	movs	r1, #0
 801899e:	61e1      	str	r1, [r4, #28]
 80189a0:	9300      	str	r3, [sp, #0]
 80189a2:	462b      	mov	r3, r5
 80189a4:	4632      	mov	r2, r6
 80189a6:	4620      	mov	r0, r4
 80189a8:	f7ff fe08 	bl	80185bc <fatfs_create_boot_sector>
 80189ac:	4603      	mov	r3, r0
 80189ae:	b910      	cbnz	r0, 80189b6 <fatfs_format_fat32+0x50>
 80189b0:	4618      	mov	r0, r3
 80189b2:	b002      	add	sp, #8
 80189b4:	bd70      	pop	{r4, r5, r6, pc}
 80189b6:	69e3      	ldr	r3, [r4, #28]
 80189b8:	8d62      	ldrh	r2, [r4, #42]	; 0x2a
 80189ba:	4413      	add	r3, r2
 80189bc:	6163      	str	r3, [r4, #20]
 80189be:	f894 202c 	ldrb.w	r2, [r4, #44]	; 0x2c
 80189c2:	6a21      	ldr	r1, [r4, #32]
 80189c4:	fb01 3302 	mla	r3, r1, r2, r3
 80189c8:	6063      	str	r3, [r4, #4]
 80189ca:	8b21      	ldrh	r1, [r4, #24]
 80189cc:	4620      	mov	r0, r4
 80189ce:	f7ff fdb7 	bl	8018540 <fatfs_create_fsinfo_sector>
 80189d2:	4603      	mov	r3, r0
 80189d4:	2800      	cmp	r0, #0
 80189d6:	d0eb      	beq.n	80189b0 <fatfs_format_fat32+0x4a>
 80189d8:	2101      	movs	r1, #1
 80189da:	4620      	mov	r0, r4
 80189dc:	f7ff fd3c 	bl	8018458 <fatfs_erase_fat>
 80189e0:	4603      	mov	r3, r0
 80189e2:	2800      	cmp	r0, #0
 80189e4:	d0e4      	beq.n	80189b0 <fatfs_format_fat32+0x4a>
 80189e6:	68a1      	ldr	r1, [r4, #8]
 80189e8:	4620      	mov	r0, r4
 80189ea:	f7fe fea4 	bl	8017736 <fatfs_lba_of_cluster>
 80189ee:	4601      	mov	r1, r0
 80189f0:	7822      	ldrb	r2, [r4, #0]
 80189f2:	4620      	mov	r0, r4
 80189f4:	f7ff fd87 	bl	8018506 <fatfs_erase_sectors>
 80189f8:	4603      	mov	r3, r0
 80189fa:	2800      	cmp	r0, #0
 80189fc:	d0d8      	beq.n	80189b0 <fatfs_format_fat32+0x4a>
 80189fe:	2301      	movs	r3, #1
 8018a00:	e7d6      	b.n	80189b0 <fatfs_format_fat32+0x4a>
 8018a02:	f04f 33ff 	mov.w	r3, #4294967295	; 0xffffffff
 8018a06:	e7d3      	b.n	80189b0 <fatfs_format_fat32+0x4a>
 8018a08:	f04f 33ff 	mov.w	r3, #4294967295	; 0xffffffff
 8018a0c:	e7d0      	b.n	80189b0 <fatfs_format_fat32+0x4a>

08018a0e <fatfs_format>:
 8018a0e:	b508      	push	{r3, lr}
 8018a10:	f5b1 0f80 	cmp.w	r1, #4194304	; 0x400000
 8018a14:	d802      	bhi.n	8018a1c <fatfs_format+0xe>
 8018a16:	f7ff ff58 	bl	80188ca <fatfs_format_fat16>
 8018a1a:	bd08      	pop	{r3, pc}
 8018a1c:	f7ff ffa3 	bl	8018966 <fatfs_format_fat32>
 8018a20:	e7fb      	b.n	8018a1a <fatfs_format+0xc>
 8018a22:	bf00      	nop

08018a24 <fat_list_init>:
 8018a24:	2300      	movs	r3, #0
 8018a26:	6043      	str	r3, [r0, #4]
 8018a28:	6003      	str	r3, [r0, #0]
 8018a2a:	4770      	bx	lr

08018a2c <fat_list_remove>:
 8018a2c:	680b      	ldr	r3, [r1, #0]
 8018a2e:	b133      	cbz	r3, 8018a3e <fat_list_remove+0x12>
 8018a30:	684a      	ldr	r2, [r1, #4]
 8018a32:	605a      	str	r2, [r3, #4]
 8018a34:	684b      	ldr	r3, [r1, #4]
 8018a36:	b12b      	cbz	r3, 8018a44 <fat_list_remove+0x18>
 8018a38:	680a      	ldr	r2, [r1, #0]
 8018a3a:	601a      	str	r2, [r3, #0]
 8018a3c:	4770      	bx	lr
 8018a3e:	684b      	ldr	r3, [r1, #4]
 8018a40:	6003      	str	r3, [r0, #0]
 8018a42:	e7f7      	b.n	8018a34 <fat_list_remove+0x8>
 8018a44:	680b      	ldr	r3, [r1, #0]
 8018a46:	6043      	str	r3, [r0, #4]
 8018a48:	4770      	bx	lr

08018a4a <fat_list_insert_after>:
 8018a4a:	6011      	str	r1, [r2, #0]
 8018a4c:	684b      	ldr	r3, [r1, #4]
 8018a4e:	6053      	str	r3, [r2, #4]
 8018a50:	b113      	cbz	r3, 8018a58 <fat_list_insert_after+0xe>
 8018a52:	601a      	str	r2, [r3, #0]
 8018a54:	604a      	str	r2, [r1, #4]
 8018a56:	4770      	bx	lr
 8018a58:	6042      	str	r2, [r0, #4]
 8018a5a:	e7fb      	b.n	8018a54 <fat_list_insert_after+0xa>

08018a5c <fat_list_insert_before>:
 8018a5c:	680b      	ldr	r3, [r1, #0]
 8018a5e:	6013      	str	r3, [r2, #0]
 8018a60:	6051      	str	r1, [r2, #4]
 8018a62:	680b      	ldr	r3, [r1, #0]
 8018a64:	b113      	cbz	r3, 8018a6c <fat_list_insert_before+0x10>
 8018a66:	605a      	str	r2, [r3, #4]
 8018a68:	600a      	str	r2, [r1, #0]
 8018a6a:	4770      	bx	lr
 8018a6c:	6002      	str	r2, [r0, #0]
 8018a6e:	e7fb      	b.n	8018a68 <fat_list_insert_before+0xc>

08018a70 <fat_list_insert_first>:
 8018a70:	b508      	push	{r3, lr}
 8018a72:	460a      	mov	r2, r1
 8018a74:	6801      	ldr	r1, [r0, #0]
 8018a76:	b111      	cbz	r1, 8018a7e <fat_list_insert_first+0xe>
 8018a78:	f7ff fff0 	bl	8018a5c <fat_list_insert_before>
 8018a7c:	bd08      	pop	{r3, pc}
 8018a7e:	6002      	str	r2, [r0, #0]
 8018a80:	6042      	str	r2, [r0, #4]
 8018a82:	2300      	movs	r3, #0
 8018a84:	6013      	str	r3, [r2, #0]
 8018a86:	6053      	str	r3, [r2, #4]
 8018a88:	e7f8      	b.n	8018a7c <fat_list_insert_first+0xc>

08018a8a <fat_list_insert_last>:
 8018a8a:	b508      	push	{r3, lr}
 8018a8c:	460a      	mov	r2, r1
 8018a8e:	6841      	ldr	r1, [r0, #4]
 8018a90:	b111      	cbz	r1, 8018a98 <fat_list_insert_last+0xe>
 8018a92:	f7ff ffda 	bl	8018a4a <fat_list_insert_after>
 8018a96:	bd08      	pop	{r3, pc}
 8018a98:	4611      	mov	r1, r2
 8018a9a:	f7ff ffe9 	bl	8018a70 <fat_list_insert_first>
 8018a9e:	e7fa      	b.n	8018a96 <fat_list_insert_last+0xc>

08018aa0 <fat_list_pop_head>:
 8018aa0:	b510      	push	{r4, lr}
 8018aa2:	6804      	ldr	r4, [r0, #0]
 8018aa4:	b114      	cbz	r4, 8018aac <fat_list_pop_head+0xc>
 8018aa6:	4621      	mov	r1, r4
 8018aa8:	f7ff ffc0 	bl	8018a2c <fat_list_remove>
 8018aac:	4620      	mov	r0, r4
 8018aae:	bd10      	pop	{r4, pc}

08018ab0 <_allocate_file>:
 8018ab0:	b510      	push	{r4, lr}
 8018ab2:	4807      	ldr	r0, [pc, #28]	; (8018ad0 <_allocate_file+0x20>)
 8018ab4:	f7ff fff4 	bl	8018aa0 <fat_list_pop_head>
 8018ab8:	4604      	mov	r4, r0
 8018aba:	b118      	cbz	r0, 8018ac4 <_allocate_file+0x14>
 8018abc:	4601      	mov	r1, r0
 8018abe:	4805      	ldr	r0, [pc, #20]	; (8018ad4 <_allocate_file+0x24>)
 8018ac0:	f7ff ffe3 	bl	8018a8a <fat_list_insert_last>
 8018ac4:	b10c      	cbz	r4, 8018aca <_allocate_file+0x1a>
 8018ac6:	f5a4 742d 	sub.w	r4, r4, #692	; 0x2b4
 8018aca:	4620      	mov	r0, r4
 8018acc:	bd10      	pop	{r4, pc}
 8018ace:	bf00      	nop
 8018ad0:	200003c4 	.word	0x200003c4
 8018ad4:	200003cc 	.word	0x200003cc

08018ad8 <_free_file>:
 8018ad8:	b538      	push	{r3, r4, r5, lr}
 8018ada:	f500 742d 	add.w	r4, r0, #692	; 0x2b4
 8018ade:	4d05      	ldr	r5, [pc, #20]	; (8018af4 <_free_file+0x1c>)
 8018ae0:	4621      	mov	r1, r4
 8018ae2:	f105 0008 	add.w	r0, r5, #8
 8018ae6:	f7ff ffa1 	bl	8018a2c <fat_list_remove>
 8018aea:	4621      	mov	r1, r4
 8018aec:	4628      	mov	r0, r5
 8018aee:	f7ff ffcc 	bl	8018a8a <fat_list_insert_last>
 8018af2:	bd38      	pop	{r3, r4, r5, pc}
 8018af4:	200003c4 	.word	0x200003c4

08018af8 <_check_file_open>:
 8018af8:	b570      	push	{r4, r5, r6, lr}
 8018afa:	4606      	mov	r6, r0
 8018afc:	4b0e      	ldr	r3, [pc, #56]	; (8018b38 <_check_file_open+0x40>)
 8018afe:	689c      	ldr	r4, [r3, #8]
 8018b00:	e000      	b.n	8018b04 <_check_file_open+0xc>
 8018b02:	6864      	ldr	r4, [r4, #4]
 8018b04:	b1ac      	cbz	r4, 8018b32 <_check_file_open+0x3a>
 8018b06:	f5a4 752d 	sub.w	r5, r4, #692	; 0x2b4
 8018b0a:	42b5      	cmp	r5, r6
 8018b0c:	d0f9      	beq.n	8018b02 <_check_file_open+0xa>
 8018b0e:	f106 0114 	add.w	r1, r6, #20
 8018b12:	f5a4 7028 	sub.w	r0, r4, #672	; 0x2a0
 8018b16:	f7ff fa03 	bl	8017f20 <fatfs_compare_names>
 8018b1a:	2800      	cmp	r0, #0
 8018b1c:	d0f1      	beq.n	8018b02 <_check_file_open+0xa>
 8018b1e:	f106 0154 	add.w	r1, r6, #84	; 0x54
 8018b22:	f5a4 7018 	sub.w	r0, r4, #608	; 0x260
 8018b26:	f7ff f9fb 	bl	8017f20 <fatfs_compare_names>
 8018b2a:	2800      	cmp	r0, #0
 8018b2c:	d0e9      	beq.n	8018b02 <_check_file_open+0xa>
 8018b2e:	2001      	movs	r0, #1
 8018b30:	e000      	b.n	8018b34 <_check_file_open+0x3c>
 8018b32:	2000      	movs	r0, #0
 8018b34:	bd70      	pop	{r4, r5, r6, pc}
 8018b36:	bf00      	nop
 8018b38:	200003c4 	.word	0x200003c4

08018b3c <_open_directory>:
 8018b3c:	e92d 41f0 	stmdb	sp!, {r4, r5, r6, r7, r8, lr}
 8018b40:	b098      	sub	sp, #96	; 0x60
 8018b42:	4606      	mov	r6, r0
 8018b44:	460f      	mov	r7, r1
 8018b46:	481a      	ldr	r0, [pc, #104]	; (8018bb0 <_open_directory+0x74>)
 8018b48:	f7fe fef0 	bl	801792c <fatfs_get_root_cluster>
 8018b4c:	4604      	mov	r4, r0
 8018b4e:	4630      	mov	r0, r6
 8018b50:	f7ff f944 	bl	8017ddc <fatfs_total_path_levels>
 8018b54:	4680      	mov	r8, r0
 8018b56:	2500      	movs	r5, #0
 8018b58:	e006      	b.n	8018b68 <_open_directory+0x2c>
 8018b5a:	f8bd 0014 	ldrh.w	r0, [sp, #20]
 8018b5e:	f8bd 401a 	ldrh.w	r4, [sp, #26]
 8018b62:	eb04 4400 	add.w	r4, r4, r0, lsl #16
 8018b66:	3501      	adds	r5, #1
 8018b68:	4545      	cmp	r5, r8
 8018b6a:	dc16      	bgt.n	8018b9a <_open_directory+0x5e>
 8018b6c:	2340      	movs	r3, #64	; 0x40
 8018b6e:	aa08      	add	r2, sp, #32
 8018b70:	4629      	mov	r1, r5
 8018b72:	4630      	mov	r0, r6
 8018b74:	f7ff f956 	bl	8017e24 <fatfs_get_substring>
 8018b78:	f1b0 3fff 	cmp.w	r0, #4294967295	; 0xffffffff
 8018b7c:	d013      	beq.n	8018ba6 <_open_directory+0x6a>
 8018b7e:	466b      	mov	r3, sp
 8018b80:	aa08      	add	r2, sp, #32
 8018b82:	4621      	mov	r1, r4
 8018b84:	480a      	ldr	r0, [pc, #40]	; (8018bb0 <_open_directory+0x74>)
 8018b86:	f7fe fed3 	bl	8017930 <fatfs_get_file_entry>
 8018b8a:	b170      	cbz	r0, 8018baa <_open_directory+0x6e>
 8018b8c:	4668      	mov	r0, sp
 8018b8e:	f001 f8c4 	bl	8019d1a <fatfs_entry_is_dir>
 8018b92:	4603      	mov	r3, r0
 8018b94:	2800      	cmp	r0, #0
 8018b96:	d1e0      	bne.n	8018b5a <_open_directory+0x1e>
 8018b98:	e001      	b.n	8018b9e <_open_directory+0x62>
 8018b9a:	603c      	str	r4, [r7, #0]
 8018b9c:	2301      	movs	r3, #1
 8018b9e:	4618      	mov	r0, r3
 8018ba0:	b018      	add	sp, #96	; 0x60
 8018ba2:	e8bd 81f0 	ldmia.w	sp!, {r4, r5, r6, r7, r8, pc}
 8018ba6:	2300      	movs	r3, #0
 8018ba8:	e7f9      	b.n	8018b9e <_open_directory+0x62>
 8018baa:	2300      	movs	r3, #0
 8018bac:	e7f7      	b.n	8018b9e <_open_directory+0x62>
 8018bae:	bf00      	nop
 8018bb0:	200003d4 	.word	0x200003d4

08018bb4 <_create_file>:
 8018bb4:	b5f0      	push	{r4, r5, r6, r7, lr}
 8018bb6:	b091      	sub	sp, #68	; 0x44
 8018bb8:	4b5e      	ldr	r3, [pc, #376]	; (8018d34 <_create_file+0x180>)
 8018bba:	6c5b      	ldr	r3, [r3, #68]	; 0x44
 8018bbc:	2b00      	cmp	r3, #0
 8018bbe:	f000 80b6 	beq.w	8018d2e <_create_file+0x17a>
 8018bc2:	4604      	mov	r4, r0
 8018bc4:	f7ff ff74 	bl	8018ab0 <_allocate_file>
 8018bc8:	4606      	mov	r6, r0
 8018bca:	2800      	cmp	r0, #0
 8018bcc:	f000 809a 	beq.w	8018d04 <_create_file+0x150>
 8018bd0:	f100 0514 	add.w	r5, r0, #20
 8018bd4:	2240      	movs	r2, #64	; 0x40
 8018bd6:	2100      	movs	r1, #0
 8018bd8:	4628      	mov	r0, r5
 8018bda:	f7f9 fe82 	bl	80128e2 <memset>
 8018bde:	f106 0754 	add.w	r7, r6, #84	; 0x54
 8018be2:	2240      	movs	r2, #64	; 0x40
 8018be4:	2100      	movs	r1, #0
 8018be6:	4638      	mov	r0, r7
 8018be8:	f7f9 fe7b 	bl	80128e2 <memset>
 8018bec:	2240      	movs	r2, #64	; 0x40
 8018bee:	9200      	str	r2, [sp, #0]
 8018bf0:	463b      	mov	r3, r7
 8018bf2:	4629      	mov	r1, r5
 8018bf4:	4620      	mov	r0, r4
 8018bf6:	f7ff f95f 	bl	8017eb8 <fatfs_split_path>
 8018bfa:	f1b0 3fff 	cmp.w	r0, #4294967295	; 0xffffffff
 8018bfe:	d021      	beq.n	8018c44 <_create_file+0x90>
 8018c00:	4630      	mov	r0, r6
 8018c02:	f7ff ff79 	bl	8018af8 <_check_file_open>
 8018c06:	4604      	mov	r4, r0
 8018c08:	bb08      	cbnz	r0, 8018c4e <_create_file+0x9a>
 8018c0a:	7d33      	ldrb	r3, [r6, #20]
 8018c0c:	bb23      	cbnz	r3, 8018c58 <_create_file+0xa4>
 8018c0e:	484a      	ldr	r0, [pc, #296]	; (8018d38 <_create_file+0x184>)
 8018c10:	f7fe fe8c 	bl	801792c <fatfs_get_root_cluster>
 8018c14:	6030      	str	r0, [r6, #0]
 8018c16:	ab08      	add	r3, sp, #32
 8018c18:	463a      	mov	r2, r7
 8018c1a:	6831      	ldr	r1, [r6, #0]
 8018c1c:	4846      	ldr	r0, [pc, #280]	; (8018d38 <_create_file+0x184>)
 8018c1e:	f7fe fe87 	bl	8017930 <fatfs_get_file_entry>
 8018c22:	2801      	cmp	r0, #1
 8018c24:	d023      	beq.n	8018c6e <_create_file+0xba>
 8018c26:	4632      	mov	r2, r6
 8018c28:	2300      	movs	r3, #0
 8018c2a:	f842 3f04 	str.w	r3, [r2, #4]!
 8018c2e:	2301      	movs	r3, #1
 8018c30:	4619      	mov	r1, r3
 8018c32:	4841      	ldr	r0, [pc, #260]	; (8018d38 <_create_file+0x184>)
 8018c34:	f7ff fb0f 	bl	8018256 <fatfs_allocate_free_space>
 8018c38:	bb88      	cbnz	r0, 8018c9e <_create_file+0xea>
 8018c3a:	4630      	mov	r0, r6
 8018c3c:	f7ff ff4c 	bl	8018ad8 <_free_file>
 8018c40:	2600      	movs	r6, #0
 8018c42:	e05f      	b.n	8018d04 <_create_file+0x150>
 8018c44:	4630      	mov	r0, r6
 8018c46:	f7ff ff47 	bl	8018ad8 <_free_file>
 8018c4a:	2600      	movs	r6, #0
 8018c4c:	e05a      	b.n	8018d04 <_create_file+0x150>
 8018c4e:	4630      	mov	r0, r6
 8018c50:	f7ff ff42 	bl	8018ad8 <_free_file>
 8018c54:	2600      	movs	r6, #0
 8018c56:	e055      	b.n	8018d04 <_create_file+0x150>
 8018c58:	4631      	mov	r1, r6
 8018c5a:	4628      	mov	r0, r5
 8018c5c:	f7ff ff6e 	bl	8018b3c <_open_directory>
 8018c60:	2800      	cmp	r0, #0
 8018c62:	d1d8      	bne.n	8018c16 <_create_file+0x62>
 8018c64:	4630      	mov	r0, r6
 8018c66:	f7ff ff37 	bl	8018ad8 <_free_file>
 8018c6a:	2600      	movs	r6, #0
 8018c6c:	e04a      	b.n	8018d04 <_create_file+0x150>
 8018c6e:	4630      	mov	r0, r6
 8018c70:	f7ff ff32 	bl	8018ad8 <_free_file>
 8018c74:	2600      	movs	r6, #0
 8018c76:	e045      	b.n	8018d04 <_create_file+0x150>
 8018c78:	4622      	mov	r2, r4
 8018c7a:	a905      	add	r1, sp, #20
 8018c7c:	f106 0094 	add.w	r0, r6, #148	; 0x94
 8018c80:	f001 f955 	bl	8019f2e <fatfs_lfn_generate_tail>
 8018c84:	4635      	mov	r5, r6
 8018c86:	f855 1b94 	ldr.w	r1, [r5], #148
 8018c8a:	462a      	mov	r2, r5
 8018c8c:	482a      	ldr	r0, [pc, #168]	; (8018d38 <_create_file+0x184>)
 8018c8e:	f7fe fee3 	bl	8017a58 <fatfs_sfn_exists>
 8018c92:	b188      	cbz	r0, 8018cb8 <_create_file+0x104>
 8018c94:	3401      	adds	r4, #1
 8018c96:	f242 730e 	movw	r3, #9998	; 0x270e
 8018c9a:	429c      	cmp	r4, r3
 8018c9c:	dc0c      	bgt.n	8018cb8 <_create_file+0x104>
 8018c9e:	4639      	mov	r1, r7
 8018ca0:	a805      	add	r0, sp, #20
 8018ca2:	f001 f8dd 	bl	8019e60 <fatfs_lfn_create_sfn>
 8018ca6:	2c00      	cmp	r4, #0
 8018ca8:	d1e6      	bne.n	8018c78 <_create_file+0xc4>
 8018caa:	220b      	movs	r2, #11
 8018cac:	a905      	add	r1, sp, #20
 8018cae:	f106 0094 	add.w	r0, r6, #148	; 0x94
 8018cb2:	f7f9 fe1d 	bl	80128f0 <memcpy>
 8018cb6:	e7e5      	b.n	8018c84 <_create_file+0xd0>
 8018cb8:	f242 730f 	movw	r3, #9999	; 0x270f
 8018cbc:	429c      	cmp	r4, r3
 8018cbe:	d024      	beq.n	8018d0a <_create_file+0x156>
 8018cc0:	6831      	ldr	r1, [r6, #0]
 8018cc2:	2300      	movs	r3, #0
 8018cc4:	9302      	str	r3, [sp, #8]
 8018cc6:	9301      	str	r3, [sp, #4]
 8018cc8:	6873      	ldr	r3, [r6, #4]
 8018cca:	9300      	str	r3, [sp, #0]
 8018ccc:	462b      	mov	r3, r5
 8018cce:	463a      	mov	r2, r7
 8018cd0:	4819      	ldr	r0, [pc, #100]	; (8018d38 <_create_file+0x184>)
 8018cd2:	f7ff faff 	bl	80182d4 <fatfs_add_file_entry>
 8018cd6:	b308      	cbz	r0, 8018d1c <_create_file+0x168>
 8018cd8:	2300      	movs	r3, #0
 8018cda:	60f3      	str	r3, [r6, #12]
 8018cdc:	60b3      	str	r3, [r6, #8]
 8018cde:	f04f 32ff 	mov.w	r2, #4294967295	; 0xffffffff
 8018ce2:	f8c6 22a8 	str.w	r2, [r6, #680]	; 0x2a8
 8018ce6:	f8c6 32ac 	str.w	r3, [r6, #684]	; 0x2ac
 8018cea:	6133      	str	r3, [r6, #16]
 8018cec:	f8c6 20a0 	str.w	r2, [r6, #160]	; 0xa0
 8018cf0:	f8c6 20a4 	str.w	r2, [r6, #164]	; 0xa4
 8018cf4:	4c10      	ldr	r4, [pc, #64]	; (8018d38 <_create_file+0x184>)
 8018cf6:	4631      	mov	r1, r6
 8018cf8:	4620      	mov	r0, r4
 8018cfa:	f7fe fbc5 	bl	8017488 <fatfs_cache_init>
 8018cfe:	4620      	mov	r0, r4
 8018d00:	f001 f9d4 	bl	801a0ac <fatfs_fat_purge>
 8018d04:	4630      	mov	r0, r6
 8018d06:	b011      	add	sp, #68	; 0x44
 8018d08:	bdf0      	pop	{r4, r5, r6, r7, pc}
 8018d0a:	6871      	ldr	r1, [r6, #4]
 8018d0c:	480a      	ldr	r0, [pc, #40]	; (8018d38 <_create_file+0x184>)
 8018d0e:	f001 fae7 	bl	801a2e0 <fatfs_free_cluster_chain>
 8018d12:	4630      	mov	r0, r6
 8018d14:	f7ff fee0 	bl	8018ad8 <_free_file>
 8018d18:	2600      	movs	r6, #0
 8018d1a:	e7f3      	b.n	8018d04 <_create_file+0x150>
 8018d1c:	6871      	ldr	r1, [r6, #4]
 8018d1e:	4806      	ldr	r0, [pc, #24]	; (8018d38 <_create_file+0x184>)
 8018d20:	f001 fade 	bl	801a2e0 <fatfs_free_cluster_chain>
 8018d24:	4630      	mov	r0, r6
 8018d26:	f7ff fed7 	bl	8018ad8 <_free_file>
 8018d2a:	2600      	movs	r6, #0
 8018d2c:	e7ea      	b.n	8018d04 <_create_file+0x150>
 8018d2e:	2600      	movs	r6, #0
 8018d30:	e7e8      	b.n	8018d04 <_create_file+0x150>
 8018d32:	bf00      	nop
 8018d34:	200003c4 	.word	0x200003c4
 8018d38:	200003d4 	.word	0x200003d4

08018d3c <_open_file>:
 8018d3c:	b5f0      	push	{r4, r5, r6, r7, lr}
 8018d3e:	b08b      	sub	sp, #44	; 0x2c
 8018d40:	4605      	mov	r5, r0
 8018d42:	f7ff feb5 	bl	8018ab0 <_allocate_file>
 8018d46:	4604      	mov	r4, r0
 8018d48:	b380      	cbz	r0, 8018dac <_open_file+0x70>
 8018d4a:	f100 0714 	add.w	r7, r0, #20
 8018d4e:	2240      	movs	r2, #64	; 0x40
 8018d50:	2100      	movs	r1, #0
 8018d52:	4638      	mov	r0, r7
 8018d54:	f7f9 fdc5 	bl	80128e2 <memset>
 8018d58:	f104 0654 	add.w	r6, r4, #84	; 0x54
 8018d5c:	2240      	movs	r2, #64	; 0x40
 8018d5e:	2100      	movs	r1, #0
 8018d60:	4630      	mov	r0, r6
 8018d62:	f7f9 fdbe 	bl	80128e2 <memset>
 8018d66:	2240      	movs	r2, #64	; 0x40
 8018d68:	9200      	str	r2, [sp, #0]
 8018d6a:	4633      	mov	r3, r6
 8018d6c:	4639      	mov	r1, r7
 8018d6e:	4628      	mov	r0, r5
 8018d70:	f7ff f8a2 	bl	8017eb8 <fatfs_split_path>
 8018d74:	f1b0 3fff 	cmp.w	r0, #4294967295	; 0xffffffff
 8018d78:	d01b      	beq.n	8018db2 <_open_file+0x76>
 8018d7a:	4620      	mov	r0, r4
 8018d7c:	f7ff febc 	bl	8018af8 <_check_file_open>
 8018d80:	b9e0      	cbnz	r0, 8018dbc <_open_file+0x80>
 8018d82:	7d23      	ldrb	r3, [r4, #20]
 8018d84:	b9fb      	cbnz	r3, 8018dc6 <_open_file+0x8a>
 8018d86:	4828      	ldr	r0, [pc, #160]	; (8018e28 <_open_file+0xec>)
 8018d88:	f7fe fdd0 	bl	801792c <fatfs_get_root_cluster>
 8018d8c:	6020      	str	r0, [r4, #0]
 8018d8e:	ab02      	add	r3, sp, #8
 8018d90:	4632      	mov	r2, r6
 8018d92:	6821      	ldr	r1, [r4, #0]
 8018d94:	4824      	ldr	r0, [pc, #144]	; (8018e28 <_open_file+0xec>)
 8018d96:	f7fe fdcb 	bl	8017930 <fatfs_get_file_entry>
 8018d9a:	b118      	cbz	r0, 8018da4 <_open_file+0x68>
 8018d9c:	a802      	add	r0, sp, #8
 8018d9e:	f000 ffc4 	bl	8019d2a <fatfs_entry_is_file>
 8018da2:	b9d8      	cbnz	r0, 8018ddc <_open_file+0xa0>
 8018da4:	4620      	mov	r0, r4
 8018da6:	f7ff fe97 	bl	8018ad8 <_free_file>
 8018daa:	2400      	movs	r4, #0
 8018dac:	4620      	mov	r0, r4
 8018dae:	b00b      	add	sp, #44	; 0x2c
 8018db0:	bdf0      	pop	{r4, r5, r6, r7, pc}
 8018db2:	4620      	mov	r0, r4
 8018db4:	f7ff fe90 	bl	8018ad8 <_free_file>
 8018db8:	2400      	movs	r4, #0
 8018dba:	e7f7      	b.n	8018dac <_open_file+0x70>
 8018dbc:	4620      	mov	r0, r4
 8018dbe:	f7ff fe8b 	bl	8018ad8 <_free_file>
 8018dc2:	2400      	movs	r4, #0
 8018dc4:	e7f2      	b.n	8018dac <_open_file+0x70>
 8018dc6:	4621      	mov	r1, r4
 8018dc8:	4638      	mov	r0, r7
 8018dca:	f7ff feb7 	bl	8018b3c <_open_directory>
 8018dce:	2800      	cmp	r0, #0
 8018dd0:	d1dd      	bne.n	8018d8e <_open_file+0x52>
 8018dd2:	4620      	mov	r0, r4
 8018dd4:	f7ff fe80 	bl	8018ad8 <_free_file>
 8018dd8:	2400      	movs	r4, #0
 8018dda:	e7e7      	b.n	8018dac <_open_file+0x70>
 8018ddc:	220b      	movs	r2, #11
 8018dde:	a902      	add	r1, sp, #8
 8018de0:	f104 0094 	add.w	r0, r4, #148	; 0x94
 8018de4:	f7f9 fd84 	bl	80128f0 <memcpy>
 8018de8:	9b09      	ldr	r3, [sp, #36]	; 0x24
 8018dea:	60e3      	str	r3, [r4, #12]
 8018dec:	2200      	movs	r2, #0
 8018dee:	60a2      	str	r2, [r4, #8]
 8018df0:	f8bd 101c 	ldrh.w	r1, [sp, #28]
 8018df4:	f8bd 3022 	ldrh.w	r3, [sp, #34]	; 0x22
 8018df8:	eb03 4301 	add.w	r3, r3, r1, lsl #16
 8018dfc:	6063      	str	r3, [r4, #4]
 8018dfe:	f04f 33ff 	mov.w	r3, #4294967295	; 0xffffffff
 8018e02:	f8c4 32a8 	str.w	r3, [r4, #680]	; 0x2a8
 8018e06:	f8c4 22ac 	str.w	r2, [r4, #684]	; 0x2ac
 8018e0a:	6122      	str	r2, [r4, #16]
 8018e0c:	f8c4 30a0 	str.w	r3, [r4, #160]	; 0xa0
 8018e10:	f8c4 30a4 	str.w	r3, [r4, #164]	; 0xa4
 8018e14:	4d04      	ldr	r5, [pc, #16]	; (8018e28 <_open_file+0xec>)
 8018e16:	4621      	mov	r1, r4
 8018e18:	4628      	mov	r0, r5
 8018e1a:	f7fe fb35 	bl	8017488 <fatfs_cache_init>
 8018e1e:	4628      	mov	r0, r5
 8018e20:	f001 f944 	bl	801a0ac <fatfs_fat_purge>
 8018e24:	e7c2      	b.n	8018dac <_open_file+0x70>
 8018e26:	bf00      	nop
 8018e28:	200003d4 	.word	0x200003d4

08018e2c <_write_sectors>:
 8018e2c:	e92d 4ff0 	stmdb	sp!, {r4, r5, r6, r7, r8, r9, sl, fp, lr}
 8018e30:	b085      	sub	sp, #20
 8018e32:	4606      	mov	r6, r0
 8018e34:	9201      	str	r2, [sp, #4]
 8018e36:	469a      	mov	sl, r3
 8018e38:	f04f 33ff 	mov.w	r3, #4294967295	; 0xffffffff
 8018e3c:	9303      	str	r3, [sp, #12]
 8018e3e:	4b36      	ldr	r3, [pc, #216]	; (8018f18 <_write_sectors+0xec>)
 8018e40:	7c1b      	ldrb	r3, [r3, #16]
 8018e42:	fbb1 f7f3 	udiv	r7, r1, r3
 8018e46:	fb07 f803 	mul.w	r8, r7, r3
 8018e4a:	eba1 0b08 	sub.w	fp, r1, r8
 8018e4e:	eb0a 020b 	add.w	r2, sl, fp
 8018e52:	4293      	cmp	r3, r2
 8018e54:	d203      	bcs.n	8018e5e <_write_sectors+0x32>
 8018e56:	eba8 0801 	sub.w	r8, r8, r1
 8018e5a:	4498      	add	r8, r3
 8018e5c:	e000      	b.n	8018e60 <_write_sectors+0x34>
 8018e5e:	46d0      	mov	r8, sl
 8018e60:	f8d6 40a0 	ldr.w	r4, [r6, #160]	; 0xa0
 8018e64:	42bc      	cmp	r4, r7
 8018e66:	d007      	beq.n	8018e78 <_write_sectors+0x4c>
 8018e68:	428b      	cmp	r3, r1
 8018e6a:	d802      	bhi.n	8018e72 <_write_sectors+0x46>
 8018e6c:	1c63      	adds	r3, r4, #1
 8018e6e:	42bb      	cmp	r3, r7
 8018e70:	d005      	beq.n	8018e7e <_write_sectors+0x52>
 8018e72:	6875      	ldr	r5, [r6, #4]
 8018e74:	2400      	movs	r4, #0
 8018e76:	e018      	b.n	8018eaa <_write_sectors+0x7e>
 8018e78:	f8d6 50a4 	ldr.w	r5, [r6, #164]	; 0xa4
 8018e7c:	e027      	b.n	8018ece <_write_sectors+0xa2>
 8018e7e:	f8d6 50a4 	ldr.w	r5, [r6, #164]	; 0xa4
 8018e82:	e012      	b.n	8018eaa <_write_sectors+0x7e>
 8018e84:	f8df 9094 	ldr.w	r9, [pc, #148]	; 8018f1c <_write_sectors+0xf0>
 8018e88:	4629      	mov	r1, r5
 8018e8a:	4648      	mov	r0, r9
 8018e8c:	f001 f925 	bl	801a0da <fatfs_find_next_cluster>
 8018e90:	4603      	mov	r3, r0
 8018e92:	9002      	str	r0, [sp, #8]
 8018e94:	4622      	mov	r2, r4
 8018e96:	4631      	mov	r1, r6
 8018e98:	4648      	mov	r0, r9
 8018e9a:	f7fe faf9 	bl	8017490 <fatfs_cache_set_next_cluster>
 8018e9e:	9503      	str	r5, [sp, #12]
 8018ea0:	9d02      	ldr	r5, [sp, #8]
 8018ea2:	f1b5 3fff 	cmp.w	r5, #4294967295	; 0xffffffff
 8018ea6:	d00b      	beq.n	8018ec0 <_write_sectors+0x94>
 8018ea8:	3401      	adds	r4, #1
 8018eaa:	42bc      	cmp	r4, r7
 8018eac:	d208      	bcs.n	8018ec0 <_write_sectors+0x94>
 8018eae:	ab02      	add	r3, sp, #8
 8018eb0:	4622      	mov	r2, r4
 8018eb2:	4631      	mov	r1, r6
 8018eb4:	4819      	ldr	r0, [pc, #100]	; (8018f1c <_write_sectors+0xf0>)
 8018eb6:	f7fe fae9 	bl	801748c <fatfs_cache_get_next_cluster>
 8018eba:	2800      	cmp	r0, #0
 8018ebc:	d1ef      	bne.n	8018e9e <_write_sectors+0x72>
 8018ebe:	e7e1      	b.n	8018e84 <_write_sectors+0x58>
 8018ec0:	f1b5 3fff 	cmp.w	r5, #4294967295	; 0xffffffff
 8018ec4:	d014      	beq.n	8018ef0 <_write_sectors+0xc4>
 8018ec6:	f8c6 50a4 	str.w	r5, [r6, #164]	; 0xa4
 8018eca:	f8c6 70a0 	str.w	r7, [r6, #160]	; 0xa0
 8018ece:	4c13      	ldr	r4, [pc, #76]	; (8018f1c <_write_sectors+0xf0>)
 8018ed0:	4629      	mov	r1, r5
 8018ed2:	4620      	mov	r0, r4
 8018ed4:	f7fe fc2f 	bl	8017736 <fatfs_lba_of_cluster>
 8018ed8:	4643      	mov	r3, r8
 8018eda:	9a01      	ldr	r2, [sp, #4]
 8018edc:	eb00 010b 	add.w	r1, r0, fp
 8018ee0:	4620      	mov	r0, r4
 8018ee2:	f7fe fc42 	bl	801776a <fatfs_sector_write>
 8018ee6:	b1a0      	cbz	r0, 8018f12 <_write_sectors+0xe6>
 8018ee8:	4640      	mov	r0, r8
 8018eea:	b005      	add	sp, #20
 8018eec:	e8bd 8ff0 	ldmia.w	sp!, {r4, r5, r6, r7, r8, r9, sl, fp, pc}
 8018ef0:	4809      	ldr	r0, [pc, #36]	; (8018f18 <_write_sectors+0xec>)
 8018ef2:	f810 2f10 	ldrb.w	r2, [r0, #16]!
 8018ef6:	4492      	add	sl, r2
 8018ef8:	f10a 3aff 	add.w	sl, sl, #4294967295	; 0xffffffff
 8018efc:	fbba f2f2 	udiv	r2, sl, r2
 8018f00:	a903      	add	r1, sp, #12
 8018f02:	f7ff f976 	bl	80181f2 <fatfs_add_free_space>
 8018f06:	b108      	cbz	r0, 8018f0c <_write_sectors+0xe0>
 8018f08:	9d03      	ldr	r5, [sp, #12]
 8018f0a:	e7dc      	b.n	8018ec6 <_write_sectors+0x9a>
 8018f0c:	f04f 0800 	mov.w	r8, #0
 8018f10:	e7ea      	b.n	8018ee8 <_write_sectors+0xbc>
 8018f12:	f04f 0800 	mov.w	r8, #0
 8018f16:	e7e7      	b.n	8018ee8 <_write_sectors+0xbc>
 8018f18:	200003c4 	.word	0x200003c4
 8018f1c:	200003d4 	.word	0x200003d4

08018f20 <_read_sectors>:
 8018f20:	e92d 4ff0 	stmdb	sp!, {r4, r5, r6, r7, r8, r9, sl, fp, lr}
 8018f24:	b083      	sub	sp, #12
 8018f26:	4605      	mov	r5, r0
 8018f28:	4691      	mov	r9, r2
 8018f2a:	4698      	mov	r8, r3
 8018f2c:	4b2c      	ldr	r3, [pc, #176]	; (8018fe0 <_read_sectors+0xc0>)
 8018f2e:	7c1a      	ldrb	r2, [r3, #16]
 8018f30:	fbb1 f7f2 	udiv	r7, r1, r2
 8018f34:	fb07 f302 	mul.w	r3, r7, r2
 8018f38:	eba1 0a03 	sub.w	sl, r1, r3
 8018f3c:	eb0a 0008 	add.w	r0, sl, r8
 8018f40:	4282      	cmp	r2, r0
 8018f42:	d202      	bcs.n	8018f4a <_read_sectors+0x2a>
 8018f44:	1a5b      	subs	r3, r3, r1
 8018f46:	eb03 0802 	add.w	r8, r3, r2
 8018f4a:	f8d5 40a0 	ldr.w	r4, [r5, #160]	; 0xa0
 8018f4e:	42bc      	cmp	r4, r7
 8018f50:	d007      	beq.n	8018f62 <_read_sectors+0x42>
 8018f52:	428a      	cmp	r2, r1
 8018f54:	d802      	bhi.n	8018f5c <_read_sectors+0x3c>
 8018f56:	1c63      	adds	r3, r4, #1
 8018f58:	42bb      	cmp	r3, r7
 8018f5a:	d005      	beq.n	8018f68 <_read_sectors+0x48>
 8018f5c:	686e      	ldr	r6, [r5, #4]
 8018f5e:	2400      	movs	r4, #0
 8018f60:	e014      	b.n	8018f8c <_read_sectors+0x6c>
 8018f62:	f8d5 60a4 	ldr.w	r6, [r5, #164]	; 0xa4
 8018f66:	e023      	b.n	8018fb0 <_read_sectors+0x90>
 8018f68:	f8d5 60a4 	ldr.w	r6, [r5, #164]	; 0xa4
 8018f6c:	e00e      	b.n	8018f8c <_read_sectors+0x6c>
 8018f6e:	f8df b074 	ldr.w	fp, [pc, #116]	; 8018fe4 <_read_sectors+0xc4>
 8018f72:	4631      	mov	r1, r6
 8018f74:	4658      	mov	r0, fp
 8018f76:	f001 f8b0 	bl	801a0da <fatfs_find_next_cluster>
 8018f7a:	4603      	mov	r3, r0
 8018f7c:	9001      	str	r0, [sp, #4]
 8018f7e:	4622      	mov	r2, r4
 8018f80:	4629      	mov	r1, r5
 8018f82:	4658      	mov	r0, fp
 8018f84:	f7fe fa84 	bl	8017490 <fatfs_cache_set_next_cluster>
 8018f88:	9e01      	ldr	r6, [sp, #4]
 8018f8a:	3401      	adds	r4, #1
 8018f8c:	42bc      	cmp	r4, r7
 8018f8e:	d208      	bcs.n	8018fa2 <_read_sectors+0x82>
 8018f90:	ab01      	add	r3, sp, #4
 8018f92:	4622      	mov	r2, r4
 8018f94:	4629      	mov	r1, r5
 8018f96:	4813      	ldr	r0, [pc, #76]	; (8018fe4 <_read_sectors+0xc4>)
 8018f98:	f7fe fa78 	bl	801748c <fatfs_cache_get_next_cluster>
 8018f9c:	2800      	cmp	r0, #0
 8018f9e:	d1f3      	bne.n	8018f88 <_read_sectors+0x68>
 8018fa0:	e7e5      	b.n	8018f6e <_read_sectors+0x4e>
 8018fa2:	f1b6 3fff 	cmp.w	r6, #4294967295	; 0xffffffff
 8018fa6:	d003      	beq.n	8018fb0 <_read_sectors+0x90>
 8018fa8:	f8c5 60a4 	str.w	r6, [r5, #164]	; 0xa4
 8018fac:	f8c5 70a0 	str.w	r7, [r5, #160]	; 0xa0
 8018fb0:	f1b6 3fff 	cmp.w	r6, #4294967295	; 0xffffffff
 8018fb4:	d00e      	beq.n	8018fd4 <_read_sectors+0xb4>
 8018fb6:	4c0b      	ldr	r4, [pc, #44]	; (8018fe4 <_read_sectors+0xc4>)
 8018fb8:	4631      	mov	r1, r6
 8018fba:	4620      	mov	r0, r4
 8018fbc:	f7fe fbbb 	bl	8017736 <fatfs_lba_of_cluster>
 8018fc0:	4643      	mov	r3, r8
 8018fc2:	464a      	mov	r2, r9
 8018fc4:	eb00 010a 	add.w	r1, r0, sl
 8018fc8:	4620      	mov	r0, r4
 8018fca:	f7fe fbc6 	bl	801775a <fatfs_sector_read>
 8018fce:	b128      	cbz	r0, 8018fdc <_read_sectors+0xbc>
 8018fd0:	4640      	mov	r0, r8
 8018fd2:	e000      	b.n	8018fd6 <_read_sectors+0xb6>
 8018fd4:	2000      	movs	r0, #0
 8018fd6:	b003      	add	sp, #12
 8018fd8:	e8bd 8ff0 	ldmia.w	sp!, {r4, r5, r6, r7, r8, r9, sl, fp, pc}
 8018fdc:	2000      	movs	r0, #0
 8018fde:	e7fa      	b.n	8018fd6 <_read_sectors+0xb6>
 8018fe0:	200003c4 	.word	0x200003c4
 8018fe4:	200003d4 	.word	0x200003d4

08018fe8 <_create_directory>:
 8018fe8:	e92d 43f0 	stmdb	sp!, {r4, r5, r6, r7, r8, r9, lr}
 8018fec:	b091      	sub	sp, #68	; 0x44
 8018fee:	4605      	mov	r5, r0
 8018ff0:	f7ff fd5e 	bl	8018ab0 <_allocate_file>
 8018ff4:	2800      	cmp	r0, #0
 8018ff6:	f000 80cd 	beq.w	8019194 <_create_directory+0x1ac>
 8018ffa:	4604      	mov	r4, r0
 8018ffc:	f100 0614 	add.w	r6, r0, #20
 8019000:	2240      	movs	r2, #64	; 0x40
 8019002:	2100      	movs	r1, #0
 8019004:	4630      	mov	r0, r6
 8019006:	f7f9 fc6c 	bl	80128e2 <memset>
 801900a:	f104 0754 	add.w	r7, r4, #84	; 0x54
 801900e:	2240      	movs	r2, #64	; 0x40
 8019010:	2100      	movs	r1, #0
 8019012:	4638      	mov	r0, r7
 8019014:	f7f9 fc65 	bl	80128e2 <memset>
 8019018:	2240      	movs	r2, #64	; 0x40
 801901a:	9200      	str	r2, [sp, #0]
 801901c:	463b      	mov	r3, r7
 801901e:	4631      	mov	r1, r6
 8019020:	4628      	mov	r0, r5
 8019022:	f7fe ff49 	bl	8017eb8 <fatfs_split_path>
 8019026:	f1b0 3fff 	cmp.w	r0, #4294967295	; 0xffffffff
 801902a:	d036      	beq.n	801909a <_create_directory+0xb2>
 801902c:	4620      	mov	r0, r4
 801902e:	f7ff fd63 	bl	8018af8 <_check_file_open>
 8019032:	4680      	mov	r8, r0
 8019034:	2800      	cmp	r0, #0
 8019036:	d135      	bne.n	80190a4 <_create_directory+0xbc>
 8019038:	7d23      	ldrb	r3, [r4, #20]
 801903a:	2b00      	cmp	r3, #0
 801903c:	d137      	bne.n	80190ae <_create_directory+0xc6>
 801903e:	4858      	ldr	r0, [pc, #352]	; (80191a0 <_create_directory+0x1b8>)
 8019040:	f7fe fc74 	bl	801792c <fatfs_get_root_cluster>
 8019044:	6020      	str	r0, [r4, #0]
 8019046:	ab08      	add	r3, sp, #32
 8019048:	463a      	mov	r2, r7
 801904a:	6821      	ldr	r1, [r4, #0]
 801904c:	4854      	ldr	r0, [pc, #336]	; (80191a0 <_create_directory+0x1b8>)
 801904e:	f7fe fc6f 	bl	8017930 <fatfs_get_file_entry>
 8019052:	2801      	cmp	r0, #1
 8019054:	d036      	beq.n	80190c4 <_create_directory+0xdc>
 8019056:	4622      	mov	r2, r4
 8019058:	2300      	movs	r3, #0
 801905a:	f842 3f04 	str.w	r3, [r2, #4]!
 801905e:	2301      	movs	r3, #1
 8019060:	4619      	mov	r1, r3
 8019062:	484f      	ldr	r0, [pc, #316]	; (80191a0 <_create_directory+0x1b8>)
 8019064:	f7ff f8f7 	bl	8018256 <fatfs_allocate_free_space>
 8019068:	4606      	mov	r6, r0
 801906a:	b380      	cbz	r0, 80190ce <_create_directory+0xe6>
 801906c:	f104 09a8 	add.w	r9, r4, #168	; 0xa8
 8019070:	f44f 7200 	mov.w	r2, #512	; 0x200
 8019074:	2100      	movs	r1, #0
 8019076:	4648      	mov	r0, r9
 8019078:	f7f9 fc33 	bl	80128e2 <memset>
 801907c:	4645      	mov	r5, r8
 801907e:	4b49      	ldr	r3, [pc, #292]	; (80191a4 <_create_directory+0x1bc>)
 8019080:	7c1b      	ldrb	r3, [r3, #16]
 8019082:	42ab      	cmp	r3, r5
 8019084:	dd2b      	ble.n	80190de <_create_directory+0xf6>
 8019086:	464b      	mov	r3, r9
 8019088:	462a      	mov	r2, r5
 801908a:	6861      	ldr	r1, [r4, #4]
 801908c:	4844      	ldr	r0, [pc, #272]	; (80191a0 <_create_directory+0x1b8>)
 801908e:	f7fe fbe7 	bl	8017860 <fatfs_write_sector>
 8019092:	4606      	mov	r6, r0
 8019094:	b1f8      	cbz	r0, 80190d6 <_create_directory+0xee>
 8019096:	3501      	adds	r5, #1
 8019098:	e7f1      	b.n	801907e <_create_directory+0x96>
 801909a:	4620      	mov	r0, r4
 801909c:	f7ff fd1c 	bl	8018ad8 <_free_file>
 80190a0:	2600      	movs	r6, #0
 80190a2:	e078      	b.n	8019196 <_create_directory+0x1ae>
 80190a4:	4620      	mov	r0, r4
 80190a6:	f7ff fd17 	bl	8018ad8 <_free_file>
 80190aa:	2600      	movs	r6, #0
 80190ac:	e073      	b.n	8019196 <_create_directory+0x1ae>
 80190ae:	4621      	mov	r1, r4
 80190b0:	4630      	mov	r0, r6
 80190b2:	f7ff fd43 	bl	8018b3c <_open_directory>
 80190b6:	4606      	mov	r6, r0
 80190b8:	2800      	cmp	r0, #0
 80190ba:	d1c4      	bne.n	8019046 <_create_directory+0x5e>
 80190bc:	4620      	mov	r0, r4
 80190be:	f7ff fd0b 	bl	8018ad8 <_free_file>
 80190c2:	e068      	b.n	8019196 <_create_directory+0x1ae>
 80190c4:	4620      	mov	r0, r4
 80190c6:	f7ff fd07 	bl	8018ad8 <_free_file>
 80190ca:	4646      	mov	r6, r8
 80190cc:	e063      	b.n	8019196 <_create_directory+0x1ae>
 80190ce:	4620      	mov	r0, r4
 80190d0:	f7ff fd02 	bl	8018ad8 <_free_file>
 80190d4:	e05f      	b.n	8019196 <_create_directory+0x1ae>
 80190d6:	4620      	mov	r0, r4
 80190d8:	f7ff fcfe 	bl	8018ad8 <_free_file>
 80190dc:	e05b      	b.n	8019196 <_create_directory+0x1ae>
 80190de:	4645      	mov	r5, r8
 80190e0:	e012      	b.n	8019108 <_create_directory+0x120>
 80190e2:	220b      	movs	r2, #11
 80190e4:	a905      	add	r1, sp, #20
 80190e6:	f104 0094 	add.w	r0, r4, #148	; 0x94
 80190ea:	f7f9 fc01 	bl	80128f0 <memcpy>
 80190ee:	4626      	mov	r6, r4
 80190f0:	f856 1b94 	ldr.w	r1, [r6], #148
 80190f4:	4632      	mov	r2, r6
 80190f6:	482a      	ldr	r0, [pc, #168]	; (80191a0 <_create_directory+0x1b8>)
 80190f8:	f7fe fcae 	bl	8017a58 <fatfs_sfn_exists>
 80190fc:	b188      	cbz	r0, 8019122 <_create_directory+0x13a>
 80190fe:	3501      	adds	r5, #1
 8019100:	f242 730e 	movw	r3, #9998	; 0x270e
 8019104:	429d      	cmp	r5, r3
 8019106:	dc0c      	bgt.n	8019122 <_create_directory+0x13a>
 8019108:	4639      	mov	r1, r7
 801910a:	a805      	add	r0, sp, #20
 801910c:	f000 fea8 	bl	8019e60 <fatfs_lfn_create_sfn>
 8019110:	2d00      	cmp	r5, #0
 8019112:	d0e6      	beq.n	80190e2 <_create_directory+0xfa>
 8019114:	462a      	mov	r2, r5
 8019116:	a905      	add	r1, sp, #20
 8019118:	f104 0094 	add.w	r0, r4, #148	; 0x94
 801911c:	f000 ff07 	bl	8019f2e <fatfs_lfn_generate_tail>
 8019120:	e7e5      	b.n	80190ee <_create_directory+0x106>
 8019122:	f242 730f 	movw	r3, #9999	; 0x270f
 8019126:	429d      	cmp	r5, r3
 8019128:	d023      	beq.n	8019172 <_create_directory+0x18a>
 801912a:	6821      	ldr	r1, [r4, #0]
 801912c:	2301      	movs	r3, #1
 801912e:	9302      	str	r3, [sp, #8]
 8019130:	2300      	movs	r3, #0
 8019132:	9301      	str	r3, [sp, #4]
 8019134:	6863      	ldr	r3, [r4, #4]
 8019136:	9300      	str	r3, [sp, #0]
 8019138:	4633      	mov	r3, r6
 801913a:	463a      	mov	r2, r7
 801913c:	4818      	ldr	r0, [pc, #96]	; (80191a0 <_create_directory+0x1b8>)
 801913e:	f7ff f8c9 	bl	80182d4 <fatfs_add_file_entry>
 8019142:	4606      	mov	r6, r0
 8019144:	b1f0      	cbz	r0, 8019184 <_create_directory+0x19c>
 8019146:	2300      	movs	r3, #0
 8019148:	60e3      	str	r3, [r4, #12]
 801914a:	60a3      	str	r3, [r4, #8]
 801914c:	f04f 32ff 	mov.w	r2, #4294967295	; 0xffffffff
 8019150:	f8c4 22a8 	str.w	r2, [r4, #680]	; 0x2a8
 8019154:	f8c4 32ac 	str.w	r3, [r4, #684]	; 0x2ac
 8019158:	6123      	str	r3, [r4, #16]
 801915a:	f8c4 20a0 	str.w	r2, [r4, #160]	; 0xa0
 801915e:	f8c4 20a4 	str.w	r2, [r4, #164]	; 0xa4
 8019162:	480f      	ldr	r0, [pc, #60]	; (80191a0 <_create_directory+0x1b8>)
 8019164:	f000 ffa2 	bl	801a0ac <fatfs_fat_purge>
 8019168:	4620      	mov	r0, r4
 801916a:	f7ff fcb5 	bl	8018ad8 <_free_file>
 801916e:	2601      	movs	r6, #1
 8019170:	e011      	b.n	8019196 <_create_directory+0x1ae>
 8019172:	6861      	ldr	r1, [r4, #4]
 8019174:	480a      	ldr	r0, [pc, #40]	; (80191a0 <_create_directory+0x1b8>)
 8019176:	f001 f8b3 	bl	801a2e0 <fatfs_free_cluster_chain>
 801917a:	4620      	mov	r0, r4
 801917c:	f7ff fcac 	bl	8018ad8 <_free_file>
 8019180:	4646      	mov	r6, r8
 8019182:	e008      	b.n	8019196 <_create_directory+0x1ae>
 8019184:	6861      	ldr	r1, [r4, #4]
 8019186:	4806      	ldr	r0, [pc, #24]	; (80191a0 <_create_directory+0x1b8>)
 8019188:	f001 f8aa 	bl	801a2e0 <fatfs_free_cluster_chain>
 801918c:	4620      	mov	r0, r4
 801918e:	f7ff fca3 	bl	8018ad8 <_free_file>
 8019192:	e000      	b.n	8019196 <_create_directory+0x1ae>
 8019194:	2600      	movs	r6, #0
 8019196:	4630      	mov	r0, r6
 8019198:	b011      	add	sp, #68	; 0x44
 801919a:	e8bd 83f0 	ldmia.w	sp!, {r4, r5, r6, r7, r8, r9, pc}
 801919e:	bf00      	nop
 80191a0:	200003d4 	.word	0x200003d4
 80191a4:	200003c4 	.word	0x200003c4

080191a8 <fl_init>:
 80191a8:	b510      	push	{r4, lr}
 80191aa:	4c0f      	ldr	r4, [pc, #60]	; (80191e8 <fl_init+0x40>)
 80191ac:	4620      	mov	r0, r4
 80191ae:	f7ff fc39 	bl	8018a24 <fat_list_init>
 80191b2:	f104 0008 	add.w	r0, r4, #8
 80191b6:	f7ff fc35 	bl	8018a24 <fat_list_init>
 80191ba:	2400      	movs	r4, #0
 80191bc:	e00d      	b.n	80191da <fl_init+0x32>
 80191be:	480a      	ldr	r0, [pc, #40]	; (80191e8 <fl_init+0x40>)
 80191c0:	f200 4374 	addw	r3, r0, #1140	; 0x474
 80191c4:	f44f 712f 	mov.w	r1, #700	; 0x2bc
 80191c8:	fb01 f104 	mul.w	r1, r1, r4
 80191cc:	f501 712c 	add.w	r1, r1, #688	; 0x2b0
 80191d0:	4419      	add	r1, r3
 80191d2:	3104      	adds	r1, #4
 80191d4:	f7ff fc59 	bl	8018a8a <fat_list_insert_last>
 80191d8:	3401      	adds	r4, #1
 80191da:	2c02      	cmp	r4, #2
 80191dc:	ddef      	ble.n	80191be <fl_init+0x16>
 80191de:	4b02      	ldr	r3, [pc, #8]	; (80191e8 <fl_init+0x40>)
 80191e0:	2201      	movs	r2, #1
 80191e2:	f8c3 2ca8 	str.w	r2, [r3, #3240]	; 0xca8
 80191e6:	bd10      	pop	{r4, pc}
 80191e8:	200003c4 	.word	0x200003c4

080191ec <fl_attach_locks>:
 80191ec:	4b01      	ldr	r3, [pc, #4]	; (80191f4 <fl_attach_locks+0x8>)
 80191ee:	6498      	str	r0, [r3, #72]	; 0x48
 80191f0:	64d9      	str	r1, [r3, #76]	; 0x4c
 80191f2:	4770      	bx	lr
 80191f4:	200003c4 	.word	0x200003c4

080191f8 <fl_attach_media>:
 80191f8:	b538      	push	{r3, r4, r5, lr}
 80191fa:	4605      	mov	r5, r0
 80191fc:	460c      	mov	r4, r1
 80191fe:	4b0d      	ldr	r3, [pc, #52]	; (8019234 <fl_attach_media+0x3c>)
 8019200:	f8d3 3ca8 	ldr.w	r3, [r3, #3240]	; 0xca8
 8019204:	b16b      	cbz	r3, 8019222 <fl_attach_media+0x2a>
 8019206:	480b      	ldr	r0, [pc, #44]	; (8019234 <fl_attach_media+0x3c>)
 8019208:	6405      	str	r5, [r0, #64]	; 0x40
 801920a:	6444      	str	r4, [r0, #68]	; 0x44
 801920c:	3010      	adds	r0, #16
 801920e:	f7fe f96d 	bl	80174ec <fatfs_init>
 8019212:	4604      	mov	r4, r0
 8019214:	b940      	cbnz	r0, 8019228 <fl_attach_media+0x30>
 8019216:	4b07      	ldr	r3, [pc, #28]	; (8019234 <fl_attach_media+0x3c>)
 8019218:	2201      	movs	r2, #1
 801921a:	f8c3 2cac 	str.w	r2, [r3, #3244]	; 0xcac
 801921e:	4620      	mov	r0, r4
 8019220:	bd38      	pop	{r3, r4, r5, pc}
 8019222:	f7ff ffc1 	bl	80191a8 <fl_init>
 8019226:	e7ee      	b.n	8019206 <fl_attach_media+0xe>
 8019228:	4601      	mov	r1, r0
 801922a:	4803      	ldr	r0, [pc, #12]	; (8019238 <fl_attach_media+0x40>)
 801922c:	f7f7 f934 	bl	8010498 <printf>
 8019230:	e7f5      	b.n	801921e <fl_attach_media+0x26>
 8019232:	bf00      	nop
 8019234:	200003c4 	.word	0x200003c4
 8019238:	0801b650 	.word	0x0801b650

0801923c <fl_shutdown>:
 801923c:	b510      	push	{r4, lr}
 801923e:	4b0a      	ldr	r3, [pc, #40]	; (8019268 <fl_shutdown+0x2c>)
 8019240:	f8d3 3ca8 	ldr.w	r3, [r3, #3240]	; 0xca8
 8019244:	b163      	cbz	r3, 8019260 <fl_shutdown+0x24>
 8019246:	4b08      	ldr	r3, [pc, #32]	; (8019268 <fl_shutdown+0x2c>)
 8019248:	6c9b      	ldr	r3, [r3, #72]	; 0x48
 801924a:	b103      	cbz	r3, 801924e <fl_shutdown+0x12>
 801924c:	4798      	blx	r3
 801924e:	4c06      	ldr	r4, [pc, #24]	; (8019268 <fl_shutdown+0x2c>)
 8019250:	f104 0010 	add.w	r0, r4, #16
 8019254:	f000 ff2a 	bl	801a0ac <fatfs_fat_purge>
 8019258:	6ce3      	ldr	r3, [r4, #76]	; 0x4c
 801925a:	b103      	cbz	r3, 801925e <fl_shutdown+0x22>
 801925c:	4798      	blx	r3
 801925e:	bd10      	pop	{r4, pc}
 8019260:	f7ff ffa2 	bl	80191a8 <fl_init>
 8019264:	e7ef      	b.n	8019246 <fl_shutdown+0xa>
 8019266:	bf00      	nop
 8019268:	200003c4 	.word	0x200003c4

0801926c <fl_fopen>:
 801926c:	b5f8      	push	{r3, r4, r5, r6, r7, lr}
 801926e:	4607      	mov	r7, r0
 8019270:	460d      	mov	r5, r1
 8019272:	4b77      	ldr	r3, [pc, #476]	; (8019450 <fl_fopen+0x1e4>)
 8019274:	f8d3 3ca8 	ldr.w	r3, [r3, #3240]	; 0xca8
 8019278:	b173      	cbz	r3, 8019298 <fl_fopen+0x2c>
 801927a:	4b75      	ldr	r3, [pc, #468]	; (8019450 <fl_fopen+0x1e4>)
 801927c:	f8d3 3cac 	ldr.w	r3, [r3, #3244]	; 0xcac
 8019280:	2b00      	cmp	r3, #0
 8019282:	f000 80e0 	beq.w	8019446 <fl_fopen+0x1da>
 8019286:	2f00      	cmp	r7, #0
 8019288:	f000 80df 	beq.w	801944a <fl_fopen+0x1de>
 801928c:	2d00      	cmp	r5, #0
 801928e:	f000 80c1 	beq.w	8019414 <fl_fopen+0x1a8>
 8019292:	2600      	movs	r6, #0
 8019294:	4634      	mov	r4, r6
 8019296:	e005      	b.n	80192a4 <fl_fopen+0x38>
 8019298:	f7ff ff86 	bl	80191a8 <fl_init>
 801929c:	e7ed      	b.n	801927a <fl_fopen+0xe>
 801929e:	f046 0601 	orr.w	r6, r6, #1
 80192a2:	3401      	adds	r4, #1
 80192a4:	4628      	mov	r0, r5
 80192a6:	f7f9 fb4d 	bl	8012944 <strlen>
 80192aa:	42a0      	cmp	r0, r4
 80192ac:	f340 8098 	ble.w	80193e0 <fl_fopen+0x174>
 80192b0:	5d2b      	ldrb	r3, [r5, r4]
 80192b2:	2b2b      	cmp	r3, #43	; 0x2b
 80192b4:	d07e      	beq.n	80193b4 <fl_fopen+0x148>
 80192b6:	d3f4      	bcc.n	80192a2 <fl_fopen+0x36>
 80192b8:	2b77      	cmp	r3, #119	; 0x77
 80192ba:	d8f2      	bhi.n	80192a2 <fl_fopen+0x36>
 80192bc:	2b41      	cmp	r3, #65	; 0x41
 80192be:	d3f0      	bcc.n	80192a2 <fl_fopen+0x36>
 80192c0:	3b41      	subs	r3, #65	; 0x41
 80192c2:	2b36      	cmp	r3, #54	; 0x36
 80192c4:	d8ed      	bhi.n	80192a2 <fl_fopen+0x36>
 80192c6:	a201      	add	r2, pc, #4	; (adr r2, 80192cc <fl_fopen+0x60>)
 80192c8:	f852 f023 	ldr.w	pc, [r2, r3, lsl #2]
 80192cc:	080193af 	.word	0x080193af
 80192d0:	080193db 	.word	0x080193db
 80192d4:	080192a3 	.word	0x080192a3
 80192d8:	080192a3 	.word	0x080192a3
 80192dc:	080192a3 	.word	0x080192a3
 80192e0:	080192a3 	.word	0x080192a3
 80192e4:	080192a3 	.word	0x080192a3
 80192e8:	080192a3 	.word	0x080192a3
 80192ec:	080192a3 	.word	0x080192a3
 80192f0:	080192a3 	.word	0x080192a3
 80192f4:	080192a3 	.word	0x080192a3
 80192f8:	080192a3 	.word	0x080192a3
 80192fc:	080192a3 	.word	0x080192a3
 8019300:	080192a3 	.word	0x080192a3
 8019304:	080192a3 	.word	0x080192a3
 8019308:	080192a3 	.word	0x080192a3
 801930c:	080192a3 	.word	0x080192a3
 8019310:	0801929f 	.word	0x0801929f
 8019314:	080192a3 	.word	0x080192a3
 8019318:	080192a3 	.word	0x080192a3
 801931c:	080192a3 	.word	0x080192a3
 8019320:	080192a3 	.word	0x080192a3
 8019324:	080193a9 	.word	0x080193a9
 8019328:	080192a3 	.word	0x080192a3
 801932c:	080192a3 	.word	0x080192a3
 8019330:	080192a3 	.word	0x080192a3
 8019334:	080192a3 	.word	0x080192a3
 8019338:	080192a3 	.word	0x080192a3
 801933c:	080192a3 	.word	0x080192a3
 8019340:	080192a3 	.word	0x080192a3
 8019344:	080192a3 	.word	0x080192a3
 8019348:	080192a3 	.word	0x080192a3
 801934c:	080193af 	.word	0x080193af
 8019350:	080193db 	.word	0x080193db
 8019354:	080192a3 	.word	0x080192a3
 8019358:	080192a3 	.word	0x080192a3
 801935c:	080192a3 	.word	0x080192a3
 8019360:	080192a3 	.word	0x080192a3
 8019364:	080192a3 	.word	0x080192a3
 8019368:	080192a3 	.word	0x080192a3
 801936c:	080192a3 	.word	0x080192a3
 8019370:	080192a3 	.word	0x080192a3
 8019374:	080192a3 	.word	0x080192a3
 8019378:	080192a3 	.word	0x080192a3
 801937c:	080192a3 	.word	0x080192a3
 8019380:	080192a3 	.word	0x080192a3
 8019384:	080192a3 	.word	0x080192a3
 8019388:	080192a3 	.word	0x080192a3
 801938c:	080192a3 	.word	0x080192a3
 8019390:	0801929f 	.word	0x0801929f
 8019394:	080192a3 	.word	0x080192a3
 8019398:	080192a3 	.word	0x080192a3
 801939c:	080192a3 	.word	0x080192a3
 80193a0:	080192a3 	.word	0x080192a3
 80193a4:	080193a9 	.word	0x080193a9
 80193a8:	f046 0632 	orr.w	r6, r6, #50	; 0x32
 80193ac:	e779      	b.n	80192a2 <fl_fopen+0x36>
 80193ae:	f046 0626 	orr.w	r6, r6, #38	; 0x26
 80193b2:	e776      	b.n	80192a2 <fl_fopen+0x36>
 80193b4:	f016 0f01 	tst.w	r6, #1
 80193b8:	d002      	beq.n	80193c0 <fl_fopen+0x154>
 80193ba:	f046 0602 	orr.w	r6, r6, #2
 80193be:	e770      	b.n	80192a2 <fl_fopen+0x36>
 80193c0:	f016 0f02 	tst.w	r6, #2
 80193c4:	d002      	beq.n	80193cc <fl_fopen+0x160>
 80193c6:	f046 0631 	orr.w	r6, r6, #49	; 0x31
 80193ca:	e76a      	b.n	80192a2 <fl_fopen+0x36>
 80193cc:	f016 0f04 	tst.w	r6, #4
 80193d0:	f43f af67 	beq.w	80192a2 <fl_fopen+0x36>
 80193d4:	f046 0627 	orr.w	r6, r6, #39	; 0x27
 80193d8:	e763      	b.n	80192a2 <fl_fopen+0x36>
 80193da:	f046 0608 	orr.w	r6, r6, #8
 80193de:	e760      	b.n	80192a2 <fl_fopen+0x36>
 80193e0:	4b1b      	ldr	r3, [pc, #108]	; (8019450 <fl_fopen+0x1e4>)
 80193e2:	6c5b      	ldr	r3, [r3, #68]	; 0x44
 80193e4:	b1c3      	cbz	r3, 8019418 <fl_fopen+0x1ac>
 80193e6:	4b1a      	ldr	r3, [pc, #104]	; (8019450 <fl_fopen+0x1e4>)
 80193e8:	6c9b      	ldr	r3, [r3, #72]	; 0x48
 80193ea:	b103      	cbz	r3, 80193ee <fl_fopen+0x182>
 80193ec:	4798      	blx	r3
 80193ee:	f016 0401 	ands.w	r4, r6, #1
 80193f2:	d114      	bne.n	801941e <fl_fopen+0x1b2>
 80193f4:	2500      	movs	r5, #0
 80193f6:	f016 0f20 	tst.w	r6, #32
 80193fa:	d117      	bne.n	801942c <fl_fopen+0x1c0>
 80193fc:	b91c      	cbnz	r4, 8019406 <fl_fopen+0x19a>
 80193fe:	f016 0f20 	tst.w	r6, #32
 8019402:	d000      	beq.n	8019406 <fl_fopen+0x19a>
 8019404:	b1bd      	cbz	r5, 8019436 <fl_fopen+0x1ca>
 8019406:	b10d      	cbz	r5, 801940c <fl_fopen+0x1a0>
 8019408:	f885 62b0 	strb.w	r6, [r5, #688]	; 0x2b0
 801940c:	4b10      	ldr	r3, [pc, #64]	; (8019450 <fl_fopen+0x1e4>)
 801940e:	6cdb      	ldr	r3, [r3, #76]	; 0x4c
 8019410:	b103      	cbz	r3, 8019414 <fl_fopen+0x1a8>
 8019412:	4798      	blx	r3
 8019414:	4628      	mov	r0, r5
 8019416:	bdf8      	pop	{r3, r4, r5, r6, r7, pc}
 8019418:	f006 06d9 	and.w	r6, r6, #217	; 0xd9
 801941c:	e7e3      	b.n	80193e6 <fl_fopen+0x17a>
 801941e:	4638      	mov	r0, r7
 8019420:	f7ff fc8c 	bl	8018d3c <_open_file>
 8019424:	4605      	mov	r5, r0
 8019426:	2800      	cmp	r0, #0
 8019428:	d1e8      	bne.n	80193fc <fl_fopen+0x190>
 801942a:	e7e4      	b.n	80193f6 <fl_fopen+0x18a>
 801942c:	4638      	mov	r0, r7
 801942e:	f7ff fbc1 	bl	8018bb4 <_create_file>
 8019432:	4605      	mov	r5, r0
 8019434:	e7e2      	b.n	80193fc <fl_fopen+0x190>
 8019436:	f016 0f06 	tst.w	r6, #6
 801943a:	d0e4      	beq.n	8019406 <fl_fopen+0x19a>
 801943c:	4638      	mov	r0, r7
 801943e:	f7ff fc7d 	bl	8018d3c <_open_file>
 8019442:	4605      	mov	r5, r0
 8019444:	e7df      	b.n	8019406 <fl_fopen+0x19a>
 8019446:	2500      	movs	r5, #0
 8019448:	e7e4      	b.n	8019414 <fl_fopen+0x1a8>
 801944a:	463d      	mov	r5, r7
 801944c:	e7e2      	b.n	8019414 <fl_fopen+0x1a8>
 801944e:	bf00      	nop
 8019450:	200003c4 	.word	0x200003c4

08019454 <fl_fflush>:
 8019454:	b510      	push	{r4, lr}
 8019456:	4604      	mov	r4, r0
 8019458:	4b11      	ldr	r3, [pc, #68]	; (80194a0 <fl_fflush+0x4c>)
 801945a:	f8d3 3ca8 	ldr.w	r3, [r3, #3240]	; 0xca8
 801945e:	b16b      	cbz	r3, 801947c <fl_fflush+0x28>
 8019460:	b154      	cbz	r4, 8019478 <fl_fflush+0x24>
 8019462:	4b0f      	ldr	r3, [pc, #60]	; (80194a0 <fl_fflush+0x4c>)
 8019464:	6c9b      	ldr	r3, [r3, #72]	; 0x48
 8019466:	b103      	cbz	r3, 801946a <fl_fflush+0x16>
 8019468:	4798      	blx	r3
 801946a:	f8d4 32ac 	ldr.w	r3, [r4, #684]	; 0x2ac
 801946e:	b943      	cbnz	r3, 8019482 <fl_fflush+0x2e>
 8019470:	4b0b      	ldr	r3, [pc, #44]	; (80194a0 <fl_fflush+0x4c>)
 8019472:	6cdb      	ldr	r3, [r3, #76]	; 0x4c
 8019474:	b103      	cbz	r3, 8019478 <fl_fflush+0x24>
 8019476:	4798      	blx	r3
 8019478:	2000      	movs	r0, #0
 801947a:	bd10      	pop	{r4, pc}
 801947c:	f7ff fe94 	bl	80191a8 <fl_init>
 8019480:	e7ee      	b.n	8019460 <fl_fflush+0xc>
 8019482:	2301      	movs	r3, #1
 8019484:	f104 02a8 	add.w	r2, r4, #168	; 0xa8
 8019488:	f8d4 12a8 	ldr.w	r1, [r4, #680]	; 0x2a8
 801948c:	4620      	mov	r0, r4
 801948e:	f7ff fccd 	bl	8018e2c <_write_sectors>
 8019492:	2800      	cmp	r0, #0
 8019494:	d0ec      	beq.n	8019470 <fl_fflush+0x1c>
 8019496:	2300      	movs	r3, #0
 8019498:	f8c4 32ac 	str.w	r3, [r4, #684]	; 0x2ac
 801949c:	e7e8      	b.n	8019470 <fl_fflush+0x1c>
 801949e:	bf00      	nop
 80194a0:	200003c4 	.word	0x200003c4

080194a4 <fl_fclose>:
 80194a4:	b510      	push	{r4, lr}
 80194a6:	4604      	mov	r4, r0
 80194a8:	4b17      	ldr	r3, [pc, #92]	; (8019508 <fl_fclose+0x64>)
 80194aa:	f8d3 3ca8 	ldr.w	r3, [r3, #3240]	; 0xca8
 80194ae:	b303      	cbz	r3, 80194f2 <fl_fclose+0x4e>
 80194b0:	b1f4      	cbz	r4, 80194f0 <fl_fclose+0x4c>
 80194b2:	4b15      	ldr	r3, [pc, #84]	; (8019508 <fl_fclose+0x64>)
 80194b4:	6c9b      	ldr	r3, [r3, #72]	; 0x48
 80194b6:	b103      	cbz	r3, 80194ba <fl_fclose+0x16>
 80194b8:	4798      	blx	r3
 80194ba:	4620      	mov	r0, r4
 80194bc:	f7ff ffca 	bl	8019454 <fl_fflush>
 80194c0:	6923      	ldr	r3, [r4, #16]
 80194c2:	b9cb      	cbnz	r3, 80194f8 <fl_fclose+0x54>
 80194c4:	2300      	movs	r3, #0
 80194c6:	60a3      	str	r3, [r4, #8]
 80194c8:	60e3      	str	r3, [r4, #12]
 80194ca:	6063      	str	r3, [r4, #4]
 80194cc:	f04f 32ff 	mov.w	r2, #4294967295	; 0xffffffff
 80194d0:	f8c4 22a8 	str.w	r2, [r4, #680]	; 0x2a8
 80194d4:	f8c4 32ac 	str.w	r3, [r4, #684]	; 0x2ac
 80194d8:	6123      	str	r3, [r4, #16]
 80194da:	4620      	mov	r0, r4
 80194dc:	f7ff fafc 	bl	8018ad8 <_free_file>
 80194e0:	4c09      	ldr	r4, [pc, #36]	; (8019508 <fl_fclose+0x64>)
 80194e2:	f104 0010 	add.w	r0, r4, #16
 80194e6:	f000 fde1 	bl	801a0ac <fatfs_fat_purge>
 80194ea:	6ce3      	ldr	r3, [r4, #76]	; 0x4c
 80194ec:	b103      	cbz	r3, 80194f0 <fl_fclose+0x4c>
 80194ee:	4798      	blx	r3
 80194f0:	bd10      	pop	{r4, pc}
 80194f2:	f7ff fe59 	bl	80191a8 <fl_init>
 80194f6:	e7db      	b.n	80194b0 <fl_fclose+0xc>
 80194f8:	68e3      	ldr	r3, [r4, #12]
 80194fa:	f104 0294 	add.w	r2, r4, #148	; 0x94
 80194fe:	6821      	ldr	r1, [r4, #0]
 8019500:	4802      	ldr	r0, [pc, #8]	; (801950c <fl_fclose+0x68>)
 8019502:	f7fe fadc 	bl	8017abe <fatfs_update_file_length>
 8019506:	e7dd      	b.n	80194c4 <fl_fclose+0x20>
 8019508:	200003c4 	.word	0x200003c4
 801950c:	200003d4 	.word	0x200003d4

08019510 <fl_fread>:
 8019510:	e92d 47f0 	stmdb	sp!, {r4, r5, r6, r7, r8, r9, sl, lr}
 8019514:	4682      	mov	sl, r0
 8019516:	461c      	mov	r4, r3
 8019518:	fb02 f501 	mul.w	r5, r2, r1
 801951c:	4b3d      	ldr	r3, [pc, #244]	; (8019614 <fl_fread+0x104>)
 801951e:	f8d3 3ca8 	ldr.w	r3, [r3, #3240]	; 0xca8
 8019522:	b1cb      	cbz	r3, 8019558 <fl_fread+0x48>
 8019524:	f1ba 0f00 	cmp.w	sl, #0
 8019528:	d066      	beq.n	80195f8 <fl_fread+0xe8>
 801952a:	2c00      	cmp	r4, #0
 801952c:	d067      	beq.n	80195fe <fl_fread+0xee>
 801952e:	f894 32b0 	ldrb.w	r3, [r4, #688]	; 0x2b0
 8019532:	f013 0f01 	tst.w	r3, #1
 8019536:	d065      	beq.n	8019604 <fl_fread+0xf4>
 8019538:	2d00      	cmp	r5, #0
 801953a:	d065      	beq.n	8019608 <fl_fread+0xf8>
 801953c:	68a3      	ldr	r3, [r4, #8]
 801953e:	68e2      	ldr	r2, [r4, #12]
 8019540:	4293      	cmp	r3, r2
 8019542:	d264      	bcs.n	801960e <fl_fread+0xfe>
 8019544:	18e9      	adds	r1, r5, r3
 8019546:	428a      	cmp	r2, r1
 8019548:	d209      	bcs.n	801955e <fl_fread+0x4e>
 801954a:	eba2 0903 	sub.w	r9, r2, r3
 801954e:	0a5f      	lsrs	r7, r3, #9
 8019550:	f3c3 0808 	ubfx	r8, r3, #0, #9
 8019554:	2500      	movs	r5, #0
 8019556:	e033      	b.n	80195c0 <fl_fread+0xb0>
 8019558:	f7ff fe26 	bl	80191a8 <fl_init>
 801955c:	e7e2      	b.n	8019524 <fl_fread+0x14>
 801955e:	46a9      	mov	r9, r5
 8019560:	e7f5      	b.n	801954e <fl_fread+0x3e>
 8019562:	f202 13ff 	addw	r3, r2, #511	; 0x1ff
 8019566:	e038      	b.n	80195da <fl_fread+0xca>
 8019568:	f8d4 32a8 	ldr.w	r3, [r4, #680]	; 0x2a8
 801956c:	42bb      	cmp	r3, r7
 801956e:	d011      	beq.n	8019594 <fl_fread+0x84>
 8019570:	f8d4 32ac 	ldr.w	r3, [r4, #684]	; 0x2ac
 8019574:	2b00      	cmp	r3, #0
 8019576:	d13b      	bne.n	80195f0 <fl_fread+0xe0>
 8019578:	2301      	movs	r3, #1
 801957a:	f104 02a8 	add.w	r2, r4, #168	; 0xa8
 801957e:	4639      	mov	r1, r7
 8019580:	4620      	mov	r0, r4
 8019582:	f7ff fccd 	bl	8018f20 <_read_sectors>
 8019586:	2800      	cmp	r0, #0
 8019588:	d03e      	beq.n	8019608 <fl_fread+0xf8>
 801958a:	f8c4 72a8 	str.w	r7, [r4, #680]	; 0x2a8
 801958e:	2300      	movs	r3, #0
 8019590:	f8c4 32ac 	str.w	r3, [r4, #684]	; 0x2ac
 8019594:	f5c8 7300 	rsb	r3, r8, #512	; 0x200
 8019598:	eba9 0605 	sub.w	r6, r9, r5
 801959c:	429e      	cmp	r6, r3
 801959e:	db00      	blt.n	80195a2 <fl_fread+0x92>
 80195a0:	461e      	mov	r6, r3
 80195a2:	f104 01a8 	add.w	r1, r4, #168	; 0xa8
 80195a6:	4632      	mov	r2, r6
 80195a8:	4441      	add	r1, r8
 80195aa:	eb0a 0005 	add.w	r0, sl, r5
 80195ae:	f7f9 f99f 	bl	80128f0 <memcpy>
 80195b2:	3701      	adds	r7, #1
 80195b4:	4435      	add	r5, r6
 80195b6:	68a3      	ldr	r3, [r4, #8]
 80195b8:	441e      	add	r6, r3
 80195ba:	60a6      	str	r6, [r4, #8]
 80195bc:	f04f 0800 	mov.w	r8, #0
 80195c0:	45a9      	cmp	r9, r5
 80195c2:	dd21      	ble.n	8019608 <fl_fread+0xf8>
 80195c4:	f1b8 0f00 	cmp.w	r8, #0
 80195c8:	d1ce      	bne.n	8019568 <fl_fread+0x58>
 80195ca:	eba9 0205 	sub.w	r2, r9, r5
 80195ce:	f5b2 7f00 	cmp.w	r2, #512	; 0x200
 80195d2:	dbc9      	blt.n	8019568 <fl_fread+0x58>
 80195d4:	4613      	mov	r3, r2
 80195d6:	2a00      	cmp	r2, #0
 80195d8:	dbc3      	blt.n	8019562 <fl_fread+0x52>
 80195da:	125b      	asrs	r3, r3, #9
 80195dc:	eb0a 0205 	add.w	r2, sl, r5
 80195e0:	4639      	mov	r1, r7
 80195e2:	4620      	mov	r0, r4
 80195e4:	f7ff fc9c 	bl	8018f20 <_read_sectors>
 80195e8:	b170      	cbz	r0, 8019608 <fl_fread+0xf8>
 80195ea:	0246      	lsls	r6, r0, #9
 80195ec:	4407      	add	r7, r0
 80195ee:	e7e1      	b.n	80195b4 <fl_fread+0xa4>
 80195f0:	4620      	mov	r0, r4
 80195f2:	f7ff ff2f 	bl	8019454 <fl_fflush>
 80195f6:	e7bf      	b.n	8019578 <fl_fread+0x68>
 80195f8:	f04f 35ff 	mov.w	r5, #4294967295	; 0xffffffff
 80195fc:	e004      	b.n	8019608 <fl_fread+0xf8>
 80195fe:	f04f 35ff 	mov.w	r5, #4294967295	; 0xffffffff
 8019602:	e001      	b.n	8019608 <fl_fread+0xf8>
 8019604:	f04f 35ff 	mov.w	r5, #4294967295	; 0xffffffff
 8019608:	4628      	mov	r0, r5
 801960a:	e8bd 87f0 	ldmia.w	sp!, {r4, r5, r6, r7, r8, r9, sl, pc}
 801960e:	f04f 35ff 	mov.w	r5, #4294967295	; 0xffffffff
 8019612:	e7f9      	b.n	8019608 <fl_fread+0xf8>
 8019614:	200003c4 	.word	0x200003c4

08019618 <fl_fgetc>:
 8019618:	b500      	push	{lr}
 801961a:	b083      	sub	sp, #12
 801961c:	4603      	mov	r3, r0
 801961e:	2200      	movs	r2, #0
 8019620:	f88d 2007 	strb.w	r2, [sp, #7]
 8019624:	2201      	movs	r2, #1
 8019626:	4611      	mov	r1, r2
 8019628:	f10d 0007 	add.w	r0, sp, #7
 801962c:	f7ff ff70 	bl	8019510 <fl_fread>
 8019630:	2801      	cmp	r0, #1
 8019632:	d002      	beq.n	801963a <fl_fgetc+0x22>
 8019634:	b003      	add	sp, #12
 8019636:	f85d fb04 	ldr.w	pc, [sp], #4
 801963a:	f89d 0007 	ldrb.w	r0, [sp, #7]
 801963e:	e7f9      	b.n	8019634 <fl_fgetc+0x1c>

08019640 <fl_fgets>:
 8019640:	b5f8      	push	{r3, r4, r5, r6, r7, lr}
 8019642:	1e0e      	subs	r6, r1, #0
 8019644:	dd10      	ble.n	8019668 <fl_fgets+0x28>
 8019646:	4605      	mov	r5, r0
 8019648:	4617      	mov	r7, r2
 801964a:	2400      	movs	r4, #0
 801964c:	1e73      	subs	r3, r6, #1
 801964e:	42a3      	cmp	r3, r4
 8019650:	dd0d      	ble.n	801966e <fl_fgets+0x2e>
 8019652:	4638      	mov	r0, r7
 8019654:	f7ff ffe0 	bl	8019618 <fl_fgetc>
 8019658:	2800      	cmp	r0, #0
 801965a:	db08      	blt.n	801966e <fl_fgets+0x2e>
 801965c:	1c63      	adds	r3, r4, #1
 801965e:	5528      	strb	r0, [r5, r4]
 8019660:	280a      	cmp	r0, #10
 8019662:	d003      	beq.n	801966c <fl_fgets+0x2c>
 8019664:	461c      	mov	r4, r3
 8019666:	e7f1      	b.n	801964c <fl_fgets+0xc>
 8019668:	2000      	movs	r0, #0
 801966a:	e007      	b.n	801967c <fl_fgets+0x3c>
 801966c:	461c      	mov	r4, r3
 801966e:	2c00      	cmp	r4, #0
 8019670:	dd01      	ble.n	8019676 <fl_fgets+0x36>
 8019672:	2300      	movs	r3, #0
 8019674:	552b      	strb	r3, [r5, r4]
 8019676:	2c00      	cmp	r4, #0
 8019678:	dd01      	ble.n	801967e <fl_fgets+0x3e>
 801967a:	4628      	mov	r0, r5
 801967c:	bdf8      	pop	{r3, r4, r5, r6, r7, pc}
 801967e:	2000      	movs	r0, #0
 8019680:	e7fc      	b.n	801967c <fl_fgets+0x3c>

08019682 <fl_fseek>:
 8019682:	b570      	push	{r4, r5, r6, lr}
 8019684:	4605      	mov	r5, r0
 8019686:	460e      	mov	r6, r1
 8019688:	4614      	mov	r4, r2
 801968a:	4a26      	ldr	r2, [pc, #152]	; (8019724 <fl_fseek+0xa2>)
 801968c:	f8d2 2ca8 	ldr.w	r2, [r2, #3240]	; 0xca8
 8019690:	b1d2      	cbz	r2, 80196c8 <fl_fseek+0x46>
 8019692:	2d00      	cmp	r5, #0
 8019694:	d043      	beq.n	801971e <fl_fseek+0x9c>
 8019696:	2c02      	cmp	r4, #2
 8019698:	d019      	beq.n	80196ce <fl_fseek+0x4c>
 801969a:	4b22      	ldr	r3, [pc, #136]	; (8019724 <fl_fseek+0xa2>)
 801969c:	6c9a      	ldr	r2, [r3, #72]	; 0x48
 801969e:	b102      	cbz	r2, 80196a2 <fl_fseek+0x20>
 80196a0:	4790      	blx	r2
 80196a2:	f04f 33ff 	mov.w	r3, #4294967295	; 0xffffffff
 80196a6:	f8c5 32a8 	str.w	r3, [r5, #680]	; 0x2a8
 80196aa:	2300      	movs	r3, #0
 80196ac:	f8c5 32ac 	str.w	r3, [r5, #684]	; 0x2ac
 80196b0:	b994      	cbnz	r4, 80196d8 <fl_fseek+0x56>
 80196b2:	60ae      	str	r6, [r5, #8]
 80196b4:	68eb      	ldr	r3, [r5, #12]
 80196b6:	429e      	cmp	r6, r3
 80196b8:	d900      	bls.n	80196bc <fl_fseek+0x3a>
 80196ba:	60ab      	str	r3, [r5, #8]
 80196bc:	4b19      	ldr	r3, [pc, #100]	; (8019724 <fl_fseek+0xa2>)
 80196be:	6cdb      	ldr	r3, [r3, #76]	; 0x4c
 80196c0:	b103      	cbz	r3, 80196c4 <fl_fseek+0x42>
 80196c2:	4798      	blx	r3
 80196c4:	4620      	mov	r0, r4
 80196c6:	bd70      	pop	{r4, r5, r6, pc}
 80196c8:	f7ff fd6e 	bl	80191a8 <fl_init>
 80196cc:	e7e1      	b.n	8019692 <fl_fseek+0x10>
 80196ce:	2e00      	cmp	r6, #0
 80196d0:	d0e3      	beq.n	801969a <fl_fseek+0x18>
 80196d2:	f04f 34ff 	mov.w	r4, #4294967295	; 0xffffffff
 80196d6:	e7f5      	b.n	80196c4 <fl_fseek+0x42>
 80196d8:	2c01      	cmp	r4, #1
 80196da:	d004      	beq.n	80196e6 <fl_fseek+0x64>
 80196dc:	2c02      	cmp	r4, #2
 80196de:	d018      	beq.n	8019712 <fl_fseek+0x90>
 80196e0:	f04f 34ff 	mov.w	r4, #4294967295	; 0xffffffff
 80196e4:	e7ea      	b.n	80196bc <fl_fseek+0x3a>
 80196e6:	2e00      	cmp	r6, #0
 80196e8:	db08      	blt.n	80196fc <fl_fseek+0x7a>
 80196ea:	68ab      	ldr	r3, [r5, #8]
 80196ec:	4433      	add	r3, r6
 80196ee:	60ab      	str	r3, [r5, #8]
 80196f0:	68ea      	ldr	r2, [r5, #12]
 80196f2:	4293      	cmp	r3, r2
 80196f4:	d911      	bls.n	801971a <fl_fseek+0x98>
 80196f6:	60aa      	str	r2, [r5, #8]
 80196f8:	2400      	movs	r4, #0
 80196fa:	e7df      	b.n	80196bc <fl_fseek+0x3a>
 80196fc:	4272      	negs	r2, r6
 80196fe:	68ab      	ldr	r3, [r5, #8]
 8019700:	4293      	cmp	r3, r2
 8019702:	d202      	bcs.n	801970a <fl_fseek+0x88>
 8019704:	2400      	movs	r4, #0
 8019706:	60ac      	str	r4, [r5, #8]
 8019708:	e7d8      	b.n	80196bc <fl_fseek+0x3a>
 801970a:	4433      	add	r3, r6
 801970c:	60ab      	str	r3, [r5, #8]
 801970e:	2400      	movs	r4, #0
 8019710:	e7d4      	b.n	80196bc <fl_fseek+0x3a>
 8019712:	68eb      	ldr	r3, [r5, #12]
 8019714:	60ab      	str	r3, [r5, #8]
 8019716:	2400      	movs	r4, #0
 8019718:	e7d0      	b.n	80196bc <fl_fseek+0x3a>
 801971a:	2400      	movs	r4, #0
 801971c:	e7ce      	b.n	80196bc <fl_fseek+0x3a>
 801971e:	f04f 34ff 	mov.w	r4, #4294967295	; 0xffffffff
 8019722:	e7cf      	b.n	80196c4 <fl_fseek+0x42>
 8019724:	200003c4 	.word	0x200003c4

08019728 <fl_fgetpos>:
 8019728:	b170      	cbz	r0, 8019748 <fl_fgetpos+0x20>
 801972a:	b538      	push	{r3, r4, r5, lr}
 801972c:	460c      	mov	r4, r1
 801972e:	4605      	mov	r5, r0
 8019730:	4b08      	ldr	r3, [pc, #32]	; (8019754 <fl_fgetpos+0x2c>)
 8019732:	6c9b      	ldr	r3, [r3, #72]	; 0x48
 8019734:	b103      	cbz	r3, 8019738 <fl_fgetpos+0x10>
 8019736:	4798      	blx	r3
 8019738:	68ab      	ldr	r3, [r5, #8]
 801973a:	6023      	str	r3, [r4, #0]
 801973c:	4b05      	ldr	r3, [pc, #20]	; (8019754 <fl_fgetpos+0x2c>)
 801973e:	6cdb      	ldr	r3, [r3, #76]	; 0x4c
 8019740:	b12b      	cbz	r3, 801974e <fl_fgetpos+0x26>
 8019742:	4798      	blx	r3
 8019744:	2000      	movs	r0, #0
 8019746:	bd38      	pop	{r3, r4, r5, pc}
 8019748:	f04f 30ff 	mov.w	r0, #4294967295	; 0xffffffff
 801974c:	4770      	bx	lr
 801974e:	2000      	movs	r0, #0
 8019750:	e7f9      	b.n	8019746 <fl_fgetpos+0x1e>
 8019752:	bf00      	nop
 8019754:	200003c4 	.word	0x200003c4

08019758 <fl_ftell>:
 8019758:	b500      	push	{lr}
 801975a:	b083      	sub	sp, #12
 801975c:	2300      	movs	r3, #0
 801975e:	9301      	str	r3, [sp, #4]
 8019760:	a901      	add	r1, sp, #4
 8019762:	f7ff ffe1 	bl	8019728 <fl_fgetpos>
 8019766:	9801      	ldr	r0, [sp, #4]
 8019768:	b003      	add	sp, #12
 801976a:	f85d fb04 	ldr.w	pc, [sp], #4

0801976e <fl_feof>:
 801976e:	b510      	push	{r4, lr}
 8019770:	b190      	cbz	r0, 8019798 <fl_feof+0x2a>
 8019772:	4604      	mov	r4, r0
 8019774:	4b0a      	ldr	r3, [pc, #40]	; (80197a0 <fl_feof+0x32>)
 8019776:	6c9b      	ldr	r3, [r3, #72]	; 0x48
 8019778:	b103      	cbz	r3, 801977c <fl_feof+0xe>
 801977a:	4798      	blx	r3
 801977c:	68a2      	ldr	r2, [r4, #8]
 801977e:	68e3      	ldr	r3, [r4, #12]
 8019780:	429a      	cmp	r2, r3
 8019782:	d006      	beq.n	8019792 <fl_feof+0x24>
 8019784:	2400      	movs	r4, #0
 8019786:	4b06      	ldr	r3, [pc, #24]	; (80197a0 <fl_feof+0x32>)
 8019788:	6cdb      	ldr	r3, [r3, #76]	; 0x4c
 801978a:	b103      	cbz	r3, 801978e <fl_feof+0x20>
 801978c:	4798      	blx	r3
 801978e:	4620      	mov	r0, r4
 8019790:	bd10      	pop	{r4, pc}
 8019792:	f06f 0401 	mvn.w	r4, #1
 8019796:	e7f6      	b.n	8019786 <fl_feof+0x18>
 8019798:	f04f 34ff 	mov.w	r4, #4294967295	; 0xffffffff
 801979c:	e7f7      	b.n	801978e <fl_feof+0x20>
 801979e:	bf00      	nop
 80197a0:	200003c4 	.word	0x200003c4

080197a4 <fl_fwrite>:
 80197a4:	e92d 4ff0 	stmdb	sp!, {r4, r5, r6, r7, r8, r9, sl, fp, lr}
 80197a8:	b083      	sub	sp, #12
 80197aa:	4682      	mov	sl, r0
 80197ac:	461c      	mov	r4, r3
 80197ae:	fb02 f301 	mul.w	r3, r2, r1
 80197b2:	9301      	str	r3, [sp, #4]
 80197b4:	4699      	mov	r9, r3
 80197b6:	4b52      	ldr	r3, [pc, #328]	; (8019900 <fl_fwrite+0x15c>)
 80197b8:	f8d3 3ca8 	ldr.w	r3, [r3, #3240]	; 0xca8
 80197bc:	b1b3      	cbz	r3, 80197ec <fl_fwrite+0x48>
 80197be:	2c00      	cmp	r4, #0
 80197c0:	f000 809a 	beq.w	80198f8 <fl_fwrite+0x154>
 80197c4:	4b4e      	ldr	r3, [pc, #312]	; (8019900 <fl_fwrite+0x15c>)
 80197c6:	6c9b      	ldr	r3, [r3, #72]	; 0x48
 80197c8:	b103      	cbz	r3, 80197cc <fl_fwrite+0x28>
 80197ca:	4798      	blx	r3
 80197cc:	f894 32b0 	ldrb.w	r3, [r4, #688]	; 0x2b0
 80197d0:	f013 0f02 	tst.w	r3, #2
 80197d4:	d00d      	beq.n	80197f2 <fl_fwrite+0x4e>
 80197d6:	f013 0f04 	tst.w	r3, #4
 80197da:	d001      	beq.n	80197e0 <fl_fwrite+0x3c>
 80197dc:	68e3      	ldr	r3, [r4, #12]
 80197de:	60a3      	str	r3, [r4, #8]
 80197e0:	68a3      	ldr	r3, [r4, #8]
 80197e2:	0a5f      	lsrs	r7, r3, #9
 80197e4:	f3c3 0808 	ubfx	r8, r3, #0, #9
 80197e8:	2500      	movs	r5, #0
 80197ea:	e037      	b.n	801985c <fl_fwrite+0xb8>
 80197ec:	f7ff fcdc 	bl	80191a8 <fl_init>
 80197f0:	e7e5      	b.n	80197be <fl_fwrite+0x1a>
 80197f2:	4b43      	ldr	r3, [pc, #268]	; (8019900 <fl_fwrite+0x15c>)
 80197f4:	6cdb      	ldr	r3, [r3, #76]	; 0x4c
 80197f6:	b103      	cbz	r3, 80197fa <fl_fwrite+0x56>
 80197f8:	4798      	blx	r3
 80197fa:	f04f 33ff 	mov.w	r3, #4294967295	; 0xffffffff
 80197fe:	9301      	str	r3, [sp, #4]
 8019800:	e061      	b.n	80198c6 <fl_fwrite+0x122>
 8019802:	4620      	mov	r0, r4
 8019804:	f7ff fe26 	bl	8019454 <fl_fflush>
 8019808:	e03b      	b.n	8019882 <fl_fwrite+0xde>
 801980a:	f5c8 7300 	rsb	r3, r8, #512	; 0x200
 801980e:	eba9 0605 	sub.w	r6, r9, r5
 8019812:	429e      	cmp	r6, r3
 8019814:	d300      	bcc.n	8019818 <fl_fwrite+0x74>
 8019816:	461e      	mov	r6, r3
 8019818:	f8d4 32a8 	ldr.w	r3, [r4, #680]	; 0x2a8
 801981c:	42bb      	cmp	r3, r7
 801981e:	d00b      	beq.n	8019838 <fl_fwrite+0x94>
 8019820:	f8d4 32ac 	ldr.w	r3, [r4, #684]	; 0x2ac
 8019824:	2b00      	cmp	r3, #0
 8019826:	d152      	bne.n	80198ce <fl_fwrite+0x12a>
 8019828:	f5b6 7f00 	cmp.w	r6, #512	; 0x200
 801982c:	d153      	bne.n	80198d6 <fl_fwrite+0x132>
 801982e:	f8c4 72a8 	str.w	r7, [r4, #680]	; 0x2a8
 8019832:	2300      	movs	r3, #0
 8019834:	f8c4 32ac 	str.w	r3, [r4, #684]	; 0x2ac
 8019838:	f104 00a8 	add.w	r0, r4, #168	; 0xa8
 801983c:	4632      	mov	r2, r6
 801983e:	eb0a 0105 	add.w	r1, sl, r5
 8019842:	4440      	add	r0, r8
 8019844:	f7f9 f854 	bl	80128f0 <memcpy>
 8019848:	2301      	movs	r3, #1
 801984a:	f8c4 32ac 	str.w	r3, [r4, #684]	; 0x2ac
 801984e:	4435      	add	r5, r6
 8019850:	68a3      	ldr	r3, [r4, #8]
 8019852:	441e      	add	r6, r3
 8019854:	60a6      	str	r6, [r4, #8]
 8019856:	3701      	adds	r7, #1
 8019858:	f04f 0800 	mov.w	r8, #0
 801985c:	454d      	cmp	r5, r9
 801985e:	d227      	bcs.n	80198b0 <fl_fwrite+0x10c>
 8019860:	f1b8 0f00 	cmp.w	r8, #0
 8019864:	d1d1      	bne.n	801980a <fl_fwrite+0x66>
 8019866:	eba9 0605 	sub.w	r6, r9, r5
 801986a:	f5b6 7f00 	cmp.w	r6, #512	; 0x200
 801986e:	d3cc      	bcc.n	801980a <fl_fwrite+0x66>
 8019870:	f8d4 32a8 	ldr.w	r3, [r4, #680]	; 0x2a8
 8019874:	f1b3 3fff 	cmp.w	r3, #4294967295	; 0xffffffff
 8019878:	d00a      	beq.n	8019890 <fl_fwrite+0xec>
 801987a:	f8d4 32ac 	ldr.w	r3, [r4, #684]	; 0x2ac
 801987e:	2b00      	cmp	r3, #0
 8019880:	d1bf      	bne.n	8019802 <fl_fwrite+0x5e>
 8019882:	f04f 33ff 	mov.w	r3, #4294967295	; 0xffffffff
 8019886:	f8c4 32a8 	str.w	r3, [r4, #680]	; 0x2a8
 801988a:	2300      	movs	r3, #0
 801988c:	f8c4 32ac 	str.w	r3, [r4, #684]	; 0x2ac
 8019890:	0a73      	lsrs	r3, r6, #9
 8019892:	eb0a 0205 	add.w	r2, sl, r5
 8019896:	4639      	mov	r1, r7
 8019898:	4620      	mov	r0, r4
 801989a:	f7ff fac7 	bl	8018e2c <_write_sectors>
 801989e:	eb05 2540 	add.w	r5, r5, r0, lsl #9
 80198a2:	68a3      	ldr	r3, [r4, #8]
 80198a4:	eb03 2340 	add.w	r3, r3, r0, lsl #9
 80198a8:	60a3      	str	r3, [r4, #8]
 80198aa:	4407      	add	r7, r0
 80198ac:	2800      	cmp	r0, #0
 80198ae:	d1d3      	bne.n	8019858 <fl_fwrite+0xb4>
 80198b0:	68a3      	ldr	r3, [r4, #8]
 80198b2:	68e2      	ldr	r2, [r4, #12]
 80198b4:	4293      	cmp	r3, r2
 80198b6:	d902      	bls.n	80198be <fl_fwrite+0x11a>
 80198b8:	60e3      	str	r3, [r4, #12]
 80198ba:	2301      	movs	r3, #1
 80198bc:	6123      	str	r3, [r4, #16]
 80198be:	4b10      	ldr	r3, [pc, #64]	; (8019900 <fl_fwrite+0x15c>)
 80198c0:	6cdb      	ldr	r3, [r3, #76]	; 0x4c
 80198c2:	b103      	cbz	r3, 80198c6 <fl_fwrite+0x122>
 80198c4:	4798      	blx	r3
 80198c6:	9801      	ldr	r0, [sp, #4]
 80198c8:	b003      	add	sp, #12
 80198ca:	e8bd 8ff0 	ldmia.w	sp!, {r4, r5, r6, r7, r8, r9, sl, fp, pc}
 80198ce:	4620      	mov	r0, r4
 80198d0:	f7ff fdc0 	bl	8019454 <fl_fflush>
 80198d4:	e7a8      	b.n	8019828 <fl_fwrite+0x84>
 80198d6:	f104 0ba8 	add.w	fp, r4, #168	; 0xa8
 80198da:	2301      	movs	r3, #1
 80198dc:	465a      	mov	r2, fp
 80198de:	4639      	mov	r1, r7
 80198e0:	4620      	mov	r0, r4
 80198e2:	f7ff fb1d 	bl	8018f20 <_read_sectors>
 80198e6:	2800      	cmp	r0, #0
 80198e8:	d1a1      	bne.n	801982e <fl_fwrite+0x8a>
 80198ea:	f44f 7200 	mov.w	r2, #512	; 0x200
 80198ee:	2100      	movs	r1, #0
 80198f0:	4658      	mov	r0, fp
 80198f2:	f7f8 fff6 	bl	80128e2 <memset>
 80198f6:	e79a      	b.n	801982e <fl_fwrite+0x8a>
 80198f8:	f04f 33ff 	mov.w	r3, #4294967295	; 0xffffffff
 80198fc:	9301      	str	r3, [sp, #4]
 80198fe:	e7e2      	b.n	80198c6 <fl_fwrite+0x122>
 8019900:	200003c4 	.word	0x200003c4

08019904 <fl_fputc>:
 8019904:	b510      	push	{r4, lr}
 8019906:	b082      	sub	sp, #8
 8019908:	4604      	mov	r4, r0
 801990a:	460b      	mov	r3, r1
 801990c:	f88d 0007 	strb.w	r0, [sp, #7]
 8019910:	2201      	movs	r2, #1
 8019912:	4611      	mov	r1, r2
 8019914:	f10d 0007 	add.w	r0, sp, #7
 8019918:	f7ff ff44 	bl	80197a4 <fl_fwrite>
 801991c:	2801      	cmp	r0, #1
 801991e:	d001      	beq.n	8019924 <fl_fputc+0x20>
 8019920:	b002      	add	sp, #8
 8019922:	bd10      	pop	{r4, pc}
 8019924:	4620      	mov	r0, r4
 8019926:	e7fb      	b.n	8019920 <fl_fputc+0x1c>

08019928 <fl_fputs>:
 8019928:	b570      	push	{r4, r5, r6, lr}
 801992a:	4605      	mov	r5, r0
 801992c:	460e      	mov	r6, r1
 801992e:	f7f9 f809 	bl	8012944 <strlen>
 8019932:	4604      	mov	r4, r0
 8019934:	4633      	mov	r3, r6
 8019936:	4602      	mov	r2, r0
 8019938:	2101      	movs	r1, #1
 801993a:	4628      	mov	r0, r5
 801993c:	f7ff ff32 	bl	80197a4 <fl_fwrite>
 8019940:	4284      	cmp	r4, r0
 8019942:	d000      	beq.n	8019946 <fl_fputs+0x1e>
 8019944:	bd70      	pop	{r4, r5, r6, pc}
 8019946:	4620      	mov	r0, r4
 8019948:	e7fc      	b.n	8019944 <fl_fputs+0x1c>

0801994a <fl_remove>:
 801994a:	b510      	push	{r4, lr}
 801994c:	4604      	mov	r4, r0
 801994e:	4b14      	ldr	r3, [pc, #80]	; (80199a0 <fl_remove+0x56>)
 8019950:	6c9b      	ldr	r3, [r3, #72]	; 0x48
 8019952:	b103      	cbz	r3, 8019956 <fl_remove+0xc>
 8019954:	4798      	blx	r3
 8019956:	4913      	ldr	r1, [pc, #76]	; (80199a4 <fl_remove+0x5a>)
 8019958:	4620      	mov	r0, r4
 801995a:	f7ff fc87 	bl	801926c <fl_fopen>
 801995e:	4604      	mov	r4, r0
 8019960:	b1a8      	cbz	r0, 801998e <fl_remove+0x44>
 8019962:	6841      	ldr	r1, [r0, #4]
 8019964:	4810      	ldr	r0, [pc, #64]	; (80199a8 <fl_remove+0x5e>)
 8019966:	f000 fcbb 	bl	801a2e0 <fatfs_free_cluster_chain>
 801996a:	b198      	cbz	r0, 8019994 <fl_remove+0x4a>
 801996c:	4622      	mov	r2, r4
 801996e:	f852 1b94 	ldr.w	r1, [r2], #148
 8019972:	480d      	ldr	r0, [pc, #52]	; (80199a8 <fl_remove+0x5e>)
 8019974:	f7fe f8eb 	bl	8017b4e <fatfs_mark_file_deleted>
 8019978:	b178      	cbz	r0, 801999a <fl_remove+0x50>
 801997a:	4620      	mov	r0, r4
 801997c:	f7ff fd92 	bl	80194a4 <fl_fclose>
 8019980:	2400      	movs	r4, #0
 8019982:	4b07      	ldr	r3, [pc, #28]	; (80199a0 <fl_remove+0x56>)
 8019984:	6cdb      	ldr	r3, [r3, #76]	; 0x4c
 8019986:	b103      	cbz	r3, 801998a <fl_remove+0x40>
 8019988:	4798      	blx	r3
 801998a:	4620      	mov	r0, r4
 801998c:	bd10      	pop	{r4, pc}
 801998e:	f04f 34ff 	mov.w	r4, #4294967295	; 0xffffffff
 8019992:	e7f6      	b.n	8019982 <fl_remove+0x38>
 8019994:	f04f 34ff 	mov.w	r4, #4294967295	; 0xffffffff
 8019998:	e7f3      	b.n	8019982 <fl_remove+0x38>
 801999a:	f04f 34ff 	mov.w	r4, #4294967295	; 0xffffffff
 801999e:	e7f0      	b.n	8019982 <fl_remove+0x38>
 80199a0:	200003c4 	.word	0x200003c4
 80199a4:	0801b07c 	.word	0x0801b07c
 80199a8:	200003d4 	.word	0x200003d4

080199ac <fl_createdirectory>:
 80199ac:	b510      	push	{r4, lr}
 80199ae:	4604      	mov	r4, r0
 80199b0:	4b0a      	ldr	r3, [pc, #40]	; (80199dc <fl_createdirectory+0x30>)
 80199b2:	f8d3 3ca8 	ldr.w	r3, [r3, #3240]	; 0xca8
 80199b6:	b16b      	cbz	r3, 80199d4 <fl_createdirectory+0x28>
 80199b8:	4b08      	ldr	r3, [pc, #32]	; (80199dc <fl_createdirectory+0x30>)
 80199ba:	6c9b      	ldr	r3, [r3, #72]	; 0x48
 80199bc:	b103      	cbz	r3, 80199c0 <fl_createdirectory+0x14>
 80199be:	4798      	blx	r3
 80199c0:	4620      	mov	r0, r4
 80199c2:	f7ff fb11 	bl	8018fe8 <_create_directory>
 80199c6:	4604      	mov	r4, r0
 80199c8:	4b04      	ldr	r3, [pc, #16]	; (80199dc <fl_createdirectory+0x30>)
 80199ca:	6cdb      	ldr	r3, [r3, #76]	; 0x4c
 80199cc:	b103      	cbz	r3, 80199d0 <fl_createdirectory+0x24>
 80199ce:	4798      	blx	r3
 80199d0:	4620      	mov	r0, r4
 80199d2:	bd10      	pop	{r4, pc}
 80199d4:	f7ff fbe8 	bl	80191a8 <fl_init>
 80199d8:	e7ee      	b.n	80199b8 <fl_createdirectory+0xc>
 80199da:	bf00      	nop
 80199dc:	200003c4 	.word	0x200003c4

080199e0 <fl_opendir>:
 80199e0:	b530      	push	{r4, r5, lr}
 80199e2:	b083      	sub	sp, #12
 80199e4:	4605      	mov	r5, r0
 80199e6:	460c      	mov	r4, r1
 80199e8:	f04f 33ff 	mov.w	r3, #4294967295	; 0xffffffff
 80199ec:	9301      	str	r3, [sp, #4]
 80199ee:	4b16      	ldr	r3, [pc, #88]	; (8019a48 <fl_opendir+0x68>)
 80199f0:	f8d3 3ca8 	ldr.w	r3, [r3, #3240]	; 0xca8
 80199f4:	b17b      	cbz	r3, 8019a16 <fl_opendir+0x36>
 80199f6:	4b14      	ldr	r3, [pc, #80]	; (8019a48 <fl_opendir+0x68>)
 80199f8:	6c9b      	ldr	r3, [r3, #72]	; 0x48
 80199fa:	b103      	cbz	r3, 80199fe <fl_opendir+0x1e>
 80199fc:	4798      	blx	r3
 80199fe:	4628      	mov	r0, r5
 8019a00:	f7fe f9ec 	bl	8017ddc <fatfs_total_path_levels>
 8019a04:	f1b0 3fff 	cmp.w	r0, #4294967295	; 0xffffffff
 8019a08:	d008      	beq.n	8019a1c <fl_opendir+0x3c>
 8019a0a:	a901      	add	r1, sp, #4
 8019a0c:	4628      	mov	r0, r5
 8019a0e:	f7ff f895 	bl	8018b3c <_open_directory>
 8019a12:	b160      	cbz	r0, 8019a2e <fl_opendir+0x4e>
 8019a14:	e006      	b.n	8019a24 <fl_opendir+0x44>
 8019a16:	f7ff fbc7 	bl	80191a8 <fl_init>
 8019a1a:	e7ec      	b.n	80199f6 <fl_opendir+0x16>
 8019a1c:	480b      	ldr	r0, [pc, #44]	; (8019a4c <fl_opendir+0x6c>)
 8019a1e:	f7fd ff85 	bl	801792c <fatfs_get_root_cluster>
 8019a22:	9001      	str	r0, [sp, #4]
 8019a24:	9a01      	ldr	r2, [sp, #4]
 8019a26:	4621      	mov	r1, r4
 8019a28:	4808      	ldr	r0, [pc, #32]	; (8019a4c <fl_opendir+0x6c>)
 8019a2a:	f7fe f8d8 	bl	8017bde <fatfs_list_directory_start>
 8019a2e:	4b06      	ldr	r3, [pc, #24]	; (8019a48 <fl_opendir+0x68>)
 8019a30:	6cdb      	ldr	r3, [r3, #76]	; 0x4c
 8019a32:	b103      	cbz	r3, 8019a36 <fl_opendir+0x56>
 8019a34:	4798      	blx	r3
 8019a36:	9b01      	ldr	r3, [sp, #4]
 8019a38:	f1b3 3fff 	cmp.w	r3, #4294967295	; 0xffffffff
 8019a3c:	d002      	beq.n	8019a44 <fl_opendir+0x64>
 8019a3e:	4620      	mov	r0, r4
 8019a40:	b003      	add	sp, #12
 8019a42:	bd30      	pop	{r4, r5, pc}
 8019a44:	2000      	movs	r0, #0
 8019a46:	e7fb      	b.n	8019a40 <fl_opendir+0x60>
 8019a48:	200003c4 	.word	0x200003c4
 8019a4c:	200003d4 	.word	0x200003d4

08019a50 <fl_readdir>:
 8019a50:	b570      	push	{r4, r5, r6, lr}
 8019a52:	4604      	mov	r4, r0
 8019a54:	460d      	mov	r5, r1
 8019a56:	4b0e      	ldr	r3, [pc, #56]	; (8019a90 <fl_readdir+0x40>)
 8019a58:	f8d3 3ca8 	ldr.w	r3, [r3, #3240]	; 0xca8
 8019a5c:	b18b      	cbz	r3, 8019a82 <fl_readdir+0x32>
 8019a5e:	4b0c      	ldr	r3, [pc, #48]	; (8019a90 <fl_readdir+0x40>)
 8019a60:	6c9b      	ldr	r3, [r3, #72]	; 0x48
 8019a62:	b103      	cbz	r3, 8019a66 <fl_readdir+0x16>
 8019a64:	4798      	blx	r3
 8019a66:	4e0a      	ldr	r6, [pc, #40]	; (8019a90 <fl_readdir+0x40>)
 8019a68:	462a      	mov	r2, r5
 8019a6a:	4621      	mov	r1, r4
 8019a6c:	f106 0010 	add.w	r0, r6, #16
 8019a70:	f7fe f8ba 	bl	8017be8 <fatfs_list_directory_next>
 8019a74:	4604      	mov	r4, r0
 8019a76:	6cf3      	ldr	r3, [r6, #76]	; 0x4c
 8019a78:	b103      	cbz	r3, 8019a7c <fl_readdir+0x2c>
 8019a7a:	4798      	blx	r3
 8019a7c:	b124      	cbz	r4, 8019a88 <fl_readdir+0x38>
 8019a7e:	2000      	movs	r0, #0
 8019a80:	bd70      	pop	{r4, r5, r6, pc}
 8019a82:	f7ff fb91 	bl	80191a8 <fl_init>
 8019a86:	e7ea      	b.n	8019a5e <fl_readdir+0xe>
 8019a88:	f04f 30ff 	mov.w	r0, #4294967295	; 0xffffffff
 8019a8c:	e7f8      	b.n	8019a80 <fl_readdir+0x30>
 8019a8e:	bf00      	nop
 8019a90:	200003c4 	.word	0x200003c4

08019a94 <fl_listdirectory>:
 8019a94:	b510      	push	{r4, lr}
 8019a96:	b096      	sub	sp, #88	; 0x58
 8019a98:	4604      	mov	r4, r0
 8019a9a:	4b17      	ldr	r3, [pc, #92]	; (8019af8 <fl_listdirectory+0x64>)
 8019a9c:	f8d3 3ca8 	ldr.w	r3, [r3, #3240]	; 0xca8
 8019aa0:	b193      	cbz	r3, 8019ac8 <fl_listdirectory+0x34>
 8019aa2:	4b15      	ldr	r3, [pc, #84]	; (8019af8 <fl_listdirectory+0x64>)
 8019aa4:	6c9b      	ldr	r3, [r3, #72]	; 0x48
 8019aa6:	b103      	cbz	r3, 8019aaa <fl_listdirectory+0x16>
 8019aa8:	4798      	blx	r3
 8019aaa:	4621      	mov	r1, r4
 8019aac:	4813      	ldr	r0, [pc, #76]	; (8019afc <fl_listdirectory+0x68>)
 8019aae:	f7f6 fcf3 	bl	8010498 <printf>
 8019ab2:	a913      	add	r1, sp, #76	; 0x4c
 8019ab4:	4620      	mov	r0, r4
 8019ab6:	f7ff ff93 	bl	80199e0 <fl_opendir>
 8019aba:	b968      	cbnz	r0, 8019ad8 <fl_listdirectory+0x44>
 8019abc:	4b0e      	ldr	r3, [pc, #56]	; (8019af8 <fl_listdirectory+0x64>)
 8019abe:	6cdb      	ldr	r3, [r3, #76]	; 0x4c
 8019ac0:	b103      	cbz	r3, 8019ac4 <fl_listdirectory+0x30>
 8019ac2:	4798      	blx	r3
 8019ac4:	b016      	add	sp, #88	; 0x58
 8019ac6:	bd10      	pop	{r4, pc}
 8019ac8:	f7ff fb6e 	bl	80191a8 <fl_init>
 8019acc:	e7e9      	b.n	8019aa2 <fl_listdirectory+0xe>
 8019ace:	9a12      	ldr	r2, [sp, #72]	; 0x48
 8019ad0:	4669      	mov	r1, sp
 8019ad2:	480b      	ldr	r0, [pc, #44]	; (8019b00 <fl_listdirectory+0x6c>)
 8019ad4:	f7f6 fce0 	bl	8010498 <printf>
 8019ad8:	4669      	mov	r1, sp
 8019ada:	a813      	add	r0, sp, #76	; 0x4c
 8019adc:	f7ff ffb8 	bl	8019a50 <fl_readdir>
 8019ae0:	2800      	cmp	r0, #0
 8019ae2:	d1eb      	bne.n	8019abc <fl_listdirectory+0x28>
 8019ae4:	f89d 3040 	ldrb.w	r3, [sp, #64]	; 0x40
 8019ae8:	2b00      	cmp	r3, #0
 8019aea:	d0f0      	beq.n	8019ace <fl_listdirectory+0x3a>
 8019aec:	4669      	mov	r1, sp
 8019aee:	4805      	ldr	r0, [pc, #20]	; (8019b04 <fl_listdirectory+0x70>)
 8019af0:	f7f6 fcd2 	bl	8010498 <printf>
 8019af4:	e7f0      	b.n	8019ad8 <fl_listdirectory+0x44>
 8019af6:	bf00      	nop
 8019af8:	200003c4 	.word	0x200003c4
 8019afc:	0801b684 	.word	0x0801b684
 8019b00:	0801abf8 	.word	0x0801abf8
 8019b04:	0801abec 	.word	0x0801abec

08019b08 <fl_closedir>:
 8019b08:	2000      	movs	r0, #0
 8019b0a:	4770      	bx	lr

08019b0c <fl_is_dir>:
 8019b0c:	b500      	push	{lr}
 8019b0e:	b085      	sub	sp, #20
 8019b10:	a901      	add	r1, sp, #4
 8019b12:	f7ff ff65 	bl	80199e0 <fl_opendir>
 8019b16:	b100      	cbz	r0, 8019b1a <fl_is_dir+0xe>
 8019b18:	2001      	movs	r0, #1
 8019b1a:	b005      	add	sp, #20
 8019b1c:	f85d fb04 	ldr.w	pc, [sp], #4

08019b20 <fl_format>:
 8019b20:	b508      	push	{r3, lr}
 8019b22:	460a      	mov	r2, r1
 8019b24:	4601      	mov	r1, r0
 8019b26:	4802      	ldr	r0, [pc, #8]	; (8019b30 <fl_format+0x10>)
 8019b28:	f7fe ff71 	bl	8018a0e <fatfs_format>
 8019b2c:	bd08      	pop	{r3, pc}
 8019b2e:	bf00      	nop
 8019b30:	200003d4 	.word	0x200003d4

08019b34 <fatfs_itoa>:
 8019b34:	b4f0      	push	{r4, r5, r6, r7}
 8019b36:	b088      	sub	sp, #32
 8019b38:	4604      	mov	r4, r0
 8019b3a:	460d      	mov	r5, r1
 8019b3c:	466e      	mov	r6, sp
 8019b3e:	4f15      	ldr	r7, [pc, #84]	; (8019b94 <fatfs_itoa+0x60>)
 8019b40:	cf0f      	ldmia	r7!, {r0, r1, r2, r3}
 8019b42:	c60f      	stmia	r6!, {r0, r1, r2, r3}
 8019b44:	683b      	ldr	r3, [r7, #0]
 8019b46:	7033      	strb	r3, [r6, #0]
 8019b48:	a905      	add	r1, sp, #20
 8019b4a:	4b13      	ldr	r3, [pc, #76]	; (8019b98 <fatfs_itoa+0x64>)
 8019b4c:	fba3 2304 	umull	r2, r3, r3, r4
 8019b50:	08db      	lsrs	r3, r3, #3
 8019b52:	4618      	mov	r0, r3
 8019b54:	eb03 0383 	add.w	r3, r3, r3, lsl #2
 8019b58:	eba4 0343 	sub.w	r3, r4, r3, lsl #1
 8019b5c:	460a      	mov	r2, r1
 8019b5e:	3101      	adds	r1, #1
 8019b60:	ae08      	add	r6, sp, #32
 8019b62:	4433      	add	r3, r6
 8019b64:	f813 3c20 	ldrb.w	r3, [r3, #-32]
 8019b68:	7013      	strb	r3, [r2, #0]
 8019b6a:	4623      	mov	r3, r4
 8019b6c:	4604      	mov	r4, r0
 8019b6e:	2b09      	cmp	r3, #9
 8019b70:	d8eb      	bhi.n	8019b4a <fatfs_itoa+0x16>
 8019b72:	2300      	movs	r3, #0
 8019b74:	700b      	strb	r3, [r1, #0]
 8019b76:	e005      	b.n	8019b84 <fatfs_itoa+0x50>
 8019b78:	4629      	mov	r1, r5
 8019b7a:	f812 3901 	ldrb.w	r3, [r2], #-1
 8019b7e:	f801 3b01 	strb.w	r3, [r1], #1
 8019b82:	460d      	mov	r5, r1
 8019b84:	ab05      	add	r3, sp, #20
 8019b86:	429a      	cmp	r2, r3
 8019b88:	d2f6      	bcs.n	8019b78 <fatfs_itoa+0x44>
 8019b8a:	2300      	movs	r3, #0
 8019b8c:	702b      	strb	r3, [r5, #0]
 8019b8e:	b008      	add	sp, #32
 8019b90:	bcf0      	pop	{r4, r5, r6, r7}
 8019b92:	4770      	bx	lr
 8019b94:	0801a9dc 	.word	0x0801a9dc
 8019b98:	cccccccd 	.word	0xcccccccd

08019b9c <fatfs_lfn_cache_init>:
 8019b9c:	b538      	push	{r3, r4, r5, lr}
 8019b9e:	2300      	movs	r3, #0
 8019ba0:	f880 3105 	strb.w	r3, [r0, #261]	; 0x105
 8019ba4:	b171      	cbz	r1, 8019bc4 <fatfs_lfn_cache_init+0x28>
 8019ba6:	4605      	mov	r5, r0
 8019ba8:	2400      	movs	r4, #0
 8019baa:	e009      	b.n	8019bc0 <fatfs_lfn_cache_init+0x24>
 8019bac:	eb04 0044 	add.w	r0, r4, r4, lsl #1
 8019bb0:	eb04 0080 	add.w	r0, r4, r0, lsl #2
 8019bb4:	220d      	movs	r2, #13
 8019bb6:	2100      	movs	r1, #0
 8019bb8:	4428      	add	r0, r5
 8019bba:	f7f8 fe92 	bl	80128e2 <memset>
 8019bbe:	3401      	adds	r4, #1
 8019bc0:	2c13      	cmp	r4, #19
 8019bc2:	ddf3      	ble.n	8019bac <fatfs_lfn_cache_init+0x10>
 8019bc4:	bd38      	pop	{r3, r4, r5, pc}

08019bc6 <fatfs_lfn_cache_entry>:
 8019bc6:	b430      	push	{r4, r5}
 8019bc8:	780c      	ldrb	r4, [r1, #0]
 8019bca:	f004 041f 	and.w	r4, r4, #31
 8019bce:	2c14      	cmp	r4, #20
 8019bd0:	d83c      	bhi.n	8019c4c <fatfs_lfn_cache_entry+0x86>
 8019bd2:	2c00      	cmp	r4, #0
 8019bd4:	d03a      	beq.n	8019c4c <fatfs_lfn_cache_entry+0x86>
 8019bd6:	f890 3105 	ldrb.w	r3, [r0, #261]	; 0x105
 8019bda:	b90b      	cbnz	r3, 8019be0 <fatfs_lfn_cache_entry+0x1a>
 8019bdc:	f880 4105 	strb.w	r4, [r0, #261]	; 0x105
 8019be0:	3c01      	subs	r4, #1
 8019be2:	784d      	ldrb	r5, [r1, #1]
 8019be4:	eb04 0244 	add.w	r2, r4, r4, lsl #1
 8019be8:	eb04 0282 	add.w	r2, r4, r2, lsl #2
 8019bec:	1883      	adds	r3, r0, r2
 8019bee:	5485      	strb	r5, [r0, r2]
 8019bf0:	78ca      	ldrb	r2, [r1, #3]
 8019bf2:	705a      	strb	r2, [r3, #1]
 8019bf4:	794a      	ldrb	r2, [r1, #5]
 8019bf6:	709a      	strb	r2, [r3, #2]
 8019bf8:	79ca      	ldrb	r2, [r1, #7]
 8019bfa:	70da      	strb	r2, [r3, #3]
 8019bfc:	7a4a      	ldrb	r2, [r1, #9]
 8019bfe:	711a      	strb	r2, [r3, #4]
 8019c00:	7b8a      	ldrb	r2, [r1, #14]
 8019c02:	715a      	strb	r2, [r3, #5]
 8019c04:	7c0a      	ldrb	r2, [r1, #16]
 8019c06:	719a      	strb	r2, [r3, #6]
 8019c08:	7c8a      	ldrb	r2, [r1, #18]
 8019c0a:	71da      	strb	r2, [r3, #7]
 8019c0c:	7d0a      	ldrb	r2, [r1, #20]
 8019c0e:	721a      	strb	r2, [r3, #8]
 8019c10:	7d8a      	ldrb	r2, [r1, #22]
 8019c12:	725a      	strb	r2, [r3, #9]
 8019c14:	7e0a      	ldrb	r2, [r1, #24]
 8019c16:	729a      	strb	r2, [r3, #10]
 8019c18:	7f0a      	ldrb	r2, [r1, #28]
 8019c1a:	72da      	strb	r2, [r3, #11]
 8019c1c:	7f8a      	ldrb	r2, [r1, #30]
 8019c1e:	731a      	strb	r2, [r3, #12]
 8019c20:	2300      	movs	r3, #0
 8019c22:	e001      	b.n	8019c28 <fatfs_lfn_cache_entry+0x62>
 8019c24:	3301      	adds	r3, #1
 8019c26:	b2db      	uxtb	r3, r3
 8019c28:	2b0c      	cmp	r3, #12
 8019c2a:	d80f      	bhi.n	8019c4c <fatfs_lfn_cache_entry+0x86>
 8019c2c:	eb04 0244 	add.w	r2, r4, r4, lsl #1
 8019c30:	eb04 0282 	add.w	r2, r4, r2, lsl #2
 8019c34:	4402      	add	r2, r0
 8019c36:	5cd2      	ldrb	r2, [r2, r3]
 8019c38:	2aff      	cmp	r2, #255	; 0xff
 8019c3a:	d1f3      	bne.n	8019c24 <fatfs_lfn_cache_entry+0x5e>
 8019c3c:	eb04 0244 	add.w	r2, r4, r4, lsl #1
 8019c40:	eb04 0282 	add.w	r2, r4, r2, lsl #2
 8019c44:	4402      	add	r2, r0
 8019c46:	2120      	movs	r1, #32
 8019c48:	54d1      	strb	r1, [r2, r3]
 8019c4a:	e7eb      	b.n	8019c24 <fatfs_lfn_cache_entry+0x5e>
 8019c4c:	bc30      	pop	{r4, r5}
 8019c4e:	4770      	bx	lr

08019c50 <fatfs_lfn_cache_get>:
 8019c50:	f890 3105 	ldrb.w	r3, [r0, #261]	; 0x105
 8019c54:	2b14      	cmp	r3, #20
 8019c56:	d007      	beq.n	8019c68 <fatfs_lfn_cache_get+0x18>
 8019c58:	b153      	cbz	r3, 8019c70 <fatfs_lfn_cache_get+0x20>
 8019c5a:	eb03 0243 	add.w	r2, r3, r3, lsl #1
 8019c5e:	eb03 0382 	add.w	r3, r3, r2, lsl #2
 8019c62:	2200      	movs	r2, #0
 8019c64:	54c2      	strb	r2, [r0, r3]
 8019c66:	4770      	bx	lr
 8019c68:	2300      	movs	r3, #0
 8019c6a:	f880 3104 	strb.w	r3, [r0, #260]	; 0x104
 8019c6e:	4770      	bx	lr
 8019c70:	2300      	movs	r3, #0
 8019c72:	7003      	strb	r3, [r0, #0]
 8019c74:	4770      	bx	lr

08019c76 <fatfs_entry_lfn_text>:
 8019c76:	7ac3      	ldrb	r3, [r0, #11]
 8019c78:	f003 030f 	and.w	r3, r3, #15
 8019c7c:	2b0f      	cmp	r3, #15
 8019c7e:	d001      	beq.n	8019c84 <fatfs_entry_lfn_text+0xe>
 8019c80:	2000      	movs	r0, #0
 8019c82:	4770      	bx	lr
 8019c84:	2001      	movs	r0, #1
 8019c86:	4770      	bx	lr

08019c88 <fatfs_entry_lfn_invalid>:
 8019c88:	7803      	ldrb	r3, [r0, #0]
 8019c8a:	b14b      	cbz	r3, 8019ca0 <fatfs_entry_lfn_invalid+0x18>
 8019c8c:	2be5      	cmp	r3, #229	; 0xe5
 8019c8e:	d009      	beq.n	8019ca4 <fatfs_entry_lfn_invalid+0x1c>
 8019c90:	7ac3      	ldrb	r3, [r0, #11]
 8019c92:	2b08      	cmp	r3, #8
 8019c94:	d008      	beq.n	8019ca8 <fatfs_entry_lfn_invalid+0x20>
 8019c96:	f013 0f06 	tst.w	r3, #6
 8019c9a:	d007      	beq.n	8019cac <fatfs_entry_lfn_invalid+0x24>
 8019c9c:	2001      	movs	r0, #1
 8019c9e:	4770      	bx	lr
 8019ca0:	2001      	movs	r0, #1
 8019ca2:	4770      	bx	lr
 8019ca4:	2001      	movs	r0, #1
 8019ca6:	4770      	bx	lr
 8019ca8:	2001      	movs	r0, #1
 8019caa:	4770      	bx	lr
 8019cac:	2000      	movs	r0, #0
 8019cae:	4770      	bx	lr

08019cb0 <fatfs_entry_lfn_exists>:
 8019cb0:	7acb      	ldrb	r3, [r1, #11]
 8019cb2:	2b0f      	cmp	r3, #15
 8019cb4:	d00d      	beq.n	8019cd2 <fatfs_entry_lfn_exists+0x22>
 8019cb6:	780a      	ldrb	r2, [r1, #0]
 8019cb8:	b16a      	cbz	r2, 8019cd6 <fatfs_entry_lfn_exists+0x26>
 8019cba:	2ae5      	cmp	r2, #229	; 0xe5
 8019cbc:	d00d      	beq.n	8019cda <fatfs_entry_lfn_exists+0x2a>
 8019cbe:	2b08      	cmp	r3, #8
 8019cc0:	d00d      	beq.n	8019cde <fatfs_entry_lfn_exists+0x2e>
 8019cc2:	f013 0f06 	tst.w	r3, #6
 8019cc6:	d10c      	bne.n	8019ce2 <fatfs_entry_lfn_exists+0x32>
 8019cc8:	f890 3105 	ldrb.w	r3, [r0, #261]	; 0x105
 8019ccc:	b95b      	cbnz	r3, 8019ce6 <fatfs_entry_lfn_exists+0x36>
 8019cce:	2000      	movs	r0, #0
 8019cd0:	4770      	bx	lr
 8019cd2:	2000      	movs	r0, #0
 8019cd4:	4770      	bx	lr
 8019cd6:	2000      	movs	r0, #0
 8019cd8:	4770      	bx	lr
 8019cda:	2000      	movs	r0, #0
 8019cdc:	4770      	bx	lr
 8019cde:	2000      	movs	r0, #0
 8019ce0:	4770      	bx	lr
 8019ce2:	2000      	movs	r0, #0
 8019ce4:	4770      	bx	lr
 8019ce6:	2001      	movs	r0, #1
 8019ce8:	4770      	bx	lr

08019cea <fatfs_entry_sfn_only>:
 8019cea:	7ac3      	ldrb	r3, [r0, #11]
 8019cec:	2b0f      	cmp	r3, #15
 8019cee:	d00a      	beq.n	8019d06 <fatfs_entry_sfn_only+0x1c>
 8019cf0:	7802      	ldrb	r2, [r0, #0]
 8019cf2:	b152      	cbz	r2, 8019d0a <fatfs_entry_sfn_only+0x20>
 8019cf4:	2ae5      	cmp	r2, #229	; 0xe5
 8019cf6:	d00a      	beq.n	8019d0e <fatfs_entry_sfn_only+0x24>
 8019cf8:	2b08      	cmp	r3, #8
 8019cfa:	d00a      	beq.n	8019d12 <fatfs_entry_sfn_only+0x28>
 8019cfc:	f013 0f06 	tst.w	r3, #6
 8019d00:	d009      	beq.n	8019d16 <fatfs_entry_sfn_only+0x2c>
 8019d02:	2000      	movs	r0, #0
 8019d04:	4770      	bx	lr
 8019d06:	2000      	movs	r0, #0
 8019d08:	4770      	bx	lr
 8019d0a:	2000      	movs	r0, #0
 8019d0c:	4770      	bx	lr
 8019d0e:	2000      	movs	r0, #0
 8019d10:	4770      	bx	lr
 8019d12:	2000      	movs	r0, #0
 8019d14:	4770      	bx	lr
 8019d16:	2001      	movs	r0, #1
 8019d18:	4770      	bx	lr

08019d1a <fatfs_entry_is_dir>:
 8019d1a:	7ac3      	ldrb	r3, [r0, #11]
 8019d1c:	f013 0f10 	tst.w	r3, #16
 8019d20:	d001      	beq.n	8019d26 <fatfs_entry_is_dir+0xc>
 8019d22:	2001      	movs	r0, #1
 8019d24:	4770      	bx	lr
 8019d26:	2000      	movs	r0, #0
 8019d28:	4770      	bx	lr

08019d2a <fatfs_entry_is_file>:
 8019d2a:	7ac3      	ldrb	r3, [r0, #11]
 8019d2c:	f013 0f20 	tst.w	r3, #32
 8019d30:	d001      	beq.n	8019d36 <fatfs_entry_is_file+0xc>
 8019d32:	2001      	movs	r0, #1
 8019d34:	4770      	bx	lr
 8019d36:	2000      	movs	r0, #0
 8019d38:	4770      	bx	lr

08019d3a <fatfs_lfn_entries_required>:
 8019d3a:	b508      	push	{r3, lr}
 8019d3c:	f7f8 fe02 	bl	8012944 <strlen>
 8019d40:	4603      	mov	r3, r0
 8019d42:	b130      	cbz	r0, 8019d52 <fatfs_lfn_entries_required+0x18>
 8019d44:	330c      	adds	r3, #12
 8019d46:	4804      	ldr	r0, [pc, #16]	; (8019d58 <fatfs_lfn_entries_required+0x1e>)
 8019d48:	fb80 2003 	smull	r2, r0, r0, r3
 8019d4c:	17db      	asrs	r3, r3, #31
 8019d4e:	ebc3 03a0 	rsb	r3, r3, r0, asr #2
 8019d52:	4618      	mov	r0, r3
 8019d54:	bd08      	pop	{r3, pc}
 8019d56:	bf00      	nop
 8019d58:	4ec4ec4f 	.word	0x4ec4ec4f

08019d5c <fatfs_filename_to_lfn>:
 8019d5c:	e92d 47f0 	stmdb	sp!, {r4, r5, r6, r7, r8, r9, sl, lr}
 8019d60:	b08e      	sub	sp, #56	; 0x38
 8019d62:	4606      	mov	r6, r0
 8019d64:	460c      	mov	r4, r1
 8019d66:	4690      	mov	r8, r2
 8019d68:	4699      	mov	r9, r3
 8019d6a:	ad01      	add	r5, sp, #4
 8019d6c:	4f29      	ldr	r7, [pc, #164]	; (8019e14 <fatfs_filename_to_lfn+0xb8>)
 8019d6e:	cf0f      	ldmia	r7!, {r0, r1, r2, r3}
 8019d70:	c50f      	stmia	r5!, {r0, r1, r2, r3}
 8019d72:	cf0f      	ldmia	r7!, {r0, r1, r2, r3}
 8019d74:	c50f      	stmia	r5!, {r0, r1, r2, r3}
 8019d76:	cf0f      	ldmia	r7!, {r0, r1, r2, r3}
 8019d78:	c50f      	stmia	r5!, {r0, r1, r2, r3}
 8019d7a:	683b      	ldr	r3, [r7, #0]
 8019d7c:	602b      	str	r3, [r5, #0]
 8019d7e:	4630      	mov	r0, r6
 8019d80:	f7f8 fde0 	bl	8012944 <strlen>
 8019d84:	4605      	mov	r5, r0
 8019d86:	4630      	mov	r0, r6
 8019d88:	f7ff ffd7 	bl	8019d3a <fatfs_lfn_entries_required>
 8019d8c:	4682      	mov	sl, r0
 8019d8e:	eb08 0748 	add.w	r7, r8, r8, lsl #1
 8019d92:	eb08 0787 	add.w	r7, r8, r7, lsl #2
 8019d96:	2220      	movs	r2, #32
 8019d98:	2100      	movs	r1, #0
 8019d9a:	4620      	mov	r0, r4
 8019d9c:	f7f8 fda1 	bl	80128e2 <memset>
 8019da0:	f10a 3aff 	add.w	sl, sl, #4294967295	; 0xffffffff
 8019da4:	45c2      	cmp	sl, r8
 8019da6:	d00a      	beq.n	8019dbe <fatfs_filename_to_lfn+0x62>
 8019da8:	fa5f f388 	uxtb.w	r3, r8
 8019dac:	3301      	adds	r3, #1
 8019dae:	b2db      	uxtb	r3, r3
 8019db0:	7023      	strb	r3, [r4, #0]
 8019db2:	230f      	movs	r3, #15
 8019db4:	72e3      	strb	r3, [r4, #11]
 8019db6:	f884 900d 	strb.w	r9, [r4, #13]
 8019dba:	2300      	movs	r3, #0
 8019dbc:	e012      	b.n	8019de4 <fatfs_filename_to_lfn+0x88>
 8019dbe:	f108 0301 	add.w	r3, r8, #1
 8019dc2:	b25b      	sxtb	r3, r3
 8019dc4:	f043 0340 	orr.w	r3, r3, #64	; 0x40
 8019dc8:	b2db      	uxtb	r3, r3
 8019dca:	e7f1      	b.n	8019db0 <fatfs_filename_to_lfn+0x54>
 8019dcc:	42aa      	cmp	r2, r5
 8019dce:	d016      	beq.n	8019dfe <fatfs_filename_to_lfn+0xa2>
 8019dd0:	aa0e      	add	r2, sp, #56	; 0x38
 8019dd2:	eb02 0283 	add.w	r2, r2, r3, lsl #2
 8019dd6:	f852 2c34 	ldr.w	r2, [r2, #-52]
 8019dda:	21ff      	movs	r1, #255	; 0xff
 8019ddc:	54a1      	strb	r1, [r4, r2]
 8019dde:	3201      	adds	r2, #1
 8019de0:	54a1      	strb	r1, [r4, r2]
 8019de2:	3301      	adds	r3, #1
 8019de4:	2b0c      	cmp	r3, #12
 8019de6:	dc12      	bgt.n	8019e0e <fatfs_filename_to_lfn+0xb2>
 8019de8:	19da      	adds	r2, r3, r7
 8019dea:	42aa      	cmp	r2, r5
 8019dec:	daee      	bge.n	8019dcc <fatfs_filename_to_lfn+0x70>
 8019dee:	a90e      	add	r1, sp, #56	; 0x38
 8019df0:	eb01 0183 	add.w	r1, r1, r3, lsl #2
 8019df4:	f851 1c34 	ldr.w	r1, [r1, #-52]
 8019df8:	5cb2      	ldrb	r2, [r6, r2]
 8019dfa:	5462      	strb	r2, [r4, r1]
 8019dfc:	e7f1      	b.n	8019de2 <fatfs_filename_to_lfn+0x86>
 8019dfe:	aa0e      	add	r2, sp, #56	; 0x38
 8019e00:	eb02 0283 	add.w	r2, r2, r3, lsl #2
 8019e04:	f852 2c34 	ldr.w	r2, [r2, #-52]
 8019e08:	2100      	movs	r1, #0
 8019e0a:	54a1      	strb	r1, [r4, r2]
 8019e0c:	e7e9      	b.n	8019de2 <fatfs_filename_to_lfn+0x86>
 8019e0e:	b00e      	add	sp, #56	; 0x38
 8019e10:	e8bd 87f0 	ldmia.w	sp!, {r4, r5, r6, r7, r8, r9, sl, pc}
 8019e14:	0801a950 	.word	0x0801a950

08019e18 <fatfs_sfn_create_entry>:
 8019e18:	b470      	push	{r4, r5, r6}
 8019e1a:	9e03      	ldr	r6, [sp, #12]
 8019e1c:	2400      	movs	r4, #0
 8019e1e:	e002      	b.n	8019e26 <fatfs_sfn_create_entry+0xe>
 8019e20:	5d05      	ldrb	r5, [r0, r4]
 8019e22:	551d      	strb	r5, [r3, r4]
 8019e24:	3401      	adds	r4, #1
 8019e26:	2c0a      	cmp	r4, #10
 8019e28:	ddfa      	ble.n	8019e20 <fatfs_sfn_create_entry+0x8>
 8019e2a:	2000      	movs	r0, #0
 8019e2c:	7358      	strb	r0, [r3, #13]
 8019e2e:	7398      	strb	r0, [r3, #14]
 8019e30:	73d8      	strb	r0, [r3, #15]
 8019e32:	7458      	strb	r0, [r3, #17]
 8019e34:	2420      	movs	r4, #32
 8019e36:	741c      	strb	r4, [r3, #16]
 8019e38:	74d8      	strb	r0, [r3, #19]
 8019e3a:	749c      	strb	r4, [r3, #18]
 8019e3c:	7598      	strb	r0, [r3, #22]
 8019e3e:	75d8      	strb	r0, [r3, #23]
 8019e40:	7658      	strb	r0, [r3, #25]
 8019e42:	761c      	strb	r4, [r3, #24]
 8019e44:	b94e      	cbnz	r6, 8019e5a <fatfs_sfn_create_entry+0x42>
 8019e46:	72dc      	strb	r4, [r3, #11]
 8019e48:	2000      	movs	r0, #0
 8019e4a:	7318      	strb	r0, [r3, #12]
 8019e4c:	f3c2 400f 	ubfx	r0, r2, #16, #16
 8019e50:	8298      	strh	r0, [r3, #20]
 8019e52:	835a      	strh	r2, [r3, #26]
 8019e54:	61d9      	str	r1, [r3, #28]
 8019e56:	bc70      	pop	{r4, r5, r6}
 8019e58:	4770      	bx	lr
 8019e5a:	2010      	movs	r0, #16
 8019e5c:	72d8      	strb	r0, [r3, #11]
 8019e5e:	e7f3      	b.n	8019e48 <fatfs_sfn_create_entry+0x30>

08019e60 <fatfs_lfn_create_sfn>:
 8019e60:	b5f0      	push	{r4, r5, r6, r7, lr}
 8019e62:	b083      	sub	sp, #12
 8019e64:	4606      	mov	r6, r0
 8019e66:	460c      	mov	r4, r1
 8019e68:	4608      	mov	r0, r1
 8019e6a:	f7f8 fd6b 	bl	8012944 <strlen>
 8019e6e:	7823      	ldrb	r3, [r4, #0]
 8019e70:	2b2e      	cmp	r3, #46	; 0x2e
 8019e72:	d05a      	beq.n	8019f2a <fatfs_lfn_create_sfn+0xca>
 8019e74:	4607      	mov	r7, r0
 8019e76:	220b      	movs	r2, #11
 8019e78:	2120      	movs	r1, #32
 8019e7a:	4630      	mov	r0, r6
 8019e7c:	f7f8 fd31 	bl	80128e2 <memset>
 8019e80:	2203      	movs	r2, #3
 8019e82:	2120      	movs	r1, #32
 8019e84:	a801      	add	r0, sp, #4
 8019e86:	f7f8 fd2c 	bl	80128e2 <memset>
 8019e8a:	f04f 35ff 	mov.w	r5, #4294967295	; 0xffffffff
 8019e8e:	2300      	movs	r3, #0
 8019e90:	e000      	b.n	8019e94 <fatfs_lfn_create_sfn+0x34>
 8019e92:	3301      	adds	r3, #1
 8019e94:	42bb      	cmp	r3, r7
 8019e96:	da04      	bge.n	8019ea2 <fatfs_lfn_create_sfn+0x42>
 8019e98:	5ce2      	ldrb	r2, [r4, r3]
 8019e9a:	2a2e      	cmp	r2, #46	; 0x2e
 8019e9c:	d1f9      	bne.n	8019e92 <fatfs_lfn_create_sfn+0x32>
 8019e9e:	461d      	mov	r5, r3
 8019ea0:	e7f7      	b.n	8019e92 <fatfs_lfn_create_sfn+0x32>
 8019ea2:	f1b5 3fff 	cmp.w	r5, #4294967295	; 0xffffffff
 8019ea6:	d010      	beq.n	8019eca <fatfs_lfn_create_sfn+0x6a>
 8019ea8:	1c69      	adds	r1, r5, #1
 8019eaa:	460b      	mov	r3, r1
 8019eac:	e000      	b.n	8019eb0 <fatfs_lfn_create_sfn+0x50>
 8019eae:	3301      	adds	r3, #1
 8019eb0:	1cea      	adds	r2, r5, #3
 8019eb2:	429a      	cmp	r2, r3
 8019eb4:	db0a      	blt.n	8019ecc <fatfs_lfn_create_sfn+0x6c>
 8019eb6:	42bb      	cmp	r3, r7
 8019eb8:	daf9      	bge.n	8019eae <fatfs_lfn_create_sfn+0x4e>
 8019eba:	1a5a      	subs	r2, r3, r1
 8019ebc:	5ce0      	ldrb	r0, [r4, r3]
 8019ebe:	f10d 0c08 	add.w	ip, sp, #8
 8019ec2:	4462      	add	r2, ip
 8019ec4:	f802 0c04 	strb.w	r0, [r2, #-4]
 8019ec8:	e7f1      	b.n	8019eae <fatfs_lfn_create_sfn+0x4e>
 8019eca:	463d      	mov	r5, r7
 8019ecc:	2100      	movs	r1, #0
 8019ece:	460b      	mov	r3, r1
 8019ed0:	e004      	b.n	8019edc <fatfs_lfn_create_sfn+0x7c>
 8019ed2:	5472      	strb	r2, [r6, r1]
 8019ed4:	3101      	adds	r1, #1
 8019ed6:	2908      	cmp	r1, #8
 8019ed8:	d010      	beq.n	8019efc <fatfs_lfn_create_sfn+0x9c>
 8019eda:	3301      	adds	r3, #1
 8019edc:	42ab      	cmp	r3, r5
 8019ede:	da0d      	bge.n	8019efc <fatfs_lfn_create_sfn+0x9c>
 8019ee0:	5ce2      	ldrb	r2, [r4, r3]
 8019ee2:	2a20      	cmp	r2, #32
 8019ee4:	d0f7      	beq.n	8019ed6 <fatfs_lfn_create_sfn+0x76>
 8019ee6:	2a2e      	cmp	r2, #46	; 0x2e
 8019ee8:	d0f5      	beq.n	8019ed6 <fatfs_lfn_create_sfn+0x76>
 8019eea:	f1a2 0061 	sub.w	r0, r2, #97	; 0x61
 8019eee:	b2c0      	uxtb	r0, r0
 8019ef0:	2819      	cmp	r0, #25
 8019ef2:	d8ee      	bhi.n	8019ed2 <fatfs_lfn_create_sfn+0x72>
 8019ef4:	3a20      	subs	r2, #32
 8019ef6:	5472      	strb	r2, [r6, r1]
 8019ef8:	3101      	adds	r1, #1
 8019efa:	e7ec      	b.n	8019ed6 <fatfs_lfn_create_sfn+0x76>
 8019efc:	2308      	movs	r3, #8
 8019efe:	e001      	b.n	8019f04 <fatfs_lfn_create_sfn+0xa4>
 8019f00:	54f2      	strb	r2, [r6, r3]
 8019f02:	3301      	adds	r3, #1
 8019f04:	2b0a      	cmp	r3, #10
 8019f06:	dc0d      	bgt.n	8019f24 <fatfs_lfn_create_sfn+0xc4>
 8019f08:	f1a3 0208 	sub.w	r2, r3, #8
 8019f0c:	a902      	add	r1, sp, #8
 8019f0e:	440a      	add	r2, r1
 8019f10:	f812 2c04 	ldrb.w	r2, [r2, #-4]
 8019f14:	f1a2 0161 	sub.w	r1, r2, #97	; 0x61
 8019f18:	b2c9      	uxtb	r1, r1
 8019f1a:	2919      	cmp	r1, #25
 8019f1c:	d8f0      	bhi.n	8019f00 <fatfs_lfn_create_sfn+0xa0>
 8019f1e:	3a20      	subs	r2, #32
 8019f20:	54f2      	strb	r2, [r6, r3]
 8019f22:	e7ee      	b.n	8019f02 <fatfs_lfn_create_sfn+0xa2>
 8019f24:	2001      	movs	r0, #1
 8019f26:	b003      	add	sp, #12
 8019f28:	bdf0      	pop	{r4, r5, r6, r7, pc}
 8019f2a:	2000      	movs	r0, #0
 8019f2c:	e7fb      	b.n	8019f26 <fatfs_lfn_create_sfn+0xc6>

08019f2e <fatfs_lfn_generate_tail>:
 8019f2e:	4b14      	ldr	r3, [pc, #80]	; (8019f80 <fatfs_lfn_generate_tail+0x52>)
 8019f30:	429a      	cmp	r2, r3
 8019f32:	d901      	bls.n	8019f38 <fatfs_lfn_generate_tail+0xa>
 8019f34:	2000      	movs	r0, #0
 8019f36:	4770      	bx	lr
 8019f38:	b570      	push	{r4, r5, r6, lr}
 8019f3a:	b084      	sub	sp, #16
 8019f3c:	4606      	mov	r6, r0
 8019f3e:	460d      	mov	r5, r1
 8019f40:	4614      	mov	r4, r2
 8019f42:	220c      	movs	r2, #12
 8019f44:	2100      	movs	r1, #0
 8019f46:	a801      	add	r0, sp, #4
 8019f48:	f7f8 fccb 	bl	80128e2 <memset>
 8019f4c:	237e      	movs	r3, #126	; 0x7e
 8019f4e:	f88d 3004 	strb.w	r3, [sp, #4]
 8019f52:	f10d 0105 	add.w	r1, sp, #5
 8019f56:	4620      	mov	r0, r4
 8019f58:	f7ff fdec 	bl	8019b34 <fatfs_itoa>
 8019f5c:	220b      	movs	r2, #11
 8019f5e:	4629      	mov	r1, r5
 8019f60:	4630      	mov	r0, r6
 8019f62:	f7f8 fcc5 	bl	80128f0 <memcpy>
 8019f66:	a801      	add	r0, sp, #4
 8019f68:	f7f8 fcec 	bl	8012944 <strlen>
 8019f6c:	4602      	mov	r2, r0
 8019f6e:	f1c0 0008 	rsb	r0, r0, #8
 8019f72:	a901      	add	r1, sp, #4
 8019f74:	4430      	add	r0, r6
 8019f76:	f7f8 fcbb 	bl	80128f0 <memcpy>
 8019f7a:	2001      	movs	r0, #1
 8019f7c:	b004      	add	sp, #16
 8019f7e:	bd70      	pop	{r4, r5, r6, pc}
 8019f80:	0001869f 	.word	0x0001869f

08019f84 <fatfs_fat_writeback>:
 8019f84:	b1d9      	cbz	r1, 8019fbe <fatfs_fat_writeback+0x3a>
 8019f86:	b570      	push	{r4, r5, r6, lr}
 8019f88:	4603      	mov	r3, r0
 8019f8a:	460c      	mov	r4, r1
 8019f8c:	f8d1 2204 	ldr.w	r2, [r1, #516]	; 0x204
 8019f90:	b18a      	cbz	r2, 8019fb6 <fatfs_fat_writeback+0x32>
 8019f92:	6b46      	ldr	r6, [r0, #52]	; 0x34
 8019f94:	b166      	cbz	r6, 8019fb0 <fatfs_fat_writeback+0x2c>
 8019f96:	f8d1 0200 	ldr.w	r0, [r1, #512]	; 0x200
 8019f9a:	6959      	ldr	r1, [r3, #20]
 8019f9c:	1a45      	subs	r5, r0, r1
 8019f9e:	3501      	adds	r5, #1
 8019fa0:	6a1a      	ldr	r2, [r3, #32]
 8019fa2:	4295      	cmp	r5, r2
 8019fa4:	d909      	bls.n	8019fba <fatfs_fat_writeback+0x36>
 8019fa6:	1a09      	subs	r1, r1, r0
 8019fa8:	440a      	add	r2, r1
 8019faa:	4621      	mov	r1, r4
 8019fac:	47b0      	blx	r6
 8019fae:	b118      	cbz	r0, 8019fb8 <fatfs_fat_writeback+0x34>
 8019fb0:	2300      	movs	r3, #0
 8019fb2:	f8c4 3204 	str.w	r3, [r4, #516]	; 0x204
 8019fb6:	2001      	movs	r0, #1
 8019fb8:	bd70      	pop	{r4, r5, r6, pc}
 8019fba:	2201      	movs	r2, #1
 8019fbc:	e7f5      	b.n	8019faa <fatfs_fat_writeback+0x26>
 8019fbe:	2000      	movs	r0, #0
 8019fc0:	4770      	bx	lr

08019fc2 <fatfs_fat_read_sector>:
 8019fc2:	b5f8      	push	{r3, r4, r5, r6, r7, lr}
 8019fc4:	4607      	mov	r7, r0
 8019fc6:	460d      	mov	r5, r1
 8019fc8:	f8d0 4250 	ldr.w	r4, [r0, #592]	; 0x250
 8019fcc:	2600      	movs	r6, #0
 8019fce:	e005      	b.n	8019fdc <fatfs_fat_read_sector+0x1a>
 8019fd0:	f8d4 320c 	ldr.w	r3, [r4, #524]	; 0x20c
 8019fd4:	b1a3      	cbz	r3, 801a000 <fatfs_fat_read_sector+0x3e>
 8019fd6:	4626      	mov	r6, r4
 8019fd8:	f8d4 420c 	ldr.w	r4, [r4, #524]	; 0x20c
 8019fdc:	b134      	cbz	r4, 8019fec <fatfs_fat_read_sector+0x2a>
 8019fde:	f8d4 3200 	ldr.w	r3, [r4, #512]	; 0x200
 8019fe2:	42ab      	cmp	r3, r5
 8019fe4:	d8f4      	bhi.n	8019fd0 <fatfs_fat_read_sector+0xe>
 8019fe6:	3301      	adds	r3, #1
 8019fe8:	42ab      	cmp	r3, r5
 8019fea:	d9f1      	bls.n	8019fd0 <fatfs_fat_read_sector+0xe>
 8019fec:	b184      	cbz	r4, 801a010 <fatfs_fat_read_sector+0x4e>
 8019fee:	f8d4 3200 	ldr.w	r3, [r4, #512]	; 0x200
 8019ff2:	1aeb      	subs	r3, r5, r3
 8019ff4:	eb04 2343 	add.w	r3, r4, r3, lsl #9
 8019ff8:	f8c4 3208 	str.w	r3, [r4, #520]	; 0x208
 8019ffc:	4620      	mov	r0, r4
 8019ffe:	bdf8      	pop	{r3, r4, r5, r6, r7, pc}
 801a000:	b116      	cbz	r6, 801a008 <fatfs_fat_read_sector+0x46>
 801a002:	f8c6 320c 	str.w	r3, [r6, #524]	; 0x20c
 801a006:	e7e6      	b.n	8019fd6 <fatfs_fat_read_sector+0x14>
 801a008:	2300      	movs	r3, #0
 801a00a:	f8c7 3250 	str.w	r3, [r7, #592]	; 0x250
 801a00e:	e7e2      	b.n	8019fd6 <fatfs_fat_read_sector+0x14>
 801a010:	f8d7 3250 	ldr.w	r3, [r7, #592]	; 0x250
 801a014:	f8c6 320c 	str.w	r3, [r6, #524]	; 0x20c
 801a018:	f8c7 6250 	str.w	r6, [r7, #592]	; 0x250
 801a01c:	f8d6 3204 	ldr.w	r3, [r6, #516]	; 0x204
 801a020:	b95b      	cbnz	r3, 801a03a <fatfs_fat_read_sector+0x78>
 801a022:	f8c6 5200 	str.w	r5, [r6, #512]	; 0x200
 801a026:	6b3b      	ldr	r3, [r7, #48]	; 0x30
 801a028:	2201      	movs	r2, #1
 801a02a:	4631      	mov	r1, r6
 801a02c:	4628      	mov	r0, r5
 801a02e:	4798      	blx	r3
 801a030:	b150      	cbz	r0, 801a048 <fatfs_fat_read_sector+0x86>
 801a032:	f8c6 6208 	str.w	r6, [r6, #520]	; 0x208
 801a036:	4634      	mov	r4, r6
 801a038:	e7e0      	b.n	8019ffc <fatfs_fat_read_sector+0x3a>
 801a03a:	4631      	mov	r1, r6
 801a03c:	4638      	mov	r0, r7
 801a03e:	f7ff ffa1 	bl	8019f84 <fatfs_fat_writeback>
 801a042:	2800      	cmp	r0, #0
 801a044:	d1ed      	bne.n	801a022 <fatfs_fat_read_sector+0x60>
 801a046:	e7d9      	b.n	8019ffc <fatfs_fat_read_sector+0x3a>
 801a048:	f04f 33ff 	mov.w	r3, #4294967295	; 0xffffffff
 801a04c:	f8c6 3200 	str.w	r3, [r6, #512]	; 0x200
 801a050:	e7d4      	b.n	8019ffc <fatfs_fat_read_sector+0x3a>

0801a052 <fatfs_fat_init>:
 801a052:	e92d 41f0 	stmdb	sp!, {r4, r5, r6, r7, r8, lr}
 801a056:	4606      	mov	r6, r0
 801a058:	2400      	movs	r4, #0
 801a05a:	f8c0 4250 	str.w	r4, [r0, #592]	; 0x250
 801a05e:	2c00      	cmp	r4, #0
 801a060:	dd01      	ble.n	801a066 <fatfs_fat_init+0x14>
 801a062:	e8bd 81f0 	ldmia.w	sp!, {r4, r5, r6, r7, r8, pc}
 801a066:	eb04 1744 	add.w	r7, r4, r4, lsl #5
 801a06a:	eb06 1707 	add.w	r7, r6, r7, lsl #4
 801a06e:	f04f 33ff 	mov.w	r3, #4294967295	; 0xffffffff
 801a072:	f8c7 3454 	str.w	r3, [r7, #1108]	; 0x454
 801a076:	f04f 0800 	mov.w	r8, #0
 801a07a:	f8c7 8458 	str.w	r8, [r7, #1112]	; 0x458
 801a07e:	eb04 1544 	add.w	r5, r4, r4, lsl #5
 801a082:	012d      	lsls	r5, r5, #4
 801a084:	f505 7514 	add.w	r5, r5, #592	; 0x250
 801a088:	4435      	add	r5, r6
 801a08a:	3504      	adds	r5, #4
 801a08c:	f44f 7200 	mov.w	r2, #512	; 0x200
 801a090:	4641      	mov	r1, r8
 801a092:	4628      	mov	r0, r5
 801a094:	f7f8 fc25 	bl	80128e2 <memset>
 801a098:	f8c7 845c 	str.w	r8, [r7, #1116]	; 0x45c
 801a09c:	f8d6 3250 	ldr.w	r3, [r6, #592]	; 0x250
 801a0a0:	f8c7 3460 	str.w	r3, [r7, #1120]	; 0x460
 801a0a4:	f8c6 5250 	str.w	r5, [r6, #592]	; 0x250
 801a0a8:	3401      	adds	r4, #1
 801a0aa:	e7d8      	b.n	801a05e <fatfs_fat_init+0xc>

0801a0ac <fatfs_fat_purge>:
 801a0ac:	b538      	push	{r3, r4, r5, lr}
 801a0ae:	4605      	mov	r5, r0
 801a0b0:	f8d0 4250 	ldr.w	r4, [r0, #592]	; 0x250
 801a0b4:	e001      	b.n	801a0ba <fatfs_fat_purge+0xe>
 801a0b6:	f8d4 420c 	ldr.w	r4, [r4, #524]	; 0x20c
 801a0ba:	b15c      	cbz	r4, 801a0d4 <fatfs_fat_purge+0x28>
 801a0bc:	f8d4 3204 	ldr.w	r3, [r4, #516]	; 0x204
 801a0c0:	2b00      	cmp	r3, #0
 801a0c2:	d0f8      	beq.n	801a0b6 <fatfs_fat_purge+0xa>
 801a0c4:	4621      	mov	r1, r4
 801a0c6:	4628      	mov	r0, r5
 801a0c8:	f7ff ff5c 	bl	8019f84 <fatfs_fat_writeback>
 801a0cc:	4603      	mov	r3, r0
 801a0ce:	2800      	cmp	r0, #0
 801a0d0:	d1f1      	bne.n	801a0b6 <fatfs_fat_purge+0xa>
 801a0d2:	e000      	b.n	801a0d6 <fatfs_fat_purge+0x2a>
 801a0d4:	2301      	movs	r3, #1
 801a0d6:	4618      	mov	r0, r3
 801a0d8:	bd38      	pop	{r3, r4, r5, pc}

0801a0da <fatfs_find_next_cluster>:
 801a0da:	b570      	push	{r4, r5, r6, lr}
 801a0dc:	4604      	mov	r4, r0
 801a0de:	460d      	mov	r5, r1
 801a0e0:	b901      	cbnz	r1, 801a0e4 <fatfs_find_next_cluster+0xa>
 801a0e2:	2502      	movs	r5, #2
 801a0e4:	f894 302d 	ldrb.w	r3, [r4, #45]	; 0x2d
 801a0e8:	b9d3      	cbnz	r3, 801a120 <fatfs_find_next_cluster+0x46>
 801a0ea:	0a2e      	lsrs	r6, r5, #8
 801a0ec:	6961      	ldr	r1, [r4, #20]
 801a0ee:	4431      	add	r1, r6
 801a0f0:	4620      	mov	r0, r4
 801a0f2:	f7ff ff66 	bl	8019fc2 <fatfs_fat_read_sector>
 801a0f6:	b380      	cbz	r0, 801a15a <fatfs_find_next_cluster+0x80>
 801a0f8:	f894 202d 	ldrb.w	r2, [r4, #45]	; 0x2d
 801a0fc:	b992      	cbnz	r2, 801a124 <fatfs_find_next_cluster+0x4a>
 801a0fe:	eba5 2506 	sub.w	r5, r5, r6, lsl #8
 801a102:	006d      	lsls	r5, r5, #1
 801a104:	f8d0 3208 	ldr.w	r3, [r0, #520]	; 0x208
 801a108:	b2ad      	uxth	r5, r5
 801a10a:	195a      	adds	r2, r3, r5
 801a10c:	7852      	ldrb	r2, [r2, #1]
 801a10e:	5d58      	ldrb	r0, [r3, r5]
 801a110:	eb00 2002 	add.w	r0, r0, r2, lsl #8
 801a114:	f5a0 437f 	sub.w	r3, r0, #65280	; 0xff00
 801a118:	3bf8      	subs	r3, #248	; 0xf8
 801a11a:	2b07      	cmp	r3, #7
 801a11c:	d920      	bls.n	801a160 <fatfs_find_next_cluster+0x86>
 801a11e:	bd70      	pop	{r4, r5, r6, pc}
 801a120:	09ee      	lsrs	r6, r5, #7
 801a122:	e7e3      	b.n	801a0ec <fatfs_find_next_cluster+0x12>
 801a124:	eba5 15c6 	sub.w	r5, r5, r6, lsl #7
 801a128:	00ad      	lsls	r5, r5, #2
 801a12a:	f8d0 1208 	ldr.w	r1, [r0, #520]	; 0x208
 801a12e:	b2ad      	uxth	r5, r5
 801a130:	194a      	adds	r2, r1, r5
 801a132:	78d0      	ldrb	r0, [r2, #3]
 801a134:	7893      	ldrb	r3, [r2, #2]
 801a136:	041b      	lsls	r3, r3, #16
 801a138:	eb03 6300 	add.w	r3, r3, r0, lsl #24
 801a13c:	7852      	ldrb	r2, [r2, #1]
 801a13e:	eb03 2302 	add.w	r3, r3, r2, lsl #8
 801a142:	5d4a      	ldrb	r2, [r1, r5]
 801a144:	4413      	add	r3, r2
 801a146:	f023 4070 	bic.w	r0, r3, #4026531840	; 0xf0000000
 801a14a:	f043 4370 	orr.w	r3, r3, #4026531840	; 0xf0000000
 801a14e:	3308      	adds	r3, #8
 801a150:	2b07      	cmp	r3, #7
 801a152:	d8e4      	bhi.n	801a11e <fatfs_find_next_cluster+0x44>
 801a154:	f04f 30ff 	mov.w	r0, #4294967295	; 0xffffffff
 801a158:	e7e1      	b.n	801a11e <fatfs_find_next_cluster+0x44>
 801a15a:	f04f 30ff 	mov.w	r0, #4294967295	; 0xffffffff
 801a15e:	e7de      	b.n	801a11e <fatfs_find_next_cluster+0x44>
 801a160:	f04f 30ff 	mov.w	r0, #4294967295	; 0xffffffff
 801a164:	e7db      	b.n	801a11e <fatfs_find_next_cluster+0x44>

0801a166 <fatfs_set_fs_info_next_free_cluster>:
 801a166:	f890 302d 	ldrb.w	r3, [r0, #45]	; 0x2d
 801a16a:	b903      	cbnz	r3, 801a16e <fatfs_set_fs_info_next_free_cluster+0x8>
 801a16c:	4770      	bx	lr
 801a16e:	b570      	push	{r4, r5, r6, lr}
 801a170:	4604      	mov	r4, r0
 801a172:	460d      	mov	r5, r1
 801a174:	69c1      	ldr	r1, [r0, #28]
 801a176:	8b03      	ldrh	r3, [r0, #24]
 801a178:	4419      	add	r1, r3
 801a17a:	f7ff ff22 	bl	8019fc2 <fatfs_fat_read_sector>
 801a17e:	4606      	mov	r6, r0
 801a180:	b330      	cbz	r0, 801a1d0 <fatfs_set_fs_info_next_free_cluster+0x6a>
 801a182:	f8d0 3208 	ldr.w	r3, [r0, #520]	; 0x208
 801a186:	f883 51ec 	strb.w	r5, [r3, #492]	; 0x1ec
 801a18a:	f8d0 3208 	ldr.w	r3, [r0, #520]	; 0x208
 801a18e:	f3c5 2207 	ubfx	r2, r5, #8, #8
 801a192:	f883 21ed 	strb.w	r2, [r3, #493]	; 0x1ed
 801a196:	f8d0 3208 	ldr.w	r3, [r0, #520]	; 0x208
 801a19a:	f3c5 4207 	ubfx	r2, r5, #16, #8
 801a19e:	f883 21ee 	strb.w	r2, [r3, #494]	; 0x1ee
 801a1a2:	f8d0 3208 	ldr.w	r3, [r0, #520]	; 0x208
 801a1a6:	0e2a      	lsrs	r2, r5, #24
 801a1a8:	f883 21ef 	strb.w	r2, [r3, #495]	; 0x1ef
 801a1ac:	2301      	movs	r3, #1
 801a1ae:	f8c0 3204 	str.w	r3, [r0, #516]	; 0x204
 801a1b2:	6265      	str	r5, [r4, #36]	; 0x24
 801a1b4:	6b63      	ldr	r3, [r4, #52]	; 0x34
 801a1b6:	b123      	cbz	r3, 801a1c2 <fatfs_set_fs_info_next_free_cluster+0x5c>
 801a1b8:	2201      	movs	r2, #1
 801a1ba:	4601      	mov	r1, r0
 801a1bc:	f8d0 0200 	ldr.w	r0, [r0, #512]	; 0x200
 801a1c0:	4798      	blx	r3
 801a1c2:	f04f 33ff 	mov.w	r3, #4294967295	; 0xffffffff
 801a1c6:	f8c6 3200 	str.w	r3, [r6, #512]	; 0x200
 801a1ca:	2300      	movs	r3, #0
 801a1cc:	f8c6 3204 	str.w	r3, [r6, #516]	; 0x204
 801a1d0:	bd70      	pop	{r4, r5, r6, pc}

0801a1d2 <fatfs_find_blank_cluster>:
 801a1d2:	b5f8      	push	{r3, r4, r5, r6, r7, lr}
 801a1d4:	4605      	mov	r5, r0
 801a1d6:	460e      	mov	r6, r1
 801a1d8:	4617      	mov	r7, r2
 801a1da:	e016      	b.n	801a20a <fatfs_find_blank_cluster+0x38>
 801a1dc:	09f4      	lsrs	r4, r6, #7
 801a1de:	e019      	b.n	801a214 <fatfs_find_blank_cluster+0x42>
 801a1e0:	eba6 14c4 	sub.w	r4, r6, r4, lsl #7
 801a1e4:	00a4      	lsls	r4, r4, #2
 801a1e6:	f8d0 1208 	ldr.w	r1, [r0, #520]	; 0x208
 801a1ea:	b2a4      	uxth	r4, r4
 801a1ec:	190a      	adds	r2, r1, r4
 801a1ee:	78d0      	ldrb	r0, [r2, #3]
 801a1f0:	7893      	ldrb	r3, [r2, #2]
 801a1f2:	041b      	lsls	r3, r3, #16
 801a1f4:	eb03 6300 	add.w	r3, r3, r0, lsl #24
 801a1f8:	7852      	ldrb	r2, [r2, #1]
 801a1fa:	eb03 2302 	add.w	r3, r3, r2, lsl #8
 801a1fe:	5d0a      	ldrb	r2, [r1, r4]
 801a200:	4413      	add	r3, r2
 801a202:	f023 4370 	bic.w	r3, r3, #4026531840	; 0xf0000000
 801a206:	e01d      	b.n	801a244 <fatfs_find_blank_cluster+0x72>
 801a208:	b303      	cbz	r3, 801a24c <fatfs_find_blank_cluster+0x7a>
 801a20a:	f895 302d 	ldrb.w	r3, [r5, #45]	; 0x2d
 801a20e:	2b00      	cmp	r3, #0
 801a210:	d1e4      	bne.n	801a1dc <fatfs_find_blank_cluster+0xa>
 801a212:	0a34      	lsrs	r4, r6, #8
 801a214:	6a2b      	ldr	r3, [r5, #32]
 801a216:	42a3      	cmp	r3, r4
 801a218:	d91b      	bls.n	801a252 <fatfs_find_blank_cluster+0x80>
 801a21a:	6969      	ldr	r1, [r5, #20]
 801a21c:	4421      	add	r1, r4
 801a21e:	4628      	mov	r0, r5
 801a220:	f7ff fecf 	bl	8019fc2 <fatfs_fat_read_sector>
 801a224:	b1b8      	cbz	r0, 801a256 <fatfs_find_blank_cluster+0x84>
 801a226:	f895 202d 	ldrb.w	r2, [r5, #45]	; 0x2d
 801a22a:	2a00      	cmp	r2, #0
 801a22c:	d1d8      	bne.n	801a1e0 <fatfs_find_blank_cluster+0xe>
 801a22e:	eba6 2404 	sub.w	r4, r6, r4, lsl #8
 801a232:	0064      	lsls	r4, r4, #1
 801a234:	f8d0 2208 	ldr.w	r2, [r0, #520]	; 0x208
 801a238:	b2a4      	uxth	r4, r4
 801a23a:	1913      	adds	r3, r2, r4
 801a23c:	7859      	ldrb	r1, [r3, #1]
 801a23e:	5d13      	ldrb	r3, [r2, r4]
 801a240:	eb03 2301 	add.w	r3, r3, r1, lsl #8
 801a244:	2b00      	cmp	r3, #0
 801a246:	d0df      	beq.n	801a208 <fatfs_find_blank_cluster+0x36>
 801a248:	3601      	adds	r6, #1
 801a24a:	e7dd      	b.n	801a208 <fatfs_find_blank_cluster+0x36>
 801a24c:	603e      	str	r6, [r7, #0]
 801a24e:	2001      	movs	r0, #1
 801a250:	e000      	b.n	801a254 <fatfs_find_blank_cluster+0x82>
 801a252:	2000      	movs	r0, #0
 801a254:	bdf8      	pop	{r3, r4, r5, r6, r7, pc}
 801a256:	2000      	movs	r0, #0
 801a258:	e7fc      	b.n	801a254 <fatfs_find_blank_cluster+0x82>

0801a25a <fatfs_fat_set_cluster>:
 801a25a:	b5f8      	push	{r3, r4, r5, r6, r7, lr}
 801a25c:	4606      	mov	r6, r0
 801a25e:	460c      	mov	r4, r1
 801a260:	4615      	mov	r5, r2
 801a262:	f890 302d 	ldrb.w	r3, [r0, #45]	; 0x2d
 801a266:	b9db      	cbnz	r3, 801a2a0 <fatfs_fat_set_cluster+0x46>
 801a268:	0a0f      	lsrs	r7, r1, #8
 801a26a:	6971      	ldr	r1, [r6, #20]
 801a26c:	4439      	add	r1, r7
 801a26e:	4630      	mov	r0, r6
 801a270:	f7ff fea7 	bl	8019fc2 <fatfs_fat_read_sector>
 801a274:	4603      	mov	r3, r0
 801a276:	b388      	cbz	r0, 801a2dc <fatfs_fat_set_cluster+0x82>
 801a278:	f896 202d 	ldrb.w	r2, [r6, #45]	; 0x2d
 801a27c:	b992      	cbnz	r2, 801a2a4 <fatfs_fat_set_cluster+0x4a>
 801a27e:	eba4 2407 	sub.w	r4, r4, r7, lsl #8
 801a282:	0064      	lsls	r4, r4, #1
 801a284:	f8d0 2208 	ldr.w	r2, [r0, #520]	; 0x208
 801a288:	b2a4      	uxth	r4, r4
 801a28a:	5515      	strb	r5, [r2, r4]
 801a28c:	f8d0 1208 	ldr.w	r1, [r0, #520]	; 0x208
 801a290:	3401      	adds	r4, #1
 801a292:	f3c5 2507 	ubfx	r5, r5, #8, #8
 801a296:	550d      	strb	r5, [r1, r4]
 801a298:	2001      	movs	r0, #1
 801a29a:	f8c3 0204 	str.w	r0, [r3, #516]	; 0x204
 801a29e:	bdf8      	pop	{r3, r4, r5, r6, r7, pc}
 801a2a0:	09cf      	lsrs	r7, r1, #7
 801a2a2:	e7e2      	b.n	801a26a <fatfs_fat_set_cluster+0x10>
 801a2a4:	eba4 14c7 	sub.w	r4, r4, r7, lsl #7
 801a2a8:	00a4      	lsls	r4, r4, #2
 801a2aa:	f8d0 2208 	ldr.w	r2, [r0, #520]	; 0x208
 801a2ae:	b2a4      	uxth	r4, r4
 801a2b0:	5515      	strb	r5, [r2, r4]
 801a2b2:	f8d0 1208 	ldr.w	r1, [r0, #520]	; 0x208
 801a2b6:	1c62      	adds	r2, r4, #1
 801a2b8:	f3c5 2007 	ubfx	r0, r5, #8, #8
 801a2bc:	5488      	strb	r0, [r1, r2]
 801a2be:	f8d3 1208 	ldr.w	r1, [r3, #520]	; 0x208
 801a2c2:	1ca2      	adds	r2, r4, #2
 801a2c4:	f3c5 4007 	ubfx	r0, r5, #16, #8
 801a2c8:	5488      	strb	r0, [r1, r2]
 801a2ca:	f8d3 2208 	ldr.w	r2, [r3, #520]	; 0x208
 801a2ce:	3403      	adds	r4, #3
 801a2d0:	0e2d      	lsrs	r5, r5, #24
 801a2d2:	5515      	strb	r5, [r2, r4]
 801a2d4:	2001      	movs	r0, #1
 801a2d6:	f8c3 0204 	str.w	r0, [r3, #516]	; 0x204
 801a2da:	e7e0      	b.n	801a29e <fatfs_fat_set_cluster+0x44>
 801a2dc:	2000      	movs	r0, #0
 801a2de:	e7de      	b.n	801a29e <fatfs_fat_set_cluster+0x44>

0801a2e0 <fatfs_free_cluster_chain>:
 801a2e0:	b570      	push	{r4, r5, r6, lr}
 801a2e2:	4606      	mov	r6, r0
 801a2e4:	460c      	mov	r4, r1
 801a2e6:	1e63      	subs	r3, r4, #1
 801a2e8:	f113 0f03 	cmn.w	r3, #3
 801a2ec:	d80b      	bhi.n	801a306 <fatfs_free_cluster_chain+0x26>
 801a2ee:	4621      	mov	r1, r4
 801a2f0:	4630      	mov	r0, r6
 801a2f2:	f7ff fef2 	bl	801a0da <fatfs_find_next_cluster>
 801a2f6:	4605      	mov	r5, r0
 801a2f8:	2200      	movs	r2, #0
 801a2fa:	4621      	mov	r1, r4
 801a2fc:	4630      	mov	r0, r6
 801a2fe:	f7ff ffac 	bl	801a25a <fatfs_fat_set_cluster>
 801a302:	462c      	mov	r4, r5
 801a304:	e7ef      	b.n	801a2e6 <fatfs_free_cluster_chain+0x6>
 801a306:	2001      	movs	r0, #1
 801a308:	bd70      	pop	{r4, r5, r6, pc}

0801a30a <fatfs_fat_add_cluster_to_chain>:
 801a30a:	f1b1 3fff 	cmp.w	r1, #4294967295	; 0xffffffff
 801a30e:	d01e      	beq.n	801a34e <fatfs_fat_add_cluster_to_chain+0x44>
 801a310:	b570      	push	{r4, r5, r6, lr}
 801a312:	4605      	mov	r5, r0
 801a314:	460c      	mov	r4, r1
 801a316:	4616      	mov	r6, r2
 801a318:	f04f 31ff 	mov.w	r1, #4294967295	; 0xffffffff
 801a31c:	f1b4 3fff 	cmp.w	r4, #4294967295	; 0xffffffff
 801a320:	d009      	beq.n	801a336 <fatfs_fat_add_cluster_to_chain+0x2c>
 801a322:	4621      	mov	r1, r4
 801a324:	4628      	mov	r0, r5
 801a326:	f7ff fed8 	bl	801a0da <fatfs_find_next_cluster>
 801a32a:	4621      	mov	r1, r4
 801a32c:	4604      	mov	r4, r0
 801a32e:	2800      	cmp	r0, #0
 801a330:	d1f4      	bne.n	801a31c <fatfs_fat_add_cluster_to_chain+0x12>
 801a332:	2000      	movs	r0, #0
 801a334:	e00a      	b.n	801a34c <fatfs_fat_add_cluster_to_chain+0x42>
 801a336:	4632      	mov	r2, r6
 801a338:	4628      	mov	r0, r5
 801a33a:	f7ff ff8e 	bl	801a25a <fatfs_fat_set_cluster>
 801a33e:	f04f 32ff 	mov.w	r2, #4294967295	; 0xffffffff
 801a342:	4631      	mov	r1, r6
 801a344:	4628      	mov	r0, r5
 801a346:	f7ff ff88 	bl	801a25a <fatfs_fat_set_cluster>
 801a34a:	2001      	movs	r0, #1
 801a34c:	bd70      	pop	{r4, r5, r6, pc}
 801a34e:	2000      	movs	r0, #0
 801a350:	4770      	bx	lr

0801a352 <fatfs_count_free_clusters>:
 801a352:	b5f8      	push	{r3, r4, r5, r6, r7, lr}
 801a354:	4604      	mov	r4, r0
 801a356:	2500      	movs	r5, #0
 801a358:	462e      	mov	r6, r5
 801a35a:	e029      	b.n	801a3b0 <fatfs_count_free_clusters+0x5e>
 801a35c:	3302      	adds	r3, #2
 801a35e:	f5b3 7f00 	cmp.w	r3, #512	; 0x200
 801a362:	d224      	bcs.n	801a3ae <fatfs_count_free_clusters+0x5c>
 801a364:	f894 202d 	ldrb.w	r2, [r4, #45]	; 0x2d
 801a368:	b962      	cbnz	r2, 801a384 <fatfs_count_free_clusters+0x32>
 801a36a:	f8d7 0208 	ldr.w	r0, [r7, #520]	; 0x208
 801a36e:	b299      	uxth	r1, r3
 801a370:	1842      	adds	r2, r0, r1
 801a372:	f892 c001 	ldrb.w	ip, [r2, #1]
 801a376:	5c42      	ldrb	r2, [r0, r1]
 801a378:	eb02 220c 	add.w	r2, r2, ip, lsl #8
 801a37c:	2a00      	cmp	r2, #0
 801a37e:	d1ed      	bne.n	801a35c <fatfs_count_free_clusters+0xa>
 801a380:	3501      	adds	r5, #1
 801a382:	e7eb      	b.n	801a35c <fatfs_count_free_clusters+0xa>
 801a384:	f8d7 c208 	ldr.w	ip, [r7, #520]	; 0x208
 801a388:	b298      	uxth	r0, r3
 801a38a:	eb0c 0100 	add.w	r1, ip, r0
 801a38e:	f891 e003 	ldrb.w	lr, [r1, #3]
 801a392:	788a      	ldrb	r2, [r1, #2]
 801a394:	0412      	lsls	r2, r2, #16
 801a396:	eb02 620e 	add.w	r2, r2, lr, lsl #24
 801a39a:	7849      	ldrb	r1, [r1, #1]
 801a39c:	eb02 2201 	add.w	r2, r2, r1, lsl #8
 801a3a0:	f81c 1000 	ldrb.w	r1, [ip, r0]
 801a3a4:	42ca      	cmn	r2, r1
 801a3a6:	d100      	bne.n	801a3aa <fatfs_count_free_clusters+0x58>
 801a3a8:	3501      	adds	r5, #1
 801a3aa:	3304      	adds	r3, #4
 801a3ac:	e7d7      	b.n	801a35e <fatfs_count_free_clusters+0xc>
 801a3ae:	3601      	adds	r6, #1
 801a3b0:	6a23      	ldr	r3, [r4, #32]
 801a3b2:	42b3      	cmp	r3, r6
 801a3b4:	d908      	bls.n	801a3c8 <fatfs_count_free_clusters+0x76>
 801a3b6:	6961      	ldr	r1, [r4, #20]
 801a3b8:	4431      	add	r1, r6
 801a3ba:	4620      	mov	r0, r4
 801a3bc:	f7ff fe01 	bl	8019fc2 <fatfs_fat_read_sector>
 801a3c0:	4607      	mov	r7, r0
 801a3c2:	b108      	cbz	r0, 801a3c8 <fatfs_count_free_clusters+0x76>
 801a3c4:	2300      	movs	r3, #0
 801a3c6:	e7ca      	b.n	801a35e <fatfs_count_free_clusters+0xc>
 801a3c8:	4628      	mov	r0, r5
 801a3ca:	bdf8      	pop	{r3, r4, r5, r6, r7, pc}

0801a3cc <flash_spi_getcardinfo>:
 801a3cc:	4800      	ldr	r0, [pc, #0]	; (801a3d0 <flash_spi_getcardinfo+0x4>)
 801a3ce:	4770      	bx	lr
 801a3d0:	20001074 	.word	0x20001074

0801a3d4 <SPI_Flash_ReadSR>:
 801a3d4:	b510      	push	{r4, lr}
 801a3d6:	f7fc ff11 	bl	80171fc <hal_w25q_spi_select>
 801a3da:	2005      	movs	r0, #5
 801a3dc:	f7fc ff22 	bl	8017224 <hal_w25q_spi_txrx>
 801a3e0:	20ff      	movs	r0, #255	; 0xff
 801a3e2:	f7fc ff1f 	bl	8017224 <hal_w25q_spi_txrx>
 801a3e6:	4604      	mov	r4, r0
 801a3e8:	f7fc ff12 	bl	8017210 <hal_w25q_spi_release>
 801a3ec:	4620      	mov	r0, r4
 801a3ee:	bd10      	pop	{r4, pc}

0801a3f0 <SPI_FLASH_Write_SR>:
 801a3f0:	b510      	push	{r4, lr}
 801a3f2:	4604      	mov	r4, r0
 801a3f4:	f7fc ff02 	bl	80171fc <hal_w25q_spi_select>
 801a3f8:	2001      	movs	r0, #1
 801a3fa:	f7fc ff13 	bl	8017224 <hal_w25q_spi_txrx>
 801a3fe:	4620      	mov	r0, r4
 801a400:	f7fc ff10 	bl	8017224 <hal_w25q_spi_txrx>
 801a404:	f7fc ff04 	bl	8017210 <hal_w25q_spi_release>
 801a408:	bd10      	pop	{r4, pc}

0801a40a <SPI_FLASH_Write_Enable>:
 801a40a:	b508      	push	{r3, lr}
 801a40c:	f7fc fef6 	bl	80171fc <hal_w25q_spi_select>
 801a410:	2006      	movs	r0, #6
 801a412:	f7fc ff07 	bl	8017224 <hal_w25q_spi_txrx>
 801a416:	f7fc fefb 	bl	8017210 <hal_w25q_spi_release>
 801a41a:	bd08      	pop	{r3, pc}

0801a41c <SPI_FLASH_Write_Disable>:
 801a41c:	b508      	push	{r3, lr}
 801a41e:	f7fc feed 	bl	80171fc <hal_w25q_spi_select>
 801a422:	2004      	movs	r0, #4
 801a424:	f7fc fefe 	bl	8017224 <hal_w25q_spi_txrx>
 801a428:	f7fc fef2 	bl	8017210 <hal_w25q_spi_release>
 801a42c:	bd08      	pop	{r3, pc}

0801a42e <SPI_Flash_ReadID>:
 801a42e:	b538      	push	{r3, r4, r5, lr}
 801a430:	f7fc fee4 	bl	80171fc <hal_w25q_spi_select>
 801a434:	2090      	movs	r0, #144	; 0x90
 801a436:	f7fc fef5 	bl	8017224 <hal_w25q_spi_txrx>
 801a43a:	2000      	movs	r0, #0
 801a43c:	f7fc fef2 	bl	8017224 <hal_w25q_spi_txrx>
 801a440:	2000      	movs	r0, #0
 801a442:	f7fc feef 	bl	8017224 <hal_w25q_spi_txrx>
 801a446:	2000      	movs	r0, #0
 801a448:	f7fc feec 	bl	8017224 <hal_w25q_spi_txrx>
 801a44c:	20ff      	movs	r0, #255	; 0xff
 801a44e:	f7fc fee9 	bl	8017224 <hal_w25q_spi_txrx>
 801a452:	0204      	lsls	r4, r0, #8
 801a454:	b2a5      	uxth	r5, r4
 801a456:	20ff      	movs	r0, #255	; 0xff
 801a458:	f7fc fee4 	bl	8017224 <hal_w25q_spi_txrx>
 801a45c:	b284      	uxth	r4, r0
 801a45e:	432c      	orrs	r4, r5
 801a460:	f7fc fed6 	bl	8017210 <hal_w25q_spi_release>
 801a464:	4620      	mov	r0, r4
 801a466:	bd38      	pop	{r3, r4, r5, pc}

0801a468 <SPI_Flash_Init>:
 801a468:	b508      	push	{r3, lr}
 801a46a:	f7fc ff57 	bl	801731c <hal_w25q_spi_init>
 801a46e:	f7fc fecf 	bl	8017210 <hal_w25q_spi_release>
 801a472:	f7ff ffdc 	bl	801a42e <SPI_Flash_ReadID>
 801a476:	4b05      	ldr	r3, [pc, #20]	; (801a48c <SPI_Flash_Init+0x24>)
 801a478:	8018      	strh	r0, [r3, #0]
 801a47a:	4b05      	ldr	r3, [pc, #20]	; (801a490 <SPI_Flash_Init+0x28>)
 801a47c:	f44f 7200 	mov.w	r2, #512	; 0x200
 801a480:	605a      	str	r2, [r3, #4]
 801a482:	f646 22d0 	movw	r2, #27344	; 0x6ad0
 801a486:	601a      	str	r2, [r3, #0]
 801a488:	bd08      	pop	{r3, pc}
 801a48a:	bf00      	nop
 801a48c:	2000038c 	.word	0x2000038c
 801a490:	20001074 	.word	0x20001074

0801a494 <SPI_Flash_Read>:
 801a494:	b570      	push	{r4, r5, r6, lr}
 801a496:	4606      	mov	r6, r0
 801a498:	460c      	mov	r4, r1
 801a49a:	4615      	mov	r5, r2
 801a49c:	f7fc feae 	bl	80171fc <hal_w25q_spi_select>
 801a4a0:	2003      	movs	r0, #3
 801a4a2:	f7fc febf 	bl	8017224 <hal_w25q_spi_txrx>
 801a4a6:	f3c4 4007 	ubfx	r0, r4, #16, #8
 801a4aa:	f7fc febb 	bl	8017224 <hal_w25q_spi_txrx>
 801a4ae:	f3c4 2007 	ubfx	r0, r4, #8, #8
 801a4b2:	f7fc feb7 	bl	8017224 <hal_w25q_spi_txrx>
 801a4b6:	b2e0      	uxtb	r0, r4
 801a4b8:	f7fc feb4 	bl	8017224 <hal_w25q_spi_txrx>
 801a4bc:	2400      	movs	r4, #0
 801a4be:	42ac      	cmp	r4, r5
 801a4c0:	d206      	bcs.n	801a4d0 <SPI_Flash_Read+0x3c>
 801a4c2:	20ff      	movs	r0, #255	; 0xff
 801a4c4:	f7fc feae 	bl	8017224 <hal_w25q_spi_txrx>
 801a4c8:	5530      	strb	r0, [r6, r4]
 801a4ca:	3401      	adds	r4, #1
 801a4cc:	b2a4      	uxth	r4, r4
 801a4ce:	e7f6      	b.n	801a4be <SPI_Flash_Read+0x2a>
 801a4d0:	f7fc fe9e 	bl	8017210 <hal_w25q_spi_release>
 801a4d4:	bd70      	pop	{r4, r5, r6, pc}

0801a4d6 <disk_read4K>:
 801a4d6:	b570      	push	{r4, r5, r6, lr}
 801a4d8:	4606      	mov	r6, r0
 801a4da:	460d      	mov	r5, r1
 801a4dc:	4614      	mov	r4, r2
 801a4de:	b154      	cbz	r4, 801a4f6 <disk_read4K+0x20>
 801a4e0:	f44f 5280 	mov.w	r2, #4096	; 0x1000
 801a4e4:	0329      	lsls	r1, r5, #12
 801a4e6:	4630      	mov	r0, r6
 801a4e8:	f7ff ffd4 	bl	801a494 <SPI_Flash_Read>
 801a4ec:	3501      	adds	r5, #1
 801a4ee:	f506 5680 	add.w	r6, r6, #4096	; 0x1000
 801a4f2:	3c01      	subs	r4, #1
 801a4f4:	e7f3      	b.n	801a4de <disk_read4K+0x8>
 801a4f6:	210d      	movs	r1, #13
 801a4f8:	4802      	ldr	r0, [pc, #8]	; (801a504 <disk_read4K+0x2e>)
 801a4fa:	f7fc fae5 	bl	8016ac8 <hw_toggle_pin>
 801a4fe:	2000      	movs	r0, #0
 801a500:	bd70      	pop	{r4, r5, r6, pc}
 801a502:	bf00      	nop
 801a504:	40020800 	.word	0x40020800

0801a508 <disk_read>:
 801a508:	b570      	push	{r4, r5, r6, lr}
 801a50a:	4606      	mov	r6, r0
 801a50c:	460d      	mov	r5, r1
 801a50e:	4614      	mov	r4, r2
 801a510:	b154      	cbz	r4, 801a528 <disk_read+0x20>
 801a512:	f44f 7200 	mov.w	r2, #512	; 0x200
 801a516:	0269      	lsls	r1, r5, #9
 801a518:	4630      	mov	r0, r6
 801a51a:	f7ff ffbb 	bl	801a494 <SPI_Flash_Read>
 801a51e:	3501      	adds	r5, #1
 801a520:	f506 7600 	add.w	r6, r6, #512	; 0x200
 801a524:	3c01      	subs	r4, #1
 801a526:	e7f3      	b.n	801a510 <disk_read+0x8>
 801a528:	210d      	movs	r1, #13
 801a52a:	4802      	ldr	r0, [pc, #8]	; (801a534 <disk_read+0x2c>)
 801a52c:	f7fc facc 	bl	8016ac8 <hw_toggle_pin>
 801a530:	2000      	movs	r0, #0
 801a532:	bd70      	pop	{r4, r5, r6, pc}
 801a534:	40020800 	.word	0x40020800

0801a538 <SPI_Flash_Wait_Busy>:
 801a538:	b508      	push	{r3, lr}
 801a53a:	f7ff ff4b 	bl	801a3d4 <SPI_Flash_ReadSR>
 801a53e:	f010 0f01 	tst.w	r0, #1
 801a542:	d1fa      	bne.n	801a53a <SPI_Flash_Wait_Busy+0x2>
 801a544:	bd08      	pop	{r3, pc}

0801a546 <SPI_Flash_Write_Page>:
 801a546:	b570      	push	{r4, r5, r6, lr}
 801a548:	4606      	mov	r6, r0
 801a54a:	460c      	mov	r4, r1
 801a54c:	4615      	mov	r5, r2
 801a54e:	f7ff ff5c 	bl	801a40a <SPI_FLASH_Write_Enable>
 801a552:	f7fc fe53 	bl	80171fc <hal_w25q_spi_select>
 801a556:	2002      	movs	r0, #2
 801a558:	f7fc fe64 	bl	8017224 <hal_w25q_spi_txrx>
 801a55c:	f3c4 4007 	ubfx	r0, r4, #16, #8
 801a560:	f7fc fe60 	bl	8017224 <hal_w25q_spi_txrx>
 801a564:	f3c4 2007 	ubfx	r0, r4, #8, #8
 801a568:	f7fc fe5c 	bl	8017224 <hal_w25q_spi_txrx>
 801a56c:	b2e0      	uxtb	r0, r4
 801a56e:	f7fc fe59 	bl	8017224 <hal_w25q_spi_txrx>
 801a572:	2400      	movs	r4, #0
 801a574:	42ac      	cmp	r4, r5
 801a576:	d205      	bcs.n	801a584 <SPI_Flash_Write_Page+0x3e>
 801a578:	5d30      	ldrb	r0, [r6, r4]
 801a57a:	f7fc fe53 	bl	8017224 <hal_w25q_spi_txrx>
 801a57e:	3401      	adds	r4, #1
 801a580:	b2a4      	uxth	r4, r4
 801a582:	e7f7      	b.n	801a574 <SPI_Flash_Write_Page+0x2e>
 801a584:	f7fc fe44 	bl	8017210 <hal_w25q_spi_release>
 801a588:	f7ff ffd6 	bl	801a538 <SPI_Flash_Wait_Busy>
 801a58c:	bd70      	pop	{r4, r5, r6, pc}

0801a58e <SPI_Flash_Write_NoCheck>:
 801a58e:	b5f8      	push	{r3, r4, r5, r6, r7, lr}
 801a590:	4607      	mov	r7, r0
 801a592:	460e      	mov	r6, r1
 801a594:	4614      	mov	r4, r2
 801a596:	b2cd      	uxtb	r5, r1
 801a598:	f5c5 7580 	rsb	r5, r5, #256	; 0x100
 801a59c:	b2ad      	uxth	r5, r5
 801a59e:	4295      	cmp	r5, r2
 801a5a0:	d303      	bcc.n	801a5aa <SPI_Flash_Write_NoCheck+0x1c>
 801a5a2:	4615      	mov	r5, r2
 801a5a4:	e001      	b.n	801a5aa <SPI_Flash_Write_NoCheck+0x1c>
 801a5a6:	f44f 7580 	mov.w	r5, #256	; 0x100
 801a5aa:	462a      	mov	r2, r5
 801a5ac:	4631      	mov	r1, r6
 801a5ae:	4638      	mov	r0, r7
 801a5b0:	f7ff ffc9 	bl	801a546 <SPI_Flash_Write_Page>
 801a5b4:	42ac      	cmp	r4, r5
 801a5b6:	d008      	beq.n	801a5ca <SPI_Flash_Write_NoCheck+0x3c>
 801a5b8:	442f      	add	r7, r5
 801a5ba:	442e      	add	r6, r5
 801a5bc:	1b64      	subs	r4, r4, r5
 801a5be:	b2a4      	uxth	r4, r4
 801a5c0:	f5b4 7f80 	cmp.w	r4, #256	; 0x100
 801a5c4:	d8ef      	bhi.n	801a5a6 <SPI_Flash_Write_NoCheck+0x18>
 801a5c6:	4625      	mov	r5, r4
 801a5c8:	e7ef      	b.n	801a5aa <SPI_Flash_Write_NoCheck+0x1c>
 801a5ca:	bdf8      	pop	{r3, r4, r5, r6, r7, pc}

0801a5cc <SPI_Flash_Erase_Chip>:
 801a5cc:	b508      	push	{r3, lr}
 801a5ce:	f7ff ff1c 	bl	801a40a <SPI_FLASH_Write_Enable>
 801a5d2:	f7ff ffb1 	bl	801a538 <SPI_Flash_Wait_Busy>
 801a5d6:	f7fc fe11 	bl	80171fc <hal_w25q_spi_select>
 801a5da:	20c7      	movs	r0, #199	; 0xc7
 801a5dc:	f7fc fe22 	bl	8017224 <hal_w25q_spi_txrx>
 801a5e0:	f7fc fe16 	bl	8017210 <hal_w25q_spi_release>
 801a5e4:	f7ff ffa8 	bl	801a538 <SPI_Flash_Wait_Busy>
 801a5e8:	bd08      	pop	{r3, pc}

0801a5ea <SPI_Flash_Erase_Sector>:
 801a5ea:	b510      	push	{r4, lr}
 801a5ec:	0304      	lsls	r4, r0, #12
 801a5ee:	f7ff ff0c 	bl	801a40a <SPI_FLASH_Write_Enable>
 801a5f2:	f7ff ffa1 	bl	801a538 <SPI_Flash_Wait_Busy>
 801a5f6:	f7fc fe01 	bl	80171fc <hal_w25q_spi_select>
 801a5fa:	2020      	movs	r0, #32
 801a5fc:	f7fc fe12 	bl	8017224 <hal_w25q_spi_txrx>
 801a600:	f3c4 4007 	ubfx	r0, r4, #16, #8
 801a604:	f7fc fe0e 	bl	8017224 <hal_w25q_spi_txrx>
 801a608:	0a20      	lsrs	r0, r4, #8
 801a60a:	f000 00f0 	and.w	r0, r0, #240	; 0xf0
 801a60e:	f7fc fe09 	bl	8017224 <hal_w25q_spi_txrx>
 801a612:	2000      	movs	r0, #0
 801a614:	f7fc fe06 	bl	8017224 <hal_w25q_spi_txrx>
 801a618:	f7fc fdfa 	bl	8017210 <hal_w25q_spi_release>
 801a61c:	f7ff ff8c 	bl	801a538 <SPI_Flash_Wait_Busy>
 801a620:	bd10      	pop	{r4, pc}

0801a622 <SPI_Flash_Write>:
 801a622:	e92d 47f0 	stmdb	sp!, {r4, r5, r6, r7, r8, r9, sl, lr}
 801a626:	4606      	mov	r6, r0
 801a628:	4689      	mov	r9, r1
 801a62a:	4617      	mov	r7, r2
 801a62c:	ea4f 3811 	mov.w	r8, r1, lsr #12
 801a630:	f3c1 050b 	ubfx	r5, r1, #0, #12
 801a634:	f5c5 5480 	rsb	r4, r5, #4096	; 0x1000
 801a638:	b2a4      	uxth	r4, r4
 801a63a:	4294      	cmp	r4, r2
 801a63c:	d304      	bcc.n	801a648 <SPI_Flash_Write+0x26>
 801a63e:	4614      	mov	r4, r2
 801a640:	e002      	b.n	801a648 <SPI_Flash_Write+0x26>
 801a642:	f44f 5480 	mov.w	r4, #4096	; 0x1000
 801a646:	2500      	movs	r5, #0
 801a648:	ea4f 3a08 	mov.w	sl, r8, lsl #12
 801a64c:	f44f 5280 	mov.w	r2, #4096	; 0x1000
 801a650:	4651      	mov	r1, sl
 801a652:	481c      	ldr	r0, [pc, #112]	; (801a6c4 <SPI_Flash_Write+0xa2>)
 801a654:	f7ff ff1e 	bl	801a494 <SPI_Flash_Read>
 801a658:	2300      	movs	r3, #0
 801a65a:	e001      	b.n	801a660 <SPI_Flash_Write+0x3e>
 801a65c:	3301      	adds	r3, #1
 801a65e:	b29b      	uxth	r3, r3
 801a660:	429c      	cmp	r4, r3
 801a662:	d904      	bls.n	801a66e <SPI_Flash_Write+0x4c>
 801a664:	18ea      	adds	r2, r5, r3
 801a666:	4917      	ldr	r1, [pc, #92]	; (801a6c4 <SPI_Flash_Write+0xa2>)
 801a668:	5c8a      	ldrb	r2, [r1, r2]
 801a66a:	2aff      	cmp	r2, #255	; 0xff
 801a66c:	d0f6      	beq.n	801a65c <SPI_Flash_Write+0x3a>
 801a66e:	429c      	cmp	r4, r3
 801a670:	d811      	bhi.n	801a696 <SPI_Flash_Write+0x74>
 801a672:	4622      	mov	r2, r4
 801a674:	4649      	mov	r1, r9
 801a676:	4630      	mov	r0, r6
 801a678:	f7ff ff89 	bl	801a58e <SPI_Flash_Write_NoCheck>
 801a67c:	42a7      	cmp	r7, r4
 801a67e:	d01e      	beq.n	801a6be <SPI_Flash_Write+0x9c>
 801a680:	f108 0801 	add.w	r8, r8, #1
 801a684:	4426      	add	r6, r4
 801a686:	44a1      	add	r9, r4
 801a688:	1b3f      	subs	r7, r7, r4
 801a68a:	b2bf      	uxth	r7, r7
 801a68c:	f5b7 5f80 	cmp.w	r7, #4096	; 0x1000
 801a690:	d8d7      	bhi.n	801a642 <SPI_Flash_Write+0x20>
 801a692:	463c      	mov	r4, r7
 801a694:	e7d7      	b.n	801a646 <SPI_Flash_Write+0x24>
 801a696:	4640      	mov	r0, r8
 801a698:	f7ff ffa7 	bl	801a5ea <SPI_Flash_Erase_Sector>
 801a69c:	2300      	movs	r3, #0
 801a69e:	e005      	b.n	801a6ac <SPI_Flash_Write+0x8a>
 801a6a0:	195a      	adds	r2, r3, r5
 801a6a2:	5cf0      	ldrb	r0, [r6, r3]
 801a6a4:	4907      	ldr	r1, [pc, #28]	; (801a6c4 <SPI_Flash_Write+0xa2>)
 801a6a6:	5488      	strb	r0, [r1, r2]
 801a6a8:	3301      	adds	r3, #1
 801a6aa:	b29b      	uxth	r3, r3
 801a6ac:	429c      	cmp	r4, r3
 801a6ae:	d8f7      	bhi.n	801a6a0 <SPI_Flash_Write+0x7e>
 801a6b0:	f44f 5280 	mov.w	r2, #4096	; 0x1000
 801a6b4:	4651      	mov	r1, sl
 801a6b6:	4803      	ldr	r0, [pc, #12]	; (801a6c4 <SPI_Flash_Write+0xa2>)
 801a6b8:	f7ff ff69 	bl	801a58e <SPI_Flash_Write_NoCheck>
 801a6bc:	e7de      	b.n	801a67c <SPI_Flash_Write+0x5a>
 801a6be:	e8bd 87f0 	ldmia.w	sp!, {r4, r5, r6, r7, r8, r9, sl, pc}
 801a6c2:	bf00      	nop
 801a6c4:	20001834 	.word	0x20001834

0801a6c8 <disk_write4K>:
 801a6c8:	b570      	push	{r4, r5, r6, lr}
 801a6ca:	4606      	mov	r6, r0
 801a6cc:	460d      	mov	r5, r1
 801a6ce:	4614      	mov	r4, r2
 801a6d0:	b154      	cbz	r4, 801a6e8 <disk_write4K+0x20>
 801a6d2:	f44f 5280 	mov.w	r2, #4096	; 0x1000
 801a6d6:	0329      	lsls	r1, r5, #12
 801a6d8:	4630      	mov	r0, r6
 801a6da:	f7ff ffa2 	bl	801a622 <SPI_Flash_Write>
 801a6de:	3501      	adds	r5, #1
 801a6e0:	f506 5680 	add.w	r6, r6, #4096	; 0x1000
 801a6e4:	3c01      	subs	r4, #1
 801a6e6:	e7f3      	b.n	801a6d0 <disk_write4K+0x8>
 801a6e8:	210d      	movs	r1, #13
 801a6ea:	4802      	ldr	r0, [pc, #8]	; (801a6f4 <disk_write4K+0x2c>)
 801a6ec:	f7fc f9ec 	bl	8016ac8 <hw_toggle_pin>
 801a6f0:	2000      	movs	r0, #0
 801a6f2:	bd70      	pop	{r4, r5, r6, pc}
 801a6f4:	40020800 	.word	0x40020800

0801a6f8 <disk_write>:
 801a6f8:	b570      	push	{r4, r5, r6, lr}
 801a6fa:	4606      	mov	r6, r0
 801a6fc:	460d      	mov	r5, r1
 801a6fe:	4614      	mov	r4, r2
 801a700:	b154      	cbz	r4, 801a718 <disk_write+0x20>
 801a702:	f44f 7200 	mov.w	r2, #512	; 0x200
 801a706:	0269      	lsls	r1, r5, #9
 801a708:	4630      	mov	r0, r6
 801a70a:	f7ff ff8a 	bl	801a622 <SPI_Flash_Write>
 801a70e:	3501      	adds	r5, #1
 801a710:	f506 7600 	add.w	r6, r6, #512	; 0x200
 801a714:	3c01      	subs	r4, #1
 801a716:	e7f3      	b.n	801a700 <disk_write+0x8>
 801a718:	210d      	movs	r1, #13
 801a71a:	4802      	ldr	r0, [pc, #8]	; (801a724 <disk_write+0x2c>)
 801a71c:	f7fc f9d4 	bl	8016ac8 <hw_toggle_pin>
 801a720:	2000      	movs	r0, #0
 801a722:	bd70      	pop	{r4, r5, r6, pc}
 801a724:	40020800 	.word	0x40020800

0801a728 <SPI_Flash_PowerDown>:
 801a728:	b508      	push	{r3, lr}
 801a72a:	f7fc fd67 	bl	80171fc <hal_w25q_spi_select>
 801a72e:	20b9      	movs	r0, #185	; 0xb9
 801a730:	f7fc fd78 	bl	8017224 <hal_w25q_spi_txrx>
 801a734:	f7fc fd6c 	bl	8017210 <hal_w25q_spi_release>
 801a738:	2003      	movs	r0, #3
 801a73a:	f7fb f913 	bl	8015964 <delay>
 801a73e:	bd08      	pop	{r3, pc}

0801a740 <SPI_Flash_WAKEUP>:
 801a740:	b508      	push	{r3, lr}
 801a742:	f7fc fd5b 	bl	80171fc <hal_w25q_spi_select>
 801a746:	20ab      	movs	r0, #171	; 0xab
 801a748:	f7fc fd6c 	bl	8017224 <hal_w25q_spi_txrx>
 801a74c:	f7fc fd60 	bl	8017210 <hal_w25q_spi_release>
 801a750:	2003      	movs	r0, #3
 801a752:	f7fb f907 	bl	8015964 <delay>
 801a756:	bd08      	pop	{r3, pc}

0801a758 <_ctype_>:
 801a758:	2000 2020 2020 2020 2020 0808 0808 2008     .         ..... 
 801a768:	2020 2020 2020 2020 2020 2020 2020 2020                     
 801a778:	0820 1010 1010 1010 1010 1010 1010 1010      ...............
 801a788:	0410 0404 0404 0404 0404 1004 1010 1010     ................
 801a798:	1010 4141 4141 4141 0101 0101 0101 0101     ..AAAAAA........
 801a7a8:	0101 0101 0101 0101 0101 0101 1010 1010     ................
 801a7b8:	1010 4242 4242 4242 0202 0202 0202 0202     ..BBBBBB........
 801a7c8:	0202 0202 0202 0202 0202 0202 1010 1010     ................
 801a7d8:	0020 0000                                    ...

0801a7dc <a>:
 801a7dc:	0000 0000 0fdb 3f49                         ......I?

0801a7e4 <b>:
 801a7e4:	0fdb 3fc9 0fdb 3f49                         ...?..I?

0801a7ec <a>:
 801a7ec:	0000 0000 0a92 3f06 0fdb 3fc9 0a92 3f86     .......?...?...?
 801a7fc:	ac08 0801 ac10 0801 ac18 0801 ac20 0801     ............ ...
 801a80c:	ac28 0801 ac30 0801 ac38 0801 ac40 0801     (...0...8...@...

0801a81c <cmdtab>:
 801a81c:	b014 0801 0000 0000 39b5 0801 b01c 0801     .........9......
 801a82c:	0000 0000 3b01 0801 b024 0801 0001 0000     .....;..$.......
 801a83c:	3975 0801 b02c 0801 0001 0000 3c09 0801     u9..,........<..
 801a84c:	b034 0801 0000 0000 2bdd 0801 b03c 0801     4........+..<...
 801a85c:	0001 0000 39b9 0801 b044 0801 0000 0000     .....9..D.......
 801a86c:	2e25 0801 b04c 0801 0001 0000 37fd 0801     %...L........7..
 801a87c:	b054 0801 0000 0000 2eb5 0801 b058 0801     T...........X...
 801a88c:	0000 0000 2bdd 0801 b05c 0801 0000 0000     .....+..\.......
 801a89c:	2dc1 0801 b064 0801 0001 0000 3731 0801     .-..d.......17..
 801a8ac:	b068 0801 0001 0000 2e61 0801 b06c 0801     h.......a...l...
 801a8bc:	0000 0000 3129 0801 b070 0801 0000 0000     ....)1..p.......
 801a8cc:	3039 0801 b078 0801 0001 0000 30cd 0801     90..x........0..
 801a8dc:	b080 0801 0001 0000 310d 0801 b084 0801     .........1......
 801a8ec:	0001 0000 3b6d 0801 b088 0801 0001 0000     ....m;..........
 801a8fc:	3bbd 0801 b090 0801 0000 0000 3591 0801     .;...........5..
 801a90c:	b094 0801 0000 0000 2de5 0801 b09c 0801     .........-......
 801a91c:	0000 0000 320d 0801                         .....2..

0801a924 <AHBPrescTable>:
	...
 801a92c:	0201 0403 0706 0908                         ........

0801a934 <APBPrescTable>:
 801a934:	0000 0000 0201 0403                         ........

0801a93c <sd_card_drv>:
 801a93c:	7249 0801 71d9 0801 6ec5 0801 7081 0801     Ir...q...n...p..
 801a94c:	6b6d 0801 0001 0000 0003 0000 0005 0000     mk..............
 801a95c:	0007 0000 0009 0000 000e 0000 0010 0000     ................
 801a96c:	0012 0000 0014 0000 0016 0000 0018 0000     ................
 801a97c:	001c 0000 001e 0000                         ........

0801a984 <w25qxxx_drv>:
 801a984:	a469 0801 a509 0801 a6f9 0801 a3cd 0801     i...............

0801a994 <w25qxxx_drv4K>:
 801a994:	a4d7 0801 a6c9 0801 0920 0a0d 0000 0000     ........ .......
 801a9a4:	3130 3332 3534 3736 3938 4241 4443 4645     0123456789ABCDEF
 801a9b4:	4847 4a49 4c4b 4e4d 504f 5251 5453 5655     GHIJKLMNOPQRSTUV
 801a9c4:	5857 0059 3130 3332 3534 3736 3938 6261     WXY.0123456789ab
 801a9d4:	6463 6665 0000 0000 3130 3332 3534 3736     cdef....01234567
 801a9e4:	3938 4241 4443 4645 0000 0000 6e28 6c75     89ABCDEF....(nul
 801a9f4:	296c 0000 6f6e 2074 6f66 6e75 2064 7325     l)..not found %s
 801aa04:	000a 0000 622e 7373 0000 0000 672e 746f     .....bss.....got
 801aa14:	0000 0000 692e 696e 5f74 7261 6172 0079     .....init_array.
 801aa24:	2d2d 6568 706c 0000 7355 3a65 000a 0000     --help..Use:....
 801aa34:	2509 2073 635b 6d6f 616d 646e 0a5d 0000     .%s [command]...
 801aa44:	6544 6373 6972 7470 6f69 3a6e 000a 0000     Description:....
 801aa54:	5009 6f72 6976 6564 2073 2061 696c 7473     .Provides a list
 801aa64:	6f20 2066 6873 6c65 206c 6f63 6d6d 6e61      of shell comman
 801aa74:	7364 6f20 0a72 0000 6809 6c65 2070 6e69     ds or....help in
 801aa84:	6f66 6d72 7461 6f69 206e 6f66 2072 2061     formation for a 
 801aa94:	7073 6365 6669 6369 6320 6d6f 616d 646e     specific command
 801aaa4:	000a 0000 704f 6974 6e6f 3a73 000a 0000     ....Options:....
 801aab4:	6309 6d6f 616d 646e 7309 6570 6963 6966     .command.specifi
 801aac4:	2063 6f63 6d6d 6e61 2064 6f66 2072 6877     c command for wh
 801aad4:	6369 2068 6f74 000a 0909 6964 7073 616c     ich to....displa
 801aae4:	2079 6568 706c 6920 666e 726f 616d 6974     y help informati
 801aaf4:	6e6f 000a 2d09 682d 6c65 0970 6964 7073     on...--help.disp
 801ab04:	616c 2079 6874 7369 6820 6c65 2070 6e61     lay this help an
 801ab14:	2064 7865 7469 000a 7325 203a 6f74 206f     d exit..%s: too 
 801ab24:	616d 796e 6120 6772 6d75 6e65 7374 000a     many arguments..
 801ab34:	7254 2079 2527 2073 2d2d 6568 706c 2027     Try '%s --help' 
 801ab44:	6f66 2072 6f6d 6572 6920 666e 726f 616d     for more informa
 801ab54:	6974 6e6f 000a 0000 7325 203a 6f6e 7320     tion....%s: no s
 801ab64:	6375 2068 6f63 6d6d 6e61 2064 7361 2720     uch command as '
 801ab74:	7325 0a27 0000 0000 730a 6568 6c6c 6320     %s'......shell c
 801ab84:	6d6f 616d 646e 2073 7261 3a65 0a0a 0000     ommands are:....
 801ab94:	7325 0000 6f66 6d72 7461 6e69 2e67 2e2e     %s..formating...
 801aba4:	0000 0000 6f66 6d72 7461 6f20 0a6b 0000     ....format ok...
 801abb4:	7265 6f72 2072 6f66 6d72 7461 6e69 2e67     error formating.
 801abc4:	2e2e 0000 7355 6761 3a65 2520 2073 656d     ....Usage: %s me
 801abd4:	646d 6d75 2070 745b 7865 2c74 6164 6174     mdump [text,data
 801abe4:	622c 7373 0a5d 000a 7325 3c20 4944 3e52     ,bss]...%s <DIR>
 801abf4:	0a0d 0000 7325 5b20 6425 6220 7479 7365     ....%s [%d bytes
 801ac04:	0d5d 000a 7266 6565 0020 0000 7563 7272     ]...free ...curr
 801ac14:	0020 0000 6572 6461 0079 0000 6572 7663      ...ready...recv
 801ac24:	0020 0000 6c73 6565 0070 0000 7573 7073      ...sleep...susp
 801ac34:	0020 0000 6177 7469 0020 0000 7472 6d69      ...wait ...rtim
 801ac44:	0065 0000 7355 3a65 2520 0a73 000a 0000     e...Use: %s.....
 801ac54:	4409 7369 6c70 7961 2073 6e69 6f66 6d72     .Displays inform
 801ac64:	7461 6f69 206e 6261 756f 2074 7572 6e6e     ation about runn
 801ac74:	6e69 2067 7270 636f 7365 6573 0a73 0000     ing processes...
 801ac84:	2d09 682d 6c65 0970 6420 7369 6c70 7961     .--help. display
 801ac94:	7420 6968 2073 6568 706c 6120 646e 6520      this help and e
 801aca4:	6978 0a74 0000 0000 7453 7461 0065 0000     xit.....State...
 801acb4:	614e 656d 0000 0000 6950 0064 3325 2073     Name....Pid.%3s 
 801acc4:	2d25 3631 2073 3525 2073 3425 2073 3425     %-16s %5s %4s %4
 801acd4:	2073 3125 7330 2520 312d 7330 2520 3031     s %10s %-10s %10
 801ace4:	0a73 0000 7453 6361 206b 6953 657a 0000     s...Stack Size..
 801acf4:	7453 6361 206b 7450 0072 0000 7453 6361     Stack Ptr...Stac
 801ad04:	206b 6142 6573 0000 7050 6469 0000 0000     k Base..Ppid....
 801ad14:	7250 6f69 0000 0000 2d2d 2d2d 002d 0000     Prio....-----...
 801ad24:	2d2d 2d2d 2d2d 2d2d 2d2d 2d2d 2d2d 2d2d     ----------------
 801ad34:	0000 0000 2d2d 002d 3325 2064 2d25 3631     ....---.%3d %-16
 801ad44:	2073 7325 2520 6434 2520 6434 3020 2578     s %s %4d %4d 0x%
 801ad54:	3830 2058 7830 3025 5838 2520 6438 000a     08X 0x%08X %8d..
 801ad64:	6973 657a 6620 6c69 2065 6425 000a 0000     size file %d....
 801ad74:	6964 2072 6f66 6e75 2064 7325 000a 0000     dir found %s....
 801ad84:	7325 000a 003e 0000 0077 0000 7325 6620     %s..>...w...%s f
 801ad94:	756f 646e 0a21 0000 6574 7473 6d20 6c61     ound!...test mal
 801ada4:	6f6c 2063 7266 6565 000a 0000 7246 6565     loc free....Free
 801adb4:	3a20 2520 3031 0a64 0000 0000 6d20 6c61      : %10d..... mal
 801adc4:	6f6c 2063 000a 0000 6620 6572 2065 000a     loc .... free ..
 801add4:	2f2e 0000 2e2e 002f 2d2d 2d2d 2d2d 2d2d     ./..../.--------
 801ade4:	2d2d 2d2d 2d2d 2d2d 2d2d 2d2d 2d2d 2d2d     ----------------
 801adf4:	2d2d 2d2d 2d2d 2d2d 2d2d 2d2d 2d2d 2d2d     ----------------
 801ae04:	2d2d 0000 5b1b 3133 313b 006d 0a0a 7325     --...[31;1m...%s
 801ae14:	7325 250a 0a73 7325 250a 0a73 7325 250a     %s.%s.%s.%s.%s.%
 801ae24:	0a73 7325 250a 0a73 7325 250a 0a73 0000     s.%s.%s.%s.%s...
 801ae34:	5b1b 6d30 000a 0000 2020 2020 2020 5320     .[0m....       S
 801ae44:	4d54 3233 5620 7265 6973 6e6f 6220 2079     TM32 Version by 
 801ae54:	6144 696e 6c65 5120 6975 746e 7265 096f     Daniel Quintero.
 801ae64:	2020 0020 2020 2d20 202d 2020 2d20 202d        .   --    -- 
 801ae74:	2020 2d2d 2d2d 202d 2020 2d20 2020 2d20       -----    -   -
 801ae84:	2020 2020 2d20 2d2d 202d 2020 2020 0000          ----     ..
 801ae94:	2020 2f20 2f20 2020 205c 205c 7c20 2020        / /  \ \  |  
 801aea4:	2020 7c20 2020 207c 207c 205c 207c 5c20        |  | | \ |  \
 801aeb4:	2020 2d2d 2020 202f 2020 0000 2020 2020       --  /   ..    
 801aec4:	202f 5c2f 5c20 2020 2020 7c5f 7c20 205f     / /\ \    _| |_ 
 801aed4:	2020 207c 205c 2020 207c 7c20 7c20 2020       | \   |  | |  
 801aee4:	207c 207c 2020 0000 2020 2020 205c 2f5c     | |   ..    \ \/
 801aef4:	2f20 2020 2020 7c20 7c20 2020 2020 207c      /     | |    | 
 801af04:	5c20 207c 207c 7c20 7c20 2020 207c 207c      \| |  | |  | | 
 801af14:	2020 0000 2020 5c20 5c20 2020 202f 202f       ..   \ \  / / 
 801af24:	7c20 5f5f 5f20 7c5f 2020 207c 205c 207c      |__ __|  | \ | 
 801af34:	207c 7c20 7c20 2020 207c 207c 2020 0000     |  | |  | |   ..
 801af44:	2020 5f20 205f 2020 5f20 205f 2020 5f5f        __    __   __
 801af54:	5f5f 205f 2020 5f20 2020 5f20 2020 2020     ___    _   _    
 801af64:	205f 2020 5f20 2020 2020 0000 6557 636c     _    _    ..Welc
 801af74:	6d6f 2065 6f74 5820 6e69 2175 000a 0000     ome to Xinu!....
 801af84:	7325 0a0a 0000 0000 7378 2068 2024 0000     %s......xsh $ ..
 801af94:	7953 746e 7861 6520 7272 726f 000a 0000     Syntax error....
 801afa4:	6f63 6d6d 6e61 2064 7325 6e20 746f 6620     command %s not f
 801afb4:	756f 646e 000a 0000 6143 6e6e 746f 7220     ound....Cannot r
 801afc4:	6465 7269 6365 2074 2f49 204f 726f 6220     edirect I/O or b
 801afd4:	6361 676b 6f72 6e75 2064 2061 7562 6c69     ackground a buil
 801afe4:	6974 0a6e 0000 0000 6143 6e6e 746f 6320     tin.....Cannot c
 801aff4:	6572 7461 2065 7270 636f 7365 0a73 0000     reate process...
 801b004:	6853 6c65 206c 6c63 736f 6465 000a 0000     Shell closed....
 801b014:	6572 6f62 746f 0000 6564 6476 6d75 0070     reboot..devdump.
 801b024:	6365 6f68 0000 0000 7865 7469 0000 0000     echo....exit....
 801b034:	6568 706c 0000 0000 696b 6c6c 0000 0000     help....kill....
 801b044:	656d 646d 6d75 0070 656d 736d 6174 0074     memdump.memstat.
 801b054:	7370 0000 003f 0000 6c62 6e69 006b 0000     ps..?...blink...
 801b064:	6463 0000 736c 0000 6163 0074 7564 706d     cd..ls..cat.dump
 801b074:	0000 0000 6b6d 6964 0072 0000 7770 0064     ....mkdir...pwd.
 801b084:	6d72 0000 6f74 6375 0068 0000 7572 006e     rm..touch...run.
 801b094:	6f66 6d72 7461 0000 6574 7473 0000 0000     format..test....
 801b0a4:	7265 6f72 2072 6f6c 6461 6e69 2067 6c65     error loading el
 801b0b4:	2066 7270 636f 7365 2073 2520 2064 7325     f process  %d %s
 801b0c4:	000a 0000 002e 0000 6f6e 2074 2061 6964     ........not a di
 801b0d4:	6572 7463 726f 0a79 0000 0000 7325 6e20     rectory.....%s n
 801b0e4:	746f 6620 756f 646e 0a21 0000 7375 3a65     ot found!...use:
 801b0f4:	2520 2073 0a0a 0000 4409 7369 6c70 7961      %s .....Display
 801b104:	2073 6874 2065 7563 7272 6e65 2074 656d     s the current me
 801b114:	6f6d 7972 7520 6573 6120 646e 7020 6972     mory use and pri
 801b124:	746e 2073 6874 0a65 0000 0000 6609 6572     nts the......fre
 801b134:	2065 696c 7473 0a2e 0000 0000 2d09 682d     e list.......--h
 801b144:	6c65 0970 6409 7369 6c70 7961 7420 6968     elp..display thi
 801b154:	2073 6568 706c 6120 646e 6520 6978 0a74     s help and exit.
 801b164:	0000 0000 6220 7479 7365 6f20 2066 7266     .... bytes of fr
 801b174:	6565 6d20 6d65 726f 2e79 2020 7246 6565     ee memory.  Free
 801b184:	6c20 7369 3a74 2520 3031 0a64 0000 0000      list: %10d.....
 801b194:	2520 0073 7355 6761 3a65 2520 2073 4950      %s.Usage: %s PI
 801b1a4:	0a44 000a 7409 7265 696d 616e 6574 2073     D....terminates 
 801b1b4:	2061 7270 636f 7365 0a73 0000 5009 4449     a process....PID
 801b1c4:	0920 6874 2065 4449 6f20 2066 2061 7270      .the ID of a pr
 801b1d4:	636f 7365 2073 6f74 7420 7265 696d 616e     ocess to termina
 801b1e4:	6574 000a 7325 203a 6e69 6f63 7272 6365     te..%s: incorrec
 801b1f4:	2074 7261 7567 656d 746e 000a 7325 203a     t argument..%s: 
 801b204:	6f6e 2d6e 6964 6967 2074 6e69 7020 6f72     non-digit in pro
 801b214:	6563 7373 4920 0a44 0000 0000 7325 203a     cess ID.....%s: 
 801b224:	6163 6e6e 746f 6b20 6c69 206c 6874 2065     cannot kill the 
 801b234:	756e 6c6c 7020 6f72 6563 7373 000a 0000     null process....
 801b244:	7325 203a 6163 6e6e 746f 6b20 6c69 206c     %s: cannot kill 
 801b254:	7270 636f 7365 2073 6425 000a 6f4e 6120     process %d..No a
 801b264:	6772 6d75 6e65 7374 6120 6c6c 776f 6465     rguments allowed
 801b274:	000a 0000 6544 6976 6563 2020 2020 4e20     ....Device     N
 801b284:	6d61 2065 2020 2020 694d 6f6e 0a72 0000     ame     Minor...
 801b294:	2d2d 2d2d 2d2d 2d20 2d2d 2d2d 2d2d 2d2d     ------ ---------
 801b2a4:	2d2d 202d 2d2d 2d2d 0a2d 0000 3425 2064     --- -----...%4d 
 801b2b4:	2020 2d25 3231 2073 3325 0a64 0000 0000       %-12s %3d.....
 801b2c4:	7265 6f72 2072 6572 6f6d 6576 0a20 0000     error remove ...
 801b2d4:	6966 656c 6620 756f 646e 2520 0a73 0000     file found %s...
 801b2e4:	2020 7325 0909 6920 3a64 2520 0a64 0000       %s.. id: %d...
 801b2f4:	616e 656d 7073 6361 3a65 6420 7665 6369     namespace: devic
 801b304:	2065 616e 656d 2520 2073 6f74 206f 6f6c     e name %s too lo
 801b314:	676e 0a0d 0000 0000 616e 656d 7073 6361     ng......namespac
 801b324:	3a65 6320 6e61 6f6e 2074 6f6d 6e75 2074     e: cannot mount 
 801b334:	6564 6976 6563 2520 0d64 000a 642f 7665     device %d.../dev
 801b344:	002f 0000 0a0a 700d 6e61 6369 203a 7325     /......panic: %s
 801b354:	0a0a 0000 7953 6373 6c61 206c 6f6e 2074     ....Syscall not 
 801b364:	6d69 6c70 6d65 6e65 6574 3a64 2520 0a64     implemented: %d.
 801b374:	0000 0000 6c62 6e69 326b 000a 5245 4f52     ....blink2..ERRO
 801b384:	3a52 4620 6961 656c 2064 6f74 6920 696e     R: Failed to ini
 801b394:	2074 6966 656c 7320 7379 6574 0a6d 0000     t file system...
 801b3a4:	6166 3374 2032 2528 2964 2520 0a64 0000     fat32 (%d) %d...
 801b3b4:	7973 6373 6c61 206c 6e69 7469 000a 0000     syscall init....
 801b3c4:	6873 6c65 006c 0000 6166 3374 0032 0000     shell...fat32...
 801b3d4:	6c62 6e69 316b 000a 6c62 6e69 326b 0000     blink1..blink2..
 801b3e4:	656b 6e72 6c65 0000 7571 6e69 6574 6f72     kernel..quintero
 801b3f4:	0000 0000 6164 696e 6c65 0000 700a 6f72     ....daniel...pro
 801b404:	6563 7373 6820 7361 6320 6d6f 6c70 7465     cess has complet
 801b414:	6465 0a2e 0000 0000 3132 303a 3a33 3334     ed......21:03:43
 801b424:	0000 0000 754a 206e 3520 3220 3230 0034     ....Jun  5 2024.
 801b434:	7542 6c69 2064 6164 6574 203a 7325 2520     Build date: %s %
 801b444:	0a73 000a 3125 6430 6220 7479 7365 6f20     s...%10d bytes o
 801b454:	2066 7266 6565 6d20 6d65 726f 2e79 2020     f free memory.  
 801b464:	7246 6565 6c20 7369 3a74 000a 2020 2020     Free list:..    
 801b474:	2020 2020 2020 5b20 7830 3025 5838 7420            [0x%08X t
 801b484:	206f 7830 3025 5838 0a5d 0000 3125 6430     o 0x%08X]...%10d
 801b494:	6220 7479 7365 6f20 2066 6958 756e 6320      bytes of Xinu c
 801b4a4:	646f 2e65 000a 0000 3125 6430 6220 7479     ode.....%10d byt
 801b4b4:	7365 6f20 2066 6164 6174 0a2e 0000 0000     es of data......
 801b4c4:	2020 2020 2020 2020 2020 5b20 7830 3025                [0x%0
 801b4d4:	5838 7420 206f 7830 3025 5838 0a5d 000a     8X to 0x%08X]...
 801b4e4:	754e 6c6c 7020 6f72 6563 7373 0000 0000     Null process....
 801b4f4:	6f6c 706f 6e69 2e67 2e2e 7020 6572 7373     looping... press
 801b504:	7220 7365 7465 000a 4f43 534e 4c4f 0045      reset..CONSOLE.
 801b514:	554e 4c4c 4544 0056 414e 454d 5053 4341     NULLDEV.NAMESPAC
 801b524:	0045 0000 454c 0044 3257 5135 3231 0038     E...LED.W25Q128.
 801b534:	5453 4341 5b4b 6425 3a5d 2520 0a78 0000     STACK[%d]: %x...
 801b544:	6325 0000 3025 7832 0020 0000 3025 7838     %c..%02x ...%08x
 801b554:	0020 0000 7c20 0000 007c 0000 2020 7325      ... |..|...  %s
 801b564:	000a 0000 2020 3025 7834 0020 2520 3230     ....  %04x . %02
 801b574:	0078 0000 0a0a 6c41 206c 7375 7265 7020     x.....All user p
 801b584:	6f72 6563 7373 7365 6820 7661 2065 6f63     rocesses have co
 801b594:	706d 656c 6574 2e64 0a0a 0000 7265 6f72     mpleted.....erro
 801b5a4:	2072 6e69 7469 6d20 6d65 726f 0a79 0000     r init memory...
 801b5b4:	4146 3154 0036 0000 4146 3354 0032 0000     FAT16...FAT32...
 801b5c4:	4146 2054 6564 6174 6c69 3a73 0a0d 0000     FAT details:....
 801b5d4:	5420 7079 2065 253d 0073 0000 5220 6f6f      Type =%s... Roo
 801b5e4:	2074 6944 2072 6946 7372 2074 6c43 7375     t Dir First Clus
 801b5f4:	6574 2072 203d 7825 0a0d 0000 4620 5441     ter = %x.... FAT
 801b604:	4220 6765 6e69 4c20 4142 3d20 3020 2578      Begin LBA = 0x%
 801b614:	0d78 000a 4320 756c 7473 7265 4220 6765     x... Cluster Beg
 801b624:	6e69 4c20 4142 3d20 3020 2578 0d78 000a     in LBA = 0x%x...
 801b634:	5320 6365 6f74 7372 5020 7265 4320 756c      Sectors Per Clu
 801b644:	7473 7265 3d20 2520 0d64 000a 4146 5f54     ster = %d...FAT_
 801b654:	5346 203a 7245 6f72 2072 6f63 6c75 2064     FS: Error could 
 801b664:	6f6e 2074 6f6c 6461 4620 5441 6420 7465     not load FAT det
 801b674:	6961 736c 2820 6425 2129 0a0d 0000 0000     ails (%d)!......
 801b684:	0a0d 6944 6572 7463 726f 2079 7325 0a0d     ..Directory %s..
 801b694:	0000 0000                                   ....
